ARM GAS  /tmp/cckcEjTN.s 			page 1


   1              		.syntax unified
   2              		.cpu cortex-m4
   3              		.eabi_attribute 27, 1
   4              		.eabi_attribute 28, 1
   5              		.fpu fpv4-sp-d16
   6              		.eabi_attribute 20, 1
   7              		.eabi_attribute 21, 1
   8              		.eabi_attribute 23, 3
   9              		.eabi_attribute 24, 1
  10              		.eabi_attribute 25, 1
  11              		.eabi_attribute 26, 1
  12              		.eabi_attribute 30, 6
  13              		.eabi_attribute 34, 1
  14              		.eabi_attribute 18, 4
  15              		.thumb
  16              		.file	"adc.c"
  17              		.text
  18              	.Ltext0:
  19              		.cfi_sections	.debug_frame
  20              		.section	.text.port_lock,"ax",%progbits
  21              		.align	2
  22              		.p2align 4,,15
  23              		.thumb
  24              		.thumb_func
  25              		.type	port_lock, %function
  26              	port_lock:
  27              	.LFB116:
  28              		.file 1 "/home/makkmarci/workspace/CLEAN/ChibiOS/os/rt/ports/ARMCMx/chcore_v7m.h"
  29              		.loc 1 444 0
  30              		.cfi_startproc
  31              		@ args = 0, pretend = 0, frame = 8
  32              		@ frame_needed = 0, uses_anonymous_args = 0
  33              		@ link register save eliminated.
  34 0000 82B0     		sub	sp, sp, #8
  35              		.cfi_def_cfa_offset 8
  36 0002 2023     		movs	r3, #32
  37 0004 0193     		str	r3, [sp, #4]
  38              	.LBB6:
  39              	.LBB7:
  40              		.file 2 "/home/makkmarci/workspace/CLEAN/ChibiOS/os/ext/CMSIS/include/core_cmFunc.h"
  41              		.loc 2 546 0
  42 0006 019B     		ldr	r3, [sp, #4]
  43              	@ 546 "/home/makkmarci/workspace/CLEAN/ChibiOS/os/ext/CMSIS/include/core_cmFunc.h" 1
  44 0008 83F31188 		MSR basepri, r3
  45              	@ 0 "" 2
  46              		.thumb
  47              	.LBE7:
  48              	.LBE6:
  49              		.loc 1 451 0
  50 000c 02B0     		add	sp, sp, #8
  51              		.cfi_def_cfa_offset 0
  52              		@ sp needed
  53 000e 7047     		bx	lr
  54              		.cfi_endproc
  55              	.LFE116:
  56              		.size	port_lock, .-port_lock
  57              		.section	.text.port_unlock,"ax",%progbits
ARM GAS  /tmp/cckcEjTN.s 			page 2


  58              		.align	2
  59              		.p2align 4,,15
  60              		.thumb
  61              		.thumb_func
  62              		.type	port_unlock, %function
  63              	port_unlock:
  64              	.LFB117:
  65              		.loc 1 458 0
  66              		.cfi_startproc
  67              		@ args = 0, pretend = 0, frame = 8
  68              		@ frame_needed = 0, uses_anonymous_args = 0
  69              		@ link register save eliminated.
  70 0000 82B0     		sub	sp, sp, #8
  71              		.cfi_def_cfa_offset 8
  72 0002 0023     		movs	r3, #0
  73 0004 0193     		str	r3, [sp, #4]
  74              	.LBB8:
  75              	.LBB9:
  76              		.loc 2 546 0
  77 0006 019B     		ldr	r3, [sp, #4]
  78              	@ 546 "/home/makkmarci/workspace/CLEAN/ChibiOS/os/ext/CMSIS/include/core_cmFunc.h" 1
  79 0008 83F31188 		MSR basepri, r3
  80              	@ 0 "" 2
  81              		.thumb
  82              	.LBE9:
  83              	.LBE8:
  84              		.loc 1 465 0
  85 000c 02B0     		add	sp, sp, #8
  86              		.cfi_def_cfa_offset 0
  87              		@ sp needed
  88 000e 7047     		bx	lr
  89              		.cfi_endproc
  90              	.LFE117:
  91              		.size	port_unlock, .-port_unlock
  92              		.section	.text.chSysLock,"ax",%progbits
  93              		.align	2
  94              		.p2align 4,,15
  95              		.thumb
  96              		.thumb_func
  97              		.type	chSysLock, %function
  98              	chSysLock:
  99              	.LFB145:
 100              		.file 3 "/home/makkmarci/workspace/CLEAN/ChibiOS/os/rt/include/chsys.h"
 101              		.loc 3 346 0
 102              		.cfi_startproc
 103              		@ args = 0, pretend = 0, frame = 0
 104              		@ frame_needed = 0, uses_anonymous_args = 0
 105 0000 08B5     		push	{r3, lr}
 106              		.cfi_def_cfa_offset 8
 107              		.cfi_offset 3, -8
 108              		.cfi_offset 14, -4
 109              		.loc 3 348 0
 110 0002 FFF7FEFF 		bl	port_lock
 111              		.loc 3 351 0
 112 0006 08BD     		pop	{r3, pc}
 113              		.cfi_endproc
 114              	.LFE145:
ARM GAS  /tmp/cckcEjTN.s 			page 3


 115              		.size	chSysLock, .-chSysLock
 116              		.section	.text.chSysUnlock,"ax",%progbits
 117              		.align	2
 118              		.p2align 4,,15
 119              		.thumb
 120              		.thumb_func
 121              		.type	chSysUnlock, %function
 122              	chSysUnlock:
 123              	.LFB146:
 124              		.loc 3 358 0
 125              		.cfi_startproc
 126              		@ args = 0, pretend = 0, frame = 0
 127              		@ frame_needed = 0, uses_anonymous_args = 0
 128 0000 08B5     		push	{r3, lr}
 129              		.cfi_def_cfa_offset 8
 130              		.cfi_offset 3, -8
 131              		.cfi_offset 14, -4
 132              		.loc 3 371 0
 133 0002 FFF7FEFF 		bl	port_unlock
 134              		.loc 3 372 0
 135 0006 08BD     		pop	{r3, pc}
 136              		.cfi_endproc
 137              	.LFE146:
 138              		.size	chSysUnlock, .-chSysUnlock
 139 0008 AFF30080 		.section	.text.osalSysLock,"ax",%progbits
 139      AFF30080 
 140              		.align	2
 141              		.p2align 4,,15
 142              		.thumb
 143              		.thumb_func
 144              		.type	osalSysLock, %function
 145              	osalSysLock:
 146              	.LFB220:
 147              		.file 4 "/home/makkmarci/workspace/CLEAN/ChibiOS/os/hal/osal/rt/osal.h"
 148              		.loc 4 445 0
 149              		.cfi_startproc
 150              		@ args = 0, pretend = 0, frame = 0
 151              		@ frame_needed = 0, uses_anonymous_args = 0
 152 0000 08B5     		push	{r3, lr}
 153              		.cfi_def_cfa_offset 8
 154              		.cfi_offset 3, -8
 155              		.cfi_offset 14, -4
 156              		.loc 4 447 0
 157 0002 FFF7FEFF 		bl	chSysLock
 158              		.loc 4 448 0
 159 0006 08BD     		pop	{r3, pc}
 160              		.cfi_endproc
 161              	.LFE220:
 162              		.size	osalSysLock, .-osalSysLock
 163              		.section	.text.osalSysUnlock,"ax",%progbits
 164              		.align	2
 165              		.p2align 4,,15
 166              		.thumb
 167              		.thumb_func
 168              		.type	osalSysUnlock, %function
 169              	osalSysUnlock:
 170              	.LFB221:
ARM GAS  /tmp/cckcEjTN.s 			page 4


 171              		.loc 4 456 0
 172              		.cfi_startproc
 173              		@ args = 0, pretend = 0, frame = 0
 174              		@ frame_needed = 0, uses_anonymous_args = 0
 175 0000 08B5     		push	{r3, lr}
 176              		.cfi_def_cfa_offset 8
 177              		.cfi_offset 3, -8
 178              		.cfi_offset 14, -4
 179              		.loc 4 458 0
 180 0002 FFF7FEFF 		bl	chSysUnlock
 181              		.loc 4 459 0
 182 0006 08BD     		pop	{r3, pc}
 183              		.cfi_endproc
 184              	.LFE221:
 185              		.size	osalSysUnlock, .-osalSysUnlock
 186 0008 AFF30080 		.section	.text.osalThreadSuspendS,"ax",%progbits
 186      AFF30080 
 187              		.align	2
 188              		.p2align 4,,15
 189              		.thumb
 190              		.thumb_func
 191              		.type	osalThreadSuspendS, %function
 192              	osalThreadSuspendS:
 193              	.LFB233:
 194              		.loc 4 640 0
 195              		.cfi_startproc
 196              		@ args = 0, pretend = 0, frame = 8
 197              		@ frame_needed = 0, uses_anonymous_args = 0
 198 0000 00B5     		push	{lr}
 199              		.cfi_def_cfa_offset 4
 200              		.cfi_offset 14, -4
 201 0002 83B0     		sub	sp, sp, #12
 202              		.cfi_def_cfa_offset 16
 203 0004 0190     		str	r0, [sp, #4]
 204              		.loc 4 642 0
 205 0006 0198     		ldr	r0, [sp, #4]
 206 0008 FFF7FEFF 		bl	chThdSuspendS
 207 000c 0346     		mov	r3, r0
 208              		.loc 4 643 0
 209 000e 1846     		mov	r0, r3
 210 0010 03B0     		add	sp, sp, #12
 211              		.cfi_def_cfa_offset 4
 212              		@ sp needed
 213 0012 5DF804FB 		ldr	pc, [sp], #4
 214              		.cfi_endproc
 215              	.LFE233:
 216              		.size	osalThreadSuspendS, .-osalThreadSuspendS
 217 0016 00BFAFF3 		.section	.text.osalThreadResumeI,"ax",%progbits
 217      0080AFF3 
 217      0080
 218              		.align	2
 219              		.p2align 4,,15
 220              		.thumb
 221              		.thumb_func
 222              		.type	osalThreadResumeI, %function
 223              	osalThreadResumeI:
 224              	.LFB235:
ARM GAS  /tmp/cckcEjTN.s 			page 5


 225              		.loc 4 680 0
 226              		.cfi_startproc
 227              		@ args = 0, pretend = 0, frame = 8
 228              		@ frame_needed = 0, uses_anonymous_args = 0
 229 0000 00B5     		push	{lr}
 230              		.cfi_def_cfa_offset 4
 231              		.cfi_offset 14, -4
 232 0002 83B0     		sub	sp, sp, #12
 233              		.cfi_def_cfa_offset 16
 234 0004 0190     		str	r0, [sp, #4]
 235 0006 0091     		str	r1, [sp]
 236              		.loc 4 682 0
 237 0008 0198     		ldr	r0, [sp, #4]
 238 000a 0099     		ldr	r1, [sp]
 239 000c FFF7FEFF 		bl	chThdResumeI
 240              		.loc 4 683 0
 241 0010 03B0     		add	sp, sp, #12
 242              		.cfi_def_cfa_offset 4
 243              		@ sp needed
 244 0012 5DF804FB 		ldr	pc, [sp], #4
 245              		.cfi_endproc
 246              	.LFE235:
 247              		.size	osalThreadResumeI, .-osalThreadResumeI
 248 0016 00BFAFF3 		.section	.text.osalThreadResumeS,"ax",%progbits
 248      0080AFF3 
 248      0080
 249              		.align	2
 250              		.p2align 4,,15
 251              		.thumb
 252              		.thumb_func
 253              		.type	osalThreadResumeS, %function
 254              	osalThreadResumeS:
 255              	.LFB236:
 256              		.loc 4 695 0
 257              		.cfi_startproc
 258              		@ args = 0, pretend = 0, frame = 8
 259              		@ frame_needed = 0, uses_anonymous_args = 0
 260 0000 00B5     		push	{lr}
 261              		.cfi_def_cfa_offset 4
 262              		.cfi_offset 14, -4
 263 0002 83B0     		sub	sp, sp, #12
 264              		.cfi_def_cfa_offset 16
 265 0004 0190     		str	r0, [sp, #4]
 266 0006 0091     		str	r1, [sp]
 267              		.loc 4 697 0
 268 0008 0198     		ldr	r0, [sp, #4]
 269 000a 0099     		ldr	r1, [sp]
 270 000c FFF7FEFF 		bl	chThdResumeS
 271              		.loc 4 698 0
 272 0010 03B0     		add	sp, sp, #12
 273              		.cfi_def_cfa_offset 4
 274              		@ sp needed
 275 0012 5DF804FB 		ldr	pc, [sp], #4
 276              		.cfi_endproc
 277              	.LFE236:
 278              		.size	osalThreadResumeS, .-osalThreadResumeS
 279 0016 00BFAFF3 		.section	.text.osalMutexObjectInit,"ax",%progbits
ARM GAS  /tmp/cckcEjTN.s 			page 6


 279      0080AFF3 
 279      0080
 280              		.align	2
 281              		.p2align 4,,15
 282              		.thumb
 283              		.thumb_func
 284              		.type	osalMutexObjectInit, %function
 285              	osalMutexObjectInit:
 286              	.LFB244:
 287              		.loc 4 838 0
 288              		.cfi_startproc
 289              		@ args = 0, pretend = 0, frame = 8
 290              		@ frame_needed = 0, uses_anonymous_args = 0
 291 0000 00B5     		push	{lr}
 292              		.cfi_def_cfa_offset 4
 293              		.cfi_offset 14, -4
 294 0002 83B0     		sub	sp, sp, #12
 295              		.cfi_def_cfa_offset 16
 296 0004 0190     		str	r0, [sp, #4]
 297              		.loc 4 841 0
 298 0006 0198     		ldr	r0, [sp, #4]
 299 0008 FFF7FEFF 		bl	chMtxObjectInit
 300              		.loc 4 847 0
 301 000c 03B0     		add	sp, sp, #12
 302              		.cfi_def_cfa_offset 4
 303              		@ sp needed
 304 000e 5DF804FB 		ldr	pc, [sp], #4
 305              		.cfi_endproc
 306              	.LFE244:
 307              		.size	osalMutexObjectInit, .-osalMutexObjectInit
 308 0012 00BFAFF3 		.section	.text.osalMutexLock,"ax",%progbits
 308      0080AFF3 
 308      0080AFF3 
 308      0080
 309              		.align	2
 310              		.p2align 4,,15
 311              		.thumb
 312              		.thumb_func
 313              		.type	osalMutexLock, %function
 314              	osalMutexLock:
 315              	.LFB245:
 316              		.loc 4 858 0
 317              		.cfi_startproc
 318              		@ args = 0, pretend = 0, frame = 8
 319              		@ frame_needed = 0, uses_anonymous_args = 0
 320 0000 00B5     		push	{lr}
 321              		.cfi_def_cfa_offset 4
 322              		.cfi_offset 14, -4
 323 0002 83B0     		sub	sp, sp, #12
 324              		.cfi_def_cfa_offset 16
 325 0004 0190     		str	r0, [sp, #4]
 326              		.loc 4 861 0
 327 0006 0198     		ldr	r0, [sp, #4]
 328 0008 FFF7FEFF 		bl	chMtxLock
 329              		.loc 4 867 0
 330 000c 03B0     		add	sp, sp, #12
 331              		.cfi_def_cfa_offset 4
ARM GAS  /tmp/cckcEjTN.s 			page 7


 332              		@ sp needed
 333 000e 5DF804FB 		ldr	pc, [sp], #4
 334              		.cfi_endproc
 335              	.LFE245:
 336              		.size	osalMutexLock, .-osalMutexLock
 337 0012 00BFAFF3 		.section	.text.osalMutexUnlock,"ax",%progbits
 337      0080AFF3 
 337      0080AFF3 
 337      0080
 338              		.align	2
 339              		.p2align 4,,15
 340              		.thumb
 341              		.thumb_func
 342              		.type	osalMutexUnlock, %function
 343              	osalMutexUnlock:
 344              	.LFB246:
 345              		.loc 4 882 0
 346              		.cfi_startproc
 347              		@ args = 0, pretend = 0, frame = 8
 348              		@ frame_needed = 0, uses_anonymous_args = 0
 349 0000 00B5     		push	{lr}
 350              		.cfi_def_cfa_offset 4
 351              		.cfi_offset 14, -4
 352 0002 83B0     		sub	sp, sp, #12
 353              		.cfi_def_cfa_offset 16
 354 0004 0190     		str	r0, [sp, #4]
 355              		.loc 4 885 0
 356 0006 0198     		ldr	r0, [sp, #4]
 357 0008 FFF7FEFF 		bl	chMtxUnlock
 358              		.loc 4 891 0
 359 000c 03B0     		add	sp, sp, #12
 360              		.cfi_def_cfa_offset 4
 361              		@ sp needed
 362 000e 5DF804FB 		ldr	pc, [sp], #4
 363              		.cfi_endproc
 364              	.LFE246:
 365              		.size	osalMutexUnlock, .-osalMutexUnlock
 366 0012 00BFAFF3 		.section	.text.adcInit,"ax",%progbits
 366      0080AFF3 
 366      0080AFF3 
 366      0080
 367              		.align	2
 368              		.p2align 4,,15
 369              		.global	adcInit
 370              		.thumb
 371              		.thumb_func
 372              		.type	adcInit, %function
 373              	adcInit:
 374              	.LFB253:
 375              		.file 5 "/home/makkmarci/workspace/CLEAN/ChibiOS/os/hal/src/adc.c"
 376              		.loc 5 56 0
 377              		.cfi_startproc
 378              		@ args = 0, pretend = 0, frame = 0
 379              		@ frame_needed = 0, uses_anonymous_args = 0
 380 0000 08B5     		push	{r3, lr}
 381              		.cfi_def_cfa_offset 8
 382              		.cfi_offset 3, -8
ARM GAS  /tmp/cckcEjTN.s 			page 8


 383              		.cfi_offset 14, -4
 384              		.loc 5 58 0
 385 0002 FFF7FEFF 		bl	adc_lld_init
 386              		.loc 5 59 0
 387 0006 08BD     		pop	{r3, pc}
 388              		.cfi_endproc
 389              	.LFE253:
 390              		.size	adcInit, .-adcInit
 391 0008 AFF30080 		.section	.text.adcObjectInit,"ax",%progbits
 391      AFF30080 
 392              		.align	2
 393              		.p2align 4,,15
 394              		.global	adcObjectInit
 395              		.thumb
 396              		.thumb_func
 397              		.type	adcObjectInit, %function
 398              	adcObjectInit:
 399              	.LFB254:
 400              		.loc 5 68 0
 401              		.cfi_startproc
 402              		@ args = 0, pretend = 0, frame = 8
 403              		@ frame_needed = 0, uses_anonymous_args = 0
 404 0000 00B5     		push	{lr}
 405              		.cfi_def_cfa_offset 4
 406              		.cfi_offset 14, -4
 407 0002 83B0     		sub	sp, sp, #12
 408              		.cfi_def_cfa_offset 16
 409 0004 0190     		str	r0, [sp, #4]
 410              		.loc 5 70 0
 411 0006 019B     		ldr	r3, [sp, #4]
 412 0008 0122     		movs	r2, #1
 413 000a 1A70     		strb	r2, [r3]
 414              		.loc 5 71 0
 415 000c 019B     		ldr	r3, [sp, #4]
 416 000e 0022     		movs	r2, #0
 417 0010 5A60     		str	r2, [r3, #4]
 418              		.loc 5 72 0
 419 0012 019B     		ldr	r3, [sp, #4]
 420 0014 0022     		movs	r2, #0
 421 0016 9A60     		str	r2, [r3, #8]
 422              		.loc 5 73 0
 423 0018 019B     		ldr	r3, [sp, #4]
 424 001a 0022     		movs	r2, #0
 425 001c DA60     		str	r2, [r3, #12]
 426              		.loc 5 74 0
 427 001e 019B     		ldr	r3, [sp, #4]
 428 0020 0022     		movs	r2, #0
 429 0022 1A61     		str	r2, [r3, #16]
 430              		.loc 5 76 0
 431 0024 019B     		ldr	r3, [sp, #4]
 432 0026 0022     		movs	r2, #0
 433 0028 5A61     		str	r2, [r3, #20]
 434              		.loc 5 79 0
 435 002a 019B     		ldr	r3, [sp, #4]
 436 002c 1833     		adds	r3, r3, #24
 437 002e 1846     		mov	r0, r3
 438 0030 FFF7FEFF 		bl	osalMutexObjectInit
ARM GAS  /tmp/cckcEjTN.s 			page 9


 439              		.loc 5 84 0
 440 0034 03B0     		add	sp, sp, #12
 441              		.cfi_def_cfa_offset 4
 442              		@ sp needed
 443 0036 5DF804FB 		ldr	pc, [sp], #4
 444              		.cfi_endproc
 445              	.LFE254:
 446              		.size	adcObjectInit, .-adcObjectInit
 447 003a 00BFAFF3 		.section	.text.adcStart,"ax",%progbits
 447      0080
 448              		.align	2
 449              		.p2align 4,,15
 450              		.global	adcStart
 451              		.thumb
 452              		.thumb_func
 453              		.type	adcStart, %function
 454              	adcStart:
 455              	.LFB255:
 456              		.loc 5 95 0
 457              		.cfi_startproc
 458              		@ args = 0, pretend = 0, frame = 8
 459              		@ frame_needed = 0, uses_anonymous_args = 0
 460 0000 00B5     		push	{lr}
 461              		.cfi_def_cfa_offset 4
 462              		.cfi_offset 14, -4
 463 0002 83B0     		sub	sp, sp, #12
 464              		.cfi_def_cfa_offset 16
 465 0004 0190     		str	r0, [sp, #4]
 466 0006 0091     		str	r1, [sp]
 467              		.loc 5 99 0
 468 0008 FFF7FEFF 		bl	osalSysLock
 469              		.loc 5 102 0
 470 000c 019B     		ldr	r3, [sp, #4]
 471 000e 009A     		ldr	r2, [sp]
 472 0010 5A60     		str	r2, [r3, #4]
 473              		.loc 5 103 0
 474 0012 0198     		ldr	r0, [sp, #4]
 475 0014 FFF7FEFF 		bl	adc_lld_start
 476              		.loc 5 104 0
 477 0018 019B     		ldr	r3, [sp, #4]
 478 001a 0222     		movs	r2, #2
 479 001c 1A70     		strb	r2, [r3]
 480              		.loc 5 105 0
 481 001e FFF7FEFF 		bl	osalSysUnlock
 482              		.loc 5 106 0
 483 0022 03B0     		add	sp, sp, #12
 484              		.cfi_def_cfa_offset 4
 485              		@ sp needed
 486 0024 5DF804FB 		ldr	pc, [sp], #4
 487              		.cfi_endproc
 488              	.LFE255:
 489              		.size	adcStart, .-adcStart
 490 0028 AFF30080 		.section	.text.adcStop,"ax",%progbits
 490      AFF30080 
 491              		.align	2
 492              		.p2align 4,,15
 493              		.global	adcStop
ARM GAS  /tmp/cckcEjTN.s 			page 10


 494              		.thumb
 495              		.thumb_func
 496              		.type	adcStop, %function
 497              	adcStop:
 498              	.LFB256:
 499              		.loc 5 115 0
 500              		.cfi_startproc
 501              		@ args = 0, pretend = 0, frame = 8
 502              		@ frame_needed = 0, uses_anonymous_args = 0
 503 0000 00B5     		push	{lr}
 504              		.cfi_def_cfa_offset 4
 505              		.cfi_offset 14, -4
 506 0002 83B0     		sub	sp, sp, #12
 507              		.cfi_def_cfa_offset 16
 508 0004 0190     		str	r0, [sp, #4]
 509              		.loc 5 119 0
 510 0006 FFF7FEFF 		bl	osalSysLock
 511              		.loc 5 122 0
 512 000a 0198     		ldr	r0, [sp, #4]
 513 000c FFF7FEFF 		bl	adc_lld_stop
 514              		.loc 5 123 0
 515 0010 019B     		ldr	r3, [sp, #4]
 516 0012 0122     		movs	r2, #1
 517 0014 1A70     		strb	r2, [r3]
 518              		.loc 5 124 0
 519 0016 FFF7FEFF 		bl	osalSysUnlock
 520              		.loc 5 125 0
 521 001a 03B0     		add	sp, sp, #12
 522              		.cfi_def_cfa_offset 4
 523              		@ sp needed
 524 001c 5DF804FB 		ldr	pc, [sp], #4
 525              		.cfi_endproc
 526              	.LFE256:
 527              		.size	adcStop, .-adcStop
 528              		.section	.text.adcStartConversion,"ax",%progbits
 529              		.align	2
 530              		.p2align 4,,15
 531              		.global	adcStartConversion
 532              		.thumb
 533              		.thumb_func
 534              		.type	adcStartConversion, %function
 535              	adcStartConversion:
 536              	.LFB257:
 537              		.loc 5 146 0
 538              		.cfi_startproc
 539              		@ args = 0, pretend = 0, frame = 16
 540              		@ frame_needed = 0, uses_anonymous_args = 0
 541 0000 00B5     		push	{lr}
 542              		.cfi_def_cfa_offset 4
 543              		.cfi_offset 14, -4
 544 0002 85B0     		sub	sp, sp, #20
 545              		.cfi_def_cfa_offset 24
 546 0004 0390     		str	r0, [sp, #12]
 547 0006 0291     		str	r1, [sp, #8]
 548 0008 0192     		str	r2, [sp, #4]
 549 000a 0093     		str	r3, [sp]
 550              		.loc 5 148 0
ARM GAS  /tmp/cckcEjTN.s 			page 11


 551 000c FFF7FEFF 		bl	osalSysLock
 552              		.loc 5 149 0
 553 0010 0398     		ldr	r0, [sp, #12]
 554 0012 0299     		ldr	r1, [sp, #8]
 555 0014 019A     		ldr	r2, [sp, #4]
 556 0016 009B     		ldr	r3, [sp]
 557 0018 FFF7FEFF 		bl	adcStartConversionI
 558              		.loc 5 150 0
 559 001c FFF7FEFF 		bl	osalSysUnlock
 560              		.loc 5 151 0
 561 0020 05B0     		add	sp, sp, #20
 562              		.cfi_def_cfa_offset 4
 563              		@ sp needed
 564 0022 5DF804FB 		ldr	pc, [sp], #4
 565              		.cfi_endproc
 566              	.LFE257:
 567              		.size	adcStartConversion, .-adcStartConversion
 568 0026 00BFAFF3 		.section	.text.adcStartConversionI,"ax",%progbits
 568      0080AFF3 
 568      0080
 569              		.align	2
 570              		.p2align 4,,15
 571              		.global	adcStartConversionI
 572              		.thumb
 573              		.thumb_func
 574              		.type	adcStartConversionI, %function
 575              	adcStartConversionI:
 576              	.LFB258:
 577              		.loc 5 174 0
 578              		.cfi_startproc
 579              		@ args = 0, pretend = 0, frame = 16
 580              		@ frame_needed = 0, uses_anonymous_args = 0
 581 0000 00B5     		push	{lr}
 582              		.cfi_def_cfa_offset 4
 583              		.cfi_offset 14, -4
 584 0002 85B0     		sub	sp, sp, #20
 585              		.cfi_def_cfa_offset 24
 586 0004 0390     		str	r0, [sp, #12]
 587 0006 0291     		str	r1, [sp, #8]
 588 0008 0192     		str	r2, [sp, #4]
 589 000a 0093     		str	r3, [sp]
 590              		.loc 5 184 0
 591 000c 039B     		ldr	r3, [sp, #12]
 592 000e 019A     		ldr	r2, [sp, #4]
 593 0010 9A60     		str	r2, [r3, #8]
 594              		.loc 5 185 0
 595 0012 039B     		ldr	r3, [sp, #12]
 596 0014 009A     		ldr	r2, [sp]
 597 0016 DA60     		str	r2, [r3, #12]
 598              		.loc 5 186 0
 599 0018 039B     		ldr	r3, [sp, #12]
 600 001a 029A     		ldr	r2, [sp, #8]
 601 001c 1A61     		str	r2, [r3, #16]
 602              		.loc 5 187 0
 603 001e 039B     		ldr	r3, [sp, #12]
 604 0020 0322     		movs	r2, #3
 605 0022 1A70     		strb	r2, [r3]
ARM GAS  /tmp/cckcEjTN.s 			page 12


 606              		.loc 5 188 0
 607 0024 0398     		ldr	r0, [sp, #12]
 608 0026 FFF7FEFF 		bl	adc_lld_start_conversion
 609              		.loc 5 189 0
 610 002a 05B0     		add	sp, sp, #20
 611              		.cfi_def_cfa_offset 4
 612              		@ sp needed
 613 002c 5DF804FB 		ldr	pc, [sp], #4
 614              		.cfi_endproc
 615              	.LFE258:
 616              		.size	adcStartConversionI, .-adcStartConversionI
 617              		.section	.text.adcStopConversion,"ax",%progbits
 618              		.align	2
 619              		.p2align 4,,15
 620              		.global	adcStopConversion
 621              		.thumb
 622              		.thumb_func
 623              		.type	adcStopConversion, %function
 624              	adcStopConversion:
 625              	.LFB259:
 626              		.loc 5 201 0
 627              		.cfi_startproc
 628              		@ args = 0, pretend = 0, frame = 8
 629              		@ frame_needed = 0, uses_anonymous_args = 0
 630 0000 00B5     		push	{lr}
 631              		.cfi_def_cfa_offset 4
 632              		.cfi_offset 14, -4
 633 0002 83B0     		sub	sp, sp, #12
 634              		.cfi_def_cfa_offset 16
 635 0004 0190     		str	r0, [sp, #4]
 636              		.loc 5 205 0
 637 0006 FFF7FEFF 		bl	osalSysLock
 638              		.loc 5 208 0
 639 000a 019B     		ldr	r3, [sp, #4]
 640 000c 1B78     		ldrb	r3, [r3]	@ zero_extendqisi2
 641 000e 022B     		cmp	r3, #2
 642 0010 0FD0     		beq	.L21
 643              		.loc 5 209 0
 644 0012 0198     		ldr	r0, [sp, #4]
 645 0014 FFF7FEFF 		bl	adc_lld_stop_conversion
 646              		.loc 5 210 0
 647 0018 019B     		ldr	r3, [sp, #4]
 648 001a 0022     		movs	r2, #0
 649 001c 1A61     		str	r2, [r3, #16]
 650              		.loc 5 211 0
 651 001e 019B     		ldr	r3, [sp, #4]
 652 0020 0222     		movs	r2, #2
 653 0022 1A70     		strb	r2, [r3]
 654              		.loc 5 212 0
 655 0024 019B     		ldr	r3, [sp, #4]
 656 0026 1433     		adds	r3, r3, #20
 657 0028 1846     		mov	r0, r3
 658 002a 6FF00101 		mvn	r1, #1
 659 002e FFF7FEFF 		bl	osalThreadResumeS
 660              	.L21:
 661              		.loc 5 214 0
 662 0032 FFF7FEFF 		bl	osalSysUnlock
ARM GAS  /tmp/cckcEjTN.s 			page 13


 663              		.loc 5 215 0
 664 0036 03B0     		add	sp, sp, #12
 665              		.cfi_def_cfa_offset 4
 666              		@ sp needed
 667 0038 5DF804FB 		ldr	pc, [sp], #4
 668              		.cfi_endproc
 669              	.LFE259:
 670              		.size	adcStopConversion, .-adcStopConversion
 671 003c AFF30080 		.section	.text.adcStopConversionI,"ax",%progbits
 672              		.align	2
 673              		.p2align 4,,15
 674              		.global	adcStopConversionI
 675              		.thumb
 676              		.thumb_func
 677              		.type	adcStopConversionI, %function
 678              	adcStopConversionI:
 679              	.LFB260:
 680              		.loc 5 227 0
 681              		.cfi_startproc
 682              		@ args = 0, pretend = 0, frame = 8
 683              		@ frame_needed = 0, uses_anonymous_args = 0
 684 0000 00B5     		push	{lr}
 685              		.cfi_def_cfa_offset 4
 686              		.cfi_offset 14, -4
 687 0002 83B0     		sub	sp, sp, #12
 688              		.cfi_def_cfa_offset 16
 689 0004 0190     		str	r0, [sp, #4]
 690              		.loc 5 236 0
 691 0006 019B     		ldr	r3, [sp, #4]
 692 0008 1B78     		ldrb	r3, [r3]	@ zero_extendqisi2
 693 000a 022B     		cmp	r3, #2
 694 000c 0FD0     		beq	.L22
 695              		.loc 5 237 0
 696 000e 0198     		ldr	r0, [sp, #4]
 697 0010 FFF7FEFF 		bl	adc_lld_stop_conversion
 698              		.loc 5 238 0
 699 0014 019B     		ldr	r3, [sp, #4]
 700 0016 0022     		movs	r2, #0
 701 0018 1A61     		str	r2, [r3, #16]
 702              		.loc 5 239 0
 703 001a 019B     		ldr	r3, [sp, #4]
 704 001c 0222     		movs	r2, #2
 705 001e 1A70     		strb	r2, [r3]
 706              		.loc 5 240 0
 707 0020 019B     		ldr	r3, [sp, #4]
 708 0022 1433     		adds	r3, r3, #20
 709 0024 1846     		mov	r0, r3
 710 0026 6FF00101 		mvn	r1, #1
 711 002a FFF7FEFF 		bl	osalThreadResumeI
 712              	.L22:
 713              		.loc 5 242 0
 714 002e 03B0     		add	sp, sp, #12
 715              		.cfi_def_cfa_offset 4
 716              		@ sp needed
 717 0030 5DF804FB 		ldr	pc, [sp], #4
 718              		.cfi_endproc
 719              	.LFE260:
ARM GAS  /tmp/cckcEjTN.s 			page 14


 720              		.size	adcStopConversionI, .-adcStopConversionI
 721 0034 AFF30080 		.section	.text.adcConvert,"ax",%progbits
 721      AFF30080 
 721      AFF30080 
 722              		.align	2
 723              		.p2align 4,,15
 724              		.global	adcConvert
 725              		.thumb
 726              		.thumb_func
 727              		.type	adcConvert, %function
 728              	adcConvert:
 729              	.LFB261:
 730              		.loc 5 271 0
 731              		.cfi_startproc
 732              		@ args = 0, pretend = 0, frame = 24
 733              		@ frame_needed = 0, uses_anonymous_args = 0
 734 0000 00B5     		push	{lr}
 735              		.cfi_def_cfa_offset 4
 736              		.cfi_offset 14, -4
 737 0002 87B0     		sub	sp, sp, #28
 738              		.cfi_def_cfa_offset 32
 739 0004 0390     		str	r0, [sp, #12]
 740 0006 0291     		str	r1, [sp, #8]
 741 0008 0192     		str	r2, [sp, #4]
 742 000a 0093     		str	r3, [sp]
 743              		.loc 5 274 0
 744 000c FFF7FEFF 		bl	osalSysLock
 745              		.loc 5 276 0
 746 0010 0398     		ldr	r0, [sp, #12]
 747 0012 0299     		ldr	r1, [sp, #8]
 748 0014 019A     		ldr	r2, [sp, #4]
 749 0016 009B     		ldr	r3, [sp]
 750 0018 FFF7FEFF 		bl	adcStartConversionI
 751              		.loc 5 277 0
 752 001c 039B     		ldr	r3, [sp, #12]
 753 001e 1433     		adds	r3, r3, #20
 754 0020 1846     		mov	r0, r3
 755 0022 FFF7FEFF 		bl	osalThreadSuspendS
 756 0026 0590     		str	r0, [sp, #20]
 757              		.loc 5 278 0
 758 0028 FFF7FEFF 		bl	osalSysUnlock
 759              		.loc 5 279 0
 760 002c 059B     		ldr	r3, [sp, #20]
 761              		.loc 5 280 0
 762 002e 1846     		mov	r0, r3
 763 0030 07B0     		add	sp, sp, #28
 764              		.cfi_def_cfa_offset 4
 765              		@ sp needed
 766 0032 5DF804FB 		ldr	pc, [sp], #4
 767              		.cfi_endproc
 768              	.LFE261:
 769              		.size	adcConvert, .-adcConvert
 770 0036 00BFAFF3 		.section	.text.adcAcquireBus,"ax",%progbits
 770      0080AFF3 
 770      0080
 771              		.align	2
 772              		.p2align 4,,15
ARM GAS  /tmp/cckcEjTN.s 			page 15


 773              		.global	adcAcquireBus
 774              		.thumb
 775              		.thumb_func
 776              		.type	adcAcquireBus, %function
 777              	adcAcquireBus:
 778              	.LFB262:
 779              		.loc 5 295 0
 780              		.cfi_startproc
 781              		@ args = 0, pretend = 0, frame = 8
 782              		@ frame_needed = 0, uses_anonymous_args = 0
 783 0000 00B5     		push	{lr}
 784              		.cfi_def_cfa_offset 4
 785              		.cfi_offset 14, -4
 786 0002 83B0     		sub	sp, sp, #12
 787              		.cfi_def_cfa_offset 16
 788 0004 0190     		str	r0, [sp, #4]
 789              		.loc 5 299 0
 790 0006 019B     		ldr	r3, [sp, #4]
 791 0008 1833     		adds	r3, r3, #24
 792 000a 1846     		mov	r0, r3
 793 000c FFF7FEFF 		bl	osalMutexLock
 794              		.loc 5 300 0
 795 0010 03B0     		add	sp, sp, #12
 796              		.cfi_def_cfa_offset 4
 797              		@ sp needed
 798 0012 5DF804FB 		ldr	pc, [sp], #4
 799              		.cfi_endproc
 800              	.LFE262:
 801              		.size	adcAcquireBus, .-adcAcquireBus
 802 0016 00BFAFF3 		.section	.text.adcReleaseBus,"ax",%progbits
 802      0080AFF3 
 802      0080
 803              		.align	2
 804              		.p2align 4,,15
 805              		.global	adcReleaseBus
 806              		.thumb
 807              		.thumb_func
 808              		.type	adcReleaseBus, %function
 809              	adcReleaseBus:
 810              	.LFB263:
 811              		.loc 5 311 0
 812              		.cfi_startproc
 813              		@ args = 0, pretend = 0, frame = 8
 814              		@ frame_needed = 0, uses_anonymous_args = 0
 815 0000 00B5     		push	{lr}
 816              		.cfi_def_cfa_offset 4
 817              		.cfi_offset 14, -4
 818 0002 83B0     		sub	sp, sp, #12
 819              		.cfi_def_cfa_offset 16
 820 0004 0190     		str	r0, [sp, #4]
 821              		.loc 5 315 0
 822 0006 019B     		ldr	r3, [sp, #4]
 823 0008 1833     		adds	r3, r3, #24
 824 000a 1846     		mov	r0, r3
 825 000c FFF7FEFF 		bl	osalMutexUnlock
 826              		.loc 5 316 0
 827 0010 03B0     		add	sp, sp, #12
ARM GAS  /tmp/cckcEjTN.s 			page 16


 828              		.cfi_def_cfa_offset 4
 829              		@ sp needed
 830 0012 5DF804FB 		ldr	pc, [sp], #4
 831              		.cfi_endproc
 832              	.LFE263:
 833              		.size	adcReleaseBus, .-adcReleaseBus
 834 0016 00BFAFF3 		.text
 834      0080AFF3 
 834      0080
 835              	.Letext0:
 836              		.file 6 "/opt/gcc-arm-none-eabi/lib/gcc/arm-none-eabi/4.9.3/include/stddef.h"
 837              		.file 7 "/opt/gcc-arm-none-eabi/arm-none-eabi/include/machine/_default_types.h"
 838              		.file 8 "/opt/gcc-arm-none-eabi/arm-none-eabi/include/stdint.h"
 839              		.file 9 "/home/makkmarci/workspace/CLEAN/ChibiOS/os/rt/ports/ARMCMx/compilers/GCC/chtypes.h"
 840              		.file 10 "/home/makkmarci/workspace/CLEAN/ChibiOS/os/rt/include/chsystypes.h"
 841              		.file 11 "/home/makkmarci/workspace/CLEAN/ChibiOS/os/rt/include/chschd.h"
 842              		.file 12 "/home/makkmarci/workspace/CLEAN/ChibiOS/os/ext/CMSIS/ST/stm32f407xx.h"
 843              		.file 13 "/home/makkmarci/workspace/CLEAN/ChibiOS/os/rt/ports/ARMCMx/chcore.h"
 844              		.file 14 "/home/makkmarci/workspace/CLEAN/ChibiOS/os/rt/include/chtm.h"
 845              		.file 15 "/home/makkmarci/workspace/CLEAN/ChibiOS/os/rt/include/chsem.h"
 846              		.file 16 "/home/makkmarci/workspace/CLEAN/ChibiOS/os/rt/include/chmtx.h"
 847              		.file 17 "/home/makkmarci/workspace/CLEAN/ChibiOS/os/hal/ports/STM32/STM32F4xx/stm32_dma.h"
 848              		.file 18 "/home/makkmarci/workspace/CLEAN/ChibiOS/os/hal/include/adc.h"
 849              		.file 19 "/home/makkmarci/workspace/CLEAN/ChibiOS/os/hal/ports/STM32/STM32F4xx/adc_lld.h"
 850              		.file 20 "/home/makkmarci/workspace/CLEAN/ChibiOS/os/ext/CMSIS/include/core_cm4.h"