ARM GAS  /tmp/cciR6ge5.s 			page 1


   1              		.syntax unified
   2              		.cpu cortex-m4
   3              		.eabi_attribute 27, 1
   4              		.eabi_attribute 28, 1
   5              		.fpu fpv4-sp-d16
   6              		.eabi_attribute 20, 1
   7              		.eabi_attribute 21, 1
   8              		.eabi_attribute 23, 3
   9              		.eabi_attribute 24, 1
  10              		.eabi_attribute 25, 1
  11              		.eabi_attribute 26, 1
  12              		.eabi_attribute 30, 6
  13              		.eabi_attribute 34, 1
  14              		.eabi_attribute 18, 4
  15              		.thumb
  16              		.file	"adc_lld.c"
  17              		.text
  18              	.Ltext0:
  19              		.cfi_sections	.debug_frame
  20              		.section	.text.port_lock,"ax",%progbits
  21              		.align	2
  22              		.p2align 4,,15
  23              		.thumb
  24              		.thumb_func
  25              		.type	port_lock, %function
  26              	port_lock:
  27              	.LFB116:
  28              		.file 1 "/home/makkmarci/workspace/CLEAN/ChibiOS/os/rt/ports/ARMCMx/chcore_v7m.h"
  29              		.loc 1 444 0
  30              		.cfi_startproc
  31              		@ args = 0, pretend = 0, frame = 8
  32              		@ frame_needed = 0, uses_anonymous_args = 0
  33              		@ link register save eliminated.
  34 0000 82B0     		sub	sp, sp, #8
  35              		.cfi_def_cfa_offset 8
  36 0002 2023     		movs	r3, #32
  37 0004 0193     		str	r3, [sp, #4]
  38              	.LBB6:
  39              	.LBB7:
  40              		.file 2 "/home/makkmarci/workspace/CLEAN/ChibiOS/os/ext/CMSIS/include/core_cmFunc.h"
  41              		.loc 2 546 0
  42 0006 019B     		ldr	r3, [sp, #4]
  43              	@ 546 "/home/makkmarci/workspace/CLEAN/ChibiOS/os/ext/CMSIS/include/core_cmFunc.h" 1
  44 0008 83F31188 		MSR basepri, r3
  45              	@ 0 "" 2
  46              		.thumb
  47              	.LBE7:
  48              	.LBE6:
  49              		.loc 1 451 0
  50 000c 02B0     		add	sp, sp, #8
  51              		.cfi_def_cfa_offset 0
  52              		@ sp needed
  53 000e 7047     		bx	lr
  54              		.cfi_endproc
  55              	.LFE116:
  56              		.size	port_lock, .-port_lock
  57              		.section	.text.port_unlock,"ax",%progbits
ARM GAS  /tmp/cciR6ge5.s 			page 2


  58              		.align	2
  59              		.p2align 4,,15
  60              		.thumb
  61              		.thumb_func
  62              		.type	port_unlock, %function
  63              	port_unlock:
  64              	.LFB117:
  65              		.loc 1 458 0
  66              		.cfi_startproc
  67              		@ args = 0, pretend = 0, frame = 8
  68              		@ frame_needed = 0, uses_anonymous_args = 0
  69              		@ link register save eliminated.
  70 0000 82B0     		sub	sp, sp, #8
  71              		.cfi_def_cfa_offset 8
  72 0002 0023     		movs	r3, #0
  73 0004 0193     		str	r3, [sp, #4]
  74              	.LBB8:
  75              	.LBB9:
  76              		.loc 2 546 0
  77 0006 019B     		ldr	r3, [sp, #4]
  78              	@ 546 "/home/makkmarci/workspace/CLEAN/ChibiOS/os/ext/CMSIS/include/core_cmFunc.h" 1
  79 0008 83F31188 		MSR basepri, r3
  80              	@ 0 "" 2
  81              		.thumb
  82              	.LBE9:
  83              	.LBE8:
  84              		.loc 1 465 0
  85 000c 02B0     		add	sp, sp, #8
  86              		.cfi_def_cfa_offset 0
  87              		@ sp needed
  88 000e 7047     		bx	lr
  89              		.cfi_endproc
  90              	.LFE117:
  91              		.size	port_unlock, .-port_unlock
  92              		.section	.text.port_lock_from_isr,"ax",%progbits
  93              		.align	2
  94              		.p2align 4,,15
  95              		.thumb
  96              		.thumb_func
  97              		.type	port_lock_from_isr, %function
  98              	port_lock_from_isr:
  99              	.LFB118:
 100              		.loc 1 473 0
 101              		.cfi_startproc
 102              		@ args = 0, pretend = 0, frame = 0
 103              		@ frame_needed = 0, uses_anonymous_args = 0
 104 0000 08B5     		push	{r3, lr}
 105              		.cfi_def_cfa_offset 8
 106              		.cfi_offset 3, -8
 107              		.cfi_offset 14, -4
 108              		.loc 1 475 0
 109 0002 FFF7FEFF 		bl	port_lock
 110              		.loc 1 476 0
 111 0006 08BD     		pop	{r3, pc}
 112              		.cfi_endproc
 113              	.LFE118:
 114              		.size	port_lock_from_isr, .-port_lock_from_isr
ARM GAS  /tmp/cciR6ge5.s 			page 3


 115 0008 AFF30080 		.section	.text.port_unlock_from_isr,"ax",%progbits
 115      AFF30080 
 116              		.align	2
 117              		.p2align 4,,15
 118              		.thumb
 119              		.thumb_func
 120              		.type	port_unlock_from_isr, %function
 121              	port_unlock_from_isr:
 122              	.LFB119:
 123              		.loc 1 484 0
 124              		.cfi_startproc
 125              		@ args = 0, pretend = 0, frame = 0
 126              		@ frame_needed = 0, uses_anonymous_args = 0
 127 0000 08B5     		push	{r3, lr}
 128              		.cfi_def_cfa_offset 8
 129              		.cfi_offset 3, -8
 130              		.cfi_offset 14, -4
 131              		.loc 1 486 0
 132 0002 FFF7FEFF 		bl	port_unlock
 133              		.loc 1 487 0
 134 0006 08BD     		pop	{r3, pc}
 135              		.cfi_endproc
 136              	.LFE119:
 137              		.size	port_unlock_from_isr, .-port_unlock_from_isr
 138 0008 AFF30080 		.section	.text.chSysLockFromISR,"ax",%progbits
 138      AFF30080 
 139              		.align	2
 140              		.p2align 4,,15
 141              		.thumb
 142              		.thumb_func
 143              		.type	chSysLockFromISR, %function
 144              	chSysLockFromISR:
 145              	.LFB147:
 146              		.file 3 "/home/makkmarci/workspace/CLEAN/ChibiOS/os/rt/include/chsys.h"
 147              		.loc 3 386 0
 148              		.cfi_startproc
 149              		@ args = 0, pretend = 0, frame = 0
 150              		@ frame_needed = 0, uses_anonymous_args = 0
 151 0000 08B5     		push	{r3, lr}
 152              		.cfi_def_cfa_offset 8
 153              		.cfi_offset 3, -8
 154              		.cfi_offset 14, -4
 155              		.loc 3 388 0
 156 0002 FFF7FEFF 		bl	port_lock_from_isr
 157              		.loc 3 391 0
 158 0006 08BD     		pop	{r3, pc}
 159              		.cfi_endproc
 160              	.LFE147:
 161              		.size	chSysLockFromISR, .-chSysLockFromISR
 162              		.section	.text.chSysUnlockFromISR,"ax",%progbits
 163              		.align	2
 164              		.p2align 4,,15
 165              		.thumb
 166              		.thumb_func
 167              		.type	chSysUnlockFromISR, %function
 168              	chSysUnlockFromISR:
 169              	.LFB148:
ARM GAS  /tmp/cciR6ge5.s 			page 4


 170              		.loc 3 406 0
 171              		.cfi_startproc
 172              		@ args = 0, pretend = 0, frame = 0
 173              		@ frame_needed = 0, uses_anonymous_args = 0
 174 0000 08B5     		push	{r3, lr}
 175              		.cfi_def_cfa_offset 8
 176              		.cfi_offset 3, -8
 177              		.cfi_offset 14, -4
 178              		.loc 3 410 0
 179 0002 FFF7FEFF 		bl	port_unlock_from_isr
 180              		.loc 3 411 0
 181 0006 08BD     		pop	{r3, pc}
 182              		.cfi_endproc
 183              	.LFE148:
 184              		.size	chSysUnlockFromISR, .-chSysUnlockFromISR
 185 0008 AFF30080 		.section	.text.osalSysLockFromISR,"ax",%progbits
 185      AFF30080 
 186              		.align	2
 187              		.p2align 4,,15
 188              		.thumb
 189              		.thumb_func
 190              		.type	osalSysLockFromISR, %function
 191              	osalSysLockFromISR:
 192              	.LFB222:
 193              		.file 4 "/home/makkmarci/workspace/CLEAN/ChibiOS/os/hal/osal/rt/osal.h"
 194              		.loc 4 467 0
 195              		.cfi_startproc
 196              		@ args = 0, pretend = 0, frame = 0
 197              		@ frame_needed = 0, uses_anonymous_args = 0
 198 0000 08B5     		push	{r3, lr}
 199              		.cfi_def_cfa_offset 8
 200              		.cfi_offset 3, -8
 201              		.cfi_offset 14, -4
 202              		.loc 4 469 0
 203 0002 FFF7FEFF 		bl	chSysLockFromISR
 204              		.loc 4 470 0
 205 0006 08BD     		pop	{r3, pc}
 206              		.cfi_endproc
 207              	.LFE222:
 208              		.size	osalSysLockFromISR, .-osalSysLockFromISR
 209              		.section	.text.osalSysUnlockFromISR,"ax",%progbits
 210              		.align	2
 211              		.p2align 4,,15
 212              		.thumb
 213              		.thumb_func
 214              		.type	osalSysUnlockFromISR, %function
 215              	osalSysUnlockFromISR:
 216              	.LFB223:
 217              		.loc 4 478 0
 218              		.cfi_startproc
 219              		@ args = 0, pretend = 0, frame = 0
 220              		@ frame_needed = 0, uses_anonymous_args = 0
 221 0000 08B5     		push	{r3, lr}
 222              		.cfi_def_cfa_offset 8
 223              		.cfi_offset 3, -8
 224              		.cfi_offset 14, -4
 225              		.loc 4 480 0
ARM GAS  /tmp/cciR6ge5.s 			page 5


 226 0002 FFF7FEFF 		bl	chSysUnlockFromISR
 227              		.loc 4 481 0
 228 0006 08BD     		pop	{r3, pc}
 229              		.cfi_endproc
 230              	.LFE223:
 231              		.size	osalSysUnlockFromISR, .-osalSysUnlockFromISR
 232 0008 AFF30080 		.section	.text.osalThreadResumeI,"ax",%progbits
 232      AFF30080 
 233              		.align	2
 234              		.p2align 4,,15
 235              		.thumb
 236              		.thumb_func
 237              		.type	osalThreadResumeI, %function
 238              	osalThreadResumeI:
 239              	.LFB235:
 240              		.loc 4 680 0
 241              		.cfi_startproc
 242              		@ args = 0, pretend = 0, frame = 8
 243              		@ frame_needed = 0, uses_anonymous_args = 0
 244 0000 00B5     		push	{lr}
 245              		.cfi_def_cfa_offset 4
 246              		.cfi_offset 14, -4
 247 0002 83B0     		sub	sp, sp, #12
 248              		.cfi_def_cfa_offset 16
 249 0004 0190     		str	r0, [sp, #4]
 250 0006 0091     		str	r1, [sp]
 251              		.loc 4 682 0
 252 0008 0198     		ldr	r0, [sp, #4]
 253 000a 0099     		ldr	r1, [sp]
 254 000c FFF7FEFF 		bl	chThdResumeI
 255              		.loc 4 683 0
 256 0010 03B0     		add	sp, sp, #12
 257              		.cfi_def_cfa_offset 4
 258              		@ sp needed
 259 0012 5DF804FB 		ldr	pc, [sp], #4
 260              		.cfi_endproc
 261              	.LFE235:
 262              		.size	osalThreadResumeI, .-osalThreadResumeI
 263              		.global	ADCD1
 264 0016 00BFAFF3 		.section	.bss.ADCD1,"aw",%nobits
 264      0080AFF3 
 264      0080
 265              		.align	2
 266              		.type	ADCD1, %object
 267              		.size	ADCD1, 52
 268              	ADCD1:
 269 0000 00000000 		.space	52
 269      00000000 
 269      00000000 
 269      00000000 
 269      00000000 
 270              		.global	ADCD2
 271              		.section	.bss.ADCD2,"aw",%nobits
 272              		.align	2
 273              		.type	ADCD2, %object
 274              		.size	ADCD2, 52
 275              	ADCD2:
ARM GAS  /tmp/cciR6ge5.s 			page 6


 276 0000 00000000 		.space	52
 276      00000000 
 276      00000000 
 276      00000000 
 276      00000000 
 277              		.section	.text.adc_lld_serve_rx_interrupt,"ax",%progbits
 278              		.align	2
 279              		.p2align 4,,15
 280              		.thumb
 281              		.thumb_func
 282              		.type	adc_lld_serve_rx_interrupt, %function
 283              	adc_lld_serve_rx_interrupt:
 284              	.LFB253:
 285              		.file 5 "/home/makkmarci/workspace/CLEAN/ChibiOS/os/hal/ports/STM32/STM32F4xx/adc_lld.c"
 286              		.loc 5 75 0
 287              		.cfi_startproc
 288              		@ args = 0, pretend = 0, frame = 16
 289              		@ frame_needed = 0, uses_anonymous_args = 0
 290 0000 00B5     		push	{lr}
 291              		.cfi_def_cfa_offset 4
 292              		.cfi_offset 14, -4
 293 0002 85B0     		sub	sp, sp, #20
 294              		.cfi_def_cfa_offset 24
 295 0004 0190     		str	r0, [sp, #4]
 296 0006 0091     		str	r1, [sp]
 297              		.loc 5 78 0
 298 0008 009B     		ldr	r3, [sp]
 299 000a 03F00C03 		and	r3, r3, #12
 300 000e 002B     		cmp	r3, #0
 301 0010 26D0     		beq	.L11
 302              		.loc 5 81 0
 303 0012 0198     		ldr	r0, [sp, #4]
 304 0014 FFF7FEFF 		bl	adc_lld_stop_conversion
 305 0018 019B     		ldr	r3, [sp, #4]
 306 001a 1B69     		ldr	r3, [r3, #16]
 307 001c 9B68     		ldr	r3, [r3, #8]
 308 001e 002B     		cmp	r3, #0
 309 0020 0FD0     		beq	.L12
 310              		.loc 5 81 0 is_stmt 0 discriminator 1
 311 0022 019B     		ldr	r3, [sp, #4]
 312 0024 0522     		movs	r2, #5
 313 0026 1A70     		strb	r2, [r3]
 314 0028 019B     		ldr	r3, [sp, #4]
 315 002a 1B69     		ldr	r3, [r3, #16]
 316 002c 9B68     		ldr	r3, [r3, #8]
 317 002e 0198     		ldr	r0, [sp, #4]
 318 0030 0021     		movs	r1, #0
 319 0032 9847     		blx	r3
 320 0034 019B     		ldr	r3, [sp, #4]
 321 0036 1B78     		ldrb	r3, [r3]	@ zero_extendqisi2
 322 0038 052B     		cmp	r3, #5
 323 003a 02D1     		bne	.L12
 324              		.loc 5 81 0 discriminator 3
 325 003c 019B     		ldr	r3, [sp, #4]
 326 003e 0222     		movs	r2, #2
 327 0040 1A70     		strb	r2, [r3]
 328              	.L12:
ARM GAS  /tmp/cciR6ge5.s 			page 7


 329              		.loc 5 81 0 discriminator 5
 330 0042 019B     		ldr	r3, [sp, #4]
 331 0044 0022     		movs	r2, #0
 332 0046 1A61     		str	r2, [r3, #16]
 333 0048 FFF7FEFF 		bl	osalSysLockFromISR
 334 004c 019B     		ldr	r3, [sp, #4]
 335 004e 1433     		adds	r3, r3, #20
 336 0050 1846     		mov	r0, r3
 337 0052 4FF0FF31 		mov	r1, #-1
 338 0056 FFF7FEFF 		bl	osalThreadResumeI
 339 005a FFF7FEFF 		bl	osalSysUnlockFromISR
 340 005e 7DE0     		b	.L10
 341              	.L11:
 342              		.loc 5 86 0 is_stmt 1
 343 0060 019B     		ldr	r3, [sp, #4]
 344 0062 1B69     		ldr	r3, [r3, #16]
 345 0064 002B     		cmp	r3, #0
 346 0066 79D0     		beq	.L10
 347              		.loc 5 87 0
 348 0068 009B     		ldr	r3, [sp]
 349 006a 03F02003 		and	r3, r3, #32
 350 006e 002B     		cmp	r3, #0
 351 0070 60D0     		beq	.L14
 352              		.loc 5 89 0
 353 0072 019B     		ldr	r3, [sp, #4]
 354 0074 1B69     		ldr	r3, [r3, #16]
 355 0076 1B78     		ldrb	r3, [r3]	@ zero_extendqisi2
 356 0078 002B     		cmp	r3, #0
 357 007a 2BD0     		beq	.L15
 358              		.loc 5 89 0 is_stmt 0 discriminator 1
 359 007c 019B     		ldr	r3, [sp, #4]
 360 007e 1B69     		ldr	r3, [r3, #16]
 361 0080 5B68     		ldr	r3, [r3, #4]
 362 0082 002B     		cmp	r3, #0
 363 0084 6AD0     		beq	.L10
 364              		.loc 5 89 0 discriminator 3
 365 0086 019B     		ldr	r3, [sp, #4]
 366 0088 DB68     		ldr	r3, [r3, #12]
 367 008a 012B     		cmp	r3, #1
 368 008c 18D9     		bls	.L17
 369              	.LBB10:
 370              		.loc 5 89 0 discriminator 4
 371 008e 019B     		ldr	r3, [sp, #4]
 372 0090 DB68     		ldr	r3, [r3, #12]
 373 0092 5B08     		lsrs	r3, r3, #1
 374 0094 0393     		str	r3, [sp, #12]
 375 0096 019B     		ldr	r3, [sp, #4]
 376 0098 1B69     		ldr	r3, [r3, #16]
 377 009a 5B88     		ldrh	r3, [r3, #2]
 378 009c 1A46     		mov	r2, r3
 379 009e 039B     		ldr	r3, [sp, #12]
 380 00a0 03FB02F3 		mul	r3, r3, r2
 381 00a4 0293     		str	r3, [sp, #8]
 382 00a6 019B     		ldr	r3, [sp, #4]
 383 00a8 1B69     		ldr	r3, [r3, #16]
 384 00aa 5B68     		ldr	r3, [r3, #4]
 385 00ac 019A     		ldr	r2, [sp, #4]
ARM GAS  /tmp/cciR6ge5.s 			page 8


 386 00ae 9168     		ldr	r1, [r2, #8]
 387 00b0 029A     		ldr	r2, [sp, #8]
 388 00b2 5200     		lsls	r2, r2, #1
 389 00b4 0A44     		add	r2, r2, r1
 390 00b6 0198     		ldr	r0, [sp, #4]
 391 00b8 1146     		mov	r1, r2
 392 00ba 039A     		ldr	r2, [sp, #12]
 393 00bc 9847     		blx	r3
 394              	.LBE10:
 395 00be 4DE0     		b	.L10
 396              	.L17:
 397              		.loc 5 89 0 discriminator 5
 398 00c0 019B     		ldr	r3, [sp, #4]
 399 00c2 1B69     		ldr	r3, [r3, #16]
 400 00c4 5B68     		ldr	r3, [r3, #4]
 401 00c6 019A     		ldr	r2, [sp, #4]
 402 00c8 9168     		ldr	r1, [r2, #8]
 403 00ca 019A     		ldr	r2, [sp, #4]
 404 00cc D268     		ldr	r2, [r2, #12]
 405 00ce 0198     		ldr	r0, [sp, #4]
 406 00d0 9847     		blx	r3
 407 00d2 43E0     		b	.L10
 408              	.L15:
 409              		.loc 5 89 0 discriminator 2
 410 00d4 0198     		ldr	r0, [sp, #4]
 411 00d6 FFF7FEFF 		bl	adc_lld_stop_conversion
 412 00da 019B     		ldr	r3, [sp, #4]
 413 00dc 1B69     		ldr	r3, [r3, #16]
 414 00de 5B68     		ldr	r3, [r3, #4]
 415 00e0 002B     		cmp	r3, #0
 416 00e2 16D0     		beq	.L19
 417              		.loc 5 89 0 discriminator 6
 418 00e4 019B     		ldr	r3, [sp, #4]
 419 00e6 0422     		movs	r2, #4
 420 00e8 1A70     		strb	r2, [r3]
 421 00ea 019B     		ldr	r3, [sp, #4]
 422 00ec 1B69     		ldr	r3, [r3, #16]
 423 00ee 5B68     		ldr	r3, [r3, #4]
 424 00f0 019A     		ldr	r2, [sp, #4]
 425 00f2 9168     		ldr	r1, [r2, #8]
 426 00f4 019A     		ldr	r2, [sp, #4]
 427 00f6 D268     		ldr	r2, [r2, #12]
 428 00f8 0198     		ldr	r0, [sp, #4]
 429 00fa 9847     		blx	r3
 430 00fc 019B     		ldr	r3, [sp, #4]
 431 00fe 1B78     		ldrb	r3, [r3]	@ zero_extendqisi2
 432 0100 042B     		cmp	r3, #4
 433 0102 0CD1     		bne	.L21
 434              		.loc 5 89 0 discriminator 8
 435 0104 019B     		ldr	r3, [sp, #4]
 436 0106 0222     		movs	r2, #2
 437 0108 1A70     		strb	r2, [r3]
 438 010a 019B     		ldr	r3, [sp, #4]
 439 010c 0022     		movs	r2, #0
 440 010e 1A61     		str	r2, [r3, #16]
 441 0110 05E0     		b	.L21
 442              	.L19:
ARM GAS  /tmp/cciR6ge5.s 			page 9


 443              		.loc 5 89 0 discriminator 7
 444 0112 019B     		ldr	r3, [sp, #4]
 445 0114 0222     		movs	r2, #2
 446 0116 1A70     		strb	r2, [r3]
 447 0118 019B     		ldr	r3, [sp, #4]
 448 011a 0022     		movs	r2, #0
 449 011c 1A61     		str	r2, [r3, #16]
 450              	.L21:
 451              		.loc 5 89 0 discriminator 9
 452 011e FFF7FEFF 		bl	osalSysLockFromISR
 453 0122 019B     		ldr	r3, [sp, #4]
 454 0124 1433     		adds	r3, r3, #20
 455 0126 1846     		mov	r0, r3
 456 0128 0021     		movs	r1, #0
 457 012a FFF7FEFF 		bl	osalThreadResumeI
 458 012e FFF7FEFF 		bl	osalSysUnlockFromISR
 459 0132 13E0     		b	.L10
 460              	.L14:
 461              		.loc 5 91 0 is_stmt 1
 462 0134 009B     		ldr	r3, [sp]
 463 0136 03F01003 		and	r3, r3, #16
 464 013a 002B     		cmp	r3, #0
 465 013c 0ED0     		beq	.L10
 466              		.loc 5 93 0
 467 013e 019B     		ldr	r3, [sp, #4]
 468 0140 1B69     		ldr	r3, [r3, #16]
 469 0142 5B68     		ldr	r3, [r3, #4]
 470 0144 002B     		cmp	r3, #0
 471 0146 09D0     		beq	.L10
 472              		.loc 5 93 0 is_stmt 0 discriminator 1
 473 0148 019B     		ldr	r3, [sp, #4]
 474 014a 1B69     		ldr	r3, [r3, #16]
 475 014c 5B68     		ldr	r3, [r3, #4]
 476 014e 019A     		ldr	r2, [sp, #4]
 477 0150 9168     		ldr	r1, [r2, #8]
 478 0152 019A     		ldr	r2, [sp, #4]
 479 0154 D268     		ldr	r2, [r2, #12]
 480 0156 5208     		lsrs	r2, r2, #1
 481 0158 0198     		ldr	r0, [sp, #4]
 482 015a 9847     		blx	r3
 483              	.L10:
 484              		.loc 5 97 0 is_stmt 1
 485 015c 05B0     		add	sp, sp, #20
 486              		.cfi_def_cfa_offset 4
 487              		@ sp needed
 488 015e 5DF804FB 		ldr	pc, [sp], #4
 489              		.cfi_endproc
 490              	.LFE253:
 491              		.size	adc_lld_serve_rx_interrupt, .-adc_lld_serve_rx_interrupt
 492 0162 00BFAFF3 		.section	.text.Vector88,"ax",%progbits
 492      0080AFF3 
 492      0080AFF3 
 492      0080
 493              		.align	2
 494              		.p2align 4,,15
 495              		.global	Vector88
 496              		.thumb
ARM GAS  /tmp/cciR6ge5.s 			page 10


 497              		.thumb_func
 498              		.type	Vector88, %function
 499              	Vector88:
 500              	.LFB254:
 501              		.loc 5 110 0
 502              		.cfi_startproc
 503              		@ args = 0, pretend = 0, frame = 8
 504              		@ frame_needed = 0, uses_anonymous_args = 0
 505 0000 00B5     		push	{lr}
 506              		.cfi_def_cfa_offset 4
 507              		.cfi_offset 14, -4
 508 0002 83B0     		sub	sp, sp, #12
 509              		.cfi_def_cfa_offset 16
 510              		.loc 5 116 0
 511 0004 3B4B     		ldr	r3, .L27
 512 0006 1B68     		ldr	r3, [r3]
 513 0008 0193     		str	r3, [sp, #4]
 514              		.loc 5 117 0
 515 000a 3A4B     		ldr	r3, .L27
 516 000c 0022     		movs	r2, #0
 517 000e 1A60     		str	r2, [r3]
 518              		.loc 5 120 0
 519 0010 019B     		ldr	r3, [sp, #4]
 520 0012 03F02003 		and	r3, r3, #32
 521 0016 002B     		cmp	r3, #0
 522 0018 2DD0     		beq	.L23
 523              		.loc 5 120 0 is_stmt 0 discriminator 1
 524 001a 374B     		ldr	r3, .L27+4
 525 001c DB6A     		ldr	r3, [r3, #44]
 526 001e 1B68     		ldr	r3, [r3]
 527 0020 5B68     		ldr	r3, [r3, #4]
 528 0022 002B     		cmp	r3, #0
 529 0024 27D0     		beq	.L23
 530              		.loc 5 123 0 is_stmt 1
 531 0026 344B     		ldr	r3, .L27+4
 532 0028 1B69     		ldr	r3, [r3, #16]
 533 002a 002B     		cmp	r3, #0
 534 002c 23D0     		beq	.L23
 535              		.loc 5 124 0
 536 002e 3248     		ldr	r0, .L27+4
 537 0030 FFF7FEFF 		bl	adc_lld_stop_conversion
 538 0034 304B     		ldr	r3, .L27+4
 539 0036 1B69     		ldr	r3, [r3, #16]
 540 0038 9B68     		ldr	r3, [r3, #8]
 541 003a 002B     		cmp	r3, #0
 542 003c 0FD0     		beq	.L24
 543              		.loc 5 124 0 is_stmt 0 discriminator 1
 544 003e 2E4B     		ldr	r3, .L27+4
 545 0040 0522     		movs	r2, #5
 546 0042 1A70     		strb	r2, [r3]
 547 0044 2C4B     		ldr	r3, .L27+4
 548 0046 1B69     		ldr	r3, [r3, #16]
 549 0048 9B68     		ldr	r3, [r3, #8]
 550 004a 2B48     		ldr	r0, .L27+4
 551 004c 0121     		movs	r1, #1
 552 004e 9847     		blx	r3
 553 0050 294B     		ldr	r3, .L27+4
ARM GAS  /tmp/cciR6ge5.s 			page 11


 554 0052 1B78     		ldrb	r3, [r3]	@ zero_extendqisi2
 555 0054 052B     		cmp	r3, #5
 556 0056 02D1     		bne	.L24
 557              		.loc 5 124 0 discriminator 3
 558 0058 274B     		ldr	r3, .L27+4
 559 005a 0222     		movs	r2, #2
 560 005c 1A70     		strb	r2, [r3]
 561              	.L24:
 562              		.loc 5 124 0 discriminator 5
 563 005e 264B     		ldr	r3, .L27+4
 564 0060 0022     		movs	r2, #0
 565 0062 1A61     		str	r2, [r3, #16]
 566 0064 FFF7FEFF 		bl	osalSysLockFromISR
 567 0068 2448     		ldr	r0, .L27+8
 568 006a 4FF0FF31 		mov	r1, #-1
 569 006e FFF7FEFF 		bl	osalThreadResumeI
 570 0072 FFF7FEFF 		bl	osalSysUnlockFromISR
 571              	.L23:
 572              		.loc 5 130 0 is_stmt 1
 573 0076 224B     		ldr	r3, .L27+12
 574 0078 1B68     		ldr	r3, [r3]
 575 007a 0193     		str	r3, [sp, #4]
 576              		.loc 5 131 0
 577 007c 204B     		ldr	r3, .L27+12
 578 007e 0022     		movs	r2, #0
 579 0080 1A60     		str	r2, [r3]
 580              		.loc 5 134 0
 581 0082 019B     		ldr	r3, [sp, #4]
 582 0084 03F02003 		and	r3, r3, #32
 583 0088 002B     		cmp	r3, #0
 584 008a 2DD0     		beq	.L25
 585              		.loc 5 134 0 is_stmt 0 discriminator 1
 586 008c 1D4B     		ldr	r3, .L27+16
 587 008e DB6A     		ldr	r3, [r3, #44]
 588 0090 1B68     		ldr	r3, [r3]
 589 0092 5B68     		ldr	r3, [r3, #4]
 590 0094 002B     		cmp	r3, #0
 591 0096 27D0     		beq	.L25
 592              		.loc 5 137 0 is_stmt 1
 593 0098 1A4B     		ldr	r3, .L27+16
 594 009a 1B69     		ldr	r3, [r3, #16]
 595 009c 002B     		cmp	r3, #0
 596 009e 23D0     		beq	.L25
 597              		.loc 5 138 0
 598 00a0 1848     		ldr	r0, .L27+16
 599 00a2 FFF7FEFF 		bl	adc_lld_stop_conversion
 600 00a6 174B     		ldr	r3, .L27+16
 601 00a8 1B69     		ldr	r3, [r3, #16]
 602 00aa 9B68     		ldr	r3, [r3, #8]
 603 00ac 002B     		cmp	r3, #0
 604 00ae 0FD0     		beq	.L26
 605              		.loc 5 138 0 is_stmt 0 discriminator 1
 606 00b0 144B     		ldr	r3, .L27+16
 607 00b2 0522     		movs	r2, #5
 608 00b4 1A70     		strb	r2, [r3]
 609 00b6 134B     		ldr	r3, .L27+16
 610 00b8 1B69     		ldr	r3, [r3, #16]
ARM GAS  /tmp/cciR6ge5.s 			page 12


 611 00ba 9B68     		ldr	r3, [r3, #8]
 612 00bc 1148     		ldr	r0, .L27+16
 613 00be 0121     		movs	r1, #1
 614 00c0 9847     		blx	r3
 615 00c2 104B     		ldr	r3, .L27+16
 616 00c4 1B78     		ldrb	r3, [r3]	@ zero_extendqisi2
 617 00c6 052B     		cmp	r3, #5
 618 00c8 02D1     		bne	.L26
 619              		.loc 5 138 0 discriminator 3
 620 00ca 0E4B     		ldr	r3, .L27+16
 621 00cc 0222     		movs	r2, #2
 622 00ce 1A70     		strb	r2, [r3]
 623              	.L26:
 624              		.loc 5 138 0 discriminator 5
 625 00d0 0C4B     		ldr	r3, .L27+16
 626 00d2 0022     		movs	r2, #0
 627 00d4 1A61     		str	r2, [r3, #16]
 628 00d6 FFF7FEFF 		bl	osalSysLockFromISR
 629 00da 0B48     		ldr	r0, .L27+20
 630 00dc 4FF0FF31 		mov	r1, #-1
 631 00e0 FFF7FEFF 		bl	osalThreadResumeI
 632 00e4 FFF7FEFF 		bl	osalSysUnlockFromISR
 633              	.L25:
 634              		.loc 5 157 0 is_stmt 1
 635 00e8 FFF7FEFF 		bl	_port_irq_epilogue
 636              		.loc 5 158 0
 637 00ec 03B0     		add	sp, sp, #12
 638              		.cfi_def_cfa_offset 4
 639              		@ sp needed
 640 00ee 5DF804FB 		ldr	pc, [sp], #4
 641              	.L28:
 642 00f2 00BF     		.align	2
 643              	.L27:
 644 00f4 00200140 		.word	1073815552
 645 00f8 00000000 		.word	ADCD1
 646 00fc 14000000 		.word	ADCD1+20
 647 0100 00210140 		.word	1073815808
 648 0104 00000000 		.word	ADCD2
 649 0108 14000000 		.word	ADCD2+20
 650              		.cfi_endproc
 651              	.LFE254:
 652              		.size	Vector88, .-Vector88
 653 010c AFF30080 		.section	.text.adc_lld_init,"ax",%progbits
 654              		.align	2
 655              		.p2align 4,,15
 656              		.global	adc_lld_init
 657              		.thumb
 658              		.thumb_func
 659              		.type	adc_lld_init, %function
 660              	adc_lld_init:
 661              	.LFB255:
 662              		.loc 5 170 0
 663              		.cfi_startproc
 664              		@ args = 0, pretend = 0, frame = 0
 665              		@ frame_needed = 0, uses_anonymous_args = 0
 666 0000 08B5     		push	{r3, lr}
 667              		.cfi_def_cfa_offset 8
ARM GAS  /tmp/cciR6ge5.s 			page 13


 668              		.cfi_offset 3, -8
 669              		.cfi_offset 14, -4
 670              		.loc 5 174 0
 671 0002 0E48     		ldr	r0, .L30
 672 0004 FFF7FEFF 		bl	adcObjectInit
 673              		.loc 5 175 0
 674 0008 0C4B     		ldr	r3, .L30
 675 000a 0D4A     		ldr	r2, .L30+4
 676 000c 9A62     		str	r2, [r3, #40]
 677              		.loc 5 176 0
 678 000e 0B4B     		ldr	r3, .L30
 679 0010 0C4A     		ldr	r2, .L30+8
 680 0012 DA62     		str	r2, [r3, #44]
 681              		.loc 5 177 0
 682 0014 094B     		ldr	r3, .L30
 683 0016 0C4A     		ldr	r2, .L30+12
 684 0018 1A63     		str	r2, [r3, #48]
 685              		.loc 5 187 0
 686 001a 0C48     		ldr	r0, .L30+16
 687 001c FFF7FEFF 		bl	adcObjectInit
 688              		.loc 5 188 0
 689 0020 0A4B     		ldr	r3, .L30+16
 690 0022 0B4A     		ldr	r2, .L30+20
 691 0024 9A62     		str	r2, [r3, #40]
 692              		.loc 5 189 0
 693 0026 094B     		ldr	r3, .L30+16
 694 0028 0A4A     		ldr	r2, .L30+24
 695 002a DA62     		str	r2, [r3, #44]
 696              		.loc 5 190 0
 697 002c 074B     		ldr	r3, .L30+16
 698 002e 0A4A     		ldr	r2, .L30+28
 699 0030 1A63     		str	r2, [r3, #48]
 700              		.loc 5 213 0
 701 0032 1220     		movs	r0, #18
 702 0034 0621     		movs	r1, #6
 703 0036 FFF7FEFF 		bl	nvicEnableVector
 704              		.loc 5 214 0
 705 003a 08BD     		pop	{r3, pc}
 706              	.L31:
 707              		.align	2
 708              	.L30:
 709 003c 00000000 		.word	ADCD1
 710 0040 00200140 		.word	1073815552
 711 0044 90000000 		.word	_stm32_dma_streams+144
 712 0048 162C0200 		.word	142358
 713 004c 00000000 		.word	ADCD2
 714 0050 00210140 		.word	1073815808
 715 0054 78000000 		.word	_stm32_dma_streams+120
 716 0058 162C0202 		.word	33696790
 717              		.cfi_endproc
 718              	.LFE255:
 719              		.size	adc_lld_init, .-adc_lld_init
 720 005c AFF30080 		.section	.text.adc_lld_start,"ax",%progbits
 721              		.align	2
 722              		.p2align 4,,15
 723              		.global	adc_lld_start
 724              		.thumb
ARM GAS  /tmp/cciR6ge5.s 			page 14


 725              		.thumb_func
 726              		.type	adc_lld_start, %function
 727              	adc_lld_start:
 728              	.LFB256:
 729              		.loc 5 223 0
 730              		.cfi_startproc
 731              		@ args = 0, pretend = 0, frame = 16
 732              		@ frame_needed = 0, uses_anonymous_args = 0
 733 0000 00B5     		push	{lr}
 734              		.cfi_def_cfa_offset 4
 735              		.cfi_offset 14, -4
 736 0002 85B0     		sub	sp, sp, #20
 737              		.cfi_def_cfa_offset 24
 738 0004 0190     		str	r0, [sp, #4]
 739              		.loc 5 226 0
 740 0006 019B     		ldr	r3, [sp, #4]
 741 0008 1B78     		ldrb	r3, [r3]	@ zero_extendqisi2
 742 000a 012B     		cmp	r3, #1
 743 000c 47D1     		bne	.L32
 744              		.loc 5 228 0
 745 000e 019B     		ldr	r3, [sp, #4]
 746 0010 244A     		ldr	r2, .L36
 747 0012 9342     		cmp	r3, r2
 748 0014 15D1     		bne	.L34
 749              	.LBB11:
 750              		.loc 5 230 0
 751 0016 019B     		ldr	r3, [sp, #4]
 752 0018 DB6A     		ldr	r3, [r3, #44]
 753 001a 1846     		mov	r0, r3
 754 001c 0621     		movs	r1, #6
 755 001e 224A     		ldr	r2, .L36+4
 756 0020 019B     		ldr	r3, [sp, #4]
 757 0022 FFF7FEFF 		bl	dmaStreamAllocate
 758 0026 0346     		mov	r3, r0
 759 0028 8DF80F30 		strb	r3, [sp, #15]
 760              		.loc 5 235 0
 761 002c 019B     		ldr	r3, [sp, #4]
 762 002e DB6A     		ldr	r3, [r3, #44]
 763 0030 1B68     		ldr	r3, [r3]
 764 0032 1E4A     		ldr	r2, .L36+8
 765 0034 9A60     		str	r2, [r3, #8]
 766              		.loc 5 236 0
 767 0036 1E4A     		ldr	r2, .L36+12
 768 0038 1D4B     		ldr	r3, .L36+12
 769 003a 5B6C     		ldr	r3, [r3, #68]
 770 003c 43F48073 		orr	r3, r3, #256
 771 0040 5364     		str	r3, [r2, #68]
 772              	.L34:
 773              	.LBE11:
 774              		.loc 5 241 0
 775 0042 019B     		ldr	r3, [sp, #4]
 776 0044 1B4A     		ldr	r2, .L36+16
 777 0046 9342     		cmp	r3, r2
 778 0048 15D1     		bne	.L35
 779              	.LBB12:
 780              		.loc 5 243 0
 781 004a 019B     		ldr	r3, [sp, #4]
ARM GAS  /tmp/cciR6ge5.s 			page 15


 782 004c DB6A     		ldr	r3, [r3, #44]
 783 004e 1846     		mov	r0, r3
 784 0050 0621     		movs	r1, #6
 785 0052 154A     		ldr	r2, .L36+4
 786 0054 019B     		ldr	r3, [sp, #4]
 787 0056 FFF7FEFF 		bl	dmaStreamAllocate
 788 005a 0346     		mov	r3, r0
 789 005c 8DF80E30 		strb	r3, [sp, #14]
 790              		.loc 5 248 0
 791 0060 019B     		ldr	r3, [sp, #4]
 792 0062 DB6A     		ldr	r3, [r3, #44]
 793 0064 1B68     		ldr	r3, [r3]
 794 0066 144A     		ldr	r2, .L36+20
 795 0068 9A60     		str	r2, [r3, #8]
 796              		.loc 5 249 0
 797 006a 114A     		ldr	r2, .L36+12
 798 006c 104B     		ldr	r3, .L36+12
 799 006e 5B6C     		ldr	r3, [r3, #68]
 800 0070 43F40073 		orr	r3, r3, #512
 801 0074 5364     		str	r3, [r2, #68]
 802              	.L35:
 803              	.LBE12:
 804              		.loc 5 268 0
 805 0076 114A     		ldr	r2, .L36+24
 806 0078 104B     		ldr	r3, .L36+24
 807 007a 5B68     		ldr	r3, [r3, #4]
 808 007c 03F44003 		and	r3, r3, #12582912
 809 0080 43F48033 		orr	r3, r3, #65536
 810 0084 5360     		str	r3, [r2, #4]
 811              		.loc 5 273 0
 812 0086 019B     		ldr	r3, [sp, #4]
 813 0088 9B6A     		ldr	r3, [r3, #40]
 814 008a 0022     		movs	r2, #0
 815 008c 5A60     		str	r2, [r3, #4]
 816              		.loc 5 274 0
 817 008e 019B     		ldr	r3, [sp, #4]
 818 0090 9B6A     		ldr	r3, [r3, #40]
 819 0092 0022     		movs	r2, #0
 820 0094 9A60     		str	r2, [r3, #8]
 821              		.loc 5 275 0
 822 0096 019B     		ldr	r3, [sp, #4]
 823 0098 9B6A     		ldr	r3, [r3, #40]
 824 009a 0122     		movs	r2, #1
 825 009c 9A60     		str	r2, [r3, #8]
 826              	.L32:
 827              		.loc 5 277 0
 828 009e 05B0     		add	sp, sp, #20
 829              		.cfi_def_cfa_offset 4
 830              		@ sp needed
 831 00a0 5DF804FB 		ldr	pc, [sp], #4
 832              	.L37:
 833              		.align	2
 834              	.L36:
 835 00a4 00000000 		.word	ADCD1
 836 00a8 00000000 		.word	adc_lld_serve_rx_interrupt
 837 00ac 4C200140 		.word	1073815628
 838 00b0 00380240 		.word	1073887232
ARM GAS  /tmp/cciR6ge5.s 			page 16


 839 00b4 00000000 		.word	ADCD2
 840 00b8 4C210140 		.word	1073815884
 841 00bc 00230140 		.word	1073816320
 842              		.cfi_endproc
 843              	.LFE256:
 844              		.size	adc_lld_start, .-adc_lld_start
 845              		.section	.text.adc_lld_stop,"ax",%progbits
 846              		.align	2
 847              		.p2align 4,,15
 848              		.global	adc_lld_stop
 849              		.thumb
 850              		.thumb_func
 851              		.type	adc_lld_stop, %function
 852              	adc_lld_stop:
 853              	.LFB257:
 854              		.loc 5 286 0
 855              		.cfi_startproc
 856              		@ args = 0, pretend = 0, frame = 8
 857              		@ frame_needed = 0, uses_anonymous_args = 0
 858 0000 00B5     		push	{lr}
 859              		.cfi_def_cfa_offset 4
 860              		.cfi_offset 14, -4
 861 0002 83B0     		sub	sp, sp, #12
 862              		.cfi_def_cfa_offset 16
 863 0004 0190     		str	r0, [sp, #4]
 864              		.loc 5 289 0
 865 0006 019B     		ldr	r3, [sp, #4]
 866 0008 1B78     		ldrb	r3, [r3]	@ zero_extendqisi2
 867 000a 022B     		cmp	r3, #2
 868 000c 20D1     		bne	.L38
 869              		.loc 5 290 0
 870 000e 019B     		ldr	r3, [sp, #4]
 871 0010 DB6A     		ldr	r3, [r3, #44]
 872 0012 1846     		mov	r0, r3
 873 0014 FFF7FEFF 		bl	dmaStreamRelease
 874              		.loc 5 291 0
 875 0018 019B     		ldr	r3, [sp, #4]
 876 001a 9B6A     		ldr	r3, [r3, #40]
 877 001c 0022     		movs	r2, #0
 878 001e 5A60     		str	r2, [r3, #4]
 879              		.loc 5 292 0
 880 0020 019B     		ldr	r3, [sp, #4]
 881 0022 9B6A     		ldr	r3, [r3, #40]
 882 0024 0022     		movs	r2, #0
 883 0026 9A60     		str	r2, [r3, #8]
 884              		.loc 5 295 0
 885 0028 019B     		ldr	r3, [sp, #4]
 886 002a 0B4A     		ldr	r2, .L41
 887 002c 9342     		cmp	r3, r2
 888 002e 05D1     		bne	.L40
 889              		.loc 5 296 0
 890 0030 0A4A     		ldr	r2, .L41+4
 891 0032 0A4B     		ldr	r3, .L41+4
 892 0034 5B6C     		ldr	r3, [r3, #68]
 893 0036 23F48073 		bic	r3, r3, #256
 894 003a 5364     		str	r3, [r2, #68]
 895              	.L40:
ARM GAS  /tmp/cciR6ge5.s 			page 17


 896              		.loc 5 300 0
 897 003c 019B     		ldr	r3, [sp, #4]
 898 003e 084A     		ldr	r2, .L41+8
 899 0040 9342     		cmp	r3, r2
 900 0042 05D1     		bne	.L38
 901              		.loc 5 301 0
 902 0044 054A     		ldr	r2, .L41+4
 903 0046 054B     		ldr	r3, .L41+4
 904 0048 5B6C     		ldr	r3, [r3, #68]
 905 004a 23F40073 		bic	r3, r3, #512
 906 004e 5364     		str	r3, [r2, #68]
 907              	.L38:
 908              		.loc 5 309 0
 909 0050 03B0     		add	sp, sp, #12
 910              		.cfi_def_cfa_offset 4
 911              		@ sp needed
 912 0052 5DF804FB 		ldr	pc, [sp], #4
 913              	.L42:
 914 0056 00BF     		.align	2
 915              	.L41:
 916 0058 00000000 		.word	ADCD1
 917 005c 00380240 		.word	1073887232
 918 0060 00000000 		.word	ADCD2
 919              		.cfi_endproc
 920              	.LFE257:
 921              		.size	adc_lld_stop, .-adc_lld_stop
 922 0064 AFF30080 		.section	.text.adc_lld_start_conversion,"ax",%progbits
 922      AFF30080 
 922      AFF30080 
 923              		.align	2
 924              		.p2align 4,,15
 925              		.global	adc_lld_start_conversion
 926              		.thumb
 927              		.thumb_func
 928              		.type	adc_lld_start_conversion, %function
 929              	adc_lld_start_conversion:
 930              	.LFB258:
 931              		.loc 5 318 0
 932              		.cfi_startproc
 933              		@ args = 0, pretend = 0, frame = 24
 934              		@ frame_needed = 0, uses_anonymous_args = 0
 935              		@ link register save eliminated.
 936 0000 86B0     		sub	sp, sp, #24
 937              		.cfi_def_cfa_offset 24
 938 0002 0190     		str	r0, [sp, #4]
 939              		.loc 5 321 0
 940 0004 019B     		ldr	r3, [sp, #4]
 941 0006 1B69     		ldr	r3, [r3, #16]
 942 0008 0493     		str	r3, [sp, #16]
 943              		.loc 5 324 0
 944 000a 019B     		ldr	r3, [sp, #4]
 945 000c 1B6B     		ldr	r3, [r3, #48]
 946 000e 0593     		str	r3, [sp, #20]
 947              		.loc 5 325 0
 948 0010 049B     		ldr	r3, [sp, #16]
 949 0012 1B78     		ldrb	r3, [r3]	@ zero_extendqisi2
 950 0014 002B     		cmp	r3, #0
ARM GAS  /tmp/cciR6ge5.s 			page 18


 951 0016 0BD0     		beq	.L44
 952              		.loc 5 326 0
 953 0018 059B     		ldr	r3, [sp, #20]
 954 001a 43F48073 		orr	r3, r3, #256
 955 001e 0593     		str	r3, [sp, #20]
 956              		.loc 5 327 0
 957 0020 019B     		ldr	r3, [sp, #4]
 958 0022 DB68     		ldr	r3, [r3, #12]
 959 0024 012B     		cmp	r3, #1
 960 0026 03D9     		bls	.L44
 961              		.loc 5 330 0
 962 0028 059B     		ldr	r3, [sp, #20]
 963 002a 43F00803 		orr	r3, r3, #8
 964 002e 0593     		str	r3, [sp, #20]
 965              	.L44:
 966              		.loc 5 333 0
 967 0030 019B     		ldr	r3, [sp, #4]
 968 0032 DB6A     		ldr	r3, [r3, #44]
 969 0034 1B68     		ldr	r3, [r3]
 970 0036 019A     		ldr	r2, [sp, #4]
 971 0038 9268     		ldr	r2, [r2, #8]
 972 003a DA60     		str	r2, [r3, #12]
 973              		.loc 5 334 0
 974 003c 019B     		ldr	r3, [sp, #4]
 975 003e DB6A     		ldr	r3, [r3, #44]
 976 0040 1B68     		ldr	r3, [r3]
 977 0042 049A     		ldr	r2, [sp, #16]
 978 0044 5288     		ldrh	r2, [r2, #2]
 979 0046 1146     		mov	r1, r2
 980 0048 019A     		ldr	r2, [sp, #4]
 981 004a D268     		ldr	r2, [r2, #12]
 982 004c 02FB01F2 		mul	r2, r2, r1
 983 0050 5A60     		str	r2, [r3, #4]
 984              		.loc 5 336 0
 985 0052 019B     		ldr	r3, [sp, #4]
 986 0054 DB6A     		ldr	r3, [r3, #44]
 987 0056 1B68     		ldr	r3, [r3]
 988 0058 059A     		ldr	r2, [sp, #20]
 989 005a 1A60     		str	r2, [r3]
 990              		.loc 5 337 0
 991 005c 019B     		ldr	r3, [sp, #4]
 992 005e DB6A     		ldr	r3, [r3, #44]
 993 0060 1B68     		ldr	r3, [r3]
 994 0062 019A     		ldr	r2, [sp, #4]
 995 0064 D26A     		ldr	r2, [r2, #44]
 996 0066 1268     		ldr	r2, [r2]
 997 0068 1268     		ldr	r2, [r2]
 998 006a 42F00102 		orr	r2, r2, #1
 999 006e 1A60     		str	r2, [r3]
 1000              		.loc 5 340 0
 1001 0070 019B     		ldr	r3, [sp, #4]
 1002 0072 9B6A     		ldr	r3, [r3, #40]
 1003 0074 0022     		movs	r2, #0
 1004 0076 1A60     		str	r2, [r3]
 1005              		.loc 5 341 0
 1006 0078 019B     		ldr	r3, [sp, #4]
 1007 007a 9B6A     		ldr	r3, [r3, #40]
ARM GAS  /tmp/cciR6ge5.s 			page 19


 1008 007c 049A     		ldr	r2, [sp, #16]
 1009 007e 5269     		ldr	r2, [r2, #20]
 1010 0080 DA60     		str	r2, [r3, #12]
 1011              		.loc 5 342 0
 1012 0082 019B     		ldr	r3, [sp, #4]
 1013 0084 9B6A     		ldr	r3, [r3, #40]
 1014 0086 049A     		ldr	r2, [sp, #16]
 1015 0088 9269     		ldr	r2, [r2, #24]
 1016 008a 1A61     		str	r2, [r3, #16]
 1017              		.loc 5 343 0
 1018 008c 019B     		ldr	r3, [sp, #4]
 1019 008e 9B6A     		ldr	r3, [r3, #40]
 1020 0090 049A     		ldr	r2, [sp, #16]
 1021 0092 D269     		ldr	r2, [r2, #28]
 1022 0094 DA62     		str	r2, [r3, #44]
 1023              		.loc 5 344 0
 1024 0096 019B     		ldr	r3, [sp, #4]
 1025 0098 9B6A     		ldr	r3, [r3, #40]
 1026 009a 049A     		ldr	r2, [sp, #16]
 1027 009c 126A     		ldr	r2, [r2, #32]
 1028 009e 1A63     		str	r2, [r3, #48]
 1029              		.loc 5 345 0
 1030 00a0 019B     		ldr	r3, [sp, #4]
 1031 00a2 9B6A     		ldr	r3, [r3, #40]
 1032 00a4 049A     		ldr	r2, [sp, #16]
 1033 00a6 526A     		ldr	r2, [r2, #36]
 1034 00a8 5A63     		str	r2, [r3, #52]
 1035              		.loc 5 348 0
 1036 00aa 019B     		ldr	r3, [sp, #4]
 1037 00ac 9A6A     		ldr	r2, [r3, #40]
 1038 00ae 049B     		ldr	r3, [sp, #16]
 1039 00b0 DB68     		ldr	r3, [r3, #12]
 1040 00b2 43F08063 		orr	r3, r3, #67108864
 1041 00b6 43F48073 		orr	r3, r3, #256
 1042 00ba 5360     		str	r3, [r2, #4]
 1043              		.loc 5 351 0
 1044 00bc 049B     		ldr	r3, [sp, #16]
 1045 00be 1B69     		ldr	r3, [r3, #16]
 1046 00c0 43F44073 		orr	r3, r3, #768
 1047 00c4 43F00103 		orr	r3, r3, #1
 1048 00c8 0393     		str	r3, [sp, #12]
 1049              		.loc 5 355 0
 1050 00ca 039B     		ldr	r3, [sp, #12]
 1051 00cc 03F08043 		and	r3, r3, #1073741824
 1052 00d0 002B     		cmp	r3, #0
 1053 00d2 10D0     		beq	.L45
 1054              		.loc 5 357 0
 1055 00d4 019B     		ldr	r3, [sp, #4]
 1056 00d6 9A6A     		ldr	r2, [r3, #40]
 1057 00d8 039B     		ldr	r3, [sp, #12]
 1058 00da 23F08043 		bic	r3, r3, #1073741824
 1059 00de 23F00203 		bic	r3, r3, #2
 1060 00e2 43F00203 		orr	r3, r3, #2
 1061 00e6 9360     		str	r3, [r2, #8]
 1062              		.loc 5 360 0
 1063 00e8 019B     		ldr	r3, [sp, #4]
 1064 00ea 9B6A     		ldr	r3, [r3, #40]
ARM GAS  /tmp/cciR6ge5.s 			page 20


 1065 00ec 039A     		ldr	r2, [sp, #12]
 1066 00ee 42F00202 		orr	r2, r2, #2
 1067 00f2 9A60     		str	r2, [r3, #8]
 1068 00f4 03E0     		b	.L43
 1069              	.L45:
 1070              		.loc 5 363 0
 1071 00f6 019B     		ldr	r3, [sp, #4]
 1072 00f8 9B6A     		ldr	r3, [r3, #40]
 1073 00fa 039A     		ldr	r2, [sp, #12]
 1074 00fc 9A60     		str	r2, [r3, #8]
 1075              	.L43:
 1076              		.loc 5 364 0
 1077 00fe 06B0     		add	sp, sp, #24
 1078              		.cfi_def_cfa_offset 0
 1079              		@ sp needed
 1080 0100 7047     		bx	lr
 1081              		.cfi_endproc
 1082              	.LFE258:
 1083              		.size	adc_lld_start_conversion, .-adc_lld_start_conversion
 1084 0102 00BFAFF3 		.section	.text.adc_lld_stop_conversion,"ax",%progbits
 1084      0080AFF3 
 1084      0080AFF3 
 1084      0080
 1085              		.align	2
 1086              		.p2align 4,,15
 1087              		.global	adc_lld_stop_conversion
 1088              		.thumb
 1089              		.thumb_func
 1090              		.type	adc_lld_stop_conversion, %function
 1091              	adc_lld_stop_conversion:
 1092              	.LFB259:
 1093              		.loc 5 373 0
 1094              		.cfi_startproc
 1095              		@ args = 0, pretend = 0, frame = 8
 1096              		@ frame_needed = 0, uses_anonymous_args = 0
 1097              		@ link register save eliminated.
 1098 0000 82B0     		sub	sp, sp, #8
 1099              		.cfi_def_cfa_offset 8
 1100 0002 0190     		str	r0, [sp, #4]
 1101              		.loc 5 375 0
 1102 0004 019B     		ldr	r3, [sp, #4]
 1103 0006 DB6A     		ldr	r3, [r3, #44]
 1104 0008 1B68     		ldr	r3, [r3]
 1105 000a 019A     		ldr	r2, [sp, #4]
 1106 000c D26A     		ldr	r2, [r2, #44]
 1107 000e 1268     		ldr	r2, [r2]
 1108 0010 1268     		ldr	r2, [r2]
 1109 0012 22F01F02 		bic	r2, r2, #31
 1110 0016 1A60     		str	r2, [r3]
 1111 0018 00BF     		nop
 1112              	.L48:
 1113              		.loc 5 375 0 is_stmt 0 discriminator 2
 1114 001a 019B     		ldr	r3, [sp, #4]
 1115 001c DB6A     		ldr	r3, [r3, #44]
 1116 001e 1B68     		ldr	r3, [r3]
 1117 0020 1B68     		ldr	r3, [r3]
 1118 0022 03F00103 		and	r3, r3, #1
ARM GAS  /tmp/cciR6ge5.s 			page 21


 1119 0026 002B     		cmp	r3, #0
 1120 0028 F7D1     		bne	.L48
 1121              		.loc 5 375 0 discriminator 3
 1122 002a 019B     		ldr	r3, [sp, #4]
 1123 002c DB6A     		ldr	r3, [r3, #44]
 1124 002e 5B68     		ldr	r3, [r3, #4]
 1125 0030 019A     		ldr	r2, [sp, #4]
 1126 0032 D26A     		ldr	r2, [r2, #44]
 1127 0034 127A     		ldrb	r2, [r2, #8]	@ zero_extendqisi2
 1128 0036 1146     		mov	r1, r2
 1129 0038 3D22     		movs	r2, #61
 1130 003a 8A40     		lsls	r2, r2, r1
 1131 003c 1A60     		str	r2, [r3]
 1132              		.loc 5 376 0 is_stmt 1 discriminator 3
 1133 003e 019B     		ldr	r3, [sp, #4]
 1134 0040 9B6A     		ldr	r3, [r3, #40]
 1135 0042 0022     		movs	r2, #0
 1136 0044 5A60     		str	r2, [r3, #4]
 1137              		.loc 5 377 0 discriminator 3
 1138 0046 019B     		ldr	r3, [sp, #4]
 1139 0048 9B6A     		ldr	r3, [r3, #40]
 1140 004a 0022     		movs	r2, #0
 1141 004c 9A60     		str	r2, [r3, #8]
 1142              		.loc 5 378 0 discriminator 3
 1143 004e 019B     		ldr	r3, [sp, #4]
 1144 0050 9B6A     		ldr	r3, [r3, #40]
 1145 0052 0122     		movs	r2, #1
 1146 0054 9A60     		str	r2, [r3, #8]
 1147              		.loc 5 379 0 discriminator 3
 1148 0056 02B0     		add	sp, sp, #8
 1149              		.cfi_def_cfa_offset 0
 1150              		@ sp needed
 1151 0058 7047     		bx	lr
 1152              		.cfi_endproc
 1153              	.LFE259:
 1154              		.size	adc_lld_stop_conversion, .-adc_lld_stop_conversion
 1155 005a 00BFAFF3 		.section	.text.adcSTM32EnableTSVREFE,"ax",%progbits
 1155      0080
 1156              		.align	2
 1157              		.p2align 4,,15
 1158              		.global	adcSTM32EnableTSVREFE
 1159              		.thumb
 1160              		.thumb_func
 1161              		.type	adcSTM32EnableTSVREFE, %function
 1162              	adcSTM32EnableTSVREFE:
 1163              	.LFB260:
 1164              		.loc 5 387 0
 1165              		.cfi_startproc
 1166              		@ args = 0, pretend = 0, frame = 0
 1167              		@ frame_needed = 0, uses_anonymous_args = 0
 1168              		@ link register save eliminated.
 1169              		.loc 5 389 0
 1170 0000 034A     		ldr	r2, .L50
 1171 0002 034B     		ldr	r3, .L50
 1172 0004 5B68     		ldr	r3, [r3, #4]
 1173 0006 43F40003 		orr	r3, r3, #8388608
 1174 000a 5360     		str	r3, [r2, #4]
ARM GAS  /tmp/cciR6ge5.s 			page 22


 1175              		.loc 5 390 0
 1176 000c 7047     		bx	lr
 1177              	.L51:
 1178 000e 00BF     		.align	2
 1179              	.L50:
 1180 0010 00230140 		.word	1073816320
 1181              		.cfi_endproc
 1182              	.LFE260:
 1183              		.size	adcSTM32EnableTSVREFE, .-adcSTM32EnableTSVREFE
 1184 0014 AFF30080 		.section	.text.adcSTM32DisableTSVREFE,"ax",%progbits
 1184      AFF30080 
 1184      AFF30080 
 1185              		.align	2
 1186              		.p2align 4,,15
 1187              		.global	adcSTM32DisableTSVREFE
 1188              		.thumb
 1189              		.thumb_func
 1190              		.type	adcSTM32DisableTSVREFE, %function
 1191              	adcSTM32DisableTSVREFE:
 1192              	.LFB261:
 1193              		.loc 5 398 0
 1194              		.cfi_startproc
 1195              		@ args = 0, pretend = 0, frame = 0
 1196              		@ frame_needed = 0, uses_anonymous_args = 0
 1197              		@ link register save eliminated.
 1198              		.loc 5 400 0
 1199 0000 034A     		ldr	r2, .L53
 1200 0002 034B     		ldr	r3, .L53
 1201 0004 5B68     		ldr	r3, [r3, #4]
 1202 0006 23F40003 		bic	r3, r3, #8388608
 1203 000a 5360     		str	r3, [r2, #4]
 1204              		.loc 5 401 0
 1205 000c 7047     		bx	lr
 1206              	.L54:
 1207 000e 00BF     		.align	2
 1208              	.L53:
 1209 0010 00230140 		.word	1073816320
 1210              		.cfi_endproc
 1211              	.LFE261:
 1212              		.size	adcSTM32DisableTSVREFE, .-adcSTM32DisableTSVREFE
 1213 0014 AFF30080 		.section	.text.adcSTM32EnableVBATE,"ax",%progbits
 1213      AFF30080 
 1213      AFF30080 
 1214              		.align	2
 1215              		.p2align 4,,15
 1216              		.global	adcSTM32EnableVBATE
 1217              		.thumb
 1218              		.thumb_func
 1219              		.type	adcSTM32EnableVBATE, %function
 1220              	adcSTM32EnableVBATE:
 1221              	.LFB262:
 1222              		.loc 5 409 0
 1223              		.cfi_startproc
 1224              		@ args = 0, pretend = 0, frame = 0
 1225              		@ frame_needed = 0, uses_anonymous_args = 0
 1226              		@ link register save eliminated.
 1227              		.loc 5 411 0
ARM GAS  /tmp/cciR6ge5.s 			page 23


 1228 0000 034A     		ldr	r2, .L56
 1229 0002 034B     		ldr	r3, .L56
 1230 0004 5B68     		ldr	r3, [r3, #4]
 1231 0006 43F48003 		orr	r3, r3, #4194304
 1232 000a 5360     		str	r3, [r2, #4]
 1233              		.loc 5 412 0
 1234 000c 7047     		bx	lr
 1235              	.L57:
 1236 000e 00BF     		.align	2
 1237              	.L56:
 1238 0010 00230140 		.word	1073816320
 1239              		.cfi_endproc
 1240              	.LFE262:
 1241              		.size	adcSTM32EnableVBATE, .-adcSTM32EnableVBATE
 1242 0014 AFF30080 		.section	.text.adcSTM32DisableVBATE,"ax",%progbits
 1242      AFF30080 
 1242      AFF30080 
 1243              		.align	2
 1244              		.p2align 4,,15
 1245              		.global	adcSTM32DisableVBATE
 1246              		.thumb
 1247              		.thumb_func
 1248              		.type	adcSTM32DisableVBATE, %function
 1249              	adcSTM32DisableVBATE:
 1250              	.LFB263:
 1251              		.loc 5 420 0
 1252              		.cfi_startproc
 1253              		@ args = 0, pretend = 0, frame = 0
 1254              		@ frame_needed = 0, uses_anonymous_args = 0
 1255              		@ link register save eliminated.
 1256              		.loc 5 422 0
 1257 0000 034A     		ldr	r2, .L59
 1258 0002 034B     		ldr	r3, .L59
 1259 0004 5B68     		ldr	r3, [r3, #4]
 1260 0006 23F48003 		bic	r3, r3, #4194304
 1261 000a 5360     		str	r3, [r2, #4]
 1262              		.loc 5 423 0
 1263 000c 7047     		bx	lr
 1264              	.L60:
 1265 000e 00BF     		.align	2
 1266              	.L59:
 1267 0010 00230140 		.word	1073816320
 1268              		.cfi_endproc
 1269              	.LFE263:
 1270              		.size	adcSTM32DisableVBATE, .-adcSTM32DisableVBATE
 1271 0014 AFF30080 		.text
 1271      AFF30080 
 1271      AFF30080 
 1272              	.Letext0:
 1273              		.file 6 "/opt/gcc-arm-none-eabi/lib/gcc/arm-none-eabi/4.9.3/include/stddef.h"
 1274              		.file 7 "/opt/gcc-arm-none-eabi/arm-none-eabi/include/machine/_default_types.h"
 1275              		.file 8 "/opt/gcc-arm-none-eabi/arm-none-eabi/include/stdint.h"
 1276              		.file 9 "/home/makkmarci/workspace/CLEAN/ChibiOS/os/rt/ports/ARMCMx/compilers/GCC/chtypes.h"
 1277              		.file 10 "/home/makkmarci/workspace/CLEAN/ChibiOS/os/rt/include/chsystypes.h"
 1278              		.file 11 "/home/makkmarci/workspace/CLEAN/ChibiOS/os/rt/include/chschd.h"
 1279              		.file 12 "/home/makkmarci/workspace/CLEAN/ChibiOS/os/ext/CMSIS/ST/stm32f407xx.h"
 1280              		.file 13 "/home/makkmarci/workspace/CLEAN/ChibiOS/os/rt/ports/ARMCMx/chcore.h"
ARM GAS  /tmp/cciR6ge5.s 			page 24


 1281              		.file 14 "/home/makkmarci/workspace/CLEAN/ChibiOS/os/rt/include/chtm.h"
 1282              		.file 15 "/home/makkmarci/workspace/CLEAN/ChibiOS/os/rt/include/chsem.h"
 1283              		.file 16 "/home/makkmarci/workspace/CLEAN/ChibiOS/os/rt/include/chmtx.h"
 1284              		.file 17 "/home/makkmarci/workspace/CLEAN/ChibiOS/os/hal/ports/STM32/STM32F4xx/stm32_dma.h"
 1285              		.file 18 "/home/makkmarci/workspace/CLEAN/ChibiOS/os/hal/include/adc.h"
 1286              		.file 19 "/home/makkmarci/workspace/CLEAN/ChibiOS/os/hal/ports/STM32/STM32F4xx/adc_lld.h"
 1287              		.file 20 "/home/makkmarci/workspace/CLEAN/ChibiOS/os/ext/CMSIS/include/core_cm4.h"