ARM GAS  /tmp/ccaCVTnB.s 			page 1


   1              		.syntax unified
   2              		.cpu cortex-m4
   3              		.eabi_attribute 27, 1
   4              		.eabi_attribute 28, 1
   5              		.fpu fpv4-sp-d16
   6              		.eabi_attribute 20, 1
   7              		.eabi_attribute 21, 1
   8              		.eabi_attribute 23, 3
   9              		.eabi_attribute 24, 1
  10              		.eabi_attribute 25, 1
  11              		.eabi_attribute 26, 1
  12              		.eabi_attribute 30, 6
  13              		.eabi_attribute 34, 1
  14              		.eabi_attribute 18, 4
  15              		.thumb
  16              		.file	"chcore_v7m.c"
  17              		.text
  18              	.Ltext0:
  19              		.cfi_sections	.debug_frame
  20              		.section	.text.port_lock,"ax",%progbits
  21              		.align	2
  22              		.p2align 4,,15
  23              		.thumb
  24              		.thumb_func
  25              		.type	port_lock, %function
  26              	port_lock:
  27              	.LFB116:
  28              		.file 1 "/home/makkmarci/workspace/CLEAN/ChibiOS/os/rt/ports/ARMCMx/chcore_v7m.h"
  29              		.loc 1 444 0
  30              		.cfi_startproc
  31              		@ args = 0, pretend = 0, frame = 8
  32              		@ frame_needed = 0, uses_anonymous_args = 0
  33              		@ link register save eliminated.
  34 0000 82B0     		sub	sp, sp, #8
  35              		.cfi_def_cfa_offset 8
  36 0002 2023     		movs	r3, #32
  37 0004 0193     		str	r3, [sp, #4]
  38              	.LBB17:
  39              	.LBB18:
  40              		.file 2 "/home/makkmarci/workspace/CLEAN/ChibiOS/os/ext/CMSIS/include/core_cmFunc.h"
  41              		.loc 2 546 0
  42 0006 019B     		ldr	r3, [sp, #4]
  43              	@ 546 "/home/makkmarci/workspace/CLEAN/ChibiOS/os/ext/CMSIS/include/core_cmFunc.h" 1
  44 0008 83F31188 		MSR basepri, r3
  45              	@ 0 "" 2
  46              		.thumb
  47              	.LBE18:
  48              	.LBE17:
  49              		.loc 1 451 0
  50 000c 02B0     		add	sp, sp, #8
  51              		.cfi_def_cfa_offset 0
  52              		@ sp needed
  53 000e 7047     		bx	lr
  54              		.cfi_endproc
  55              	.LFE116:
  56              		.size	port_lock, .-port_lock
  57              		.section	.text.port_unlock,"ax",%progbits
ARM GAS  /tmp/ccaCVTnB.s 			page 2


  58              		.align	2
  59              		.p2align 4,,15
  60              		.thumb
  61              		.thumb_func
  62              		.type	port_unlock, %function
  63              	port_unlock:
  64              	.LFB117:
  65              		.loc 1 458 0
  66              		.cfi_startproc
  67              		@ args = 0, pretend = 0, frame = 8
  68              		@ frame_needed = 0, uses_anonymous_args = 0
  69              		@ link register save eliminated.
  70 0000 82B0     		sub	sp, sp, #8
  71              		.cfi_def_cfa_offset 8
  72 0002 0023     		movs	r3, #0
  73 0004 0193     		str	r3, [sp, #4]
  74              	.LBB19:
  75              	.LBB20:
  76              		.loc 2 546 0
  77 0006 019B     		ldr	r3, [sp, #4]
  78              	@ 546 "/home/makkmarci/workspace/CLEAN/ChibiOS/os/ext/CMSIS/include/core_cmFunc.h" 1
  79 0008 83F31188 		MSR basepri, r3
  80              	@ 0 "" 2
  81              		.thumb
  82              	.LBE20:
  83              	.LBE19:
  84              		.loc 1 465 0
  85 000c 02B0     		add	sp, sp, #8
  86              		.cfi_def_cfa_offset 0
  87              		@ sp needed
  88 000e 7047     		bx	lr
  89              		.cfi_endproc
  90              	.LFE117:
  91              		.size	port_unlock, .-port_unlock
  92              		.section	.text.port_lock_from_isr,"ax",%progbits
  93              		.align	2
  94              		.p2align 4,,15
  95              		.thumb
  96              		.thumb_func
  97              		.type	port_lock_from_isr, %function
  98              	port_lock_from_isr:
  99              	.LFB118:
 100              		.loc 1 473 0
 101              		.cfi_startproc
 102              		@ args = 0, pretend = 0, frame = 0
 103              		@ frame_needed = 0, uses_anonymous_args = 0
 104 0000 08B5     		push	{r3, lr}
 105              		.cfi_def_cfa_offset 8
 106              		.cfi_offset 3, -8
 107              		.cfi_offset 14, -4
 108              		.loc 1 475 0
 109 0002 FFF7FEFF 		bl	port_lock
 110              		.loc 1 476 0
 111 0006 08BD     		pop	{r3, pc}
 112              		.cfi_endproc
 113              	.LFE118:
 114              		.size	port_lock_from_isr, .-port_lock_from_isr
ARM GAS  /tmp/ccaCVTnB.s 			page 3


 115 0008 AFF30080 		.section	.text.port_unlock_from_isr,"ax",%progbits
 115      AFF30080 
 116              		.align	2
 117              		.p2align 4,,15
 118              		.thumb
 119              		.thumb_func
 120              		.type	port_unlock_from_isr, %function
 121              	port_unlock_from_isr:
 122              	.LFB119:
 123              		.loc 1 484 0
 124              		.cfi_startproc
 125              		@ args = 0, pretend = 0, frame = 0
 126              		@ frame_needed = 0, uses_anonymous_args = 0
 127 0000 08B5     		push	{r3, lr}
 128              		.cfi_def_cfa_offset 8
 129              		.cfi_offset 3, -8
 130              		.cfi_offset 14, -4
 131              		.loc 1 486 0
 132 0002 FFF7FEFF 		bl	port_unlock
 133              		.loc 1 487 0
 134 0006 08BD     		pop	{r3, pc}
 135              		.cfi_endproc
 136              	.LFE119:
 137              		.size	port_unlock_from_isr, .-port_unlock_from_isr
 138 0008 AFF30080 		.section	.text.SVC_Handler,"ax",%progbits
 138      AFF30080 
 139              		.align	2
 140              		.p2align 4,,15
 141              		.global	SVC_Handler
 142              		.thumb
 143              		.thumb_func
 144              		.type	SVC_Handler, %function
 145              	SVC_Handler:
 146              	.LFB216:
 147              		.file 3 "/home/makkmarci/workspace/CLEAN/ChibiOS/os/rt/ports/ARMCMx/chcore_v7m.c"
 148              		.loc 3 62 0
 149              		.cfi_startproc
 150              		@ args = 0, pretend = 0, frame = 8
 151              		@ frame_needed = 0, uses_anonymous_args = 0
 152 0000 10B5     		push	{r4, lr}
 153              		.cfi_def_cfa_offset 8
 154              		.cfi_offset 4, -8
 155              		.cfi_offset 14, -4
 156 0002 82B0     		sub	sp, sp, #8
 157              		.cfi_def_cfa_offset 16
 158              		.loc 3 68 0
 159 0004 0B4A     		ldr	r2, .L7
 160 0006 0B4B     		ldr	r3, .L7
 161 0008 5B68     		ldr	r3, [r3, #4]
 162 000a 23F00103 		bic	r3, r3, #1
 163 000e 5360     		str	r3, [r2, #4]
 164              	.LBB21:
 165              	.LBB22:
 166              		.loc 2 428 0
 167              	@ 428 "/home/makkmarci/workspace/CLEAN/ChibiOS/os/ext/CMSIS/include/core_cmFunc.h" 1
 168 0010 EFF30983 		MRS r3, psp
 169              	
ARM GAS  /tmp/ccaCVTnB.s 			page 4


 170              	@ 0 "" 2
 171              		.thumb
 172 0014 1C46     		mov	r4, r3
 173              		.loc 2 429 0
 174 0016 2346     		mov	r3, r4
 175              	.LBE22:
 176              	.LBE21:
 177              		.loc 3 72 0
 178 0018 0193     		str	r3, [sp, #4]
 179              		.loc 3 76 0
 180 001a 019B     		ldr	r3, [sp, #4]
 181 001c 6833     		adds	r3, r3, #104
 182 001e 0193     		str	r3, [sp, #4]
 183              		.loc 3 79 0
 184 0020 019B     		ldr	r3, [sp, #4]
 185 0022 0093     		str	r3, [sp]
 186              	.LBB23:
 187              	.LBB24:
 188              		.loc 2 441 0
 189 0024 009B     		ldr	r3, [sp]
 190              	@ 441 "/home/makkmarci/workspace/CLEAN/ChibiOS/os/ext/CMSIS/include/core_cmFunc.h" 1
 191 0026 83F30988 		MSR psp, r3
 192              	
 193              	@ 0 "" 2
 194              		.thumb
 195              	.LBE24:
 196              	.LBE23:
 197              		.loc 3 82 0
 198 002a FFF7FEFF 		bl	port_unlock_from_isr
 199              		.loc 3 83 0
 200 002e 02B0     		add	sp, sp, #8
 201              		.cfi_def_cfa_offset 8
 202              		@ sp needed
 203 0030 10BD     		pop	{r4, pc}
 204              	.L8:
 205 0032 00BF     		.align	2
 206              	.L7:
 207 0034 30EF00E0 		.word	-536809680
 208              		.cfi_endproc
 209              	.LFE216:
 210              		.size	SVC_Handler, .-SVC_Handler
 211 0038 AFF30080 		.section	.text._port_irq_epilogue,"ax",%progbits
 211      AFF30080 
 212              		.align	2
 213              		.p2align 4,,15
 214              		.global	_port_irq_epilogue
 215              		.thumb
 216              		.thumb_func
 217              		.type	_port_irq_epilogue, %function
 218              	_port_irq_epilogue:
 219              	.LFB217:
 220              		.loc 3 122 0
 221              		.cfi_startproc
 222              		@ args = 0, pretend = 0, frame = 16
 223              		@ frame_needed = 0, uses_anonymous_args = 0
 224 0000 10B5     		push	{r4, lr}
 225              		.cfi_def_cfa_offset 8
ARM GAS  /tmp/ccaCVTnB.s 			page 5


 226              		.cfi_offset 4, -8
 227              		.cfi_offset 14, -4
 228 0002 84B0     		sub	sp, sp, #16
 229              		.cfi_def_cfa_offset 24
 230              		.loc 3 124 0
 231 0004 FFF7FEFF 		bl	port_lock_from_isr
 232              		.loc 3 125 0
 233 0008 174B     		ldr	r3, .L16
 234 000a 5B68     		ldr	r3, [r3, #4]
 235 000c 03F40063 		and	r3, r3, #2048
 236 0010 002B     		cmp	r3, #0
 237 0012 25D0     		beq	.L10
 238              	.LBB25:
 239              	.LBB26:
 240              	.LBB27:
 241              		.loc 2 593 0
 242              		.loc 2 594 0
 243              	@ 594 "/home/makkmarci/workspace/CLEAN/ChibiOS/os/ext/CMSIS/include/core_cmFunc.h" 1
 244 0014 F1EE103A 		VMRS r3, fpscr
 245              	@ 0 "" 2
 246              		.thumb
 247 0018 0293     		str	r3, [sp, #8]
 248              		.loc 2 595 0
 249              	.LBE27:
 250              	.LBE26:
 251              	.LBB28:
 252              	.LBB29:
 253              		.loc 2 428 0
 254              	@ 428 "/home/makkmarci/workspace/CLEAN/ChibiOS/os/ext/CMSIS/include/core_cmFunc.h" 1
 255 001a EFF30983 		MRS r3, psp
 256              	
 257              	@ 0 "" 2
 258              		.thumb
 259 001e 1C46     		mov	r4, r3
 260              		.loc 2 429 0
 261 0020 2346     		mov	r3, r4
 262              	.LBE29:
 263              	.LBE28:
 264              		.loc 3 134 0
 265 0022 0393     		str	r3, [sp, #12]
 266              		.loc 3 138 0
 267 0024 039B     		ldr	r3, [sp, #12]
 268 0026 683B     		subs	r3, r3, #104
 269 0028 0393     		str	r3, [sp, #12]
 270              		.loc 3 141 0
 271 002a 039B     		ldr	r3, [sp, #12]
 272 002c 4FF08072 		mov	r2, #16777216
 273 0030 DA61     		str	r2, [r3, #28]
 274              		.loc 3 143 0
 275 0032 0E4B     		ldr	r3, .L16+4
 276 0034 DB68     		ldr	r3, [r3, #12]
 277 0036 1A46     		mov	r2, r3
 278 0038 039B     		ldr	r3, [sp, #12]
 279 003a 1A66     		str	r2, [r3, #96]
 280              		.loc 3 147 0
 281 003c 039B     		ldr	r3, [sp, #12]
 282 003e 0193     		str	r3, [sp, #4]
ARM GAS  /tmp/ccaCVTnB.s 			page 6


 283              	.LBB30:
 284              	.LBB31:
 285              		.loc 2 441 0
 286 0040 019B     		ldr	r3, [sp, #4]
 287              	@ 441 "/home/makkmarci/workspace/CLEAN/ChibiOS/os/ext/CMSIS/include/core_cmFunc.h" 1
 288 0042 83F30988 		MSR psp, r3
 289              	
 290              	@ 0 "" 2
 291              		.thumb
 292              	.LBE31:
 293              	.LBE30:
 294              		.loc 3 151 0
 295 0046 FFF7FEFF 		bl	chSchIsPreemptionRequired
 296 004a 0346     		mov	r3, r0
 297 004c 002B     		cmp	r3, #0
 298 004e 03D0     		beq	.L13
 299              		.loc 3 153 0
 300 0050 039B     		ldr	r3, [sp, #12]
 301 0052 074A     		ldr	r2, .L16+8
 302 0054 9A61     		str	r2, [r3, #24]
 303              		.loc 3 163 0
 304 0056 05E0     		b	.L9
 305              	.L13:
 306              		.loc 3 158 0
 307 0058 039B     		ldr	r3, [sp, #12]
 308 005a 064A     		ldr	r2, .L16+12
 309 005c 9A61     		str	r2, [r3, #24]
 310              		.loc 3 163 0
 311 005e 01E0     		b	.L9
 312              	.L10:
 313              	.LBE25:
 314              		.loc 3 165 0
 315 0060 FFF7FEFF 		bl	port_unlock_from_isr
 316              	.L9:
 317              		.loc 3 166 0
 318 0064 04B0     		add	sp, sp, #16
 319              		.cfi_def_cfa_offset 8
 320              		@ sp needed
 321 0066 10BD     		pop	{r4, pc}
 322              	.L17:
 323              		.align	2
 324              	.L16:
 325 0068 00ED00E0 		.word	-536810240
 326 006c 30EF00E0 		.word	-536809680
 327 0070 00000000 		.word	_port_switch_from_isr
 328 0074 00000000 		.word	_port_exit_from_isr
 329              		.cfi_endproc
 330              	.LFE217:
 331              		.size	_port_irq_epilogue, .-_port_irq_epilogue
 332 0078 AFF30080 		.text
 332      AFF30080 
 333              	.Letext0:
 334              		.file 4 "/opt/gcc-arm-none-eabi/arm-none-eabi/include/machine/_default_types.h"
 335              		.file 5 "/opt/gcc-arm-none-eabi/arm-none-eabi/include/stdint.h"
 336              		.file 6 "/home/makkmarci/workspace/CLEAN/ChibiOS/os/rt/ports/ARMCMx/compilers/GCC/chtypes.h"
 337              		.file 7 "/home/makkmarci/workspace/CLEAN/ChibiOS/os/rt/include/chsystypes.h"
 338              		.file 8 "/home/makkmarci/workspace/CLEAN/ChibiOS/os/rt/include/chschd.h"
ARM GAS  /tmp/ccaCVTnB.s 			page 7


 339              		.file 9 "/home/makkmarci/workspace/CLEAN/ChibiOS/os/ext/CMSIS/include/core_cm4.h"
 340              		.file 10 "/home/makkmarci/workspace/CLEAN/ChibiOS/os/rt/ports/ARMCMx/chcore.h"
 341              		.file 11 "/home/makkmarci/workspace/CLEAN/ChibiOS/os/rt/include/chtm.h"
 342              		.file 12 "/home/makkmarci/workspace/CLEAN/ChibiOS/os/rt/include/chsem.h"
 343              		.file 13 "/home/makkmarci/workspace/CLEAN/ChibiOS/os/rt/include/chmtx.h"