ARM GAS  /tmp/ccHfAbIj.s 			page 1


   1              		.syntax unified
   2              		.cpu cortex-m4
   3              		.eabi_attribute 27, 1
   4              		.eabi_attribute 28, 1
   5              		.fpu fpv4-sp-d16
   6              		.eabi_attribute 20, 1
   7              		.eabi_attribute 21, 1
   8              		.eabi_attribute 23, 3
   9              		.eabi_attribute 24, 1
  10              		.eabi_attribute 25, 1
  11              		.eabi_attribute 26, 1
  12              		.eabi_attribute 30, 6
  13              		.eabi_attribute 34, 1
  14              		.eabi_attribute 18, 4
  15              		.thumb
  16              		.file	"chcond.c"
  17              		.text
  18              	.Ltext0:
  19              		.cfi_sections	.debug_frame
  20              		.section	.text.port_lock,"ax",%progbits
  21              		.align	2
  22              		.p2align 4,,15
  23              		.thumb
  24              		.thumb_func
  25              		.type	port_lock, %function
  26              	port_lock:
  27              	.LFB116:
  28              		.file 1 "/home/makkmarci/workspace/CLEAN/ChibiOS/os/rt/ports/ARMCMx/chcore_v7m.h"
  29              		.loc 1 444 0
  30              		.cfi_startproc
  31              		@ args = 0, pretend = 0, frame = 8
  32              		@ frame_needed = 0, uses_anonymous_args = 0
  33              		@ link register save eliminated.
  34 0000 82B0     		sub	sp, sp, #8
  35              		.cfi_def_cfa_offset 8
  36 0002 2023     		movs	r3, #32
  37 0004 0193     		str	r3, [sp, #4]
  38              	.LBB6:
  39              	.LBB7:
  40              		.file 2 "/home/makkmarci/workspace/CLEAN/ChibiOS/os/ext/CMSIS/include/core_cmFunc.h"
  41              		.loc 2 546 0
  42 0006 019B     		ldr	r3, [sp, #4]
  43              	@ 546 "/home/makkmarci/workspace/CLEAN/ChibiOS/os/ext/CMSIS/include/core_cmFunc.h" 1
  44 0008 83F31188 		MSR basepri, r3
  45              	@ 0 "" 2
  46              		.thumb
  47              	.LBE7:
  48              	.LBE6:
  49              		.loc 1 451 0
  50 000c 02B0     		add	sp, sp, #8
  51              		.cfi_def_cfa_offset 0
  52              		@ sp needed
  53 000e 7047     		bx	lr
  54              		.cfi_endproc
  55              	.LFE116:
  56              		.size	port_lock, .-port_lock
  57              		.section	.text.port_unlock,"ax",%progbits
ARM GAS  /tmp/ccHfAbIj.s 			page 2


  58              		.align	2
  59              		.p2align 4,,15
  60              		.thumb
  61              		.thumb_func
  62              		.type	port_unlock, %function
  63              	port_unlock:
  64              	.LFB117:
  65              		.loc 1 458 0
  66              		.cfi_startproc
  67              		@ args = 0, pretend = 0, frame = 8
  68              		@ frame_needed = 0, uses_anonymous_args = 0
  69              		@ link register save eliminated.
  70 0000 82B0     		sub	sp, sp, #8
  71              		.cfi_def_cfa_offset 8
  72 0002 0023     		movs	r3, #0
  73 0004 0193     		str	r3, [sp, #4]
  74              	.LBB8:
  75              	.LBB9:
  76              		.loc 2 546 0
  77 0006 019B     		ldr	r3, [sp, #4]
  78              	@ 546 "/home/makkmarci/workspace/CLEAN/ChibiOS/os/ext/CMSIS/include/core_cmFunc.h" 1
  79 0008 83F31188 		MSR basepri, r3
  80              	@ 0 "" 2
  81              		.thumb
  82              	.LBE9:
  83              	.LBE8:
  84              		.loc 1 465 0
  85 000c 02B0     		add	sp, sp, #8
  86              		.cfi_def_cfa_offset 0
  87              		@ sp needed
  88 000e 7047     		bx	lr
  89              		.cfi_endproc
  90              	.LFE117:
  91              		.size	port_unlock, .-port_unlock
  92              		.section	.text.queue_init,"ax",%progbits
  93              		.align	2
  94              		.p2align 4,,15
  95              		.thumb
  96              		.thumb_func
  97              		.type	queue_init, %function
  98              	queue_init:
  99              	.LFB128:
 100              		.file 3 "/home/makkmarci/workspace/CLEAN/ChibiOS/os/rt/include/chschd.h"
 101              		.loc 3 602 0
 102              		.cfi_startproc
 103              		@ args = 0, pretend = 0, frame = 8
 104              		@ frame_needed = 0, uses_anonymous_args = 0
 105              		@ link register save eliminated.
 106 0000 82B0     		sub	sp, sp, #8
 107              		.cfi_def_cfa_offset 8
 108 0002 0190     		str	r0, [sp, #4]
 109              		.loc 3 604 0
 110 0004 019B     		ldr	r3, [sp, #4]
 111 0006 019A     		ldr	r2, [sp, #4]
 112 0008 1A60     		str	r2, [r3]
 113              		.loc 3 605 0
 114 000a 019B     		ldr	r3, [sp, #4]
ARM GAS  /tmp/ccHfAbIj.s 			page 3


 115 000c 019A     		ldr	r2, [sp, #4]
 116 000e 5A60     		str	r2, [r3, #4]
 117              		.loc 3 606 0
 118 0010 02B0     		add	sp, sp, #8
 119              		.cfi_def_cfa_offset 0
 120              		@ sp needed
 121 0012 7047     		bx	lr
 122              		.cfi_endproc
 123              	.LFE128:
 124              		.size	queue_init, .-queue_init
 125 0014 AFF30080 		.section	.text.queue_notempty,"ax",%progbits
 125      AFF30080 
 125      AFF30080 
 126              		.align	2
 127              		.p2align 4,,15
 128              		.thumb
 129              		.thumb_func
 130              		.type	queue_notempty, %function
 131              	queue_notempty:
 132              	.LFB130:
 133              		.loc 3 629 0
 134              		.cfi_startproc
 135              		@ args = 0, pretend = 0, frame = 8
 136              		@ frame_needed = 0, uses_anonymous_args = 0
 137              		@ link register save eliminated.
 138 0000 82B0     		sub	sp, sp, #8
 139              		.cfi_def_cfa_offset 8
 140 0002 0190     		str	r0, [sp, #4]
 141              		.loc 3 631 0
 142 0004 019B     		ldr	r3, [sp, #4]
 143 0006 1A68     		ldr	r2, [r3]
 144 0008 019B     		ldr	r3, [sp, #4]
 145 000a 9A42     		cmp	r2, r3
 146 000c 14BF     		ite	ne
 147 000e 0123     		movne	r3, #1
 148 0010 0023     		moveq	r3, #0
 149 0012 DBB2     		uxtb	r3, r3
 150              		.loc 3 632 0
 151 0014 1846     		mov	r0, r3
 152 0016 02B0     		add	sp, sp, #8
 153              		.cfi_def_cfa_offset 0
 154              		@ sp needed
 155 0018 7047     		bx	lr
 156              		.cfi_endproc
 157              	.LFE130:
 158              		.size	queue_notempty, .-queue_notempty
 159 001a 00BFAFF3 		.section	.text.queue_prio_insert,"ax",%progbits
 159      0080
 160              		.align	2
 161              		.p2align 4,,15
 162              		.thumb
 163              		.thumb_func
 164              		.type	queue_prio_insert, %function
 165              	queue_prio_insert:
 166              	.LFB133:
 167              		.loc 3 651 0
 168              		.cfi_startproc
ARM GAS  /tmp/ccHfAbIj.s 			page 4


 169              		@ args = 0, pretend = 0, frame = 16
 170              		@ frame_needed = 0, uses_anonymous_args = 0
 171              		@ link register save eliminated.
 172 0000 84B0     		sub	sp, sp, #16
 173              		.cfi_def_cfa_offset 16
 174 0002 0190     		str	r0, [sp, #4]
 175 0004 0091     		str	r1, [sp]
 176              		.loc 3 653 0
 177 0006 009B     		ldr	r3, [sp]
 178 0008 0393     		str	r3, [sp, #12]
 179              	.L8:
 180              		.loc 3 655 0 discriminator 2
 181 000a 039B     		ldr	r3, [sp, #12]
 182 000c 1B68     		ldr	r3, [r3]
 183 000e 0393     		str	r3, [sp, #12]
 184              		.loc 3 656 0 discriminator 2
 185 0010 039A     		ldr	r2, [sp, #12]
 186 0012 009B     		ldr	r3, [sp]
 187 0014 9A42     		cmp	r2, r3
 188 0016 05D0     		beq	.L7
 189              		.loc 3 656 0 is_stmt 0 discriminator 1
 190 0018 039B     		ldr	r3, [sp, #12]
 191 001a 9A68     		ldr	r2, [r3, #8]
 192 001c 019B     		ldr	r3, [sp, #4]
 193 001e 9B68     		ldr	r3, [r3, #8]
 194 0020 9A42     		cmp	r2, r3
 195 0022 F2D2     		bcs	.L8
 196              	.L7:
 197              		.loc 3 657 0 is_stmt 1
 198 0024 019B     		ldr	r3, [sp, #4]
 199 0026 039A     		ldr	r2, [sp, #12]
 200 0028 1A60     		str	r2, [r3]
 201              		.loc 3 658 0
 202 002a 039B     		ldr	r3, [sp, #12]
 203 002c 5A68     		ldr	r2, [r3, #4]
 204 002e 019B     		ldr	r3, [sp, #4]
 205 0030 5A60     		str	r2, [r3, #4]
 206              		.loc 3 659 0
 207 0032 019B     		ldr	r3, [sp, #4]
 208 0034 5B68     		ldr	r3, [r3, #4]
 209 0036 019A     		ldr	r2, [sp, #4]
 210 0038 1A60     		str	r2, [r3]
 211              		.loc 3 660 0
 212 003a 039B     		ldr	r3, [sp, #12]
 213 003c 019A     		ldr	r2, [sp, #4]
 214 003e 5A60     		str	r2, [r3, #4]
 215              		.loc 3 661 0
 216 0040 04B0     		add	sp, sp, #16
 217              		.cfi_def_cfa_offset 0
 218              		@ sp needed
 219 0042 7047     		bx	lr
 220              		.cfi_endproc
 221              	.LFE133:
 222              		.size	queue_prio_insert, .-queue_prio_insert
 223 0044 AFF30080 		.section	.text.queue_fifo_remove,"ax",%progbits
 223      AFF30080 
 223      AFF30080 
ARM GAS  /tmp/ccHfAbIj.s 			page 5


 224              		.align	2
 225              		.p2align 4,,15
 226              		.thumb
 227              		.thumb_func
 228              		.type	queue_fifo_remove, %function
 229              	queue_fifo_remove:
 230              	.LFB135:
 231              		.loc 3 671 0
 232              		.cfi_startproc
 233              		@ args = 0, pretend = 0, frame = 16
 234              		@ frame_needed = 0, uses_anonymous_args = 0
 235              		@ link register save eliminated.
 236 0000 84B0     		sub	sp, sp, #16
 237              		.cfi_def_cfa_offset 16
 238 0002 0190     		str	r0, [sp, #4]
 239              		.loc 3 672 0
 240 0004 019B     		ldr	r3, [sp, #4]
 241 0006 1B68     		ldr	r3, [r3]
 242 0008 0393     		str	r3, [sp, #12]
 243              		.loc 3 674 0
 244 000a 039B     		ldr	r3, [sp, #12]
 245 000c 1A68     		ldr	r2, [r3]
 246 000e 019B     		ldr	r3, [sp, #4]
 247 0010 1A60     		str	r2, [r3]
 248              		.loc 3 675 0
 249 0012 019B     		ldr	r3, [sp, #4]
 250 0014 1B68     		ldr	r3, [r3]
 251 0016 019A     		ldr	r2, [sp, #4]
 252 0018 5A60     		str	r2, [r3, #4]
 253              		.loc 3 677 0
 254 001a 039B     		ldr	r3, [sp, #12]
 255              		.loc 3 678 0
 256 001c 1846     		mov	r0, r3
 257 001e 04B0     		add	sp, sp, #16
 258              		.cfi_def_cfa_offset 0
 259              		@ sp needed
 260 0020 7047     		bx	lr
 261              		.cfi_endproc
 262              	.LFE135:
 263              		.size	queue_fifo_remove, .-queue_fifo_remove
 264 0022 00BFAFF3 		.section	.text.chSysLock,"ax",%progbits
 264      0080AFF3 
 264      0080AFF3 
 264      0080
 265              		.align	2
 266              		.p2align 4,,15
 267              		.thumb
 268              		.thumb_func
 269              		.type	chSysLock, %function
 270              	chSysLock:
 271              	.LFB145:
 272              		.file 4 "/home/makkmarci/workspace/CLEAN/ChibiOS/os/rt/include/chsys.h"
 273              		.loc 4 346 0
 274              		.cfi_startproc
 275              		@ args = 0, pretend = 0, frame = 0
 276              		@ frame_needed = 0, uses_anonymous_args = 0
 277 0000 08B5     		push	{r3, lr}
ARM GAS  /tmp/ccHfAbIj.s 			page 6


 278              		.cfi_def_cfa_offset 8
 279              		.cfi_offset 3, -8
 280              		.cfi_offset 14, -4
 281              		.loc 4 348 0
 282 0002 FFF7FEFF 		bl	port_lock
 283              		.loc 4 351 0
 284 0006 08BD     		pop	{r3, pc}
 285              		.cfi_endproc
 286              	.LFE145:
 287              		.size	chSysLock, .-chSysLock
 288              		.section	.text.chSysUnlock,"ax",%progbits
 289              		.align	2
 290              		.p2align 4,,15
 291              		.thumb
 292              		.thumb_func
 293              		.type	chSysUnlock, %function
 294              	chSysUnlock:
 295              	.LFB146:
 296              		.loc 4 358 0
 297              		.cfi_startproc
 298              		@ args = 0, pretend = 0, frame = 0
 299              		@ frame_needed = 0, uses_anonymous_args = 0
 300 0000 08B5     		push	{r3, lr}
 301              		.cfi_def_cfa_offset 8
 302              		.cfi_offset 3, -8
 303              		.cfi_offset 14, -4
 304              		.loc 4 371 0
 305 0002 FFF7FEFF 		bl	port_unlock
 306              		.loc 4 372 0
 307 0006 08BD     		pop	{r3, pc}
 308              		.cfi_endproc
 309              	.LFE146:
 310              		.size	chSysUnlock, .-chSysUnlock
 311 0008 AFF30080 		.section	.text.chThdGetSelfX,"ax",%progbits
 311      AFF30080 
 312              		.align	2
 313              		.p2align 4,,15
 314              		.thumb
 315              		.thumb_func
 316              		.type	chThdGetSelfX, %function
 317              	chThdGetSelfX:
 318              	.LFB166:
 319              		.file 5 "/home/makkmarci/workspace/CLEAN/ChibiOS/os/rt/include/chthreads.h"
 320              		.loc 5 174 0
 321              		.cfi_startproc
 322              		@ args = 0, pretend = 0, frame = 0
 323              		@ frame_needed = 0, uses_anonymous_args = 0
 324              		@ link register save eliminated.
 325              		.loc 5 176 0
 326 0000 014B     		ldr	r3, .L15
 327 0002 9B69     		ldr	r3, [r3, #24]
 328              		.loc 5 177 0
 329 0004 1846     		mov	r0, r3
 330 0006 7047     		bx	lr
 331              	.L16:
 332              		.align	2
 333              	.L15:
ARM GAS  /tmp/ccHfAbIj.s 			page 7


 334 0008 00000000 		.word	ch
 335              		.cfi_endproc
 336              	.LFE166:
 337              		.size	chThdGetSelfX, .-chThdGetSelfX
 338 000c AFF30080 		.section	.text.chMtxGetNextMutexS,"ax",%progbits
 339              		.align	2
 340              		.p2align 4,,15
 341              		.thumb
 342              		.thumb_func
 343              		.type	chMtxGetNextMutexS, %function
 344              	chMtxGetNextMutexS:
 345              	.LFB190:
 346              		.file 6 "/home/makkmarci/workspace/CLEAN/ChibiOS/os/rt/include/chmtx.h"
 347              		.loc 6 144 0
 348              		.cfi_startproc
 349              		@ args = 0, pretend = 0, frame = 0
 350              		@ frame_needed = 0, uses_anonymous_args = 0
 351 0000 08B5     		push	{r3, lr}
 352              		.cfi_def_cfa_offset 8
 353              		.cfi_offset 3, -8
 354              		.cfi_offset 14, -4
 355              		.loc 6 146 0
 356 0002 FFF7FEFF 		bl	chThdGetSelfX
 357 0006 0346     		mov	r3, r0
 358 0008 9B6B     		ldr	r3, [r3, #56]
 359              		.loc 6 147 0
 360 000a 1846     		mov	r0, r3
 361 000c 08BD     		pop	{r3, pc}
 362              		.cfi_endproc
 363              	.LFE190:
 364              		.size	chMtxGetNextMutexS, .-chMtxGetNextMutexS
 365 000e 00BF     		.section	.text.chCondObjectInit,"ax",%progbits
 366              		.align	2
 367              		.p2align 4,,15
 368              		.global	chCondObjectInit
 369              		.thumb
 370              		.thumb_func
 371              		.type	chCondObjectInit, %function
 372              	chCondObjectInit:
 373              	.LFB216:
 374              		.file 7 "/home/makkmarci/workspace/CLEAN/ChibiOS/os/rt/src/chcond.c"
 375              		.loc 7 75 0
 376              		.cfi_startproc
 377              		@ args = 0, pretend = 0, frame = 8
 378              		@ frame_needed = 0, uses_anonymous_args = 0
 379 0000 00B5     		push	{lr}
 380              		.cfi_def_cfa_offset 4
 381              		.cfi_offset 14, -4
 382 0002 83B0     		sub	sp, sp, #12
 383              		.cfi_def_cfa_offset 16
 384 0004 0190     		str	r0, [sp, #4]
 385              		.loc 7 79 0
 386 0006 019B     		ldr	r3, [sp, #4]
 387 0008 1846     		mov	r0, r3
 388 000a FFF7FEFF 		bl	queue_init
 389              		.loc 7 80 0
 390 000e 03B0     		add	sp, sp, #12
ARM GAS  /tmp/ccHfAbIj.s 			page 8


 391              		.cfi_def_cfa_offset 4
 392              		@ sp needed
 393 0010 5DF804FB 		ldr	pc, [sp], #4
 394              		.cfi_endproc
 395              	.LFE216:
 396              		.size	chCondObjectInit, .-chCondObjectInit
 397 0014 AFF30080 		.section	.text.chCondSignal,"ax",%progbits
 397      AFF30080 
 397      AFF30080 
 398              		.align	2
 399              		.p2align 4,,15
 400              		.global	chCondSignal
 401              		.thumb
 402              		.thumb_func
 403              		.type	chCondSignal, %function
 404              	chCondSignal:
 405              	.LFB217:
 406              		.loc 7 89 0
 407              		.cfi_startproc
 408              		@ args = 0, pretend = 0, frame = 8
 409              		@ frame_needed = 0, uses_anonymous_args = 0
 410 0000 00B5     		push	{lr}
 411              		.cfi_def_cfa_offset 4
 412              		.cfi_offset 14, -4
 413 0002 83B0     		sub	sp, sp, #12
 414              		.cfi_def_cfa_offset 16
 415 0004 0190     		str	r0, [sp, #4]
 416              		.loc 7 93 0
 417 0006 FFF7FEFF 		bl	chSysLock
 418              		.loc 7 94 0
 419 000a 019B     		ldr	r3, [sp, #4]
 420 000c 1846     		mov	r0, r3
 421 000e FFF7FEFF 		bl	queue_notempty
 422 0012 0346     		mov	r3, r0
 423 0014 002B     		cmp	r3, #0
 424 0016 08D0     		beq	.L21
 425              		.loc 7 95 0
 426 0018 019B     		ldr	r3, [sp, #4]
 427 001a 1846     		mov	r0, r3
 428 001c FFF7FEFF 		bl	queue_fifo_remove
 429 0020 0346     		mov	r3, r0
 430 0022 1846     		mov	r0, r3
 431 0024 0021     		movs	r1, #0
 432 0026 FFF7FEFF 		bl	chSchWakeupS
 433              	.L21:
 434              		.loc 7 97 0
 435 002a FFF7FEFF 		bl	chSysUnlock
 436              		.loc 7 98 0
 437 002e 03B0     		add	sp, sp, #12
 438              		.cfi_def_cfa_offset 4
 439              		@ sp needed
 440 0030 5DF804FB 		ldr	pc, [sp], #4
 441              		.cfi_endproc
 442              	.LFE217:
 443              		.size	chCondSignal, .-chCondSignal
 444 0034 AFF30080 		.section	.text.chCondSignalI,"ax",%progbits
 444      AFF30080 
ARM GAS  /tmp/ccHfAbIj.s 			page 9


 444      AFF30080 
 445              		.align	2
 446              		.p2align 4,,15
 447              		.global	chCondSignalI
 448              		.thumb
 449              		.thumb_func
 450              		.type	chCondSignalI, %function
 451              	chCondSignalI:
 452              	.LFB218:
 453              		.loc 7 111 0
 454              		.cfi_startproc
 455              		@ args = 0, pretend = 0, frame = 16
 456              		@ frame_needed = 0, uses_anonymous_args = 0
 457 0000 00B5     		push	{lr}
 458              		.cfi_def_cfa_offset 4
 459              		.cfi_offset 14, -4
 460 0002 85B0     		sub	sp, sp, #20
 461              		.cfi_def_cfa_offset 24
 462 0004 0190     		str	r0, [sp, #4]
 463              		.loc 7 116 0
 464 0006 019B     		ldr	r3, [sp, #4]
 465 0008 1846     		mov	r0, r3
 466 000a FFF7FEFF 		bl	queue_notempty
 467 000e 0346     		mov	r3, r0
 468 0010 002B     		cmp	r3, #0
 469 0012 0AD0     		beq	.L22
 470              	.LBB10:
 471              		.loc 7 117 0
 472 0014 019B     		ldr	r3, [sp, #4]
 473 0016 1846     		mov	r0, r3
 474 0018 FFF7FEFF 		bl	queue_fifo_remove
 475 001c 0390     		str	r0, [sp, #12]
 476              		.loc 7 118 0
 477 001e 039B     		ldr	r3, [sp, #12]
 478 0020 0022     		movs	r2, #0
 479 0022 1A62     		str	r2, [r3, #32]
 480              		.loc 7 119 0
 481 0024 0398     		ldr	r0, [sp, #12]
 482 0026 FFF7FEFF 		bl	chSchReadyI
 483              	.L22:
 484              	.LBE10:
 485              		.loc 7 121 0
 486 002a 05B0     		add	sp, sp, #20
 487              		.cfi_def_cfa_offset 4
 488              		@ sp needed
 489 002c 5DF804FB 		ldr	pc, [sp], #4
 490              		.cfi_endproc
 491              	.LFE218:
 492              		.size	chCondSignalI, .-chCondSignalI
 493              		.section	.text.chCondBroadcast,"ax",%progbits
 494              		.align	2
 495              		.p2align 4,,15
 496              		.global	chCondBroadcast
 497              		.thumb
 498              		.thumb_func
 499              		.type	chCondBroadcast, %function
 500              	chCondBroadcast:
ARM GAS  /tmp/ccHfAbIj.s 			page 10


 501              	.LFB219:
 502              		.loc 7 130 0
 503              		.cfi_startproc
 504              		@ args = 0, pretend = 0, frame = 8
 505              		@ frame_needed = 0, uses_anonymous_args = 0
 506 0000 00B5     		push	{lr}
 507              		.cfi_def_cfa_offset 4
 508              		.cfi_offset 14, -4
 509 0002 83B0     		sub	sp, sp, #12
 510              		.cfi_def_cfa_offset 16
 511 0004 0190     		str	r0, [sp, #4]
 512              		.loc 7 132 0
 513 0006 FFF7FEFF 		bl	chSysLock
 514              		.loc 7 133 0
 515 000a 0198     		ldr	r0, [sp, #4]
 516 000c FFF7FEFF 		bl	chCondBroadcastI
 517              		.loc 7 134 0
 518 0010 FFF7FEFF 		bl	chSchRescheduleS
 519              		.loc 7 135 0
 520 0014 FFF7FEFF 		bl	chSysUnlock
 521              		.loc 7 136 0
 522 0018 03B0     		add	sp, sp, #12
 523              		.cfi_def_cfa_offset 4
 524              		@ sp needed
 525 001a 5DF804FB 		ldr	pc, [sp], #4
 526              		.cfi_endproc
 527              	.LFE219:
 528              		.size	chCondBroadcast, .-chCondBroadcast
 529 001e 00BF     		.section	.text.chCondBroadcastI,"ax",%progbits
 530              		.align	2
 531              		.p2align 4,,15
 532              		.global	chCondBroadcastI
 533              		.thumb
 534              		.thumb_func
 535              		.type	chCondBroadcastI, %function
 536              	chCondBroadcastI:
 537              	.LFB220:
 538              		.loc 7 149 0
 539              		.cfi_startproc
 540              		@ args = 0, pretend = 0, frame = 8
 541              		@ frame_needed = 0, uses_anonymous_args = 0
 542 0000 00B5     		push	{lr}
 543              		.cfi_def_cfa_offset 4
 544              		.cfi_offset 14, -4
 545 0002 83B0     		sub	sp, sp, #12
 546              		.cfi_def_cfa_offset 16
 547 0004 0190     		str	r0, [sp, #4]
 548              		.loc 7 157 0
 549 0006 0BE0     		b	.L26
 550              	.L27:
 551              		.loc 7 158 0
 552 0008 019B     		ldr	r3, [sp, #4]
 553 000a 1846     		mov	r0, r3
 554 000c FFF7FEFF 		bl	queue_fifo_remove
 555 0010 0346     		mov	r3, r0
 556 0012 1846     		mov	r0, r3
 557 0014 FFF7FEFF 		bl	chSchReadyI
ARM GAS  /tmp/ccHfAbIj.s 			page 11


 558 0018 0246     		mov	r2, r0
 559 001a 6FF00103 		mvn	r3, #1
 560 001e 1362     		str	r3, [r2, #32]
 561              	.L26:
 562              		.loc 7 157 0
 563 0020 019B     		ldr	r3, [sp, #4]
 564 0022 1846     		mov	r0, r3
 565 0024 FFF7FEFF 		bl	queue_notempty
 566 0028 0346     		mov	r3, r0
 567 002a 002B     		cmp	r3, #0
 568 002c ECD1     		bne	.L27
 569              		.loc 7 160 0
 570 002e 03B0     		add	sp, sp, #12
 571              		.cfi_def_cfa_offset 4
 572              		@ sp needed
 573 0030 5DF804FB 		ldr	pc, [sp], #4
 574              		.cfi_endproc
 575              	.LFE220:
 576              		.size	chCondBroadcastI, .-chCondBroadcastI
 577 0034 AFF30080 		.section	.text.chCondWait,"ax",%progbits
 577      AFF30080 
 577      AFF30080 
 578              		.align	2
 579              		.p2align 4,,15
 580              		.global	chCondWait
 581              		.thumb
 582              		.thumb_func
 583              		.type	chCondWait, %function
 584              	chCondWait:
 585              	.LFB221:
 586              		.loc 7 179 0
 587              		.cfi_startproc
 588              		@ args = 0, pretend = 0, frame = 16
 589              		@ frame_needed = 0, uses_anonymous_args = 0
 590 0000 00B5     		push	{lr}
 591              		.cfi_def_cfa_offset 4
 592              		.cfi_offset 14, -4
 593 0002 85B0     		sub	sp, sp, #20
 594              		.cfi_def_cfa_offset 24
 595 0004 0190     		str	r0, [sp, #4]
 596              		.loc 7 182 0
 597 0006 FFF7FEFF 		bl	chSysLock
 598              		.loc 7 183 0
 599 000a 0198     		ldr	r0, [sp, #4]
 600 000c FFF7FEFF 		bl	chCondWaitS
 601 0010 0390     		str	r0, [sp, #12]
 602              		.loc 7 184 0
 603 0012 FFF7FEFF 		bl	chSysUnlock
 604              		.loc 7 185 0
 605 0016 039B     		ldr	r3, [sp, #12]
 606              		.loc 7 186 0
 607 0018 1846     		mov	r0, r3
 608 001a 05B0     		add	sp, sp, #20
 609              		.cfi_def_cfa_offset 4
 610              		@ sp needed
 611 001c 5DF804FB 		ldr	pc, [sp], #4
 612              		.cfi_endproc
ARM GAS  /tmp/ccHfAbIj.s 			page 12


 613              	.LFE221:
 614              		.size	chCondWait, .-chCondWait
 615              		.section	.text.chCondWaitS,"ax",%progbits
 616              		.align	2
 617              		.p2align 4,,15
 618              		.global	chCondWaitS
 619              		.thumb
 620              		.thumb_func
 621              		.type	chCondWaitS, %function
 622              	chCondWaitS:
 623              	.LFB222:
 624              		.loc 7 205 0
 625              		.cfi_startproc
 626              		@ args = 0, pretend = 0, frame = 24
 627              		@ frame_needed = 0, uses_anonymous_args = 0
 628 0000 00B5     		push	{lr}
 629              		.cfi_def_cfa_offset 4
 630              		.cfi_offset 14, -4
 631 0002 87B0     		sub	sp, sp, #28
 632              		.cfi_def_cfa_offset 32
 633 0004 0190     		str	r0, [sp, #4]
 634              		.loc 7 206 0
 635 0006 0F4B     		ldr	r3, .L32
 636 0008 9B69     		ldr	r3, [r3, #24]
 637 000a 0593     		str	r3, [sp, #20]
 638              		.loc 7 215 0
 639 000c FFF7FEFF 		bl	chMtxGetNextMutexS
 640 0010 0490     		str	r0, [sp, #16]
 641              		.loc 7 216 0
 642 0012 0498     		ldr	r0, [sp, #16]
 643 0014 FFF7FEFF 		bl	chMtxUnlockS
 644              		.loc 7 220 0
 645 0018 059B     		ldr	r3, [sp, #20]
 646 001a 019A     		ldr	r2, [sp, #4]
 647 001c 1A62     		str	r2, [r3, #32]
 648              		.loc 7 221 0
 649 001e 019B     		ldr	r3, [sp, #4]
 650 0020 0598     		ldr	r0, [sp, #20]
 651 0022 1946     		mov	r1, r3
 652 0024 FFF7FEFF 		bl	queue_prio_insert
 653              		.loc 7 222 0
 654 0028 0720     		movs	r0, #7
 655 002a FFF7FEFF 		bl	chSchGoSleepS
 656              		.loc 7 223 0
 657 002e 059B     		ldr	r3, [sp, #20]
 658 0030 1B6A     		ldr	r3, [r3, #32]
 659 0032 0393     		str	r3, [sp, #12]
 660              		.loc 7 224 0
 661 0034 0498     		ldr	r0, [sp, #16]
 662 0036 FFF7FEFF 		bl	chMtxLockS
 663              		.loc 7 226 0
 664 003a 039B     		ldr	r3, [sp, #12]
 665              		.loc 7 227 0
 666 003c 1846     		mov	r0, r3
 667 003e 07B0     		add	sp, sp, #28
 668              		.cfi_def_cfa_offset 4
 669              		@ sp needed
ARM GAS  /tmp/ccHfAbIj.s 			page 13


 670 0040 5DF804FB 		ldr	pc, [sp], #4
 671              	.L33:
 672              		.align	2
 673              	.L32:
 674 0044 00000000 		.word	ch
 675              		.cfi_endproc
 676              	.LFE222:
 677              		.size	chCondWaitS, .-chCondWaitS
 678 0048 AFF30080 		.section	.text.chCondWaitTimeout,"ax",%progbits
 678      AFF30080 
 679              		.align	2
 680              		.p2align 4,,15
 681              		.global	chCondWaitTimeout
 682              		.thumb
 683              		.thumb_func
 684              		.type	chCondWaitTimeout, %function
 685              	chCondWaitTimeout:
 686              	.LFB223:
 687              		.loc 7 258 0
 688              		.cfi_startproc
 689              		@ args = 0, pretend = 0, frame = 16
 690              		@ frame_needed = 0, uses_anonymous_args = 0
 691 0000 00B5     		push	{lr}
 692              		.cfi_def_cfa_offset 4
 693              		.cfi_offset 14, -4
 694 0002 85B0     		sub	sp, sp, #20
 695              		.cfi_def_cfa_offset 24
 696 0004 0190     		str	r0, [sp, #4]
 697 0006 0091     		str	r1, [sp]
 698              		.loc 7 261 0
 699 0008 FFF7FEFF 		bl	chSysLock
 700              		.loc 7 262 0
 701 000c 0198     		ldr	r0, [sp, #4]
 702 000e 0099     		ldr	r1, [sp]
 703 0010 FFF7FEFF 		bl	chCondWaitTimeoutS
 704 0014 0390     		str	r0, [sp, #12]
 705              		.loc 7 263 0
 706 0016 FFF7FEFF 		bl	chSysUnlock
 707              		.loc 7 265 0
 708 001a 039B     		ldr	r3, [sp, #12]
 709              		.loc 7 266 0
 710 001c 1846     		mov	r0, r3
 711 001e 05B0     		add	sp, sp, #20
 712              		.cfi_def_cfa_offset 4
 713              		@ sp needed
 714 0020 5DF804FB 		ldr	pc, [sp], #4
 715              		.cfi_endproc
 716              	.LFE223:
 717              		.size	chCondWaitTimeout, .-chCondWaitTimeout
 718 0024 AFF30080 		.section	.text.chCondWaitTimeoutS,"ax",%progbits
 718      AFF30080 
 718      AFF30080 
 719              		.align	2
 720              		.p2align 4,,15
 721              		.global	chCondWaitTimeoutS
 722              		.thumb
 723              		.thumb_func
ARM GAS  /tmp/ccHfAbIj.s 			page 14


 724              		.type	chCondWaitTimeoutS, %function
 725              	chCondWaitTimeoutS:
 726              	.LFB224:
 727              		.loc 7 296 0
 728              		.cfi_startproc
 729              		@ args = 0, pretend = 0, frame = 16
 730              		@ frame_needed = 0, uses_anonymous_args = 0
 731 0000 00B5     		push	{lr}
 732              		.cfi_def_cfa_offset 4
 733              		.cfi_offset 14, -4
 734 0002 85B0     		sub	sp, sp, #20
 735              		.cfi_def_cfa_offset 24
 736 0004 0190     		str	r0, [sp, #4]
 737 0006 0091     		str	r1, [sp]
 738              		.loc 7 305 0
 739 0008 FFF7FEFF 		bl	chMtxGetNextMutexS
 740 000c 0390     		str	r0, [sp, #12]
 741              		.loc 7 306 0
 742 000e 0398     		ldr	r0, [sp, #12]
 743 0010 FFF7FEFF 		bl	chMtxUnlockS
 744              		.loc 7 310 0
 745 0014 0D4B     		ldr	r3, .L39
 746 0016 9B69     		ldr	r3, [r3, #24]
 747 0018 019A     		ldr	r2, [sp, #4]
 748 001a 1A62     		str	r2, [r3, #32]
 749              		.loc 7 311 0
 750 001c 0B4B     		ldr	r3, .L39
 751 001e 9A69     		ldr	r2, [r3, #24]
 752 0020 019B     		ldr	r3, [sp, #4]
 753 0022 1046     		mov	r0, r2
 754 0024 1946     		mov	r1, r3
 755 0026 FFF7FEFF 		bl	queue_prio_insert
 756              		.loc 7 312 0
 757 002a 0720     		movs	r0, #7
 758 002c 0099     		ldr	r1, [sp]
 759 002e FFF7FEFF 		bl	chSchGoSleepTimeoutS
 760 0032 0290     		str	r0, [sp, #8]
 761              		.loc 7 313 0
 762 0034 029B     		ldr	r3, [sp, #8]
 763 0036 B3F1FF3F 		cmp	r3, #-1
 764 003a 02D0     		beq	.L37
 765              		.loc 7 314 0
 766 003c 0398     		ldr	r0, [sp, #12]
 767 003e FFF7FEFF 		bl	chMtxLockS
 768              	.L37:
 769              		.loc 7 317 0
 770 0042 029B     		ldr	r3, [sp, #8]
 771              		.loc 7 318 0
 772 0044 1846     		mov	r0, r3
 773 0046 05B0     		add	sp, sp, #20
 774              		.cfi_def_cfa_offset 4
 775              		@ sp needed
 776 0048 5DF804FB 		ldr	pc, [sp], #4
 777              	.L40:
 778              		.align	2
 779              	.L39:
 780 004c 00000000 		.word	ch
ARM GAS  /tmp/ccHfAbIj.s 			page 15


 781              		.cfi_endproc
 782              	.LFE224:
 783              		.size	chCondWaitTimeoutS, .-chCondWaitTimeoutS
 784              		.text
 785              	.Letext0:
 786              		.file 8 "/opt/gcc-arm-none-eabi/arm-none-eabi/include/machine/_default_types.h"
 787              		.file 9 "/opt/gcc-arm-none-eabi/arm-none-eabi/include/stdint.h"
 788              		.file 10 "/home/makkmarci/workspace/CLEAN/ChibiOS/os/rt/ports/ARMCMx/compilers/GCC/chtypes.h"
 789              		.file 11 "/home/makkmarci/workspace/CLEAN/ChibiOS/os/rt/include/chsystypes.h"
 790              		.file 12 "/home/makkmarci/workspace/CLEAN/ChibiOS/os/rt/ports/ARMCMx/chcore.h"
 791              		.file 13 "/home/makkmarci/workspace/CLEAN/ChibiOS/os/rt/include/chtm.h"
 792              		.file 14 "/home/makkmarci/workspace/CLEAN/ChibiOS/os/rt/include/chsem.h"
 793              		.file 15 "/home/makkmarci/workspace/CLEAN/ChibiOS/os/rt/include/chcond.h"
 794              		.file 16 "/home/makkmarci/workspace/CLEAN/ChibiOS/os/ext/CMSIS/include/core_cm4.h"