ARM GAS  /tmp/ccaCVTnB.s 			page 1


   1              		.syntax unified
   2              		.cpu cortex-m4
   3              		.eabi_attribute 27, 1
   4              		.eabi_attribute 28, 1
   5              		.fpu fpv4-sp-d16
   6              		.eabi_attribute 20, 1
   7              		.eabi_attribute 21, 1
   8              		.eabi_attribute 23, 3
   9              		.eabi_attribute 24, 1
  10              		.eabi_attribute 25, 1
  11              		.eabi_attribute 26, 1
  12              		.eabi_attribute 30, 6
  13              		.eabi_attribute 34, 1
  14              		.eabi_attribute 18, 4
  15              		.thumb
  16              		.file	"chcore_v7m.c"
  17              		.text
  18              	.Ltext0:
  19              		.cfi_sections	.debug_frame
  20              		.section	.text.port_lock,"ax",%progbits
  21              		.align	2
  22              		.p2align 4,,15
  23              		.thumb
  24              		.thumb_func
  25              		.type	port_lock, %function
  26              	port_lock:
  27              	.LFB116:
  28              		.file 1 "/home/makkmarci/workspace/CLEAN/ChibiOS/os/rt/ports/ARMCMx/chcore_v7m.h"
  29              		.loc 1 444 0
  30              		.cfi_startproc
  31              		@ args = 0, pretend = 0, frame = 8
  32              		@ frame_needed = 0, uses_anonymous_args = 0
  33              		@ link register save eliminated.
  34 0000 82B0     		sub	sp, sp, #8
  35              		.cfi_def_cfa_offset 8
  36 0002 2023     		movs	r3, #32
  37 0004 0193     		str	r3, [sp, #4]
  38              	.LBB17:
  39              	.LBB18:
  40              		.file 2 "/home/makkmarci/workspace/CLEAN/ChibiOS/os/ext/CMSIS/include/core_cmFunc.h"
  41              		.loc 2 546 0
  42 0006 019B     		ldr	r3, [sp, #4]
  43              	@ 546 "/home/makkmarci/workspace/CLEAN/ChibiOS/os/ext/CMSIS/include/core_cmFunc.h" 1
  44 0008 83F31188 		MSR basepri, r3
  45              	@ 0 "" 2
  46              		.thumb
  47              	.LBE18:
  48              	.LBE17:
  49              		.loc 1 451 0
  50 000c 02B0     		add	sp, sp, #8
  51              		.cfi_def_cfa_offset 0
  52              		@ sp needed
  53 000e 7047     		bx	lr
  54              		.cfi_endproc
  55              	.LFE116:
  56              		.size	port_lock, .-port_lock
  57              		.section	.text.port_unlock,"ax",%progbits
ARM GAS  /tmp/ccaCVTnB.s 			page 2


  58              		.align	2
  59              		.p2align 4,,15
  60              		.thumb
  61              		.thumb_func
  62              		.type	port_unlock, %function
  63              	port_unlock:
  64              	.LFB117:
  65              		.loc 1 458 0
  66              		.cfi_startproc
  67              		@ args = 0, pretend = 0, frame = 8
  68              		@ frame_needed = 0, uses_anonymous_args = 0
  69              		@ link register save eliminated.
  70 0000 82B0     		sub	sp, sp, #8
  71              		.cfi_def_cfa_offset 8
  72 0002 0023     		movs	r3, #0
  73 0004 0193     		str	r3, [sp, #4]
  74              	.LBB19:
  75              	.LBB20:
  76              		.loc 2 546 0
  77 0006 019B     		ldr	r3, [sp, #4]
  78              	@ 546 "/home/makkmarci/workspace/CLEAN/ChibiOS/os/ext/CMSIS/include/core_cmFunc.h" 1
  79 0008 83F31188 		MSR basepri, r3
  80              	@ 0 "" 2
  81              		.thumb
  82              	.LBE20:
  83              	.LBE19:
  84              		.loc 1 465 0
  85 000c 02B0     		add	sp, sp, #8
  86              		.cfi_def_cfa_offset 0
  87              		@ sp needed
  88 000e 7047     		bx	lr
  89              		.cfi_endproc
  90              	.LFE117:
  91              		.size	port_unlock, .-port_unlock
  92              		.section	.text.port_lock_from_isr,"ax",%progbits
  93              		.align	2
  94              		.p2align 4,,15
  95              		.thumb
  96              		.thumb_func
  97              		.type	port_lock_from_isr, %function
  98              	port_lock_from_isr:
  99              	.LFB118:
 100              		.loc 1 473 0
 101              		.cfi_startproc
 102              		@ args = 0, pretend = 0, frame = 0
 103              		@ frame_needed = 0, uses_anonymous_args = 0
 104 0000 08B5     		push	{r3, lr}
 105              		.cfi_def_cfa_offset 8
 106              		.cfi_offset 3, -8
 107              		.cfi_offset 14, -4
 108              		.loc 1 475 0
 109 0002 FFF7FEFF 		bl	port_lock
 110              		.loc 1 476 0
 111 0006 08BD     		pop	{r3, pc}
 112              		.cfi_endproc
 113              	.LFE118:
 114              		.size	port_lock_from_isr, .-port_lock_from_isr
ARM GAS  /tmp/ccaCVTnB.s 			page 3


 115 0008 AFF30080 		.section	.text.port_unlock_from_isr,"ax",%progbits
 115      AFF30080 
 116              		.align	2
 117              		.p2align 4,,15
 118              		.thumb
 119              		.thumb_func
 120              		.type	port_unlock_from_isr, %function
 121              	port_unlock_from_isr:
 122              	.LFB119:
 123              		.loc 1 484 0
 124              		.cfi_startproc
 125              		@ args = 0, pretend = 0, frame = 0
 126              		@ frame_needed = 0, uses_anonymous_args = 0
 127 0000 08B5     		push	{r3, lr}
 128              		.cfi_def_cfa_offset 8
 129              		.cfi_offset 3, -8
 130              		.cfi_offset 14, -4
 131              		.loc 1 486 0
 132 0002 FFF7FEFF 		bl	port_unlock
 133              		.loc 1 487 0
 134 0006 08BD     		pop	{r3, pc}
 135              		.cfi_endproc
 136              	.LFE119:
 137              		.size	port_unlock_from_isr, .-port_unlock_from_isr
 138 0008 AFF30080 		.section	.text.SVC_Handler,"ax",%progbits
 138      AFF30080 
 139              		.align	2
 140              		.p2align 4,,15
 141              		.global	SVC_Handler
 142              		.thumb
 143              		.thumb_func
 144              		.type	SVC_Handler, %function
 145              	SVC_Handler:
 146              	.LFB216:
 147              		.file 3 "/home/makkmarci/workspace/CLEAN/ChibiOS/os/rt/ports/ARMCMx/chcore_v7m.c"
 148              		.loc 3 62 0
 149              		.cfi_startproc
 150              		@ args = 0, pretend = 0, frame = 8
 151              		@ frame_needed = 0, uses_anonymous_args = 0
 152 0000 10B5     		push	{r4, lr}
 153              		.cfi_def_cfa_offset 8
 154              		.cfi_offset 4, -8
 155              		.cfi_offset 14, -4
 156 0002 82B0     		sub	sp, sp, #8
 157              		.cfi_def_cfa_offset 16
 158              		.loc 3 68 0
 159 0004 0B4A     		ldr	r2, .L7
 160 0006 0B4B     		ldr	r3, .L7
 161 0008 5B68     		ldr	r3, [r3, #4]
 162 000a 23F00103 		bic	r3, r3, #1
 163 000e 5360     		str	r3, [r2, #4]
 164              	.LBB21:
 165              	.LBB22:
 166              		.loc 2 428 0
 167              	@ 428 "/home/makkmarci/workspace/CLEAN/ChibiOS/os/ext/CMSIS/include/core_cmFunc.h" 1
 168 0010 EFF30983 		MRS r3, psp
 169              	
ARM GAS  /tmp/ccaCVTnB.s 			page 4


 170              	@ 0 "" 2
 171              		.thumb
 172 0014 1C46     		mov	r4, r3
 173              		.loc 2 429 0
 174 0016 2346     		mov	r3, r4
 175              	.LBE22:
 176              	.LBE21:
 177              		.loc 3 72 0
 178 0018 0193     		str	r3, [sp, #4]
 179              		.loc 3 76 0
 180 001a 019B     		ldr	r3, [sp, #4]
 181 001c 6833     		adds	r3, r3, #104
 182 001e 0193     		str	r3, [sp, #4]
 183              		.loc 3 79 0
 184 0020 019B     		ldr	r3, [sp, #4]
 185 0022 0093     		str	r3, [sp]
 186              	.LBB23:
 187              	.LBB24:
 188              		.loc 2 441 0
 189 0024 009B     		ldr	r3, [sp]
 190              	@ 441 "/home/makkmarci/workspace/CLEAN/ChibiOS/os/ext/CMSIS/include/core_cmFunc.h" 1
 191 0026 83F30988 		MSR psp, r3
 192              	
 193              	@ 0 "" 2
 194              		.thumb
 195              	.LBE24:
 196              	.LBE23:
 197              		.loc 3 82 0
 198 002a FFF7FEFF 		bl	port_unlock_from_isr
 199              		.loc 3 83 0
 200 002e 02B0     		add	sp, sp, #8
 201              		.cfi_def_cfa_offset 8
 202              		@ sp needed
 203 0030 10BD     		pop	{r4, pc}
 204              	.L8:
 205 0032 00BF     		.align	2
 206              	.L7:
 207 0034 30EF00E0 		.word	-536809680
 208              		.cfi_endproc
 209              	.LFE216:
 210              		.size	SVC_Handler, .-SVC_Handler
 211 0038 AFF30080 		.section	.text._port_irq_epilogue,"ax",%progbits
 211      AFF30080 
 212              		.align	2
 213              		.p2align 4,,15
 214              		.global	_port_irq_epilogue
 215              		.thumb
 216              		.thumb_func
 217              		.type	_port_irq_epilogue, %function
 218              	_port_irq_epilogue:
 219              	.LFB217:
 220              		.loc 3 122 0
 221              		.cfi_startproc
 222              		@ args = 0, pretend = 0, frame = 16
 223              		@ frame_needed = 0, uses_anonymous_args = 0
 224 0000 10B5     		push	{r4, lr}
 225              		.cfi_def_cfa_offset 8
ARM GAS  /tmp/ccaCVTnB.s 			page 5


 226              		.cfi_offset 4, -8
 227              		.cfi_offset 14, -4
 228 0002 84B0     		sub	sp, sp, #16
 229              		.cfi_def_cfa_offset 24
 230              		.loc 3 124 0
 231 0004 FFF7FEFF 		bl	port_lock_from_isr
 232              		.loc 3 125 0
 233 0008 174B     		ldr	r3, .L16
 234 000a 5B68     		ldr	r3, [r3, #4]
 235 000c 03F40063 		and	r3, r3, #2048
 236 0010 002B     		cmp	r3, #0
 237 0012 25D0     		beq	.L10
 238              	.LBB25:
 239              	.LBB26:
 240              	.LBB27:
 241              		.loc 2 593 0
 242              		.loc 2 594 0
 243              	@ 594 "/home/makkmarci/workspace/CLEAN/ChibiOS/os/ext/CMSIS/include/core_cmFunc.h" 1
 244 0014 F1EE103A 		VMRS r3, fpscr
 245              	@ 0 "" 2
 246              		.thumb
 247 0018 0293     		str	r3, [sp, #8]
 248              		.loc 2 595 0
 249              	.LBE27:
 250              	.LBE26:
 251              	.LBB28:
 252              	.LBB29:
 253              		.loc 2 428 0
 254              	@ 428 "/home/makkmarci/workspace/CLEAN/ChibiOS/os/ext/CMSIS/include/core_cmFunc.h" 1
 255 001a EFF30983 		MRS r3, psp
 256              	
 257              	@ 0 "" 2
 258              		.thumb
 259 001e 1C46     		mov	r4, r3
 260              		.loc 2 429 0
 261 0020 2346     		mov	r3, r4
 262              	.LBE29:
 263              	.LBE28:
 264              		.loc 3 134 0
 265 0022 0393     		str	r3, [sp, #12]
 266              		.loc 3 138 0
 267 0024 039B     		ldr	r3, [sp, #12]
 268 0026 683B     		subs	r3, r3, #104
 269 0028 0393     		str	r3, [sp, #12]
 270              		.loc 3 141 0
 271 002a 039B     		ldr	r3, [sp, #12]
 272 002c 4FF08072 		mov	r2, #16777216
 273 0030 DA61     		str	r2, [r3, #28]
 274              		.loc 3 143 0
 275 0032 0E4B     		ldr	r3, .L16+4
 276 0034 DB68     		ldr	r3, [r3, #12]
 277 0036 1A46     		mov	r2, r3
 278 0038 039B     		ldr	r3, [sp, #12]
 279 003a 1A66     		str	r2, [r3, #96]
 280              		.loc 3 147 0
 281 003c 039B     		ldr	r3, [sp, #12]
 282 003e 0193     		str	r3, [sp, #4]
ARM GAS  /tmp/ccaCVTnB.s 			page 6


 283              	.LBB30:
 284              	.LBB31:
 285              		.loc 2 441 0
 286 0040 019B     		ldr	r3, [sp, #4]
 287              	@ 441 "/home/makkmarci/workspace/CLEAN/ChibiOS/os/ext/CMSIS/include/core_cmFunc.h" 1
 288 0042 83F30988 		MSR psp, r3
 289              	
 290              	@ 0 "" 2
 291              		.thumb
 292              	.LBE31:
 293              	.LBE30:
 294              		.loc 3 151 0
 295 0046 FFF7FEFF 		bl	chSchIsPreemptionRequired
 296 004a 0346     		mov	r3, r0
 297 004c 002B     		cmp	r3, #0
 298 004e 03D0     		beq	.L13
 299              		.loc 3 153 0
 300 0050 039B     		ldr	r3, [sp, #12]
 301 0052 074A     		ldr	r2, .L16+8
 302 0054 9A61     		str	r2, [r3, #24]
 303              		.loc 3 163 0
 304 0056 05E0     		b	.L9
 305              	.L13:
 306              		.loc 3 158 0
 307 0058 039B     		ldr	r3, [sp, #12]
 308 005a 064A     		ldr	r2, .L16+12
 309 005c 9A61     		str	r2, [r3, #24]
 310              		.loc 3 163 0
 311 005e 01E0     		b	.L9
 312              	.L10:
 313              	.LBE25:
 314              		.loc 3 165 0
 315 0060 FFF7FEFF 		bl	port_unlock_from_isr
 316              	.L9:
 317              		.loc 3 166 0
 318 0064 04B0     		add	sp, sp, #16
 319              		.cfi_def_cfa_offset 8
 320              		@ sp needed
 321 0066 10BD     		pop	{r4, pc}
 322              	.L17:
 323              		.align	2
 324              	.L16:
 325 0068 00ED00E0 		.word	-536810240
 326 006c 30EF00E0 		.word	-536809680
 327 0070 00000000 		.word	_port_switch_from_isr
 328 0074 00000000 		.word	_port_exit_from_isr
 329              		.cfi_endproc
 330              	.LFE217:
 331              		.size	_port_irq_epilogue, .-_port_irq_epilogue
 332 0078 AFF30080 		.text
 332      AFF30080 
 333              	.Letext0:
 334              		.file 4 "/opt/gcc-arm-none-eabi/arm-none-eabi/include/machine/_default_types.h"
 335              		.file 5 "/opt/gcc-arm-none-eabi/arm-none-eabi/include/stdint.h"
 336              		.file 6 "/home/makkmarci/workspace/CLEAN/ChibiOS/os/rt/ports/ARMCMx/compilers/GCC/chtypes.h"
 337              		.file 7 "/home/makkmarci/workspace/CLEAN/ChibiOS/os/rt/include/chsystypes.h"
 338              		.file 8 "/home/makkmarci/workspace/CLEAN/ChibiOS/os/rt/include/chschd.h"
ARM GAS  /tmp/ccaCVTnB.s 			page 7


 339              		.file 9 "/home/makkmarci/workspace/CLEAN/ChibiOS/os/ext/CMSIS/include/core_cm4.h"
 340              		.file 10 "/home/makkmarci/workspace/CLEAN/ChibiOS/os/rt/ports/ARMCMx/chcore.h"
 341              		.file 11 "/home/makkmarci/workspace/CLEAN/ChibiOS/os/rt/include/chtm.h"
 342              		.file 12 "/home/makkmarci/workspace/CLEAN/ChibiOS/os/rt/include/chsem.h"
 343              		.file 13 "/home/makkmarci/workspace/CLEAN/ChibiOS/os/rt/include/chmtx.h"
 344              		.section	.debug_info,"",%progbits
 345              	.Ldebug_info0:
 346 0000 200C0000 		.4byte	0xc20
 347 0004 0400     		.2byte	0x4
 348 0006 00000000 		.4byte	.Ldebug_abbrev0
 349 000a 04       		.byte	0x4
 350 000b 01       		.uleb128 0x1
 351 000c 9A020000 		.4byte	.LASF143
 352 0010 01       		.byte	0x1
 353 0011 B4030000 		.4byte	.LASF144
 354 0015 00000000 		.4byte	.Ldebug_ranges0+0
 355 0019 00000000 		.4byte	0
 356 001d 00000000 		.4byte	.Ldebug_line0
 357 0021 02       		.uleb128 0x2
 358 0022 04       		.byte	0x4
 359 0023 05       		.byte	0x5
 360 0024 696E7400 		.ascii	"int\000"
 361 0028 03       		.uleb128 0x3
 362 0029 04       		.byte	0x4
 363 002a 07       		.byte	0x7
 364 002b 7F010000 		.4byte	.LASF0
 365 002f 03       		.uleb128 0x3
 366 0030 01       		.byte	0x1
 367 0031 06       		.byte	0x6
 368 0032 2A000000 		.4byte	.LASF1
 369 0036 04       		.uleb128 0x4
 370 0037 36000000 		.4byte	.LASF5
 371 003b 04       		.byte	0x4
 372 003c 1D       		.byte	0x1d
 373 003d 41000000 		.4byte	0x41
 374 0041 03       		.uleb128 0x3
 375 0042 01       		.byte	0x1
 376 0043 08       		.byte	0x8
 377 0044 AA040000 		.4byte	.LASF2
 378 0048 03       		.uleb128 0x3
 379 0049 02       		.byte	0x2
 380 004a 05       		.byte	0x5
 381 004b D5040000 		.4byte	.LASF3
 382 004f 03       		.uleb128 0x3
 383 0050 02       		.byte	0x2
 384 0051 07       		.byte	0x7
 385 0052 0F050000 		.4byte	.LASF4
 386 0056 04       		.uleb128 0x4
 387 0057 39020000 		.4byte	.LASF6
 388 005b 04       		.byte	0x4
 389 005c 3F       		.byte	0x3f
 390 005d 61000000 		.4byte	0x61
 391 0061 03       		.uleb128 0x3
 392 0062 04       		.byte	0x4
 393 0063 05       		.byte	0x5
 394 0064 F6000000 		.4byte	.LASF7
 395 0068 04       		.uleb128 0x4
ARM GAS  /tmp/ccaCVTnB.s 			page 8


 396 0069 EC050000 		.4byte	.LASF8
 397 006d 04       		.byte	0x4
 398 006e 41       		.byte	0x41
 399 006f 73000000 		.4byte	0x73
 400 0073 03       		.uleb128 0x3
 401 0074 04       		.byte	0x4
 402 0075 07       		.byte	0x7
 403 0076 92050000 		.4byte	.LASF9
 404 007a 03       		.uleb128 0x3
 405 007b 08       		.byte	0x8
 406 007c 05       		.byte	0x5
 407 007d 4D010000 		.4byte	.LASF10
 408 0081 04       		.uleb128 0x4
 409 0082 39040000 		.4byte	.LASF11
 410 0086 04       		.byte	0x4
 411 0087 5B       		.byte	0x5b
 412 0088 8C000000 		.4byte	0x8c
 413 008c 03       		.uleb128 0x3
 414 008d 08       		.byte	0x8
 415 008e 07       		.byte	0x7
 416 008f B5000000 		.4byte	.LASF12
 417 0093 04       		.uleb128 0x4
 418 0094 81060000 		.4byte	.LASF13
 419 0098 05       		.byte	0x5
 420 0099 15       		.byte	0x15
 421 009a 36000000 		.4byte	0x36
 422 009e 04       		.uleb128 0x4
 423 009f A2040000 		.4byte	.LASF14
 424 00a3 05       		.byte	0x5
 425 00a4 2C       		.byte	0x2c
 426 00a5 56000000 		.4byte	0x56
 427 00a9 04       		.uleb128 0x4
 428 00aa 6A050000 		.4byte	.LASF15
 429 00ae 05       		.byte	0x5
 430 00af 2D       		.byte	0x2d
 431 00b0 68000000 		.4byte	0x68
 432 00b4 04       		.uleb128 0x4
 433 00b5 21000000 		.4byte	.LASF16
 434 00b9 05       		.byte	0x5
 435 00ba 39       		.byte	0x39
 436 00bb 81000000 		.4byte	0x81
 437 00bf 05       		.uleb128 0x5
 438 00c0 9E000000 		.4byte	0x9e
 439 00c4 05       		.uleb128 0x5
 440 00c5 A9000000 		.4byte	0xa9
 441 00c9 04       		.uleb128 0x4
 442 00ca 2A060000 		.4byte	.LASF17
 443 00ce 06       		.byte	0x6
 444 00cf 46       		.byte	0x46
 445 00d0 A9000000 		.4byte	0xa9
 446 00d4 04       		.uleb128 0x4
 447 00d5 08020000 		.4byte	.LASF18
 448 00d9 06       		.byte	0x6
 449 00da 49       		.byte	0x49
 450 00db 93000000 		.4byte	0x93
 451 00df 04       		.uleb128 0x4
 452 00e0 FF000000 		.4byte	.LASF19
ARM GAS  /tmp/ccaCVTnB.s 			page 9


 453 00e4 06       		.byte	0x6
 454 00e5 4A       		.byte	0x4a
 455 00e6 93000000 		.4byte	0x93
 456 00ea 04       		.uleb128 0x4
 457 00eb 50040000 		.4byte	.LASF20
 458 00ef 06       		.byte	0x6
 459 00f0 4B       		.byte	0x4b
 460 00f1 93000000 		.4byte	0x93
 461 00f5 04       		.uleb128 0x4
 462 00f6 7E040000 		.4byte	.LASF21
 463 00fa 06       		.byte	0x6
 464 00fb 4D       		.byte	0x4d
 465 00fc A9000000 		.4byte	0xa9
 466 0100 04       		.uleb128 0x4
 467 0101 DE010000 		.4byte	.LASF22
 468 0105 06       		.byte	0x6
 469 0106 4E       		.byte	0x4e
 470 0107 9E000000 		.4byte	0x9e
 471 010b 04       		.uleb128 0x4
 472 010c 1E020000 		.4byte	.LASF23
 473 0110 06       		.byte	0x6
 474 0111 50       		.byte	0x50
 475 0112 A9000000 		.4byte	0xa9
 476 0116 04       		.uleb128 0x4
 477 0117 70010000 		.4byte	.LASF24
 478 011b 06       		.byte	0x6
 479 011c 52       		.byte	0x52
 480 011d 9E000000 		.4byte	0x9e
 481 0121 04       		.uleb128 0x4
 482 0122 CE050000 		.4byte	.LASF25
 483 0126 07       		.byte	0x7
 484 0127 33       		.byte	0x33
 485 0128 A9000000 		.4byte	0xa9
 486 012c 04       		.uleb128 0x4
 487 012d BE050000 		.4byte	.LASF26
 488 0131 07       		.byte	0x7
 489 0132 3F       		.byte	0x3f
 490 0133 37010000 		.4byte	0x137
 491 0137 06       		.uleb128 0x6
 492 0138 CF010000 		.4byte	.LASF46
 493 013c 44       		.byte	0x44
 494 013d 08       		.byte	0x8
 495 013e C2       		.byte	0xc2
 496 013f 24020000 		.4byte	0x224
 497 0143 07       		.uleb128 0x7
 498 0144 FA040000 		.4byte	.LASF27
 499 0148 08       		.byte	0x8
 500 0149 C3       		.byte	0xc3
 501 014a 2F020000 		.4byte	0x22f
 502 014e 00       		.byte	0
 503 014f 07       		.uleb128 0x7
 504 0150 77040000 		.4byte	.LASF28
 505 0154 08       		.byte	0x8
 506 0155 C5       		.byte	0xc5
 507 0156 2F020000 		.4byte	0x22f
 508 015a 04       		.byte	0x4
 509 015b 07       		.uleb128 0x7
ARM GAS  /tmp/ccaCVTnB.s 			page 10


 510 015c A6000000 		.4byte	.LASF29
 511 0160 08       		.byte	0x8
 512 0161 C7       		.byte	0xc7
 513 0162 F5000000 		.4byte	0xf5
 514 0166 08       		.byte	0x8
 515 0167 07       		.uleb128 0x7
 516 0168 BF060000 		.4byte	.LASF30
 517 016c 08       		.byte	0x8
 518 016d C8       		.byte	0xc8
 519 016e 62060000 		.4byte	0x662
 520 0172 0C       		.byte	0xc
 521 0173 07       		.uleb128 0x7
 522 0174 08010000 		.4byte	.LASF31
 523 0178 08       		.byte	0x8
 524 0179 CA       		.byte	0xca
 525 017a 2F020000 		.4byte	0x22f
 526 017e 10       		.byte	0x10
 527 017f 07       		.uleb128 0x7
 528 0180 FC030000 		.4byte	.LASF32
 529 0184 08       		.byte	0x8
 530 0185 CB       		.byte	0xcb
 531 0186 2F020000 		.4byte	0x22f
 532 018a 14       		.byte	0x14
 533 018b 07       		.uleb128 0x7
 534 018c 90060000 		.4byte	.LASF33
 535 0190 08       		.byte	0x8
 536 0191 D2       		.byte	0xd2
 537 0192 DD090000 		.4byte	0x9dd
 538 0196 18       		.byte	0x18
 539 0197 07       		.uleb128 0x7
 540 0198 DF040000 		.4byte	.LASF34
 541 019c 08       		.byte	0x8
 542 019d DD       		.byte	0xdd
 543 019e DF000000 		.4byte	0xdf
 544 01a2 1C       		.byte	0x1c
 545 01a3 07       		.uleb128 0x7
 546 01a4 07050000 		.4byte	.LASF35
 547 01a8 08       		.byte	0x8
 548 01a9 E1       		.byte	0xe1
 549 01aa D4000000 		.4byte	0xd4
 550 01ae 1D       		.byte	0x1d
 551 01af 07       		.uleb128 0x7
 552 01b0 6F060000 		.4byte	.LASF36
 553 01b4 08       		.byte	0x8
 554 01b5 E6       		.byte	0xe6
 555 01b6 EA000000 		.4byte	0xea
 556 01ba 1E       		.byte	0x1e
 557 01bb 08       		.uleb128 0x8
 558 01bc 705F7500 		.ascii	"p_u\000"
 559 01c0 08       		.byte	0x8
 560 01c1 3101     		.2byte	0x131
 561 01c3 18090000 		.4byte	0x918
 562 01c7 20       		.byte	0x20
 563 01c8 09       		.uleb128 0x9
 564 01c9 5D020000 		.4byte	.LASF37
 565 01cd 08       		.byte	0x8
 566 01ce 3601     		.2byte	0x136
ARM GAS  /tmp/ccaCVTnB.s 			page 11


 567 01d0 35020000 		.4byte	0x235
 568 01d4 24       		.byte	0x24
 569 01d5 09       		.uleb128 0x9
 570 01d6 B9010000 		.4byte	.LASF38
 571 01da 08       		.byte	0x8
 572 01db 3C01     		.2byte	0x13c
 573 01dd 59020000 		.4byte	0x259
 574 01e1 28       		.byte	0x28
 575 01e2 09       		.uleb128 0x9
 576 01e3 97060000 		.4byte	.LASF39
 577 01e7 08       		.byte	0x8
 578 01e8 4001     		.2byte	0x140
 579 01ea 00010000 		.4byte	0x100
 580 01ee 30       		.byte	0x30
 581 01ef 09       		.uleb128 0x9
 582 01f0 5F050000 		.4byte	.LASF40
 583 01f4 08       		.byte	0x8
 584 01f5 4601     		.2byte	0x146
 585 01f7 0B010000 		.4byte	0x10b
 586 01fb 34       		.byte	0x34
 587 01fc 09       		.uleb128 0x9
 588 01fd CB040000 		.4byte	.LASF41
 589 0201 08       		.byte	0x8
 590 0202 4D01     		.2byte	0x14d
 591 0204 D7090000 		.4byte	0x9d7
 592 0208 38       		.byte	0x38
 593 0209 09       		.uleb128 0x9
 594 020a D8050000 		.4byte	.LASF42
 595 020e 08       		.byte	0x8
 596 020f 5101     		.2byte	0x151
 597 0211 F5000000 		.4byte	0xf5
 598 0215 3C       		.byte	0x3c
 599 0216 09       		.uleb128 0x9
 600 0217 AD000000 		.4byte	.LASF43
 601 021b 08       		.byte	0x8
 602 021c 5801     		.2byte	0x158
 603 021e 0C030000 		.4byte	0x30c
 604 0222 40       		.byte	0x40
 605 0223 00       		.byte	0
 606 0224 04       		.uleb128 0x4
 607 0225 70020000 		.4byte	.LASF44
 608 0229 07       		.byte	0x7
 609 022a 44       		.byte	0x44
 610 022b 2F020000 		.4byte	0x22f
 611 022f 0A       		.uleb128 0xa
 612 0230 04       		.byte	0x4
 613 0231 2C010000 		.4byte	0x12c
 614 0235 04       		.uleb128 0x4
 615 0236 4E020000 		.4byte	.LASF45
 616 023a 07       		.byte	0x7
 617 023b 49       		.byte	0x49
 618 023c 40020000 		.4byte	0x240
 619 0240 06       		.uleb128 0x6
 620 0241 82050000 		.4byte	.LASF47
 621 0245 04       		.byte	0x4
 622 0246 08       		.byte	0x8
 623 0247 B0       		.byte	0xb0
ARM GAS  /tmp/ccaCVTnB.s 			page 12


 624 0248 59020000 		.4byte	0x259
 625 024c 07       		.uleb128 0x7
 626 024d FA040000 		.4byte	.LASF27
 627 0251 08       		.byte	0x8
 628 0252 B1       		.byte	0xb1
 629 0253 2F020000 		.4byte	0x22f
 630 0257 00       		.byte	0
 631 0258 00       		.byte	0
 632 0259 04       		.uleb128 0x4
 633 025a 56060000 		.4byte	.LASF48
 634 025e 07       		.byte	0x7
 635 025f 50       		.byte	0x50
 636 0260 64020000 		.4byte	0x264
 637 0264 06       		.uleb128 0x6
 638 0265 95000000 		.4byte	.LASF49
 639 0269 08       		.byte	0x8
 640 026a 08       		.byte	0x8
 641 026b B7       		.byte	0xb7
 642 026c 89020000 		.4byte	0x289
 643 0270 07       		.uleb128 0x7
 644 0271 FA040000 		.4byte	.LASF27
 645 0275 08       		.byte	0x8
 646 0276 B8       		.byte	0xb8
 647 0277 2F020000 		.4byte	0x22f
 648 027b 00       		.byte	0
 649 027c 07       		.uleb128 0x7
 650 027d 77040000 		.4byte	.LASF28
 651 0281 08       		.byte	0x8
 652 0282 B9       		.byte	0xb9
 653 0283 2F020000 		.4byte	0x22f
 654 0287 04       		.byte	0x4
 655 0288 00       		.byte	0
 656 0289 04       		.uleb128 0x4
 657 028a 00000000 		.4byte	.LASF50
 658 028e 07       		.byte	0x7
 659 028f 57       		.byte	0x57
 660 0290 94020000 		.4byte	0x294
 661 0294 0B       		.uleb128 0xb
 662 0295 10020000 		.4byte	.LASF51
 663 0299 1C       		.byte	0x1c
 664 029a 08       		.byte	0x8
 665 029b 9001     		.2byte	0x190
 666 029d F0020000 		.4byte	0x2f0
 667 02a1 09       		.uleb128 0x9
 668 02a2 7A050000 		.4byte	.LASF52
 669 02a6 08       		.byte	0x8
 670 02a7 9101     		.2byte	0x191
 671 02a9 59020000 		.4byte	0x259
 672 02ad 00       		.byte	0
 673 02ae 09       		.uleb128 0x9
 674 02af EC040000 		.4byte	.LASF53
 675 02b3 08       		.byte	0x8
 676 02b4 9201     		.2byte	0x192
 677 02b6 F5000000 		.4byte	0xf5
 678 02ba 08       		.byte	0x8
 679 02bb 09       		.uleb128 0x9
 680 02bc 04040000 		.4byte	.LASF54
ARM GAS  /tmp/ccaCVTnB.s 			page 13


 681 02c0 08       		.byte	0x8
 682 02c1 9401     		.2byte	0x194
 683 02c3 62060000 		.4byte	0x662
 684 02c7 0C       		.byte	0xc
 685 02c8 09       		.uleb128 0x9
 686 02c9 22010000 		.4byte	.LASF55
 687 02cd 08       		.byte	0x8
 688 02ce 9701     		.2byte	0x197
 689 02d0 2F020000 		.4byte	0x22f
 690 02d4 10       		.byte	0x10
 691 02d5 09       		.uleb128 0x9
 692 02d6 31040000 		.4byte	.LASF56
 693 02da 08       		.byte	0x8
 694 02db 9801     		.2byte	0x198
 695 02dd 2F020000 		.4byte	0x22f
 696 02e1 14       		.byte	0x14
 697 02e2 09       		.uleb128 0x9
 698 02e3 27040000 		.4byte	.LASF57
 699 02e7 08       		.byte	0x8
 700 02e8 9B01     		.2byte	0x19b
 701 02ea 2F020000 		.4byte	0x22f
 702 02ee 18       		.byte	0x18
 703 02ef 00       		.byte	0
 704 02f0 04       		.uleb128 0x4
 705 02f1 E3050000 		.4byte	.LASF58
 706 02f5 07       		.byte	0x7
 707 02f6 5C       		.byte	0x5c
 708 02f7 FB020000 		.4byte	0x2fb
 709 02fb 0A       		.uleb128 0xa
 710 02fc 04       		.byte	0x4
 711 02fd 01030000 		.4byte	0x301
 712 0301 0C       		.uleb128 0xc
 713 0302 0C030000 		.4byte	0x30c
 714 0306 0D       		.uleb128 0xd
 715 0307 0C030000 		.4byte	0x30c
 716 030b 00       		.byte	0
 717 030c 0E       		.uleb128 0xe
 718 030d 04       		.byte	0x4
 719 030e 04       		.uleb128 0x4
 720 030f 67040000 		.4byte	.LASF59
 721 0313 07       		.byte	0x7
 722 0314 61       		.byte	0x61
 723 0315 19030000 		.4byte	0x319
 724 0319 0B       		.uleb128 0xb
 725 031a 41050000 		.4byte	.LASF60
 726 031e 14       		.byte	0x14
 727 031f 08       		.byte	0x8
 728 0320 6B01     		.2byte	0x16b
 729 0322 68030000 		.4byte	0x368
 730 0326 09       		.uleb128 0x9
 731 0327 96010000 		.4byte	.LASF61
 732 032b 08       		.byte	0x8
 733 032c 6C01     		.2byte	0x16c
 734 032e EF090000 		.4byte	0x9ef
 735 0332 00       		.byte	0
 736 0333 09       		.uleb128 0x9
 737 0334 33010000 		.4byte	.LASF62
ARM GAS  /tmp/ccaCVTnB.s 			page 14


 738 0338 08       		.byte	0x8
 739 0339 6D01     		.2byte	0x16d
 740 033b EF090000 		.4byte	0x9ef
 741 033f 04       		.byte	0x4
 742 0340 09       		.uleb128 0x9
 743 0341 B0010000 		.4byte	.LASF63
 744 0345 08       		.byte	0x8
 745 0346 6E01     		.2byte	0x16e
 746 0348 21010000 		.4byte	0x121
 747 034c 08       		.byte	0x8
 748 034d 09       		.uleb128 0x9
 749 034e C5060000 		.4byte	.LASF64
 750 0352 08       		.byte	0x8
 751 0353 6F01     		.2byte	0x16f
 752 0355 F0020000 		.4byte	0x2f0
 753 0359 0C       		.byte	0xc
 754 035a 09       		.uleb128 0x9
 755 035b 4F060000 		.4byte	.LASF65
 756 035f 08       		.byte	0x8
 757 0360 7101     		.2byte	0x171
 758 0362 0C030000 		.4byte	0x30c
 759 0366 10       		.byte	0x10
 760 0367 00       		.byte	0
 761 0368 04       		.uleb128 0x4
 762 0369 79000000 		.4byte	.LASF66
 763 036d 07       		.byte	0x7
 764 036e 66       		.byte	0x66
 765 036f 73030000 		.4byte	0x373
 766 0373 0B       		.uleb128 0xb
 767 0374 83020000 		.4byte	.LASF67
 768 0378 10       		.byte	0x10
 769 0379 08       		.byte	0x8
 770 037a 7B01     		.2byte	0x17b
 771 037c B5030000 		.4byte	0x3b5
 772 0380 09       		.uleb128 0x9
 773 0381 96010000 		.4byte	.LASF61
 774 0385 08       		.byte	0x8
 775 0386 7C01     		.2byte	0x17c
 776 0388 EF090000 		.4byte	0x9ef
 777 038c 00       		.byte	0
 778 038d 09       		.uleb128 0x9
 779 038e 33010000 		.4byte	.LASF62
 780 0392 08       		.byte	0x8
 781 0393 7E01     		.2byte	0x17e
 782 0395 EF090000 		.4byte	0x9ef
 783 0399 04       		.byte	0x4
 784 039a 09       		.uleb128 0x9
 785 039b B0010000 		.4byte	.LASF63
 786 039f 08       		.byte	0x8
 787 03a0 8001     		.2byte	0x180
 788 03a2 21010000 		.4byte	0x121
 789 03a6 08       		.byte	0x8
 790 03a7 09       		.uleb128 0x9
 791 03a8 A5010000 		.4byte	.LASF68
 792 03ac 08       		.byte	0x8
 793 03ad 8201     		.2byte	0x182
 794 03af F5090000 		.4byte	0x9f5
ARM GAS  /tmp/ccaCVTnB.s 			page 15


 795 03b3 0C       		.byte	0xc
 796 03b4 00       		.byte	0
 797 03b5 04       		.uleb128 0x4
 798 03b6 4C000000 		.4byte	.LASF69
 799 03ba 07       		.byte	0x7
 800 03bb 6B       		.byte	0x6b
 801 03bc C0030000 		.4byte	0x3c0
 802 03c0 0B       		.uleb128 0xb
 803 03c1 92040000 		.4byte	.LASF70
 804 03c5 04       		.byte	0x4
 805 03c6 08       		.byte	0x8
 806 03c7 A201     		.2byte	0x1a2
 807 03c9 DB030000 		.4byte	0x3db
 808 03cd 09       		.uleb128 0x9
 809 03ce 05060000 		.4byte	.LASF71
 810 03d2 08       		.byte	0x8
 811 03d3 AA01     		.2byte	0x1aa
 812 03d5 FA090000 		.4byte	0x9fa
 813 03d9 00       		.byte	0
 814 03da 00       		.byte	0
 815 03db 04       		.uleb128 0x4
 816 03dc 1E060000 		.4byte	.LASF72
 817 03e0 07       		.byte	0x7
 818 03e1 70       		.byte	0x70
 819 03e2 E6030000 		.4byte	0x3e6
 820 03e6 0F       		.uleb128 0xf
 821 03e7 EC000000 		.4byte	.LASF73
 822 03eb D801     		.2byte	0x1d8
 823 03ed 08       		.byte	0x8
 824 03ee C201     		.2byte	0x1c2
 825 03f0 42040000 		.4byte	0x442
 826 03f4 09       		.uleb128 0x9
 827 03f5 7B060000 		.4byte	.LASF74
 828 03f9 08       		.byte	0x8
 829 03fa C601     		.2byte	0x1c6
 830 03fc 89020000 		.4byte	0x289
 831 0400 00       		.byte	0
 832 0401 09       		.uleb128 0x9
 833 0402 D9000000 		.4byte	.LASF75
 834 0406 08       		.byte	0x8
 835 0407 CA01     		.2byte	0x1ca
 836 0409 68030000 		.4byte	0x368
 837 040d 1C       		.byte	0x1c
 838 040e 08       		.uleb128 0x8
 839 040f 64626700 		.ascii	"dbg\000"
 840 0413 08       		.byte	0x8
 841 0414 CE01     		.2byte	0x1ce
 842 0416 B5030000 		.4byte	0x3b5
 843 041a 2C       		.byte	0x2c
 844 041b 09       		.uleb128 0x9
 845 041c 6E000000 		.4byte	.LASF76
 846 0420 08       		.byte	0x8
 847 0421 D201     		.2byte	0x1d2
 848 0423 2C010000 		.4byte	0x12c
 849 0427 30       		.byte	0x30
 850 0428 08       		.uleb128 0x8
 851 0429 746D00   		.ascii	"tm\000"
ARM GAS  /tmp/ccaCVTnB.s 			page 16


 852 042c 08       		.byte	0x8
 853 042d D701     		.2byte	0x1d7
 854 042f 0D090000 		.4byte	0x90d
 855 0433 74       		.byte	0x74
 856 0434 09       		.uleb128 0x9
 857 0435 61010000 		.4byte	.LASF77
 858 0439 08       		.byte	0x8
 859 043a E301     		.2byte	0x1e3
 860 043c FF090000 		.4byte	0x9ff
 861 0440 78       		.byte	0x78
 862 0441 00       		.byte	0
 863 0442 03       		.uleb128 0x3
 864 0443 04       		.byte	0x4
 865 0444 07       		.byte	0x7
 866 0445 67020000 		.4byte	.LASF78
 867 0449 10       		.uleb128 0x10
 868 044a 8C       		.byte	0x8c
 869 044b 09       		.byte	0x9
 870 044c 7001     		.2byte	0x170
 871 044e 64050000 		.4byte	0x564
 872 0452 09       		.uleb128 0x9
 873 0453 8F000000 		.4byte	.LASF79
 874 0457 09       		.byte	0x9
 875 0458 7201     		.2byte	0x172
 876 045a 64050000 		.4byte	0x564
 877 045e 00       		.byte	0
 878 045f 09       		.uleb128 0x9
 879 0460 D9010000 		.4byte	.LASF80
 880 0464 09       		.byte	0x9
 881 0465 7301     		.2byte	0x173
 882 0467 C4000000 		.4byte	0xc4
 883 046b 04       		.byte	0x4
 884 046c 09       		.uleb128 0x9
 885 046d C4010000 		.4byte	.LASF81
 886 0471 09       		.byte	0x9
 887 0472 7401     		.2byte	0x174
 888 0474 C4000000 		.4byte	0xc4
 889 0478 08       		.byte	0x8
 890 0479 09       		.uleb128 0x9
 891 047a E4010000 		.4byte	.LASF82
 892 047e 09       		.byte	0x9
 893 047f 7501     		.2byte	0x175
 894 0481 C4000000 		.4byte	0xc4
 895 0485 0C       		.byte	0xc
 896 0486 08       		.uleb128 0x8
 897 0487 53435200 		.ascii	"SCR\000"
 898 048b 09       		.byte	0x9
 899 048c 7601     		.2byte	0x176
 900 048e C4000000 		.4byte	0xc4
 901 0492 10       		.byte	0x10
 902 0493 08       		.uleb128 0x8
 903 0494 43435200 		.ascii	"CCR\000"
 904 0498 09       		.byte	0x9
 905 0499 7701     		.2byte	0x177
 906 049b C4000000 		.4byte	0xc4
 907 049f 14       		.byte	0x14
 908 04a0 08       		.uleb128 0x8
ARM GAS  /tmp/ccaCVTnB.s 			page 17


 909 04a1 53485000 		.ascii	"SHP\000"
 910 04a5 09       		.byte	0x9
 911 04a6 7801     		.2byte	0x178
 912 04a8 79050000 		.4byte	0x579
 913 04ac 18       		.byte	0x18
 914 04ad 09       		.uleb128 0x9
 915 04ae B8040000 		.4byte	.LASF83
 916 04b2 09       		.byte	0x9
 917 04b3 7901     		.2byte	0x179
 918 04b5 C4000000 		.4byte	0xc4
 919 04b9 24       		.byte	0x24
 920 04ba 09       		.uleb128 0x9
 921 04bb AF030000 		.4byte	.LASF84
 922 04bf 09       		.byte	0x9
 923 04c0 7A01     		.2byte	0x17a
 924 04c2 C4000000 		.4byte	0xc4
 925 04c6 28       		.byte	0x28
 926 04c7 09       		.uleb128 0x9
 927 04c8 A3060000 		.4byte	.LASF85
 928 04cc 09       		.byte	0x9
 929 04cd 7B01     		.2byte	0x17b
 930 04cf C4000000 		.4byte	0xc4
 931 04d3 2C       		.byte	0x2c
 932 04d4 09       		.uleb128 0x9
 933 04d5 EA010000 		.4byte	.LASF86
 934 04d9 09       		.byte	0x9
 935 04da 7C01     		.2byte	0x17c
 936 04dc C4000000 		.4byte	0xc4
 937 04e0 30       		.byte	0x30
 938 04e1 09       		.uleb128 0x9
 939 04e2 EF010000 		.4byte	.LASF87
 940 04e6 09       		.byte	0x9
 941 04e7 7D01     		.2byte	0x17d
 942 04e9 C4000000 		.4byte	0xc4
 943 04ed 34       		.byte	0x34
 944 04ee 09       		.uleb128 0x9
 945 04ef 18010000 		.4byte	.LASF88
 946 04f3 09       		.byte	0x9
 947 04f4 7E01     		.2byte	0x17e
 948 04f6 C4000000 		.4byte	0xc4
 949 04fa 38       		.byte	0x38
 950 04fb 09       		.uleb128 0x9
 951 04fc 1D010000 		.4byte	.LASF89
 952 0500 09       		.byte	0x9
 953 0501 7F01     		.2byte	0x17f
 954 0503 C4000000 		.4byte	0xc4
 955 0507 3C       		.byte	0x3c
 956 0508 08       		.uleb128 0x8
 957 0509 50465200 		.ascii	"PFR\000"
 958 050d 09       		.byte	0x9
 959 050e 8001     		.2byte	0x180
 960 0510 8E050000 		.4byte	0x58e
 961 0514 40       		.byte	0x40
 962 0515 08       		.uleb128 0x8
 963 0516 44465200 		.ascii	"DFR\000"
 964 051a 09       		.byte	0x9
 965 051b 8101     		.2byte	0x181
ARM GAS  /tmp/ccaCVTnB.s 			page 18


 966 051d 64050000 		.4byte	0x564
 967 0521 48       		.byte	0x48
 968 0522 08       		.uleb128 0x8
 969 0523 41445200 		.ascii	"ADR\000"
 970 0527 09       		.byte	0x9
 971 0528 8201     		.2byte	0x182
 972 052a 64050000 		.4byte	0x564
 973 052e 4C       		.byte	0x4c
 974 052f 09       		.uleb128 0x9
 975 0530 76060000 		.4byte	.LASF90
 976 0534 09       		.byte	0x9
 977 0535 8301     		.2byte	0x183
 978 0537 A8050000 		.4byte	0x5a8
 979 053b 50       		.byte	0x50
 980 053c 09       		.uleb128 0x9
 981 053d D4000000 		.4byte	.LASF91
 982 0541 09       		.byte	0x9
 983 0542 8401     		.2byte	0x184
 984 0544 C2050000 		.4byte	0x5c2
 985 0548 60       		.byte	0x60
 986 0549 09       		.uleb128 0x9
 987 054a 58040000 		.4byte	.LASF92
 988 054e 09       		.byte	0x9
 989 054f 8501     		.2byte	0x185
 990 0551 B2050000 		.4byte	0x5b2
 991 0555 74       		.byte	0x74
 992 0556 09       		.uleb128 0x9
 993 0557 9D060000 		.4byte	.LASF93
 994 055b 09       		.byte	0x9
 995 055c 8601     		.2byte	0x186
 996 055e C4000000 		.4byte	0xc4
 997 0562 88       		.byte	0x88
 998 0563 00       		.byte	0
 999 0564 11       		.uleb128 0x11
 1000 0565 C4000000 		.4byte	0xc4
 1001 0569 12       		.uleb128 0x12
 1002 056a 93000000 		.4byte	0x93
 1003 056e 79050000 		.4byte	0x579
 1004 0572 13       		.uleb128 0x13
 1005 0573 42040000 		.4byte	0x442
 1006 0577 0B       		.byte	0xb
 1007 0578 00       		.byte	0
 1008 0579 05       		.uleb128 0x5
 1009 057a 69050000 		.4byte	0x569
 1010 057e 12       		.uleb128 0x12
 1011 057f A9000000 		.4byte	0xa9
 1012 0583 8E050000 		.4byte	0x58e
 1013 0587 13       		.uleb128 0x13
 1014 0588 42040000 		.4byte	0x442
 1015 058c 01       		.byte	0x1
 1016 058d 00       		.byte	0
 1017 058e 11       		.uleb128 0x11
 1018 058f 93050000 		.4byte	0x593
 1019 0593 05       		.uleb128 0x5
 1020 0594 7E050000 		.4byte	0x57e
 1021 0598 12       		.uleb128 0x12
 1022 0599 A9000000 		.4byte	0xa9
ARM GAS  /tmp/ccaCVTnB.s 			page 19


 1023 059d A8050000 		.4byte	0x5a8
 1024 05a1 13       		.uleb128 0x13
 1025 05a2 42040000 		.4byte	0x442
 1026 05a6 03       		.byte	0x3
 1027 05a7 00       		.byte	0
 1028 05a8 11       		.uleb128 0x11
 1029 05a9 AD050000 		.4byte	0x5ad
 1030 05ad 05       		.uleb128 0x5
 1031 05ae 98050000 		.4byte	0x598
 1032 05b2 12       		.uleb128 0x12
 1033 05b3 A9000000 		.4byte	0xa9
 1034 05b7 C2050000 		.4byte	0x5c2
 1035 05bb 13       		.uleb128 0x13
 1036 05bc 42040000 		.4byte	0x442
 1037 05c0 04       		.byte	0x4
 1038 05c1 00       		.byte	0
 1039 05c2 11       		.uleb128 0x11
 1040 05c3 C7050000 		.4byte	0x5c7
 1041 05c7 05       		.uleb128 0x5
 1042 05c8 B2050000 		.4byte	0x5b2
 1043 05cc 14       		.uleb128 0x14
 1044 05cd 3B010000 		.4byte	.LASF94
 1045 05d1 09       		.byte	0x9
 1046 05d2 8701     		.2byte	0x187
 1047 05d4 49040000 		.4byte	0x449
 1048 05d8 12       		.uleb128 0x12
 1049 05d9 A9000000 		.4byte	0xa9
 1050 05dd E8050000 		.4byte	0x5e8
 1051 05e1 13       		.uleb128 0x13
 1052 05e2 42040000 		.4byte	0x442
 1053 05e6 00       		.byte	0
 1054 05e7 00       		.byte	0
 1055 05e8 10       		.uleb128 0x10
 1056 05e9 18       		.byte	0x18
 1057 05ea 09       		.byte	0x9
 1058 05eb 8E04     		.2byte	0x48e
 1059 05ed 40060000 		.4byte	0x640
 1060 05f1 09       		.uleb128 0x9
 1061 05f2 58040000 		.4byte	.LASF92
 1062 05f6 09       		.byte	0x9
 1063 05f7 9004     		.2byte	0x490
 1064 05f9 D8050000 		.4byte	0x5d8
 1065 05fd 00       		.byte	0
 1066 05fe 09       		.uleb128 0x9
 1067 05ff 3B050000 		.4byte	.LASF95
 1068 0603 09       		.byte	0x9
 1069 0604 9104     		.2byte	0x491
 1070 0606 C4000000 		.4byte	0xc4
 1071 060a 04       		.byte	0x4
 1072 060b 09       		.uleb128 0x9
 1073 060c 29050000 		.4byte	.LASF96
 1074 0610 09       		.byte	0x9
 1075 0611 9204     		.2byte	0x492
 1076 0613 C4000000 		.4byte	0xc4
 1077 0617 08       		.byte	0x8
 1078 0618 09       		.uleb128 0x9
 1079 0619 1A000000 		.4byte	.LASF97
ARM GAS  /tmp/ccaCVTnB.s 			page 20


 1080 061d 09       		.byte	0x9
 1081 061e 9304     		.2byte	0x493
 1082 0620 C4000000 		.4byte	0xc4
 1083 0624 0C       		.byte	0xc
 1084 0625 09       		.uleb128 0x9
 1085 0626 44040000 		.4byte	.LASF98
 1086 062a 09       		.byte	0x9
 1087 062b 9404     		.2byte	0x494
 1088 062d 64050000 		.4byte	0x564
 1089 0631 10       		.byte	0x10
 1090 0632 09       		.uleb128 0x9
 1091 0633 4A040000 		.4byte	.LASF99
 1092 0637 09       		.byte	0x9
 1093 0638 9504     		.2byte	0x495
 1094 063a 64050000 		.4byte	0x564
 1095 063e 14       		.byte	0x14
 1096 063f 00       		.byte	0
 1097 0640 14       		.uleb128 0x14
 1098 0641 76010000 		.4byte	.LASF100
 1099 0645 09       		.byte	0x9
 1100 0646 9604     		.2byte	0x496
 1101 0648 E8050000 		.4byte	0x5e8
 1102 064c 04       		.uleb128 0x4
 1103 064d 2A010000 		.4byte	.LASF101
 1104 0651 0A       		.byte	0xa
 1105 0652 65       		.byte	0x65
 1106 0653 0C030000 		.4byte	0x30c
 1107 0657 04       		.uleb128 0x4
 1108 0658 43020000 		.4byte	.LASF102
 1109 065c 0A       		.byte	0xa
 1110 065d 6D       		.byte	0x6d
 1111 065e B4000000 		.4byte	0xb4
 1112 0662 06       		.uleb128 0x6
 1113 0663 16060000 		.4byte	.LASF103
 1114 0667 04       		.byte	0x4
 1115 0668 0A       		.byte	0xa
 1116 0669 89       		.byte	0x89
 1117 066a 7B060000 		.4byte	0x67b
 1118 066e 15       		.uleb128 0x15
 1119 066f 72313300 		.ascii	"r13\000"
 1120 0673 0A       		.byte	0xa
 1121 0674 8A       		.byte	0x8a
 1122 0675 BC070000 		.4byte	0x7bc
 1123 0679 00       		.byte	0
 1124 067a 00       		.byte	0
 1125 067b 06       		.uleb128 0x6
 1126 067c 40000000 		.4byte	.LASF104
 1127 0680 64       		.byte	0x64
 1128 0681 01       		.byte	0x1
 1129 0682 F4       		.byte	0xf4
 1130 0683 BC070000 		.4byte	0x7bc
 1131 0687 15       		.uleb128 0x15
 1132 0688 73313600 		.ascii	"s16\000"
 1133 068c 01       		.byte	0x1
 1134 068d F6       		.byte	0xf6
 1135 068e 4C060000 		.4byte	0x64c
 1136 0692 00       		.byte	0
ARM GAS  /tmp/ccaCVTnB.s 			page 21


 1137 0693 15       		.uleb128 0x15
 1138 0694 73313700 		.ascii	"s17\000"
 1139 0698 01       		.byte	0x1
 1140 0699 F7       		.byte	0xf7
 1141 069a 4C060000 		.4byte	0x64c
 1142 069e 04       		.byte	0x4
 1143 069f 15       		.uleb128 0x15
 1144 06a0 73313800 		.ascii	"s18\000"
 1145 06a4 01       		.byte	0x1
 1146 06a5 F8       		.byte	0xf8
 1147 06a6 4C060000 		.4byte	0x64c
 1148 06aa 08       		.byte	0x8
 1149 06ab 15       		.uleb128 0x15
 1150 06ac 73313900 		.ascii	"s19\000"
 1151 06b0 01       		.byte	0x1
 1152 06b1 F9       		.byte	0xf9
 1153 06b2 4C060000 		.4byte	0x64c
 1154 06b6 0C       		.byte	0xc
 1155 06b7 15       		.uleb128 0x15
 1156 06b8 73323000 		.ascii	"s20\000"
 1157 06bc 01       		.byte	0x1
 1158 06bd FA       		.byte	0xfa
 1159 06be 4C060000 		.4byte	0x64c
 1160 06c2 10       		.byte	0x10
 1161 06c3 15       		.uleb128 0x15
 1162 06c4 73323100 		.ascii	"s21\000"
 1163 06c8 01       		.byte	0x1
 1164 06c9 FB       		.byte	0xfb
 1165 06ca 4C060000 		.4byte	0x64c
 1166 06ce 14       		.byte	0x14
 1167 06cf 15       		.uleb128 0x15
 1168 06d0 73323200 		.ascii	"s22\000"
 1169 06d4 01       		.byte	0x1
 1170 06d5 FC       		.byte	0xfc
 1171 06d6 4C060000 		.4byte	0x64c
 1172 06da 18       		.byte	0x18
 1173 06db 15       		.uleb128 0x15
 1174 06dc 73323300 		.ascii	"s23\000"
 1175 06e0 01       		.byte	0x1
 1176 06e1 FD       		.byte	0xfd
 1177 06e2 4C060000 		.4byte	0x64c
 1178 06e6 1C       		.byte	0x1c
 1179 06e7 15       		.uleb128 0x15
 1180 06e8 73323400 		.ascii	"s24\000"
 1181 06ec 01       		.byte	0x1
 1182 06ed FE       		.byte	0xfe
 1183 06ee 4C060000 		.4byte	0x64c
 1184 06f2 20       		.byte	0x20
 1185 06f3 15       		.uleb128 0x15
 1186 06f4 73323500 		.ascii	"s25\000"
 1187 06f8 01       		.byte	0x1
 1188 06f9 FF       		.byte	0xff
 1189 06fa 4C060000 		.4byte	0x64c
 1190 06fe 24       		.byte	0x24
 1191 06ff 08       		.uleb128 0x8
 1192 0700 73323600 		.ascii	"s26\000"
 1193 0704 01       		.byte	0x1
ARM GAS  /tmp/ccaCVTnB.s 			page 22


 1194 0705 0001     		.2byte	0x100
 1195 0707 4C060000 		.4byte	0x64c
 1196 070b 28       		.byte	0x28
 1197 070c 08       		.uleb128 0x8
 1198 070d 73323700 		.ascii	"s27\000"
 1199 0711 01       		.byte	0x1
 1200 0712 0101     		.2byte	0x101
 1201 0714 4C060000 		.4byte	0x64c
 1202 0718 2C       		.byte	0x2c
 1203 0719 08       		.uleb128 0x8
 1204 071a 73323800 		.ascii	"s28\000"
 1205 071e 01       		.byte	0x1
 1206 071f 0201     		.2byte	0x102
 1207 0721 4C060000 		.4byte	0x64c
 1208 0725 30       		.byte	0x30
 1209 0726 08       		.uleb128 0x8
 1210 0727 73323900 		.ascii	"s29\000"
 1211 072b 01       		.byte	0x1
 1212 072c 0301     		.2byte	0x103
 1213 072e 4C060000 		.4byte	0x64c
 1214 0732 34       		.byte	0x34
 1215 0733 08       		.uleb128 0x8
 1216 0734 73333000 		.ascii	"s30\000"
 1217 0738 01       		.byte	0x1
 1218 0739 0401     		.2byte	0x104
 1219 073b 4C060000 		.4byte	0x64c
 1220 073f 38       		.byte	0x38
 1221 0740 08       		.uleb128 0x8
 1222 0741 73333100 		.ascii	"s31\000"
 1223 0745 01       		.byte	0x1
 1224 0746 0501     		.2byte	0x105
 1225 0748 4C060000 		.4byte	0x64c
 1226 074c 3C       		.byte	0x3c
 1227 074d 08       		.uleb128 0x8
 1228 074e 723400   		.ascii	"r4\000"
 1229 0751 01       		.byte	0x1
 1230 0752 0701     		.2byte	0x107
 1231 0754 4C060000 		.4byte	0x64c
 1232 0758 40       		.byte	0x40
 1233 0759 08       		.uleb128 0x8
 1234 075a 723500   		.ascii	"r5\000"
 1235 075d 01       		.byte	0x1
 1236 075e 0801     		.2byte	0x108
 1237 0760 4C060000 		.4byte	0x64c
 1238 0764 44       		.byte	0x44
 1239 0765 08       		.uleb128 0x8
 1240 0766 723600   		.ascii	"r6\000"
 1241 0769 01       		.byte	0x1
 1242 076a 0901     		.2byte	0x109
 1243 076c 4C060000 		.4byte	0x64c
 1244 0770 48       		.byte	0x48
 1245 0771 08       		.uleb128 0x8
 1246 0772 723700   		.ascii	"r7\000"
 1247 0775 01       		.byte	0x1
 1248 0776 0A01     		.2byte	0x10a
 1249 0778 4C060000 		.4byte	0x64c
 1250 077c 4C       		.byte	0x4c
ARM GAS  /tmp/ccaCVTnB.s 			page 23


 1251 077d 08       		.uleb128 0x8
 1252 077e 723800   		.ascii	"r8\000"
 1253 0781 01       		.byte	0x1
 1254 0782 0B01     		.2byte	0x10b
 1255 0784 4C060000 		.4byte	0x64c
 1256 0788 50       		.byte	0x50
 1257 0789 08       		.uleb128 0x8
 1258 078a 723900   		.ascii	"r9\000"
 1259 078d 01       		.byte	0x1
 1260 078e 0C01     		.2byte	0x10c
 1261 0790 4C060000 		.4byte	0x64c
 1262 0794 54       		.byte	0x54
 1263 0795 08       		.uleb128 0x8
 1264 0796 72313000 		.ascii	"r10\000"
 1265 079a 01       		.byte	0x1
 1266 079b 0D01     		.2byte	0x10d
 1267 079d 4C060000 		.4byte	0x64c
 1268 07a1 58       		.byte	0x58
 1269 07a2 08       		.uleb128 0x8
 1270 07a3 72313100 		.ascii	"r11\000"
 1271 07a7 01       		.byte	0x1
 1272 07a8 0E01     		.2byte	0x10e
 1273 07aa 4C060000 		.4byte	0x64c
 1274 07ae 5C       		.byte	0x5c
 1275 07af 08       		.uleb128 0x8
 1276 07b0 6C7200   		.ascii	"lr\000"
 1277 07b3 01       		.byte	0x1
 1278 07b4 0F01     		.2byte	0x10f
 1279 07b6 4C060000 		.4byte	0x64c
 1280 07ba 60       		.byte	0x60
 1281 07bb 00       		.byte	0
 1282 07bc 0A       		.uleb128 0xa
 1283 07bd 04       		.byte	0x4
 1284 07be 7B060000 		.4byte	0x67b
 1285 07c2 06       		.uleb128 0x6
 1286 07c3 0A040000 		.4byte	.LASF105
 1287 07c7 68       		.byte	0x68
 1288 07c8 01       		.byte	0x1
 1289 07c9 D5       		.byte	0xd5
 1290 07ca F8080000 		.4byte	0x8f8
 1291 07ce 15       		.uleb128 0x15
 1292 07cf 723000   		.ascii	"r0\000"
 1293 07d2 01       		.byte	0x1
 1294 07d3 D6       		.byte	0xd6
 1295 07d4 4C060000 		.4byte	0x64c
 1296 07d8 00       		.byte	0
 1297 07d9 15       		.uleb128 0x15
 1298 07da 723100   		.ascii	"r1\000"
 1299 07dd 01       		.byte	0x1
 1300 07de D7       		.byte	0xd7
 1301 07df 4C060000 		.4byte	0x64c
 1302 07e3 04       		.byte	0x4
 1303 07e4 15       		.uleb128 0x15
 1304 07e5 723200   		.ascii	"r2\000"
 1305 07e8 01       		.byte	0x1
 1306 07e9 D8       		.byte	0xd8
 1307 07ea 4C060000 		.4byte	0x64c
ARM GAS  /tmp/ccaCVTnB.s 			page 24


 1308 07ee 08       		.byte	0x8
 1309 07ef 15       		.uleb128 0x15
 1310 07f0 723300   		.ascii	"r3\000"
 1311 07f3 01       		.byte	0x1
 1312 07f4 D9       		.byte	0xd9
 1313 07f5 4C060000 		.4byte	0x64c
 1314 07f9 0C       		.byte	0xc
 1315 07fa 15       		.uleb128 0x15
 1316 07fb 72313200 		.ascii	"r12\000"
 1317 07ff 01       		.byte	0x1
 1318 0800 DA       		.byte	0xda
 1319 0801 4C060000 		.4byte	0x64c
 1320 0805 10       		.byte	0x10
 1321 0806 07       		.uleb128 0x7
 1322 0807 22050000 		.4byte	.LASF106
 1323 080b 01       		.byte	0x1
 1324 080c DB       		.byte	0xdb
 1325 080d 4C060000 		.4byte	0x64c
 1326 0811 14       		.byte	0x14
 1327 0812 15       		.uleb128 0x15
 1328 0813 706300   		.ascii	"pc\000"
 1329 0816 01       		.byte	0x1
 1330 0817 DC       		.byte	0xdc
 1331 0818 4C060000 		.4byte	0x64c
 1332 081c 18       		.byte	0x18
 1333 081d 07       		.uleb128 0x7
 1334 081e E7040000 		.4byte	.LASF107
 1335 0822 01       		.byte	0x1
 1336 0823 DD       		.byte	0xdd
 1337 0824 4C060000 		.4byte	0x64c
 1338 0828 1C       		.byte	0x1c
 1339 0829 15       		.uleb128 0x15
 1340 082a 733000   		.ascii	"s0\000"
 1341 082d 01       		.byte	0x1
 1342 082e DF       		.byte	0xdf
 1343 082f 4C060000 		.4byte	0x64c
 1344 0833 20       		.byte	0x20
 1345 0834 15       		.uleb128 0x15
 1346 0835 733100   		.ascii	"s1\000"
 1347 0838 01       		.byte	0x1
 1348 0839 E0       		.byte	0xe0
 1349 083a 4C060000 		.4byte	0x64c
 1350 083e 24       		.byte	0x24
 1351 083f 15       		.uleb128 0x15
 1352 0840 733200   		.ascii	"s2\000"
 1353 0843 01       		.byte	0x1
 1354 0844 E1       		.byte	0xe1
 1355 0845 4C060000 		.4byte	0x64c
 1356 0849 28       		.byte	0x28
 1357 084a 15       		.uleb128 0x15
 1358 084b 733300   		.ascii	"s3\000"
 1359 084e 01       		.byte	0x1
 1360 084f E2       		.byte	0xe2
 1361 0850 4C060000 		.4byte	0x64c
 1362 0854 2C       		.byte	0x2c
 1363 0855 15       		.uleb128 0x15
 1364 0856 733400   		.ascii	"s4\000"
ARM GAS  /tmp/ccaCVTnB.s 			page 25


 1365 0859 01       		.byte	0x1
 1366 085a E3       		.byte	0xe3
 1367 085b 4C060000 		.4byte	0x64c
 1368 085f 30       		.byte	0x30
 1369 0860 15       		.uleb128 0x15
 1370 0861 733500   		.ascii	"s5\000"
 1371 0864 01       		.byte	0x1
 1372 0865 E4       		.byte	0xe4
 1373 0866 4C060000 		.4byte	0x64c
 1374 086a 34       		.byte	0x34
 1375 086b 15       		.uleb128 0x15
 1376 086c 733600   		.ascii	"s6\000"
 1377 086f 01       		.byte	0x1
 1378 0870 E5       		.byte	0xe5
 1379 0871 4C060000 		.4byte	0x64c
 1380 0875 38       		.byte	0x38
 1381 0876 15       		.uleb128 0x15
 1382 0877 733700   		.ascii	"s7\000"
 1383 087a 01       		.byte	0x1
 1384 087b E6       		.byte	0xe6
 1385 087c 4C060000 		.4byte	0x64c
 1386 0880 3C       		.byte	0x3c
 1387 0881 15       		.uleb128 0x15
 1388 0882 733800   		.ascii	"s8\000"
 1389 0885 01       		.byte	0x1
 1390 0886 E7       		.byte	0xe7
 1391 0887 4C060000 		.4byte	0x64c
 1392 088b 40       		.byte	0x40
 1393 088c 15       		.uleb128 0x15
 1394 088d 733900   		.ascii	"s9\000"
 1395 0890 01       		.byte	0x1
 1396 0891 E8       		.byte	0xe8
 1397 0892 4C060000 		.4byte	0x64c
 1398 0896 44       		.byte	0x44
 1399 0897 15       		.uleb128 0x15
 1400 0898 73313000 		.ascii	"s10\000"
 1401 089c 01       		.byte	0x1
 1402 089d E9       		.byte	0xe9
 1403 089e 4C060000 		.4byte	0x64c
 1404 08a2 48       		.byte	0x48
 1405 08a3 15       		.uleb128 0x15
 1406 08a4 73313100 		.ascii	"s11\000"
 1407 08a8 01       		.byte	0x1
 1408 08a9 EA       		.byte	0xea
 1409 08aa 4C060000 		.4byte	0x64c
 1410 08ae 4C       		.byte	0x4c
 1411 08af 15       		.uleb128 0x15
 1412 08b0 73313200 		.ascii	"s12\000"
 1413 08b4 01       		.byte	0x1
 1414 08b5 EB       		.byte	0xeb
 1415 08b6 4C060000 		.4byte	0x64c
 1416 08ba 50       		.byte	0x50
 1417 08bb 15       		.uleb128 0x15
 1418 08bc 73313300 		.ascii	"s13\000"
 1419 08c0 01       		.byte	0x1
 1420 08c1 EC       		.byte	0xec
 1421 08c2 4C060000 		.4byte	0x64c
ARM GAS  /tmp/ccaCVTnB.s 			page 26


 1422 08c6 54       		.byte	0x54
 1423 08c7 15       		.uleb128 0x15
 1424 08c8 73313400 		.ascii	"s14\000"
 1425 08cc 01       		.byte	0x1
 1426 08cd ED       		.byte	0xed
 1427 08ce 4C060000 		.4byte	0x64c
 1428 08d2 58       		.byte	0x58
 1429 08d3 15       		.uleb128 0x15
 1430 08d4 73313500 		.ascii	"s15\000"
 1431 08d8 01       		.byte	0x1
 1432 08d9 EE       		.byte	0xee
 1433 08da 4C060000 		.4byte	0x64c
 1434 08de 5C       		.byte	0x5c
 1435 08df 07       		.uleb128 0x7
 1436 08e0 01050000 		.4byte	.LASF108
 1437 08e4 01       		.byte	0x1
 1438 08e5 EF       		.byte	0xef
 1439 08e6 4C060000 		.4byte	0x64c
 1440 08ea 60       		.byte	0x60
 1441 08eb 07       		.uleb128 0x7
 1442 08ec 44010000 		.4byte	.LASF109
 1443 08f0 01       		.byte	0x1
 1444 08f1 F0       		.byte	0xf0
 1445 08f2 4C060000 		.4byte	0x64c
 1446 08f6 64       		.byte	0x64
 1447 08f7 00       		.byte	0
 1448 08f8 16       		.uleb128 0x16
 1449 08f9 04       		.byte	0x4
 1450 08fa 0B       		.byte	0xb
 1451 08fb 38       		.byte	0x38
 1452 08fc 0D090000 		.4byte	0x90d
 1453 0900 07       		.uleb128 0x7
 1454 0901 0F060000 		.4byte	.LASF110
 1455 0905 0B       		.byte	0xb
 1456 0906 3C       		.byte	0x3c
 1457 0907 C9000000 		.4byte	0xc9
 1458 090b 00       		.byte	0
 1459 090c 00       		.byte	0
 1460 090d 04       		.uleb128 0x4
 1461 090e 16040000 		.4byte	.LASF111
 1462 0912 0B       		.byte	0xb
 1463 0913 3D       		.byte	0x3d
 1464 0914 F8080000 		.4byte	0x8f8
 1465 0918 17       		.uleb128 0x17
 1466 0919 04       		.byte	0x4
 1467 091a 08       		.byte	0x8
 1468 091b FA       		.byte	0xfa
 1469 091c 75090000 		.4byte	0x975
 1470 0920 18       		.uleb128 0x18
 1471 0921 13000000 		.4byte	.LASF112
 1472 0925 08       		.byte	0x8
 1473 0926 0101     		.2byte	0x101
 1474 0928 00010000 		.4byte	0x100
 1475 092c 18       		.uleb128 0x18
 1476 092d 65000000 		.4byte	.LASF113
 1477 0931 08       		.byte	0x8
 1478 0932 0801     		.2byte	0x108
ARM GAS  /tmp/ccaCVTnB.s 			page 27


 1479 0934 00010000 		.4byte	0x100
 1480 0938 18       		.uleb128 0x18
 1481 0939 89060000 		.4byte	.LASF114
 1482 093d 08       		.byte	0x8
 1483 093e 0F01     		.2byte	0x10f
 1484 0940 0C030000 		.4byte	0x30c
 1485 0944 18       		.uleb128 0x18
 1486 0945 0D000000 		.4byte	.LASF115
 1487 0949 08       		.byte	0x8
 1488 094a 1601     		.2byte	0x116
 1489 094c 75090000 		.4byte	0x975
 1490 0950 18       		.uleb128 0x18
 1491 0951 9E010000 		.4byte	.LASF116
 1492 0955 08       		.byte	0x8
 1493 0956 1E01     		.2byte	0x11e
 1494 0958 A0090000 		.4byte	0x9a0
 1495 095c 18       		.uleb128 0x18
 1496 095d 73050000 		.4byte	.LASF117
 1497 0961 08       		.byte	0x8
 1498 0962 2701     		.2byte	0x127
 1499 0964 D7090000 		.4byte	0x9d7
 1500 0968 18       		.uleb128 0x18
 1501 0969 F3040000 		.4byte	.LASF118
 1502 096d 08       		.byte	0x8
 1503 096e 2F01     		.2byte	0x12f
 1504 0970 0B010000 		.4byte	0x10b
 1505 0974 00       		.byte	0
 1506 0975 0A       		.uleb128 0xa
 1507 0976 04       		.byte	0x4
 1508 0977 24020000 		.4byte	0x224
 1509 097b 06       		.uleb128 0x6
 1510 097c 52050000 		.4byte	.LASF119
 1511 0980 0C       		.byte	0xc
 1512 0981 0C       		.byte	0xc
 1513 0982 34       		.byte	0x34
 1514 0983 A0090000 		.4byte	0x9a0
 1515 0987 07       		.uleb128 0x7
 1516 0988 10010000 		.4byte	.LASF120
 1517 098c 0C       		.byte	0xc
 1518 098d 35       		.byte	0x35
 1519 098e 59020000 		.4byte	0x259
 1520 0992 00       		.byte	0
 1521 0993 07       		.uleb128 0x7
 1522 0994 C9010000 		.4byte	.LASF121
 1523 0998 0C       		.byte	0xc
 1524 0999 37       		.byte	0x37
 1525 099a 16010000 		.4byte	0x116
 1526 099e 08       		.byte	0x8
 1527 099f 00       		.byte	0
 1528 09a0 0A       		.uleb128 0xa
 1529 09a1 04       		.byte	0x4
 1530 09a2 7B090000 		.4byte	0x97b
 1531 09a6 06       		.uleb128 0x6
 1532 09a7 66060000 		.4byte	.LASF122
 1533 09ab 10       		.byte	0x10
 1534 09ac 0D       		.byte	0xd
 1535 09ad 39       		.byte	0x39
ARM GAS  /tmp/ccaCVTnB.s 			page 28


 1536 09ae D7090000 		.4byte	0x9d7
 1537 09b2 07       		.uleb128 0x7
 1538 09b3 CC000000 		.4byte	.LASF123
 1539 09b7 0D       		.byte	0xd
 1540 09b8 3A       		.byte	0x3a
 1541 09b9 59020000 		.4byte	0x259
 1542 09bd 00       		.byte	0
 1543 09be 07       		.uleb128 0x7
 1544 09bf B0060000 		.4byte	.LASF124
 1545 09c3 0D       		.byte	0xd
 1546 09c4 3C       		.byte	0x3c
 1547 09c5 2F020000 		.4byte	0x22f
 1548 09c9 08       		.byte	0x8
 1549 09ca 07       		.uleb128 0x7
 1550 09cb C7050000 		.4byte	.LASF125
 1551 09cf 0D       		.byte	0xd
 1552 09d0 3E       		.byte	0x3e
 1553 09d1 1A0A0000 		.4byte	0xa1a
 1554 09d5 0C       		.byte	0xc
 1555 09d6 00       		.byte	0
 1556 09d7 0A       		.uleb128 0xa
 1557 09d8 04       		.byte	0x4
 1558 09d9 A6090000 		.4byte	0x9a6
 1559 09dd 0A       		.uleb128 0xa
 1560 09de 04       		.byte	0x4
 1561 09df E3090000 		.4byte	0x9e3
 1562 09e3 11       		.uleb128 0x11
 1563 09e4 E8090000 		.4byte	0x9e8
 1564 09e8 03       		.uleb128 0x3
 1565 09e9 01       		.byte	0x1
 1566 09ea 08       		.byte	0x8
 1567 09eb A4050000 		.4byte	.LASF126
 1568 09ef 0A       		.uleb128 0xa
 1569 09f0 04       		.byte	0x4
 1570 09f1 0E030000 		.4byte	0x30e
 1571 09f5 05       		.uleb128 0x5
 1572 09f6 21010000 		.4byte	0x121
 1573 09fa 05       		.uleb128 0x5
 1574 09fb DD090000 		.4byte	0x9dd
 1575 09ff 12       		.uleb128 0x12
 1576 0a00 57060000 		.4byte	0x657
 1577 0a04 0F0A0000 		.4byte	0xa0f
 1578 0a08 13       		.uleb128 0x13
 1579 0a09 42040000 		.4byte	0x442
 1580 0a0d 2B       		.byte	0x2b
 1581 0a0e 00       		.byte	0
 1582 0a0f 04       		.uleb128 0x4
 1583 0a10 A8060000 		.4byte	.LASF127
 1584 0a14 0D       		.byte	0xd
 1585 0a15 34       		.byte	0x34
 1586 0a16 A6090000 		.4byte	0x9a6
 1587 0a1a 0A       		.uleb128 0xa
 1588 0a1b 04       		.byte	0x4
 1589 0a1c 0F0A0000 		.4byte	0xa0f
 1590 0a20 19       		.uleb128 0x19
 1591 0a21 F7050000 		.4byte	.LASF128
 1592 0a25 02       		.byte	0x2
ARM GAS  /tmp/ccaCVTnB.s 			page 29


 1593 0a26 2002     		.2byte	0x220
 1594 0a28 03       		.byte	0x3
 1595 0a29 3A0A0000 		.4byte	0xa3a
 1596 0a2d 1A       		.uleb128 0x1a
 1597 0a2e 5B010000 		.4byte	.LASF130
 1598 0a32 02       		.byte	0x2
 1599 0a33 2002     		.2byte	0x220
 1600 0a35 A9000000 		.4byte	0xa9
 1601 0a39 00       		.byte	0
 1602 0a3a 1B       		.uleb128 0x1b
 1603 0a3b 45060000 		.4byte	.LASF132
 1604 0a3f 02       		.byte	0x2
 1605 0a40 A801     		.2byte	0x1a8
 1606 0a42 A9000000 		.4byte	0xa9
 1607 0a46 03       		.byte	0x3
 1608 0a47 580A0000 		.4byte	0xa58
 1609 0a4b 1C       		.uleb128 0x1c
 1610 0a4c B8060000 		.4byte	.LASF134
 1611 0a50 02       		.byte	0x2
 1612 0a51 AA01     		.2byte	0x1aa
 1613 0a53 A9000000 		.4byte	0xa9
 1614 0a57 00       		.byte	0
 1615 0a58 19       		.uleb128 0x19
 1616 0a59 8C010000 		.4byte	.LASF129
 1617 0a5d 02       		.byte	0x2
 1618 0a5e B701     		.2byte	0x1b7
 1619 0a60 03       		.byte	0x3
 1620 0a61 720A0000 		.4byte	0xa72
 1621 0a65 1A       		.uleb128 0x1a
 1622 0a66 2A020000 		.4byte	.LASF131
 1623 0a6a 02       		.byte	0x2
 1624 0a6b B701     		.2byte	0x1b7
 1625 0a6d A9000000 		.4byte	0xa9
 1626 0a71 00       		.byte	0
 1627 0a72 1B       		.uleb128 0x1b
 1628 0a73 86040000 		.4byte	.LASF133
 1629 0a77 02       		.byte	0x2
 1630 0a78 4B02     		.2byte	0x24b
 1631 0a7a A9000000 		.4byte	0xa9
 1632 0a7e 03       		.byte	0x3
 1633 0a7f 900A0000 		.4byte	0xa90
 1634 0a83 1C       		.uleb128 0x1c
 1635 0a84 B8060000 		.4byte	.LASF134
 1636 0a88 02       		.byte	0x2
 1637 0a89 4E02     		.2byte	0x24e
 1638 0a8b A9000000 		.4byte	0xa9
 1639 0a8f 00       		.byte	0
 1640 0a90 1D       		.uleb128 0x1d
 1641 0a91 5B000000 		.4byte	.LASF135
 1642 0a95 01       		.byte	0x1
 1643 0a96 BC01     		.2byte	0x1bc
 1644 0a98 00000000 		.4byte	.LFB116
 1645 0a9c 10000000 		.4byte	.LFE116-.LFB116
 1646 0aa0 01       		.uleb128 0x1
 1647 0aa1 9C       		.byte	0x9c
 1648 0aa2 C00A0000 		.4byte	0xac0
 1649 0aa6 1E       		.uleb128 0x1e
ARM GAS  /tmp/ccaCVTnB.s 			page 30


 1650 0aa7 200A0000 		.4byte	0xa20
 1651 0aab 06000000 		.4byte	.LBB17
 1652 0aaf 06000000 		.4byte	.LBE17-.LBB17
 1653 0ab3 01       		.byte	0x1
 1654 0ab4 BF01     		.2byte	0x1bf
 1655 0ab6 1F       		.uleb128 0x1f
 1656 0ab7 2D0A0000 		.4byte	0xa2d
 1657 0abb 02       		.uleb128 0x2
 1658 0abc 91       		.byte	0x91
 1659 0abd 7C       		.sleb128 -4
 1660 0abe 00       		.byte	0
 1661 0abf 00       		.byte	0
 1662 0ac0 1D       		.uleb128 0x1d
 1663 0ac1 E0000000 		.4byte	.LASF136
 1664 0ac5 01       		.byte	0x1
 1665 0ac6 CA01     		.2byte	0x1ca
 1666 0ac8 00000000 		.4byte	.LFB117
 1667 0acc 10000000 		.4byte	.LFE117-.LFB117
 1668 0ad0 01       		.uleb128 0x1
 1669 0ad1 9C       		.byte	0x9c
 1670 0ad2 F00A0000 		.4byte	0xaf0
 1671 0ad6 1E       		.uleb128 0x1e
 1672 0ad7 200A0000 		.4byte	0xa20
 1673 0adb 06000000 		.4byte	.LBB19
 1674 0adf 06000000 		.4byte	.LBE19-.LBB19
 1675 0ae3 01       		.byte	0x1
 1676 0ae4 CD01     		.2byte	0x1cd
 1677 0ae6 1F       		.uleb128 0x1f
 1678 0ae7 2D0A0000 		.4byte	0xa2d
 1679 0aeb 02       		.uleb128 0x2
 1680 0aec 91       		.byte	0x91
 1681 0aed 7C       		.sleb128 -4
 1682 0aee 00       		.byte	0
 1683 0aef 00       		.byte	0
 1684 0af0 20       		.uleb128 0x20
 1685 0af1 32060000 		.4byte	.LASF137
 1686 0af5 01       		.byte	0x1
 1687 0af6 D901     		.2byte	0x1d9
 1688 0af8 00000000 		.4byte	.LFB118
 1689 0afc 08000000 		.4byte	.LFE118-.LFB118
 1690 0b00 01       		.uleb128 0x1
 1691 0b01 9C       		.byte	0x9c
 1692 0b02 20       		.uleb128 0x20
 1693 0b03 A9050000 		.4byte	.LASF138
 1694 0b07 01       		.byte	0x1
 1695 0b08 E401     		.2byte	0x1e4
 1696 0b0a 00000000 		.4byte	.LFB119
 1697 0b0e 08000000 		.4byte	.LFE119-.LFB119
 1698 0b12 01       		.uleb128 0x1
 1699 0b13 9C       		.byte	0x9c
 1700 0b14 21       		.uleb128 0x21
 1701 0b15 2F050000 		.4byte	.LASF139
 1702 0b19 03       		.byte	0x3
 1703 0b1a 3E       		.byte	0x3e
 1704 0b1b 00000000 		.4byte	.LFB216
 1705 0b1f 38000000 		.4byte	.LFE216-.LFB216
 1706 0b23 01       		.uleb128 0x1
ARM GAS  /tmp/ccaCVTnB.s 			page 31


 1707 0b24 9C       		.byte	0x9c
 1708 0b25 750B0000 		.4byte	0xb75
 1709 0b29 22       		.uleb128 0x22
 1710 0b2a 62040000 		.4byte	.LASF141
 1711 0b2e 03       		.byte	0x3
 1712 0b2f 40       		.byte	0x40
 1713 0b30 750B0000 		.4byte	0xb75
 1714 0b34 02       		.uleb128 0x2
 1715 0b35 91       		.byte	0x91
 1716 0b36 74       		.sleb128 -12
 1717 0b37 23       		.uleb128 0x23
 1718 0b38 3A0A0000 		.4byte	0xa3a
 1719 0b3c 10000000 		.4byte	.LBB21
 1720 0b40 08000000 		.4byte	.LBE21-.LBB21
 1721 0b44 03       		.byte	0x3
 1722 0b45 48       		.byte	0x48
 1723 0b46 5C0B0000 		.4byte	0xb5c
 1724 0b4a 24       		.uleb128 0x24
 1725 0b4b 10000000 		.4byte	.LBB22
 1726 0b4f 08000000 		.4byte	.LBE22-.LBB22
 1727 0b53 25       		.uleb128 0x25
 1728 0b54 4B0A0000 		.4byte	0xa4b
 1729 0b58 01       		.uleb128 0x1
 1730 0b59 54       		.byte	0x54
 1731 0b5a 00       		.byte	0
 1732 0b5b 00       		.byte	0
 1733 0b5c 26       		.uleb128 0x26
 1734 0b5d 580A0000 		.4byte	0xa58
 1735 0b61 24000000 		.4byte	.LBB23
 1736 0b65 06000000 		.4byte	.LBE23-.LBB23
 1737 0b69 03       		.byte	0x3
 1738 0b6a 4F       		.byte	0x4f
 1739 0b6b 1F       		.uleb128 0x1f
 1740 0b6c 650A0000 		.4byte	0xa65
 1741 0b70 02       		.uleb128 0x2
 1742 0b71 91       		.byte	0x91
 1743 0b72 70       		.sleb128 -16
 1744 0b73 00       		.byte	0
 1745 0b74 00       		.byte	0
 1746 0b75 0A       		.uleb128 0xa
 1747 0b76 04       		.byte	0x4
 1748 0b77 C2070000 		.4byte	0x7c2
 1749 0b7b 21       		.uleb128 0x21
 1750 0b7c F5010000 		.4byte	.LASF140
 1751 0b80 03       		.byte	0x3
 1752 0b81 7A       		.byte	0x7a
 1753 0b82 00000000 		.4byte	.LFB217
 1754 0b86 78000000 		.4byte	.LFE217-.LFB217
 1755 0b8a 01       		.uleb128 0x1
 1756 0b8b 9C       		.byte	0x9c
 1757 0b8c 0C0C0000 		.4byte	0xc0c
 1758 0b90 24       		.uleb128 0x24
 1759 0b91 14000000 		.4byte	.LBB25
 1760 0b95 4C000000 		.4byte	.LBE25-.LBB25
 1761 0b99 22       		.uleb128 0x22
 1762 0b9a 62040000 		.4byte	.LASF141
 1763 0b9e 03       		.byte	0x3
ARM GAS  /tmp/ccaCVTnB.s 			page 32


 1764 0b9f 7E       		.byte	0x7e
 1765 0ba0 750B0000 		.4byte	0xb75
 1766 0ba4 02       		.uleb128 0x2
 1767 0ba5 91       		.byte	0x91
 1768 0ba6 74       		.sleb128 -12
 1769 0ba7 23       		.uleb128 0x23
 1770 0ba8 720A0000 		.4byte	0xa72
 1771 0bac 14000000 		.4byte	.LBB26
 1772 0bb0 06000000 		.4byte	.LBE26-.LBB26
 1773 0bb4 03       		.byte	0x3
 1774 0bb5 82       		.byte	0x82
 1775 0bb6 CD0B0000 		.4byte	0xbcd
 1776 0bba 24       		.uleb128 0x24
 1777 0bbb 14000000 		.4byte	.LBB27
 1778 0bbf 06000000 		.4byte	.LBE27-.LBB27
 1779 0bc3 25       		.uleb128 0x25
 1780 0bc4 830A0000 		.4byte	0xa83
 1781 0bc8 02       		.uleb128 0x2
 1782 0bc9 91       		.byte	0x91
 1783 0bca 70       		.sleb128 -16
 1784 0bcb 00       		.byte	0
 1785 0bcc 00       		.byte	0
 1786 0bcd 23       		.uleb128 0x23
 1787 0bce 3A0A0000 		.4byte	0xa3a
 1788 0bd2 1A000000 		.4byte	.LBB28
 1789 0bd6 08000000 		.4byte	.LBE28-.LBB28
 1790 0bda 03       		.byte	0x3
 1791 0bdb 86       		.byte	0x86
 1792 0bdc F20B0000 		.4byte	0xbf2
 1793 0be0 24       		.uleb128 0x24
 1794 0be1 1A000000 		.4byte	.LBB29
 1795 0be5 08000000 		.4byte	.LBE29-.LBB29
 1796 0be9 25       		.uleb128 0x25
 1797 0bea 4B0A0000 		.4byte	0xa4b
 1798 0bee 01       		.uleb128 0x1
 1799 0bef 54       		.byte	0x54
 1800 0bf0 00       		.byte	0
 1801 0bf1 00       		.byte	0
 1802 0bf2 26       		.uleb128 0x26
 1803 0bf3 580A0000 		.4byte	0xa58
 1804 0bf7 40000000 		.4byte	.LBB30
 1805 0bfb 06000000 		.4byte	.LBE30-.LBB30
 1806 0bff 03       		.byte	0x3
 1807 0c00 93       		.byte	0x93
 1808 0c01 1F       		.uleb128 0x1f
 1809 0c02 650A0000 		.4byte	0xa65
 1810 0c06 02       		.uleb128 0x2
 1811 0c07 91       		.byte	0x91
 1812 0c08 6C       		.sleb128 -20
 1813 0c09 00       		.byte	0
 1814 0c0a 00       		.byte	0
 1815 0c0b 00       		.byte	0
 1816 0c0c 27       		.uleb128 0x27
 1817 0c0d BE040000 		.4byte	.LASF142
 1818 0c11 09       		.byte	0x9
 1819 0c12 A706     		.2byte	0x6a7
 1820 0c14 BF000000 		.4byte	0xbf
ARM GAS  /tmp/ccaCVTnB.s 			page 33


 1821 0c18 28       		.uleb128 0x28
 1822 0c19 636800   		.ascii	"ch\000"
 1823 0c1c 08       		.byte	0x8
 1824 0c1d 0902     		.2byte	0x209
 1825 0c1f DB030000 		.4byte	0x3db
 1826 0c23 00       		.byte	0
 1827              		.section	.debug_abbrev,"",%progbits
 1828              	.Ldebug_abbrev0:
 1829 0000 01       		.uleb128 0x1
 1830 0001 11       		.uleb128 0x11
 1831 0002 01       		.byte	0x1
 1832 0003 25       		.uleb128 0x25
 1833 0004 0E       		.uleb128 0xe
 1834 0005 13       		.uleb128 0x13
 1835 0006 0B       		.uleb128 0xb
 1836 0007 03       		.uleb128 0x3
 1837 0008 0E       		.uleb128 0xe
 1838 0009 55       		.uleb128 0x55
 1839 000a 17       		.uleb128 0x17
 1840 000b 11       		.uleb128 0x11
 1841 000c 01       		.uleb128 0x1
 1842 000d 10       		.uleb128 0x10
 1843 000e 17       		.uleb128 0x17
 1844 000f 00       		.byte	0
 1845 0010 00       		.byte	0
 1846 0011 02       		.uleb128 0x2
 1847 0012 24       		.uleb128 0x24
 1848 0013 00       		.byte	0
 1849 0014 0B       		.uleb128 0xb
 1850 0015 0B       		.uleb128 0xb
 1851 0016 3E       		.uleb128 0x3e
 1852 0017 0B       		.uleb128 0xb
 1853 0018 03       		.uleb128 0x3
 1854 0019 08       		.uleb128 0x8
 1855 001a 00       		.byte	0
 1856 001b 00       		.byte	0
 1857 001c 03       		.uleb128 0x3
 1858 001d 24       		.uleb128 0x24
 1859 001e 00       		.byte	0
 1860 001f 0B       		.uleb128 0xb
 1861 0020 0B       		.uleb128 0xb
 1862 0021 3E       		.uleb128 0x3e
 1863 0022 0B       		.uleb128 0xb
 1864 0023 03       		.uleb128 0x3
 1865 0024 0E       		.uleb128 0xe
 1866 0025 00       		.byte	0
 1867 0026 00       		.byte	0
 1868 0027 04       		.uleb128 0x4
 1869 0028 16       		.uleb128 0x16
 1870 0029 00       		.byte	0
 1871 002a 03       		.uleb128 0x3
 1872 002b 0E       		.uleb128 0xe
 1873 002c 3A       		.uleb128 0x3a
 1874 002d 0B       		.uleb128 0xb
 1875 002e 3B       		.uleb128 0x3b
 1876 002f 0B       		.uleb128 0xb
 1877 0030 49       		.uleb128 0x49
ARM GAS  /tmp/ccaCVTnB.s 			page 34


 1878 0031 13       		.uleb128 0x13
 1879 0032 00       		.byte	0
 1880 0033 00       		.byte	0
 1881 0034 05       		.uleb128 0x5
 1882 0035 35       		.uleb128 0x35
 1883 0036 00       		.byte	0
 1884 0037 49       		.uleb128 0x49
 1885 0038 13       		.uleb128 0x13
 1886 0039 00       		.byte	0
 1887 003a 00       		.byte	0
 1888 003b 06       		.uleb128 0x6
 1889 003c 13       		.uleb128 0x13
 1890 003d 01       		.byte	0x1
 1891 003e 03       		.uleb128 0x3
 1892 003f 0E       		.uleb128 0xe
 1893 0040 0B       		.uleb128 0xb
 1894 0041 0B       		.uleb128 0xb
 1895 0042 3A       		.uleb128 0x3a
 1896 0043 0B       		.uleb128 0xb
 1897 0044 3B       		.uleb128 0x3b
 1898 0045 0B       		.uleb128 0xb
 1899 0046 01       		.uleb128 0x1
 1900 0047 13       		.uleb128 0x13
 1901 0048 00       		.byte	0
 1902 0049 00       		.byte	0
 1903 004a 07       		.uleb128 0x7
 1904 004b 0D       		.uleb128 0xd
 1905 004c 00       		.byte	0
 1906 004d 03       		.uleb128 0x3
 1907 004e 0E       		.uleb128 0xe
 1908 004f 3A       		.uleb128 0x3a
 1909 0050 0B       		.uleb128 0xb
 1910 0051 3B       		.uleb128 0x3b
 1911 0052 0B       		.uleb128 0xb
 1912 0053 49       		.uleb128 0x49
 1913 0054 13       		.uleb128 0x13
 1914 0055 38       		.uleb128 0x38
 1915 0056 0B       		.uleb128 0xb
 1916 0057 00       		.byte	0
 1917 0058 00       		.byte	0
 1918 0059 08       		.uleb128 0x8
 1919 005a 0D       		.uleb128 0xd
 1920 005b 00       		.byte	0
 1921 005c 03       		.uleb128 0x3
 1922 005d 08       		.uleb128 0x8
 1923 005e 3A       		.uleb128 0x3a
 1924 005f 0B       		.uleb128 0xb
 1925 0060 3B       		.uleb128 0x3b
 1926 0061 05       		.uleb128 0x5
 1927 0062 49       		.uleb128 0x49
 1928 0063 13       		.uleb128 0x13
 1929 0064 38       		.uleb128 0x38
 1930 0065 0B       		.uleb128 0xb
 1931 0066 00       		.byte	0
 1932 0067 00       		.byte	0
 1933 0068 09       		.uleb128 0x9
 1934 0069 0D       		.uleb128 0xd
ARM GAS  /tmp/ccaCVTnB.s 			page 35


 1935 006a 00       		.byte	0
 1936 006b 03       		.uleb128 0x3
 1937 006c 0E       		.uleb128 0xe
 1938 006d 3A       		.uleb128 0x3a
 1939 006e 0B       		.uleb128 0xb
 1940 006f 3B       		.uleb128 0x3b
 1941 0070 05       		.uleb128 0x5
 1942 0071 49       		.uleb128 0x49
 1943 0072 13       		.uleb128 0x13
 1944 0073 38       		.uleb128 0x38
 1945 0074 0B       		.uleb128 0xb
 1946 0075 00       		.byte	0
 1947 0076 00       		.byte	0
 1948 0077 0A       		.uleb128 0xa
 1949 0078 0F       		.uleb128 0xf
 1950 0079 00       		.byte	0
 1951 007a 0B       		.uleb128 0xb
 1952 007b 0B       		.uleb128 0xb
 1953 007c 49       		.uleb128 0x49
 1954 007d 13       		.uleb128 0x13
 1955 007e 00       		.byte	0
 1956 007f 00       		.byte	0
 1957 0080 0B       		.uleb128 0xb
 1958 0081 13       		.uleb128 0x13
 1959 0082 01       		.byte	0x1
 1960 0083 03       		.uleb128 0x3
 1961 0084 0E       		.uleb128 0xe
 1962 0085 0B       		.uleb128 0xb
 1963 0086 0B       		.uleb128 0xb
 1964 0087 3A       		.uleb128 0x3a
 1965 0088 0B       		.uleb128 0xb
 1966 0089 3B       		.uleb128 0x3b
 1967 008a 05       		.uleb128 0x5
 1968 008b 01       		.uleb128 0x1
 1969 008c 13       		.uleb128 0x13
 1970 008d 00       		.byte	0
 1971 008e 00       		.byte	0
 1972 008f 0C       		.uleb128 0xc
 1973 0090 15       		.uleb128 0x15
 1974 0091 01       		.byte	0x1
 1975 0092 27       		.uleb128 0x27
 1976 0093 19       		.uleb128 0x19
 1977 0094 01       		.uleb128 0x1
 1978 0095 13       		.uleb128 0x13
 1979 0096 00       		.byte	0
 1980 0097 00       		.byte	0
 1981 0098 0D       		.uleb128 0xd
 1982 0099 05       		.uleb128 0x5
 1983 009a 00       		.byte	0
 1984 009b 49       		.uleb128 0x49
 1985 009c 13       		.uleb128 0x13
 1986 009d 00       		.byte	0
 1987 009e 00       		.byte	0
 1988 009f 0E       		.uleb128 0xe
 1989 00a0 0F       		.uleb128 0xf
 1990 00a1 00       		.byte	0
 1991 00a2 0B       		.uleb128 0xb
ARM GAS  /tmp/ccaCVTnB.s 			page 36


 1992 00a3 0B       		.uleb128 0xb
 1993 00a4 00       		.byte	0
 1994 00a5 00       		.byte	0
 1995 00a6 0F       		.uleb128 0xf
 1996 00a7 13       		.uleb128 0x13
 1997 00a8 01       		.byte	0x1
 1998 00a9 03       		.uleb128 0x3
 1999 00aa 0E       		.uleb128 0xe
 2000 00ab 0B       		.uleb128 0xb
 2001 00ac 05       		.uleb128 0x5
 2002 00ad 3A       		.uleb128 0x3a
 2003 00ae 0B       		.uleb128 0xb
 2004 00af 3B       		.uleb128 0x3b
 2005 00b0 05       		.uleb128 0x5
 2006 00b1 01       		.uleb128 0x1
 2007 00b2 13       		.uleb128 0x13
 2008 00b3 00       		.byte	0
 2009 00b4 00       		.byte	0
 2010 00b5 10       		.uleb128 0x10
 2011 00b6 13       		.uleb128 0x13
 2012 00b7 01       		.byte	0x1
 2013 00b8 0B       		.uleb128 0xb
 2014 00b9 0B       		.uleb128 0xb
 2015 00ba 3A       		.uleb128 0x3a
 2016 00bb 0B       		.uleb128 0xb
 2017 00bc 3B       		.uleb128 0x3b
 2018 00bd 05       		.uleb128 0x5
 2019 00be 01       		.uleb128 0x1
 2020 00bf 13       		.uleb128 0x13
 2021 00c0 00       		.byte	0
 2022 00c1 00       		.byte	0
 2023 00c2 11       		.uleb128 0x11
 2024 00c3 26       		.uleb128 0x26
 2025 00c4 00       		.byte	0
 2026 00c5 49       		.uleb128 0x49
 2027 00c6 13       		.uleb128 0x13
 2028 00c7 00       		.byte	0
 2029 00c8 00       		.byte	0
 2030 00c9 12       		.uleb128 0x12
 2031 00ca 01       		.uleb128 0x1
 2032 00cb 01       		.byte	0x1
 2033 00cc 49       		.uleb128 0x49
 2034 00cd 13       		.uleb128 0x13
 2035 00ce 01       		.uleb128 0x1
 2036 00cf 13       		.uleb128 0x13
 2037 00d0 00       		.byte	0
 2038 00d1 00       		.byte	0
 2039 00d2 13       		.uleb128 0x13
 2040 00d3 21       		.uleb128 0x21
 2041 00d4 00       		.byte	0
 2042 00d5 49       		.uleb128 0x49
 2043 00d6 13       		.uleb128 0x13
 2044 00d7 2F       		.uleb128 0x2f
 2045 00d8 0B       		.uleb128 0xb
 2046 00d9 00       		.byte	0
 2047 00da 00       		.byte	0
 2048 00db 14       		.uleb128 0x14
ARM GAS  /tmp/ccaCVTnB.s 			page 37


 2049 00dc 16       		.uleb128 0x16
 2050 00dd 00       		.byte	0
 2051 00de 03       		.uleb128 0x3
 2052 00df 0E       		.uleb128 0xe
 2053 00e0 3A       		.uleb128 0x3a
 2054 00e1 0B       		.uleb128 0xb
 2055 00e2 3B       		.uleb128 0x3b
 2056 00e3 05       		.uleb128 0x5
 2057 00e4 49       		.uleb128 0x49
 2058 00e5 13       		.uleb128 0x13
 2059 00e6 00       		.byte	0
 2060 00e7 00       		.byte	0
 2061 00e8 15       		.uleb128 0x15
 2062 00e9 0D       		.uleb128 0xd
 2063 00ea 00       		.byte	0
 2064 00eb 03       		.uleb128 0x3
 2065 00ec 08       		.uleb128 0x8
 2066 00ed 3A       		.uleb128 0x3a
 2067 00ee 0B       		.uleb128 0xb
 2068 00ef 3B       		.uleb128 0x3b
 2069 00f0 0B       		.uleb128 0xb
 2070 00f1 49       		.uleb128 0x49
 2071 00f2 13       		.uleb128 0x13
 2072 00f3 38       		.uleb128 0x38
 2073 00f4 0B       		.uleb128 0xb
 2074 00f5 00       		.byte	0
 2075 00f6 00       		.byte	0
 2076 00f7 16       		.uleb128 0x16
 2077 00f8 13       		.uleb128 0x13
 2078 00f9 01       		.byte	0x1
 2079 00fa 0B       		.uleb128 0xb
 2080 00fb 0B       		.uleb128 0xb
 2081 00fc 3A       		.uleb128 0x3a
 2082 00fd 0B       		.uleb128 0xb
 2083 00fe 3B       		.uleb128 0x3b
 2084 00ff 0B       		.uleb128 0xb
 2085 0100 01       		.uleb128 0x1
 2086 0101 13       		.uleb128 0x13
 2087 0102 00       		.byte	0
 2088 0103 00       		.byte	0
 2089 0104 17       		.uleb128 0x17
 2090 0105 17       		.uleb128 0x17
 2091 0106 01       		.byte	0x1
 2092 0107 0B       		.uleb128 0xb
 2093 0108 0B       		.uleb128 0xb
 2094 0109 3A       		.uleb128 0x3a
 2095 010a 0B       		.uleb128 0xb
 2096 010b 3B       		.uleb128 0x3b
 2097 010c 0B       		.uleb128 0xb
 2098 010d 01       		.uleb128 0x1
 2099 010e 13       		.uleb128 0x13
 2100 010f 00       		.byte	0
 2101 0110 00       		.byte	0
 2102 0111 18       		.uleb128 0x18
 2103 0112 0D       		.uleb128 0xd
 2104 0113 00       		.byte	0
 2105 0114 03       		.uleb128 0x3
ARM GAS  /tmp/ccaCVTnB.s 			page 38


 2106 0115 0E       		.uleb128 0xe
 2107 0116 3A       		.uleb128 0x3a
 2108 0117 0B       		.uleb128 0xb
 2109 0118 3B       		.uleb128 0x3b
 2110 0119 05       		.uleb128 0x5
 2111 011a 49       		.uleb128 0x49
 2112 011b 13       		.uleb128 0x13
 2113 011c 00       		.byte	0
 2114 011d 00       		.byte	0
 2115 011e 19       		.uleb128 0x19
 2116 011f 2E       		.uleb128 0x2e
 2117 0120 01       		.byte	0x1
 2118 0121 03       		.uleb128 0x3
 2119 0122 0E       		.uleb128 0xe
 2120 0123 3A       		.uleb128 0x3a
 2121 0124 0B       		.uleb128 0xb
 2122 0125 3B       		.uleb128 0x3b
 2123 0126 05       		.uleb128 0x5
 2124 0127 27       		.uleb128 0x27
 2125 0128 19       		.uleb128 0x19
 2126 0129 20       		.uleb128 0x20
 2127 012a 0B       		.uleb128 0xb
 2128 012b 01       		.uleb128 0x1
 2129 012c 13       		.uleb128 0x13
 2130 012d 00       		.byte	0
 2131 012e 00       		.byte	0
 2132 012f 1A       		.uleb128 0x1a
 2133 0130 05       		.uleb128 0x5
 2134 0131 00       		.byte	0
 2135 0132 03       		.uleb128 0x3
 2136 0133 0E       		.uleb128 0xe
 2137 0134 3A       		.uleb128 0x3a
 2138 0135 0B       		.uleb128 0xb
 2139 0136 3B       		.uleb128 0x3b
 2140 0137 05       		.uleb128 0x5
 2141 0138 49       		.uleb128 0x49
 2142 0139 13       		.uleb128 0x13
 2143 013a 00       		.byte	0
 2144 013b 00       		.byte	0
 2145 013c 1B       		.uleb128 0x1b
 2146 013d 2E       		.uleb128 0x2e
 2147 013e 01       		.byte	0x1
 2148 013f 03       		.uleb128 0x3
 2149 0140 0E       		.uleb128 0xe
 2150 0141 3A       		.uleb128 0x3a
 2151 0142 0B       		.uleb128 0xb
 2152 0143 3B       		.uleb128 0x3b
 2153 0144 05       		.uleb128 0x5
 2154 0145 27       		.uleb128 0x27
 2155 0146 19       		.uleb128 0x19
 2156 0147 49       		.uleb128 0x49
 2157 0148 13       		.uleb128 0x13
 2158 0149 20       		.uleb128 0x20
 2159 014a 0B       		.uleb128 0xb
 2160 014b 01       		.uleb128 0x1
 2161 014c 13       		.uleb128 0x13
 2162 014d 00       		.byte	0
ARM GAS  /tmp/ccaCVTnB.s 			page 39


 2163 014e 00       		.byte	0
 2164 014f 1C       		.uleb128 0x1c
 2165 0150 34       		.uleb128 0x34
 2166 0151 00       		.byte	0
 2167 0152 03       		.uleb128 0x3
 2168 0153 0E       		.uleb128 0xe
 2169 0154 3A       		.uleb128 0x3a
 2170 0155 0B       		.uleb128 0xb
 2171 0156 3B       		.uleb128 0x3b
 2172 0157 05       		.uleb128 0x5
 2173 0158 49       		.uleb128 0x49
 2174 0159 13       		.uleb128 0x13
 2175 015a 00       		.byte	0
 2176 015b 00       		.byte	0
 2177 015c 1D       		.uleb128 0x1d
 2178 015d 2E       		.uleb128 0x2e
 2179 015e 01       		.byte	0x1
 2180 015f 03       		.uleb128 0x3
 2181 0160 0E       		.uleb128 0xe
 2182 0161 3A       		.uleb128 0x3a
 2183 0162 0B       		.uleb128 0xb
 2184 0163 3B       		.uleb128 0x3b
 2185 0164 05       		.uleb128 0x5
 2186 0165 27       		.uleb128 0x27
 2187 0166 19       		.uleb128 0x19
 2188 0167 11       		.uleb128 0x11
 2189 0168 01       		.uleb128 0x1
 2190 0169 12       		.uleb128 0x12
 2191 016a 06       		.uleb128 0x6
 2192 016b 40       		.uleb128 0x40
 2193 016c 18       		.uleb128 0x18
 2194 016d 9742     		.uleb128 0x2117
 2195 016f 19       		.uleb128 0x19
 2196 0170 01       		.uleb128 0x1
 2197 0171 13       		.uleb128 0x13
 2198 0172 00       		.byte	0
 2199 0173 00       		.byte	0
 2200 0174 1E       		.uleb128 0x1e
 2201 0175 1D       		.uleb128 0x1d
 2202 0176 01       		.byte	0x1
 2203 0177 31       		.uleb128 0x31
 2204 0178 13       		.uleb128 0x13
 2205 0179 11       		.uleb128 0x11
 2206 017a 01       		.uleb128 0x1
 2207 017b 12       		.uleb128 0x12
 2208 017c 06       		.uleb128 0x6
 2209 017d 58       		.uleb128 0x58
 2210 017e 0B       		.uleb128 0xb
 2211 017f 59       		.uleb128 0x59
 2212 0180 05       		.uleb128 0x5
 2213 0181 00       		.byte	0
 2214 0182 00       		.byte	0
 2215 0183 1F       		.uleb128 0x1f
 2216 0184 05       		.uleb128 0x5
 2217 0185 00       		.byte	0
 2218 0186 31       		.uleb128 0x31
 2219 0187 13       		.uleb128 0x13
ARM GAS  /tmp/ccaCVTnB.s 			page 40


 2220 0188 02       		.uleb128 0x2
 2221 0189 18       		.uleb128 0x18
 2222 018a 00       		.byte	0
 2223 018b 00       		.byte	0
 2224 018c 20       		.uleb128 0x20
 2225 018d 2E       		.uleb128 0x2e
 2226 018e 00       		.byte	0
 2227 018f 03       		.uleb128 0x3
 2228 0190 0E       		.uleb128 0xe
 2229 0191 3A       		.uleb128 0x3a
 2230 0192 0B       		.uleb128 0xb
 2231 0193 3B       		.uleb128 0x3b
 2232 0194 05       		.uleb128 0x5
 2233 0195 27       		.uleb128 0x27
 2234 0196 19       		.uleb128 0x19
 2235 0197 11       		.uleb128 0x11
 2236 0198 01       		.uleb128 0x1
 2237 0199 12       		.uleb128 0x12
 2238 019a 06       		.uleb128 0x6
 2239 019b 40       		.uleb128 0x40
 2240 019c 18       		.uleb128 0x18
 2241 019d 9642     		.uleb128 0x2116
 2242 019f 19       		.uleb128 0x19
 2243 01a0 00       		.byte	0
 2244 01a1 00       		.byte	0
 2245 01a2 21       		.uleb128 0x21
 2246 01a3 2E       		.uleb128 0x2e
 2247 01a4 01       		.byte	0x1
 2248 01a5 3F       		.uleb128 0x3f
 2249 01a6 19       		.uleb128 0x19
 2250 01a7 03       		.uleb128 0x3
 2251 01a8 0E       		.uleb128 0xe
 2252 01a9 3A       		.uleb128 0x3a
 2253 01aa 0B       		.uleb128 0xb
 2254 01ab 3B       		.uleb128 0x3b
 2255 01ac 0B       		.uleb128 0xb
 2256 01ad 27       		.uleb128 0x27
 2257 01ae 19       		.uleb128 0x19
 2258 01af 11       		.uleb128 0x11
 2259 01b0 01       		.uleb128 0x1
 2260 01b1 12       		.uleb128 0x12
 2261 01b2 06       		.uleb128 0x6
 2262 01b3 40       		.uleb128 0x40
 2263 01b4 18       		.uleb128 0x18
 2264 01b5 9642     		.uleb128 0x2116
 2265 01b7 19       		.uleb128 0x19
 2266 01b8 01       		.uleb128 0x1
 2267 01b9 13       		.uleb128 0x13
 2268 01ba 00       		.byte	0
 2269 01bb 00       		.byte	0
 2270 01bc 22       		.uleb128 0x22
 2271 01bd 34       		.uleb128 0x34
 2272 01be 00       		.byte	0
 2273 01bf 03       		.uleb128 0x3
 2274 01c0 0E       		.uleb128 0xe
 2275 01c1 3A       		.uleb128 0x3a
 2276 01c2 0B       		.uleb128 0xb
ARM GAS  /tmp/ccaCVTnB.s 			page 41


 2277 01c3 3B       		.uleb128 0x3b
 2278 01c4 0B       		.uleb128 0xb
 2279 01c5 49       		.uleb128 0x49
 2280 01c6 13       		.uleb128 0x13
 2281 01c7 02       		.uleb128 0x2
 2282 01c8 18       		.uleb128 0x18
 2283 01c9 00       		.byte	0
 2284 01ca 00       		.byte	0
 2285 01cb 23       		.uleb128 0x23
 2286 01cc 1D       		.uleb128 0x1d
 2287 01cd 01       		.byte	0x1
 2288 01ce 31       		.uleb128 0x31
 2289 01cf 13       		.uleb128 0x13
 2290 01d0 11       		.uleb128 0x11
 2291 01d1 01       		.uleb128 0x1
 2292 01d2 12       		.uleb128 0x12
 2293 01d3 06       		.uleb128 0x6
 2294 01d4 58       		.uleb128 0x58
 2295 01d5 0B       		.uleb128 0xb
 2296 01d6 59       		.uleb128 0x59
 2297 01d7 0B       		.uleb128 0xb
 2298 01d8 01       		.uleb128 0x1
 2299 01d9 13       		.uleb128 0x13
 2300 01da 00       		.byte	0
 2301 01db 00       		.byte	0
 2302 01dc 24       		.uleb128 0x24
 2303 01dd 0B       		.uleb128 0xb
 2304 01de 01       		.byte	0x1
 2305 01df 11       		.uleb128 0x11
 2306 01e0 01       		.uleb128 0x1
 2307 01e1 12       		.uleb128 0x12
 2308 01e2 06       		.uleb128 0x6
 2309 01e3 00       		.byte	0
 2310 01e4 00       		.byte	0
 2311 01e5 25       		.uleb128 0x25
 2312 01e6 34       		.uleb128 0x34
 2313 01e7 00       		.byte	0
 2314 01e8 31       		.uleb128 0x31
 2315 01e9 13       		.uleb128 0x13
 2316 01ea 02       		.uleb128 0x2
 2317 01eb 18       		.uleb128 0x18
 2318 01ec 00       		.byte	0
 2319 01ed 00       		.byte	0
 2320 01ee 26       		.uleb128 0x26
 2321 01ef 1D       		.uleb128 0x1d
 2322 01f0 01       		.byte	0x1
 2323 01f1 31       		.uleb128 0x31
 2324 01f2 13       		.uleb128 0x13
 2325 01f3 11       		.uleb128 0x11
 2326 01f4 01       		.uleb128 0x1
 2327 01f5 12       		.uleb128 0x12
 2328 01f6 06       		.uleb128 0x6
 2329 01f7 58       		.uleb128 0x58
 2330 01f8 0B       		.uleb128 0xb
 2331 01f9 59       		.uleb128 0x59
 2332 01fa 0B       		.uleb128 0xb
 2333 01fb 00       		.byte	0
ARM GAS  /tmp/ccaCVTnB.s 			page 42


 2334 01fc 00       		.byte	0
 2335 01fd 27       		.uleb128 0x27
 2336 01fe 34       		.uleb128 0x34
 2337 01ff 00       		.byte	0
 2338 0200 03       		.uleb128 0x3
 2339 0201 0E       		.uleb128 0xe
 2340 0202 3A       		.uleb128 0x3a
 2341 0203 0B       		.uleb128 0xb
 2342 0204 3B       		.uleb128 0x3b
 2343 0205 05       		.uleb128 0x5
 2344 0206 49       		.uleb128 0x49
 2345 0207 13       		.uleb128 0x13
 2346 0208 3F       		.uleb128 0x3f
 2347 0209 19       		.uleb128 0x19
 2348 020a 3C       		.uleb128 0x3c
 2349 020b 19       		.uleb128 0x19
 2350 020c 00       		.byte	0
 2351 020d 00       		.byte	0
 2352 020e 28       		.uleb128 0x28
 2353 020f 34       		.uleb128 0x34
 2354 0210 00       		.byte	0
 2355 0211 03       		.uleb128 0x3
 2356 0212 08       		.uleb128 0x8
 2357 0213 3A       		.uleb128 0x3a
 2358 0214 0B       		.uleb128 0xb
 2359 0215 3B       		.uleb128 0x3b
 2360 0216 05       		.uleb128 0x5
 2361 0217 49       		.uleb128 0x49
 2362 0218 13       		.uleb128 0x13
 2363 0219 3F       		.uleb128 0x3f
 2364 021a 19       		.uleb128 0x19
 2365 021b 3C       		.uleb128 0x3c
 2366 021c 19       		.uleb128 0x19
 2367 021d 00       		.byte	0
 2368 021e 00       		.byte	0
 2369 021f 00       		.byte	0
 2370              		.section	.debug_aranges,"",%progbits
 2371 0000 44000000 		.4byte	0x44
 2372 0004 0200     		.2byte	0x2
 2373 0006 00000000 		.4byte	.Ldebug_info0
 2374 000a 04       		.byte	0x4
 2375 000b 00       		.byte	0
 2376 000c 0000     		.2byte	0
 2377 000e 0000     		.2byte	0
 2378 0010 00000000 		.4byte	.LFB116
 2379 0014 10000000 		.4byte	.LFE116-.LFB116
 2380 0018 00000000 		.4byte	.LFB117
 2381 001c 10000000 		.4byte	.LFE117-.LFB117
 2382 0020 00000000 		.4byte	.LFB118
 2383 0024 08000000 		.4byte	.LFE118-.LFB118
 2384 0028 00000000 		.4byte	.LFB119
 2385 002c 08000000 		.4byte	.LFE119-.LFB119
 2386 0030 00000000 		.4byte	.LFB216
 2387 0034 38000000 		.4byte	.LFE216-.LFB216
 2388 0038 00000000 		.4byte	.LFB217
 2389 003c 78000000 		.4byte	.LFE217-.LFB217
 2390 0040 00000000 		.4byte	0
ARM GAS  /tmp/ccaCVTnB.s 			page 43


 2391 0044 00000000 		.4byte	0
 2392              		.section	.debug_ranges,"",%progbits
 2393              	.Ldebug_ranges0:
 2394 0000 00000000 		.4byte	.LFB116
 2395 0004 10000000 		.4byte	.LFE116
 2396 0008 00000000 		.4byte	.LFB117
 2397 000c 10000000 		.4byte	.LFE117
 2398 0010 00000000 		.4byte	.LFB118
 2399 0014 08000000 		.4byte	.LFE118
 2400 0018 00000000 		.4byte	.LFB119
 2401 001c 08000000 		.4byte	.LFE119
 2402 0020 00000000 		.4byte	.LFB216
 2403 0024 38000000 		.4byte	.LFE216
 2404 0028 00000000 		.4byte	.LFB217
 2405 002c 78000000 		.4byte	.LFE217
 2406 0030 00000000 		.4byte	0
 2407 0034 00000000 		.4byte	0
 2408              		.section	.debug_line,"",%progbits
 2409              	.Ldebug_line0:
 2410 0000 EF020000 		.section	.debug_str,"MS",%progbits,1
 2410      02002002 
 2410      00000201 
 2410      FB0E0D00 
 2410      01010101 
 2411              	.LASF50:
 2412 0000 72656164 		.ascii	"ready_list_t\000"
 2412      795F6C69 
 2412      73745F74 
 2412      00
 2413              	.LASF115:
 2414 000d 77747472 		.ascii	"wttrp\000"
 2414      7000
 2415              	.LASF112:
 2416 0013 7264796D 		.ascii	"rdymsg\000"
 2416      736700
 2417              	.LASF97:
 2418 001a 46504453 		.ascii	"FPDSCR\000"
 2418      435200
 2419              	.LASF16:
 2420 0021 75696E74 		.ascii	"uint64_t\000"
 2420      36345F74 
 2420      00
 2421              	.LASF1:
 2422 002a 7369676E 		.ascii	"signed char\000"
 2422      65642063 
 2422      68617200 
 2423              	.LASF5:
 2424 0036 5F5F7569 		.ascii	"__uint8_t\000"
 2424      6E74385F 
 2424      7400
 2425              	.LASF104:
 2426 0040 706F7274 		.ascii	"port_intctx\000"
 2426      5F696E74 
 2426      63747800 
 2427              	.LASF69:
 2428 004c 73797374 		.ascii	"system_debug_t\000"
 2428      656D5F64 
ARM GAS  /tmp/ccaCVTnB.s 			page 44


 2428      65627567 
 2428      5F7400
 2429              	.LASF135:
 2430 005b 706F7274 		.ascii	"port_lock\000"
 2430      5F6C6F63 
 2430      6B00
 2431              	.LASF113:
 2432 0065 65786974 		.ascii	"exitcode\000"
 2432      636F6465 
 2432      00
 2433              	.LASF76:
 2434 006e 6D61696E 		.ascii	"mainthread\000"
 2434      74687265 
 2434      616400
 2435              	.LASF66:
 2436 0079 76697274 		.ascii	"virtual_timers_list_t\000"
 2436      75616C5F 
 2436      74696D65 
 2436      72735F6C 
 2436      6973745F 
 2437              	.LASF79:
 2438 008f 43505549 		.ascii	"CPUID\000"
 2438      4400
 2439              	.LASF49:
 2440 0095 63685F74 		.ascii	"ch_threads_queue\000"
 2440      68726561 
 2440      64735F71 
 2440      75657565 
 2440      00
 2441              	.LASF29:
 2442 00a6 705F7072 		.ascii	"p_prio\000"
 2442      696F00
 2443              	.LASF43:
 2444 00ad 705F6D70 		.ascii	"p_mpool\000"
 2444      6F6F6C00 
 2445              	.LASF12:
 2446 00b5 6C6F6E67 		.ascii	"long long unsigned int\000"
 2446      206C6F6E 
 2446      6720756E 
 2446      7369676E 
 2446      65642069 
 2447              	.LASF123:
 2448 00cc 6D5F7175 		.ascii	"m_queue\000"
 2448      65756500 
 2449              	.LASF91:
 2450 00d4 49534152 		.ascii	"ISAR\000"
 2450      00
 2451              	.LASF75:
 2452 00d9 76746C69 		.ascii	"vtlist\000"
 2452      737400
 2453              	.LASF136:
 2454 00e0 706F7274 		.ascii	"port_unlock\000"
 2454      5F756E6C 
 2454      6F636B00 
 2455              	.LASF73:
 2456 00ec 63685F73 		.ascii	"ch_system\000"
 2456      79737465 
ARM GAS  /tmp/ccaCVTnB.s 			page 45


 2456      6D00
 2457              	.LASF7:
 2458 00f6 6C6F6E67 		.ascii	"long int\000"
 2458      20696E74 
 2458      00
 2459              	.LASF19:
 2460 00ff 74737461 		.ascii	"tstate_t\000"
 2460      74655F74 
 2460      00
 2461              	.LASF31:
 2462 0108 705F6E65 		.ascii	"p_newer\000"
 2462      77657200 
 2463              	.LASF120:
 2464 0110 735F7175 		.ascii	"s_queue\000"
 2464      65756500 
 2465              	.LASF88:
 2466 0118 42464152 		.ascii	"BFAR\000"
 2466      00
 2467              	.LASF89:
 2468 011d 41465352 		.ascii	"AFSR\000"
 2468      00
 2469              	.LASF55:
 2470 0122 725F6E65 		.ascii	"r_newer\000"
 2470      77657200 
 2471              	.LASF101:
 2472 012a 72656761 		.ascii	"regarm_t\000"
 2472      726D5F74 
 2472      00
 2473              	.LASF62:
 2474 0133 76745F70 		.ascii	"vt_prev\000"
 2474      72657600 
 2475              	.LASF94:
 2476 013b 5343425F 		.ascii	"SCB_Type\000"
 2476      54797065 
 2476      00
 2477              	.LASF109:
 2478 0144 72657365 		.ascii	"reserved\000"
 2478      72766564 
 2478      00
 2479              	.LASF10:
 2480 014d 6C6F6E67 		.ascii	"long long int\000"
 2480      206C6F6E 
 2480      6720696E 
 2480      7400
 2481              	.LASF130:
 2482 015b 76616C75 		.ascii	"value\000"
 2482      6500
 2483              	.LASF77:
 2484 0161 69646C65 		.ascii	"idle_thread_wa\000"
 2484      5F746872 
 2484      6561645F 
 2484      776100
 2485              	.LASF24:
 2486 0170 636E745F 		.ascii	"cnt_t\000"
 2486      7400
 2487              	.LASF100:
 2488 0176 4650555F 		.ascii	"FPU_Type\000"
ARM GAS  /tmp/ccaCVTnB.s 			page 46


 2488      54797065 
 2488      00
 2489              	.LASF0:
 2490 017f 756E7369 		.ascii	"unsigned int\000"
 2490      676E6564 
 2490      20696E74 
 2490      00
 2491              	.LASF129:
 2492 018c 5F5F7365 		.ascii	"__set_PSP\000"
 2492      745F5053 
 2492      5000
 2493              	.LASF61:
 2494 0196 76745F6E 		.ascii	"vt_next\000"
 2494      65787400 
 2495              	.LASF116:
 2496 019e 77747365 		.ascii	"wtsemp\000"
 2496      6D7000
 2497              	.LASF68:
 2498 01a5 76745F73 		.ascii	"vt_systime\000"
 2498      79737469 
 2498      6D6500
 2499              	.LASF63:
 2500 01b0 76745F64 		.ascii	"vt_delta\000"
 2500      656C7461 
 2500      00
 2501              	.LASF38:
 2502 01b9 705F6D73 		.ascii	"p_msgqueue\000"
 2502      67717565 
 2502      756500
 2503              	.LASF81:
 2504 01c4 56544F52 		.ascii	"VTOR\000"
 2504      00
 2505              	.LASF121:
 2506 01c9 735F636E 		.ascii	"s_cnt\000"
 2506      7400
 2507              	.LASF46:
 2508 01cf 63685F74 		.ascii	"ch_thread\000"
 2508      68726561 
 2508      6400
 2509              	.LASF80:
 2510 01d9 49435352 		.ascii	"ICSR\000"
 2510      00
 2511              	.LASF22:
 2512 01de 6D73675F 		.ascii	"msg_t\000"
 2512      7400
 2513              	.LASF82:
 2514 01e4 41495243 		.ascii	"AIRCR\000"
 2514      5200
 2515              	.LASF86:
 2516 01ea 44465352 		.ascii	"DFSR\000"
 2516      00
 2517              	.LASF87:
 2518 01ef 4D4D4641 		.ascii	"MMFAR\000"
 2518      5200
 2519              	.LASF140:
 2520 01f5 5F706F72 		.ascii	"_port_irq_epilogue\000"
 2520      745F6972 
ARM GAS  /tmp/ccaCVTnB.s 			page 47


 2520      715F6570 
 2520      696C6F67 
 2520      756500
 2521              	.LASF18:
 2522 0208 746D6F64 		.ascii	"tmode_t\000"
 2522      655F7400 
 2523              	.LASF51:
 2524 0210 63685F72 		.ascii	"ch_ready_list\000"
 2524      65616479 
 2524      5F6C6973 
 2524      7400
 2525              	.LASF23:
 2526 021e 6576656E 		.ascii	"eventmask_t\000"
 2526      746D6173 
 2526      6B5F7400 
 2527              	.LASF131:
 2528 022a 746F704F 		.ascii	"topOfProcStack\000"
 2528      6650726F 
 2528      63537461 
 2528      636B00
 2529              	.LASF6:
 2530 0239 5F5F696E 		.ascii	"__int32_t\000"
 2530      7433325F 
 2530      7400
 2531              	.LASF102:
 2532 0243 73746B61 		.ascii	"stkalign_t\000"
 2532      6C69676E 
 2532      5F7400
 2533              	.LASF45:
 2534 024e 74687265 		.ascii	"threads_list_t\000"
 2534      6164735F 
 2534      6C697374 
 2534      5F7400
 2535              	.LASF37:
 2536 025d 705F7761 		.ascii	"p_waiting\000"
 2536      6974696E 
 2536      6700
 2537              	.LASF78:
 2538 0267 73697A65 		.ascii	"sizetype\000"
 2538      74797065 
 2538      00
 2539              	.LASF44:
 2540 0270 74687265 		.ascii	"thread_reference_t\000"
 2540      61645F72 
 2540      65666572 
 2540      656E6365 
 2540      5F7400
 2541              	.LASF67:
 2542 0283 63685F76 		.ascii	"ch_virtual_timers_list\000"
 2542      69727475 
 2542      616C5F74 
 2542      696D6572 
 2542      735F6C69 
 2543              	.LASF143:
 2544 029a 474E5520 		.ascii	"GNU C 4.9.3 20150303 (release) [ARM/embedded-4_9-br"
 2544      4320342E 
 2544      392E3320 
ARM GAS  /tmp/ccaCVTnB.s 			page 48


 2544      32303135 
 2544      30333033 
 2545 02cd 616E6368 		.ascii	"anch revision 221220] -mcpu=cortex-m4 -mfloat-abi=h"
 2545      20726576 
 2545      6973696F 
 2545      6E203232 
 2545      31323230 
 2546 0300 61726420 		.ascii	"ard -mfpu=fpv4-sp-d16 -mno-thumb-interwork -mthumb "
 2546      2D6D6670 
 2546      753D6670 
 2546      76342D73 
 2546      702D6431 
 2547 0333 2D676764 		.ascii	"-ggdb -fomit-frame-pointer -falign-functions=16 -ff"
 2547      62202D66 
 2547      6F6D6974 
 2547      2D667261 
 2547      6D652D70 
 2548 0366 756E6374 		.ascii	"unction-sections -fdata-sections -fno-common -fsing"
 2548      696F6E2D 
 2548      73656374 
 2548      696F6E73 
 2548      202D6664 
 2549 0399 6C652D70 		.ascii	"le-precision-constant\000"
 2549      72656369 
 2549      73696F6E 
 2549      2D636F6E 
 2549      7374616E 
 2550              	.LASF84:
 2551 03af 43465352 		.ascii	"CFSR\000"
 2551      00
 2552              	.LASF144:
 2553 03b4 2F686F6D 		.ascii	"/home/makkmarci/workspace/CLEAN/ChibiOS/os/rt/ports"
 2553      652F6D61 
 2553      6B6B6D61 
 2553      7263692F 
 2553      776F726B 
 2554 03e7 2F41524D 		.ascii	"/ARMCMx/chcore_v7m.c\000"
 2554      434D782F 
 2554      6368636F 
 2554      72655F76 
 2554      376D2E63 
 2555              	.LASF32:
 2556 03fc 705F6F6C 		.ascii	"p_older\000"
 2556      64657200 
 2557              	.LASF54:
 2558 0404 725F6374 		.ascii	"r_ctx\000"
 2558      7800
 2559              	.LASF105:
 2560 040a 706F7274 		.ascii	"port_extctx\000"
 2560      5F657874 
 2560      63747800 
 2561              	.LASF111:
 2562 0416 746D5F63 		.ascii	"tm_calibration_t\000"
 2562      616C6962 
 2562      72617469 
 2562      6F6E5F74 
 2562      00
ARM GAS  /tmp/ccaCVTnB.s 			page 49


 2563              	.LASF57:
 2564 0427 725F6375 		.ascii	"r_current\000"
 2564      7272656E 
 2564      7400
 2565              	.LASF56:
 2566 0431 725F6F6C 		.ascii	"r_older\000"
 2566      64657200 
 2567              	.LASF11:
 2568 0439 5F5F7569 		.ascii	"__uint64_t\000"
 2568      6E743634 
 2568      5F7400
 2569              	.LASF98:
 2570 0444 4D564652 		.ascii	"MVFR0\000"
 2570      3000
 2571              	.LASF99:
 2572 044a 4D564652 		.ascii	"MVFR1\000"
 2572      3100
 2573              	.LASF20:
 2574 0450 74726566 		.ascii	"trefs_t\000"
 2574      735F7400 
 2575              	.LASF92:
 2576 0458 52455345 		.ascii	"RESERVED0\000"
 2576      52564544 
 2576      3000
 2577              	.LASF141:
 2578 0462 63747870 		.ascii	"ctxp\000"
 2578      00
 2579              	.LASF59:
 2580 0467 76697274 		.ascii	"virtual_timer_t\000"
 2580      75616C5F 
 2580      74696D65 
 2580      725F7400 
 2581              	.LASF28:
 2582 0477 705F7072 		.ascii	"p_prev\000"
 2582      657600
 2583              	.LASF21:
 2584 047e 74707269 		.ascii	"tprio_t\000"
 2584      6F5F7400 
 2585              	.LASF133:
 2586 0486 5F5F6765 		.ascii	"__get_FPSCR\000"
 2586      745F4650 
 2586      53435200 
 2587              	.LASF70:
 2588 0492 63685F73 		.ascii	"ch_system_debug\000"
 2588      79737465 
 2588      6D5F6465 
 2588      62756700 
 2589              	.LASF14:
 2590 04a2 696E7433 		.ascii	"int32_t\000"
 2590      325F7400 
 2591              	.LASF2:
 2592 04aa 756E7369 		.ascii	"unsigned char\000"
 2592      676E6564 
 2592      20636861 
 2592      7200
 2593              	.LASF83:
 2594 04b8 53484353 		.ascii	"SHCSR\000"
ARM GAS  /tmp/ccaCVTnB.s 			page 50


 2594      5200
 2595              	.LASF142:
 2596 04be 49544D5F 		.ascii	"ITM_RxBuffer\000"
 2596      52784275 
 2596      66666572 
 2596      00
 2597              	.LASF41:
 2598 04cb 705F6D74 		.ascii	"p_mtxlist\000"
 2598      786C6973 
 2598      7400
 2599              	.LASF3:
 2600 04d5 73686F72 		.ascii	"short int\000"
 2600      7420696E 
 2600      7400
 2601              	.LASF34:
 2602 04df 705F7374 		.ascii	"p_state\000"
 2602      61746500 
 2603              	.LASF107:
 2604 04e7 78707372 		.ascii	"xpsr\000"
 2604      00
 2605              	.LASF53:
 2606 04ec 725F7072 		.ascii	"r_prio\000"
 2606      696F00
 2607              	.LASF118:
 2608 04f3 65776D61 		.ascii	"ewmask\000"
 2608      736B00
 2609              	.LASF27:
 2610 04fa 705F6E65 		.ascii	"p_next\000"
 2610      787400
 2611              	.LASF108:
 2612 0501 66707363 		.ascii	"fpscr\000"
 2612      7200
 2613              	.LASF35:
 2614 0507 705F666C 		.ascii	"p_flags\000"
 2614      61677300 
 2615              	.LASF4:
 2616 050f 73686F72 		.ascii	"short unsigned int\000"
 2616      7420756E 
 2616      7369676E 
 2616      65642069 
 2616      6E7400
 2617              	.LASF106:
 2618 0522 6C725F74 		.ascii	"lr_thd\000"
 2618      686400
 2619              	.LASF96:
 2620 0529 46504341 		.ascii	"FPCAR\000"
 2620      5200
 2621              	.LASF139:
 2622 052f 5356435F 		.ascii	"SVC_Handler\000"
 2622      48616E64 
 2622      6C657200 
 2623              	.LASF95:
 2624 053b 46504343 		.ascii	"FPCCR\000"
 2624      5200
 2625              	.LASF60:
 2626 0541 63685F76 		.ascii	"ch_virtual_timer\000"
 2626      69727475 
ARM GAS  /tmp/ccaCVTnB.s 			page 51


 2626      616C5F74 
 2626      696D6572 
 2626      00
 2627              	.LASF119:
 2628 0552 63685F73 		.ascii	"ch_semaphore\000"
 2628      656D6170 
 2628      686F7265 
 2628      00
 2629              	.LASF40:
 2630 055f 705F6570 		.ascii	"p_epending\000"
 2630      656E6469 
 2630      6E6700
 2631              	.LASF15:
 2632 056a 75696E74 		.ascii	"uint32_t\000"
 2632      33325F74 
 2632      00
 2633              	.LASF117:
 2634 0573 77746D74 		.ascii	"wtmtxp\000"
 2634      787000
 2635              	.LASF52:
 2636 057a 725F7175 		.ascii	"r_queue\000"
 2636      65756500 
 2637              	.LASF47:
 2638 0582 63685F74 		.ascii	"ch_threads_list\000"
 2638      68726561 
 2638      64735F6C 
 2638      69737400 
 2639              	.LASF9:
 2640 0592 6C6F6E67 		.ascii	"long unsigned int\000"
 2640      20756E73 
 2640      69676E65 
 2640      6420696E 
 2640      7400
 2641              	.LASF126:
 2642 05a4 63686172 		.ascii	"char\000"
 2642      00
 2643              	.LASF138:
 2644 05a9 706F7274 		.ascii	"port_unlock_from_isr\000"
 2644      5F756E6C 
 2644      6F636B5F 
 2644      66726F6D 
 2644      5F697372 
 2645              	.LASF26:
 2646 05be 74687265 		.ascii	"thread_t\000"
 2646      61645F74 
 2646      00
 2647              	.LASF125:
 2648 05c7 6D5F6E65 		.ascii	"m_next\000"
 2648      787400
 2649              	.LASF25:
 2650 05ce 73797374 		.ascii	"systime_t\000"
 2650      696D655F 
 2650      7400
 2651              	.LASF42:
 2652 05d8 705F7265 		.ascii	"p_realprio\000"
 2652      616C7072 
 2652      696F00
ARM GAS  /tmp/ccaCVTnB.s 			page 52


 2653              	.LASF58:
 2654 05e3 76746675 		.ascii	"vtfunc_t\000"
 2654      6E635F74 
 2654      00
 2655              	.LASF8:
 2656 05ec 5F5F7569 		.ascii	"__uint32_t\000"
 2656      6E743332 
 2656      5F7400
 2657              	.LASF128:
 2658 05f7 5F5F7365 		.ascii	"__set_BASEPRI\000"
 2658      745F4241 
 2658      53455052 
 2658      4900
 2659              	.LASF71:
 2660 0605 70616E69 		.ascii	"panic_msg\000"
 2660      635F6D73 
 2660      6700
 2661              	.LASF110:
 2662 060f 6F666673 		.ascii	"offset\000"
 2662      657400
 2663              	.LASF103:
 2664 0616 636F6E74 		.ascii	"context\000"
 2664      65787400 
 2665              	.LASF72:
 2666 061e 63685F73 		.ascii	"ch_system_t\000"
 2666      79737465 
 2666      6D5F7400 
 2667              	.LASF17:
 2668 062a 7274636E 		.ascii	"rtcnt_t\000"
 2668      745F7400 
 2669              	.LASF137:
 2670 0632 706F7274 		.ascii	"port_lock_from_isr\000"
 2670      5F6C6F63 
 2670      6B5F6672 
 2670      6F6D5F69 
 2670      737200
 2671              	.LASF132:
 2672 0645 5F5F6765 		.ascii	"__get_PSP\000"
 2672      745F5053 
 2672      5000
 2673              	.LASF65:
 2674 064f 76745F70 		.ascii	"vt_par\000"
 2674      617200
 2675              	.LASF48:
 2676 0656 74687265 		.ascii	"threads_queue_t\000"
 2676      6164735F 
 2676      71756575 
 2676      655F7400 
 2677              	.LASF122:
 2678 0666 63685F6D 		.ascii	"ch_mutex\000"
 2678      75746578 
 2678      00
 2679              	.LASF36:
 2680 066f 705F7265 		.ascii	"p_refs\000"
 2680      667300
 2681              	.LASF90:
 2682 0676 4D4D4652 		.ascii	"MMFR\000"
ARM GAS  /tmp/ccaCVTnB.s 			page 53


 2682      00
 2683              	.LASF74:
 2684 067b 726C6973 		.ascii	"rlist\000"
 2684      7400
 2685              	.LASF13:
 2686 0681 75696E74 		.ascii	"uint8_t\000"
 2686      385F7400 
 2687              	.LASF114:
 2688 0689 77746F62 		.ascii	"wtobjp\000"
 2688      6A7000
 2689              	.LASF33:
 2690 0690 705F6E61 		.ascii	"p_name\000"
 2690      6D6500
 2691              	.LASF39:
 2692 0697 705F6D73 		.ascii	"p_msg\000"
 2692      6700
 2693              	.LASF93:
 2694 069d 43504143 		.ascii	"CPACR\000"
 2694      5200
 2695              	.LASF85:
 2696 06a3 48465352 		.ascii	"HFSR\000"
 2696      00
 2697              	.LASF127:
 2698 06a8 6D757465 		.ascii	"mutex_t\000"
 2698      785F7400 
 2699              	.LASF124:
 2700 06b0 6D5F6F77 		.ascii	"m_owner\000"
 2700      6E657200 
 2701              	.LASF134:
 2702 06b8 72657375 		.ascii	"result\000"
 2702      6C7400
 2703              	.LASF30:
 2704 06bf 705F6374 		.ascii	"p_ctx\000"
 2704      7800
 2705              	.LASF64:
 2706 06c5 76745F66 		.ascii	"vt_func\000"
 2706      756E6300 
 2707              		.ident	"GCC: (GNU Tools for ARM Embedded Processors) 4.9.3 20150303 (release) [ARM/embedded-4_9-br
ARM GAS  /tmp/ccaCVTnB.s 			page 54


DEFINED SYMBOLS
                            *ABS*:00000000 chcore_v7m.c
     /tmp/ccaCVTnB.s:21     .text.port_lock:00000000 $t
     /tmp/ccaCVTnB.s:26     .text.port_lock:00000000 port_lock
     /tmp/ccaCVTnB.s:58     .text.port_unlock:00000000 $t
     /tmp/ccaCVTnB.s:63     .text.port_unlock:00000000 port_unlock
     /tmp/ccaCVTnB.s:93     .text.port_lock_from_isr:00000000 $t
     /tmp/ccaCVTnB.s:98     .text.port_lock_from_isr:00000000 port_lock_from_isr
     /tmp/ccaCVTnB.s:116    .text.port_unlock_from_isr:00000000 $t
     /tmp/ccaCVTnB.s:121    .text.port_unlock_from_isr:00000000 port_unlock_from_isr
     /tmp/ccaCVTnB.s:139    .text.SVC_Handler:00000000 $t
     /tmp/ccaCVTnB.s:145    .text.SVC_Handler:00000000 SVC_Handler
     /tmp/ccaCVTnB.s:207    .text.SVC_Handler:00000034 $d
     /tmp/ccaCVTnB.s:212    .text._port_irq_epilogue:00000000 $t
     /tmp/ccaCVTnB.s:218    .text._port_irq_epilogue:00000000 _port_irq_epilogue
     /tmp/ccaCVTnB.s:325    .text._port_irq_epilogue:00000068 $d
                     .debug_frame:00000010 $d
     /tmp/ccaCVTnB.s:211    .text.SVC_Handler:00000038 $t
     /tmp/ccaCVTnB.s:332    .text._port_irq_epilogue:00000078 $t

UNDEFINED SYMBOLS
chSchIsPreemptionRequired
_port_switch_from_isr
_port_exit_from_isr
