ARM GAS  /tmp/ccHfAbIj.s 			page 1


   1              		.syntax unified
   2              		.cpu cortex-m4
   3              		.eabi_attribute 27, 1
   4              		.eabi_attribute 28, 1
   5              		.fpu fpv4-sp-d16
   6              		.eabi_attribute 20, 1
   7              		.eabi_attribute 21, 1
   8              		.eabi_attribute 23, 3
   9              		.eabi_attribute 24, 1
  10              		.eabi_attribute 25, 1
  11              		.eabi_attribute 26, 1
  12              		.eabi_attribute 30, 6
  13              		.eabi_attribute 34, 1
  14              		.eabi_attribute 18, 4
  15              		.thumb
  16              		.file	"chcond.c"
  17              		.text
  18              	.Ltext0:
  19              		.cfi_sections	.debug_frame
  20              		.section	.text.port_lock,"ax",%progbits
  21              		.align	2
  22              		.p2align 4,,15
  23              		.thumb
  24              		.thumb_func
  25              		.type	port_lock, %function
  26              	port_lock:
  27              	.LFB116:
  28              		.file 1 "/home/makkmarci/workspace/CLEAN/ChibiOS/os/rt/ports/ARMCMx/chcore_v7m.h"
  29              		.loc 1 444 0
  30              		.cfi_startproc
  31              		@ args = 0, pretend = 0, frame = 8
  32              		@ frame_needed = 0, uses_anonymous_args = 0
  33              		@ link register save eliminated.
  34 0000 82B0     		sub	sp, sp, #8
  35              		.cfi_def_cfa_offset 8
  36 0002 2023     		movs	r3, #32
  37 0004 0193     		str	r3, [sp, #4]
  38              	.LBB6:
  39              	.LBB7:
  40              		.file 2 "/home/makkmarci/workspace/CLEAN/ChibiOS/os/ext/CMSIS/include/core_cmFunc.h"
  41              		.loc 2 546 0
  42 0006 019B     		ldr	r3, [sp, #4]
  43              	@ 546 "/home/makkmarci/workspace/CLEAN/ChibiOS/os/ext/CMSIS/include/core_cmFunc.h" 1
  44 0008 83F31188 		MSR basepri, r3
  45              	@ 0 "" 2
  46              		.thumb
  47              	.LBE7:
  48              	.LBE6:
  49              		.loc 1 451 0
  50 000c 02B0     		add	sp, sp, #8
  51              		.cfi_def_cfa_offset 0
  52              		@ sp needed
  53 000e 7047     		bx	lr
  54              		.cfi_endproc
  55              	.LFE116:
  56              		.size	port_lock, .-port_lock
  57              		.section	.text.port_unlock,"ax",%progbits
ARM GAS  /tmp/ccHfAbIj.s 			page 2


  58              		.align	2
  59              		.p2align 4,,15
  60              		.thumb
  61              		.thumb_func
  62              		.type	port_unlock, %function
  63              	port_unlock:
  64              	.LFB117:
  65              		.loc 1 458 0
  66              		.cfi_startproc
  67              		@ args = 0, pretend = 0, frame = 8
  68              		@ frame_needed = 0, uses_anonymous_args = 0
  69              		@ link register save eliminated.
  70 0000 82B0     		sub	sp, sp, #8
  71              		.cfi_def_cfa_offset 8
  72 0002 0023     		movs	r3, #0
  73 0004 0193     		str	r3, [sp, #4]
  74              	.LBB8:
  75              	.LBB9:
  76              		.loc 2 546 0
  77 0006 019B     		ldr	r3, [sp, #4]
  78              	@ 546 "/home/makkmarci/workspace/CLEAN/ChibiOS/os/ext/CMSIS/include/core_cmFunc.h" 1
  79 0008 83F31188 		MSR basepri, r3
  80              	@ 0 "" 2
  81              		.thumb
  82              	.LBE9:
  83              	.LBE8:
  84              		.loc 1 465 0
  85 000c 02B0     		add	sp, sp, #8
  86              		.cfi_def_cfa_offset 0
  87              		@ sp needed
  88 000e 7047     		bx	lr
  89              		.cfi_endproc
  90              	.LFE117:
  91              		.size	port_unlock, .-port_unlock
  92              		.section	.text.queue_init,"ax",%progbits
  93              		.align	2
  94              		.p2align 4,,15
  95              		.thumb
  96              		.thumb_func
  97              		.type	queue_init, %function
  98              	queue_init:
  99              	.LFB128:
 100              		.file 3 "/home/makkmarci/workspace/CLEAN/ChibiOS/os/rt/include/chschd.h"
 101              		.loc 3 602 0
 102              		.cfi_startproc
 103              		@ args = 0, pretend = 0, frame = 8
 104              		@ frame_needed = 0, uses_anonymous_args = 0
 105              		@ link register save eliminated.
 106 0000 82B0     		sub	sp, sp, #8
 107              		.cfi_def_cfa_offset 8
 108 0002 0190     		str	r0, [sp, #4]
 109              		.loc 3 604 0
 110 0004 019B     		ldr	r3, [sp, #4]
 111 0006 019A     		ldr	r2, [sp, #4]
 112 0008 1A60     		str	r2, [r3]
 113              		.loc 3 605 0
 114 000a 019B     		ldr	r3, [sp, #4]
ARM GAS  /tmp/ccHfAbIj.s 			page 3


 115 000c 019A     		ldr	r2, [sp, #4]
 116 000e 5A60     		str	r2, [r3, #4]
 117              		.loc 3 606 0
 118 0010 02B0     		add	sp, sp, #8
 119              		.cfi_def_cfa_offset 0
 120              		@ sp needed
 121 0012 7047     		bx	lr
 122              		.cfi_endproc
 123              	.LFE128:
 124              		.size	queue_init, .-queue_init
 125 0014 AFF30080 		.section	.text.queue_notempty,"ax",%progbits
 125      AFF30080 
 125      AFF30080 
 126              		.align	2
 127              		.p2align 4,,15
 128              		.thumb
 129              		.thumb_func
 130              		.type	queue_notempty, %function
 131              	queue_notempty:
 132              	.LFB130:
 133              		.loc 3 629 0
 134              		.cfi_startproc
 135              		@ args = 0, pretend = 0, frame = 8
 136              		@ frame_needed = 0, uses_anonymous_args = 0
 137              		@ link register save eliminated.
 138 0000 82B0     		sub	sp, sp, #8
 139              		.cfi_def_cfa_offset 8
 140 0002 0190     		str	r0, [sp, #4]
 141              		.loc 3 631 0
 142 0004 019B     		ldr	r3, [sp, #4]
 143 0006 1A68     		ldr	r2, [r3]
 144 0008 019B     		ldr	r3, [sp, #4]
 145 000a 9A42     		cmp	r2, r3
 146 000c 14BF     		ite	ne
 147 000e 0123     		movne	r3, #1
 148 0010 0023     		moveq	r3, #0
 149 0012 DBB2     		uxtb	r3, r3
 150              		.loc 3 632 0
 151 0014 1846     		mov	r0, r3
 152 0016 02B0     		add	sp, sp, #8
 153              		.cfi_def_cfa_offset 0
 154              		@ sp needed
 155 0018 7047     		bx	lr
 156              		.cfi_endproc
 157              	.LFE130:
 158              		.size	queue_notempty, .-queue_notempty
 159 001a 00BFAFF3 		.section	.text.queue_prio_insert,"ax",%progbits
 159      0080
 160              		.align	2
 161              		.p2align 4,,15
 162              		.thumb
 163              		.thumb_func
 164              		.type	queue_prio_insert, %function
 165              	queue_prio_insert:
 166              	.LFB133:
 167              		.loc 3 651 0
 168              		.cfi_startproc
ARM GAS  /tmp/ccHfAbIj.s 			page 4


 169              		@ args = 0, pretend = 0, frame = 16
 170              		@ frame_needed = 0, uses_anonymous_args = 0
 171              		@ link register save eliminated.
 172 0000 84B0     		sub	sp, sp, #16
 173              		.cfi_def_cfa_offset 16
 174 0002 0190     		str	r0, [sp, #4]
 175 0004 0091     		str	r1, [sp]
 176              		.loc 3 653 0
 177 0006 009B     		ldr	r3, [sp]
 178 0008 0393     		str	r3, [sp, #12]
 179              	.L8:
 180              		.loc 3 655 0 discriminator 2
 181 000a 039B     		ldr	r3, [sp, #12]
 182 000c 1B68     		ldr	r3, [r3]
 183 000e 0393     		str	r3, [sp, #12]
 184              		.loc 3 656 0 discriminator 2
 185 0010 039A     		ldr	r2, [sp, #12]
 186 0012 009B     		ldr	r3, [sp]
 187 0014 9A42     		cmp	r2, r3
 188 0016 05D0     		beq	.L7
 189              		.loc 3 656 0 is_stmt 0 discriminator 1
 190 0018 039B     		ldr	r3, [sp, #12]
 191 001a 9A68     		ldr	r2, [r3, #8]
 192 001c 019B     		ldr	r3, [sp, #4]
 193 001e 9B68     		ldr	r3, [r3, #8]
 194 0020 9A42     		cmp	r2, r3
 195 0022 F2D2     		bcs	.L8
 196              	.L7:
 197              		.loc 3 657 0 is_stmt 1
 198 0024 019B     		ldr	r3, [sp, #4]
 199 0026 039A     		ldr	r2, [sp, #12]
 200 0028 1A60     		str	r2, [r3]
 201              		.loc 3 658 0
 202 002a 039B     		ldr	r3, [sp, #12]
 203 002c 5A68     		ldr	r2, [r3, #4]
 204 002e 019B     		ldr	r3, [sp, #4]
 205 0030 5A60     		str	r2, [r3, #4]
 206              		.loc 3 659 0
 207 0032 019B     		ldr	r3, [sp, #4]
 208 0034 5B68     		ldr	r3, [r3, #4]
 209 0036 019A     		ldr	r2, [sp, #4]
 210 0038 1A60     		str	r2, [r3]
 211              		.loc 3 660 0
 212 003a 039B     		ldr	r3, [sp, #12]
 213 003c 019A     		ldr	r2, [sp, #4]
 214 003e 5A60     		str	r2, [r3, #4]
 215              		.loc 3 661 0
 216 0040 04B0     		add	sp, sp, #16
 217              		.cfi_def_cfa_offset 0
 218              		@ sp needed
 219 0042 7047     		bx	lr
 220              		.cfi_endproc
 221              	.LFE133:
 222              		.size	queue_prio_insert, .-queue_prio_insert
 223 0044 AFF30080 		.section	.text.queue_fifo_remove,"ax",%progbits
 223      AFF30080 
 223      AFF30080 
ARM GAS  /tmp/ccHfAbIj.s 			page 5


 224              		.align	2
 225              		.p2align 4,,15
 226              		.thumb
 227              		.thumb_func
 228              		.type	queue_fifo_remove, %function
 229              	queue_fifo_remove:
 230              	.LFB135:
 231              		.loc 3 671 0
 232              		.cfi_startproc
 233              		@ args = 0, pretend = 0, frame = 16
 234              		@ frame_needed = 0, uses_anonymous_args = 0
 235              		@ link register save eliminated.
 236 0000 84B0     		sub	sp, sp, #16
 237              		.cfi_def_cfa_offset 16
 238 0002 0190     		str	r0, [sp, #4]
 239              		.loc 3 672 0
 240 0004 019B     		ldr	r3, [sp, #4]
 241 0006 1B68     		ldr	r3, [r3]
 242 0008 0393     		str	r3, [sp, #12]
 243              		.loc 3 674 0
 244 000a 039B     		ldr	r3, [sp, #12]
 245 000c 1A68     		ldr	r2, [r3]
 246 000e 019B     		ldr	r3, [sp, #4]
 247 0010 1A60     		str	r2, [r3]
 248              		.loc 3 675 0
 249 0012 019B     		ldr	r3, [sp, #4]
 250 0014 1B68     		ldr	r3, [r3]
 251 0016 019A     		ldr	r2, [sp, #4]
 252 0018 5A60     		str	r2, [r3, #4]
 253              		.loc 3 677 0
 254 001a 039B     		ldr	r3, [sp, #12]
 255              		.loc 3 678 0
 256 001c 1846     		mov	r0, r3
 257 001e 04B0     		add	sp, sp, #16
 258              		.cfi_def_cfa_offset 0
 259              		@ sp needed
 260 0020 7047     		bx	lr
 261              		.cfi_endproc
 262              	.LFE135:
 263              		.size	queue_fifo_remove, .-queue_fifo_remove
 264 0022 00BFAFF3 		.section	.text.chSysLock,"ax",%progbits
 264      0080AFF3 
 264      0080AFF3 
 264      0080
 265              		.align	2
 266              		.p2align 4,,15
 267              		.thumb
 268              		.thumb_func
 269              		.type	chSysLock, %function
 270              	chSysLock:
 271              	.LFB145:
 272              		.file 4 "/home/makkmarci/workspace/CLEAN/ChibiOS/os/rt/include/chsys.h"
 273              		.loc 4 346 0
 274              		.cfi_startproc
 275              		@ args = 0, pretend = 0, frame = 0
 276              		@ frame_needed = 0, uses_anonymous_args = 0
 277 0000 08B5     		push	{r3, lr}
ARM GAS  /tmp/ccHfAbIj.s 			page 6


 278              		.cfi_def_cfa_offset 8
 279              		.cfi_offset 3, -8
 280              		.cfi_offset 14, -4
 281              		.loc 4 348 0
 282 0002 FFF7FEFF 		bl	port_lock
 283              		.loc 4 351 0
 284 0006 08BD     		pop	{r3, pc}
 285              		.cfi_endproc
 286              	.LFE145:
 287              		.size	chSysLock, .-chSysLock
 288              		.section	.text.chSysUnlock,"ax",%progbits
 289              		.align	2
 290              		.p2align 4,,15
 291              		.thumb
 292              		.thumb_func
 293              		.type	chSysUnlock, %function
 294              	chSysUnlock:
 295              	.LFB146:
 296              		.loc 4 358 0
 297              		.cfi_startproc
 298              		@ args = 0, pretend = 0, frame = 0
 299              		@ frame_needed = 0, uses_anonymous_args = 0
 300 0000 08B5     		push	{r3, lr}
 301              		.cfi_def_cfa_offset 8
 302              		.cfi_offset 3, -8
 303              		.cfi_offset 14, -4
 304              		.loc 4 371 0
 305 0002 FFF7FEFF 		bl	port_unlock
 306              		.loc 4 372 0
 307 0006 08BD     		pop	{r3, pc}
 308              		.cfi_endproc
 309              	.LFE146:
 310              		.size	chSysUnlock, .-chSysUnlock
 311 0008 AFF30080 		.section	.text.chThdGetSelfX,"ax",%progbits
 311      AFF30080 
 312              		.align	2
 313              		.p2align 4,,15
 314              		.thumb
 315              		.thumb_func
 316              		.type	chThdGetSelfX, %function
 317              	chThdGetSelfX:
 318              	.LFB166:
 319              		.file 5 "/home/makkmarci/workspace/CLEAN/ChibiOS/os/rt/include/chthreads.h"
 320              		.loc 5 174 0
 321              		.cfi_startproc
 322              		@ args = 0, pretend = 0, frame = 0
 323              		@ frame_needed = 0, uses_anonymous_args = 0
 324              		@ link register save eliminated.
 325              		.loc 5 176 0
 326 0000 014B     		ldr	r3, .L15
 327 0002 9B69     		ldr	r3, [r3, #24]
 328              		.loc 5 177 0
 329 0004 1846     		mov	r0, r3
 330 0006 7047     		bx	lr
 331              	.L16:
 332              		.align	2
 333              	.L15:
ARM GAS  /tmp/ccHfAbIj.s 			page 7


 334 0008 00000000 		.word	ch
 335              		.cfi_endproc
 336              	.LFE166:
 337              		.size	chThdGetSelfX, .-chThdGetSelfX
 338 000c AFF30080 		.section	.text.chMtxGetNextMutexS,"ax",%progbits
 339              		.align	2
 340              		.p2align 4,,15
 341              		.thumb
 342              		.thumb_func
 343              		.type	chMtxGetNextMutexS, %function
 344              	chMtxGetNextMutexS:
 345              	.LFB190:
 346              		.file 6 "/home/makkmarci/workspace/CLEAN/ChibiOS/os/rt/include/chmtx.h"
 347              		.loc 6 144 0
 348              		.cfi_startproc
 349              		@ args = 0, pretend = 0, frame = 0
 350              		@ frame_needed = 0, uses_anonymous_args = 0
 351 0000 08B5     		push	{r3, lr}
 352              		.cfi_def_cfa_offset 8
 353              		.cfi_offset 3, -8
 354              		.cfi_offset 14, -4
 355              		.loc 6 146 0
 356 0002 FFF7FEFF 		bl	chThdGetSelfX
 357 0006 0346     		mov	r3, r0
 358 0008 9B6B     		ldr	r3, [r3, #56]
 359              		.loc 6 147 0
 360 000a 1846     		mov	r0, r3
 361 000c 08BD     		pop	{r3, pc}
 362              		.cfi_endproc
 363              	.LFE190:
 364              		.size	chMtxGetNextMutexS, .-chMtxGetNextMutexS
 365 000e 00BF     		.section	.text.chCondObjectInit,"ax",%progbits
 366              		.align	2
 367              		.p2align 4,,15
 368              		.global	chCondObjectInit
 369              		.thumb
 370              		.thumb_func
 371              		.type	chCondObjectInit, %function
 372              	chCondObjectInit:
 373              	.LFB216:
 374              		.file 7 "/home/makkmarci/workspace/CLEAN/ChibiOS/os/rt/src/chcond.c"
 375              		.loc 7 75 0
 376              		.cfi_startproc
 377              		@ args = 0, pretend = 0, frame = 8
 378              		@ frame_needed = 0, uses_anonymous_args = 0
 379 0000 00B5     		push	{lr}
 380              		.cfi_def_cfa_offset 4
 381              		.cfi_offset 14, -4
 382 0002 83B0     		sub	sp, sp, #12
 383              		.cfi_def_cfa_offset 16
 384 0004 0190     		str	r0, [sp, #4]
 385              		.loc 7 79 0
 386 0006 019B     		ldr	r3, [sp, #4]
 387 0008 1846     		mov	r0, r3
 388 000a FFF7FEFF 		bl	queue_init
 389              		.loc 7 80 0
 390 000e 03B0     		add	sp, sp, #12
ARM GAS  /tmp/ccHfAbIj.s 			page 8


 391              		.cfi_def_cfa_offset 4
 392              		@ sp needed
 393 0010 5DF804FB 		ldr	pc, [sp], #4
 394              		.cfi_endproc
 395              	.LFE216:
 396              		.size	chCondObjectInit, .-chCondObjectInit
 397 0014 AFF30080 		.section	.text.chCondSignal,"ax",%progbits
 397      AFF30080 
 397      AFF30080 
 398              		.align	2
 399              		.p2align 4,,15
 400              		.global	chCondSignal
 401              		.thumb
 402              		.thumb_func
 403              		.type	chCondSignal, %function
 404              	chCondSignal:
 405              	.LFB217:
 406              		.loc 7 89 0
 407              		.cfi_startproc
 408              		@ args = 0, pretend = 0, frame = 8
 409              		@ frame_needed = 0, uses_anonymous_args = 0
 410 0000 00B5     		push	{lr}
 411              		.cfi_def_cfa_offset 4
 412              		.cfi_offset 14, -4
 413 0002 83B0     		sub	sp, sp, #12
 414              		.cfi_def_cfa_offset 16
 415 0004 0190     		str	r0, [sp, #4]
 416              		.loc 7 93 0
 417 0006 FFF7FEFF 		bl	chSysLock
 418              		.loc 7 94 0
 419 000a 019B     		ldr	r3, [sp, #4]
 420 000c 1846     		mov	r0, r3
 421 000e FFF7FEFF 		bl	queue_notempty
 422 0012 0346     		mov	r3, r0
 423 0014 002B     		cmp	r3, #0
 424 0016 08D0     		beq	.L21
 425              		.loc 7 95 0
 426 0018 019B     		ldr	r3, [sp, #4]
 427 001a 1846     		mov	r0, r3
 428 001c FFF7FEFF 		bl	queue_fifo_remove
 429 0020 0346     		mov	r3, r0
 430 0022 1846     		mov	r0, r3
 431 0024 0021     		movs	r1, #0
 432 0026 FFF7FEFF 		bl	chSchWakeupS
 433              	.L21:
 434              		.loc 7 97 0
 435 002a FFF7FEFF 		bl	chSysUnlock
 436              		.loc 7 98 0
 437 002e 03B0     		add	sp, sp, #12
 438              		.cfi_def_cfa_offset 4
 439              		@ sp needed
 440 0030 5DF804FB 		ldr	pc, [sp], #4
 441              		.cfi_endproc
 442              	.LFE217:
 443              		.size	chCondSignal, .-chCondSignal
 444 0034 AFF30080 		.section	.text.chCondSignalI,"ax",%progbits
 444      AFF30080 
ARM GAS  /tmp/ccHfAbIj.s 			page 9


 444      AFF30080 
 445              		.align	2
 446              		.p2align 4,,15
 447              		.global	chCondSignalI
 448              		.thumb
 449              		.thumb_func
 450              		.type	chCondSignalI, %function
 451              	chCondSignalI:
 452              	.LFB218:
 453              		.loc 7 111 0
 454              		.cfi_startproc
 455              		@ args = 0, pretend = 0, frame = 16
 456              		@ frame_needed = 0, uses_anonymous_args = 0
 457 0000 00B5     		push	{lr}
 458              		.cfi_def_cfa_offset 4
 459              		.cfi_offset 14, -4
 460 0002 85B0     		sub	sp, sp, #20
 461              		.cfi_def_cfa_offset 24
 462 0004 0190     		str	r0, [sp, #4]
 463              		.loc 7 116 0
 464 0006 019B     		ldr	r3, [sp, #4]
 465 0008 1846     		mov	r0, r3
 466 000a FFF7FEFF 		bl	queue_notempty
 467 000e 0346     		mov	r3, r0
 468 0010 002B     		cmp	r3, #0
 469 0012 0AD0     		beq	.L22
 470              	.LBB10:
 471              		.loc 7 117 0
 472 0014 019B     		ldr	r3, [sp, #4]
 473 0016 1846     		mov	r0, r3
 474 0018 FFF7FEFF 		bl	queue_fifo_remove
 475 001c 0390     		str	r0, [sp, #12]
 476              		.loc 7 118 0
 477 001e 039B     		ldr	r3, [sp, #12]
 478 0020 0022     		movs	r2, #0
 479 0022 1A62     		str	r2, [r3, #32]
 480              		.loc 7 119 0
 481 0024 0398     		ldr	r0, [sp, #12]
 482 0026 FFF7FEFF 		bl	chSchReadyI
 483              	.L22:
 484              	.LBE10:
 485              		.loc 7 121 0
 486 002a 05B0     		add	sp, sp, #20
 487              		.cfi_def_cfa_offset 4
 488              		@ sp needed
 489 002c 5DF804FB 		ldr	pc, [sp], #4
 490              		.cfi_endproc
 491              	.LFE218:
 492              		.size	chCondSignalI, .-chCondSignalI
 493              		.section	.text.chCondBroadcast,"ax",%progbits
 494              		.align	2
 495              		.p2align 4,,15
 496              		.global	chCondBroadcast
 497              		.thumb
 498              		.thumb_func
 499              		.type	chCondBroadcast, %function
 500              	chCondBroadcast:
ARM GAS  /tmp/ccHfAbIj.s 			page 10


 501              	.LFB219:
 502              		.loc 7 130 0
 503              		.cfi_startproc
 504              		@ args = 0, pretend = 0, frame = 8
 505              		@ frame_needed = 0, uses_anonymous_args = 0
 506 0000 00B5     		push	{lr}
 507              		.cfi_def_cfa_offset 4
 508              		.cfi_offset 14, -4
 509 0002 83B0     		sub	sp, sp, #12
 510              		.cfi_def_cfa_offset 16
 511 0004 0190     		str	r0, [sp, #4]
 512              		.loc 7 132 0
 513 0006 FFF7FEFF 		bl	chSysLock
 514              		.loc 7 133 0
 515 000a 0198     		ldr	r0, [sp, #4]
 516 000c FFF7FEFF 		bl	chCondBroadcastI
 517              		.loc 7 134 0
 518 0010 FFF7FEFF 		bl	chSchRescheduleS
 519              		.loc 7 135 0
 520 0014 FFF7FEFF 		bl	chSysUnlock
 521              		.loc 7 136 0
 522 0018 03B0     		add	sp, sp, #12
 523              		.cfi_def_cfa_offset 4
 524              		@ sp needed
 525 001a 5DF804FB 		ldr	pc, [sp], #4
 526              		.cfi_endproc
 527              	.LFE219:
 528              		.size	chCondBroadcast, .-chCondBroadcast
 529 001e 00BF     		.section	.text.chCondBroadcastI,"ax",%progbits
 530              		.align	2
 531              		.p2align 4,,15
 532              		.global	chCondBroadcastI
 533              		.thumb
 534              		.thumb_func
 535              		.type	chCondBroadcastI, %function
 536              	chCondBroadcastI:
 537              	.LFB220:
 538              		.loc 7 149 0
 539              		.cfi_startproc
 540              		@ args = 0, pretend = 0, frame = 8
 541              		@ frame_needed = 0, uses_anonymous_args = 0
 542 0000 00B5     		push	{lr}
 543              		.cfi_def_cfa_offset 4
 544              		.cfi_offset 14, -4
 545 0002 83B0     		sub	sp, sp, #12
 546              		.cfi_def_cfa_offset 16
 547 0004 0190     		str	r0, [sp, #4]
 548              		.loc 7 157 0
 549 0006 0BE0     		b	.L26
 550              	.L27:
 551              		.loc 7 158 0
 552 0008 019B     		ldr	r3, [sp, #4]
 553 000a 1846     		mov	r0, r3
 554 000c FFF7FEFF 		bl	queue_fifo_remove
 555 0010 0346     		mov	r3, r0
 556 0012 1846     		mov	r0, r3
 557 0014 FFF7FEFF 		bl	chSchReadyI
ARM GAS  /tmp/ccHfAbIj.s 			page 11


 558 0018 0246     		mov	r2, r0
 559 001a 6FF00103 		mvn	r3, #1
 560 001e 1362     		str	r3, [r2, #32]
 561              	.L26:
 562              		.loc 7 157 0
 563 0020 019B     		ldr	r3, [sp, #4]
 564 0022 1846     		mov	r0, r3
 565 0024 FFF7FEFF 		bl	queue_notempty
 566 0028 0346     		mov	r3, r0
 567 002a 002B     		cmp	r3, #0
 568 002c ECD1     		bne	.L27
 569              		.loc 7 160 0
 570 002e 03B0     		add	sp, sp, #12
 571              		.cfi_def_cfa_offset 4
 572              		@ sp needed
 573 0030 5DF804FB 		ldr	pc, [sp], #4
 574              		.cfi_endproc
 575              	.LFE220:
 576              		.size	chCondBroadcastI, .-chCondBroadcastI
 577 0034 AFF30080 		.section	.text.chCondWait,"ax",%progbits
 577      AFF30080 
 577      AFF30080 
 578              		.align	2
 579              		.p2align 4,,15
 580              		.global	chCondWait
 581              		.thumb
 582              		.thumb_func
 583              		.type	chCondWait, %function
 584              	chCondWait:
 585              	.LFB221:
 586              		.loc 7 179 0
 587              		.cfi_startproc
 588              		@ args = 0, pretend = 0, frame = 16
 589              		@ frame_needed = 0, uses_anonymous_args = 0
 590 0000 00B5     		push	{lr}
 591              		.cfi_def_cfa_offset 4
 592              		.cfi_offset 14, -4
 593 0002 85B0     		sub	sp, sp, #20
 594              		.cfi_def_cfa_offset 24
 595 0004 0190     		str	r0, [sp, #4]
 596              		.loc 7 182 0
 597 0006 FFF7FEFF 		bl	chSysLock
 598              		.loc 7 183 0
 599 000a 0198     		ldr	r0, [sp, #4]
 600 000c FFF7FEFF 		bl	chCondWaitS
 601 0010 0390     		str	r0, [sp, #12]
 602              		.loc 7 184 0
 603 0012 FFF7FEFF 		bl	chSysUnlock
 604              		.loc 7 185 0
 605 0016 039B     		ldr	r3, [sp, #12]
 606              		.loc 7 186 0
 607 0018 1846     		mov	r0, r3
 608 001a 05B0     		add	sp, sp, #20
 609              		.cfi_def_cfa_offset 4
 610              		@ sp needed
 611 001c 5DF804FB 		ldr	pc, [sp], #4
 612              		.cfi_endproc
ARM GAS  /tmp/ccHfAbIj.s 			page 12


 613              	.LFE221:
 614              		.size	chCondWait, .-chCondWait
 615              		.section	.text.chCondWaitS,"ax",%progbits
 616              		.align	2
 617              		.p2align 4,,15
 618              		.global	chCondWaitS
 619              		.thumb
 620              		.thumb_func
 621              		.type	chCondWaitS, %function
 622              	chCondWaitS:
 623              	.LFB222:
 624              		.loc 7 205 0
 625              		.cfi_startproc
 626              		@ args = 0, pretend = 0, frame = 24
 627              		@ frame_needed = 0, uses_anonymous_args = 0
 628 0000 00B5     		push	{lr}
 629              		.cfi_def_cfa_offset 4
 630              		.cfi_offset 14, -4
 631 0002 87B0     		sub	sp, sp, #28
 632              		.cfi_def_cfa_offset 32
 633 0004 0190     		str	r0, [sp, #4]
 634              		.loc 7 206 0
 635 0006 0F4B     		ldr	r3, .L32
 636 0008 9B69     		ldr	r3, [r3, #24]
 637 000a 0593     		str	r3, [sp, #20]
 638              		.loc 7 215 0
 639 000c FFF7FEFF 		bl	chMtxGetNextMutexS
 640 0010 0490     		str	r0, [sp, #16]
 641              		.loc 7 216 0
 642 0012 0498     		ldr	r0, [sp, #16]
 643 0014 FFF7FEFF 		bl	chMtxUnlockS
 644              		.loc 7 220 0
 645 0018 059B     		ldr	r3, [sp, #20]
 646 001a 019A     		ldr	r2, [sp, #4]
 647 001c 1A62     		str	r2, [r3, #32]
 648              		.loc 7 221 0
 649 001e 019B     		ldr	r3, [sp, #4]
 650 0020 0598     		ldr	r0, [sp, #20]
 651 0022 1946     		mov	r1, r3
 652 0024 FFF7FEFF 		bl	queue_prio_insert
 653              		.loc 7 222 0
 654 0028 0720     		movs	r0, #7
 655 002a FFF7FEFF 		bl	chSchGoSleepS
 656              		.loc 7 223 0
 657 002e 059B     		ldr	r3, [sp, #20]
 658 0030 1B6A     		ldr	r3, [r3, #32]
 659 0032 0393     		str	r3, [sp, #12]
 660              		.loc 7 224 0
 661 0034 0498     		ldr	r0, [sp, #16]
 662 0036 FFF7FEFF 		bl	chMtxLockS
 663              		.loc 7 226 0
 664 003a 039B     		ldr	r3, [sp, #12]
 665              		.loc 7 227 0
 666 003c 1846     		mov	r0, r3
 667 003e 07B0     		add	sp, sp, #28
 668              		.cfi_def_cfa_offset 4
 669              		@ sp needed
ARM GAS  /tmp/ccHfAbIj.s 			page 13


 670 0040 5DF804FB 		ldr	pc, [sp], #4
 671              	.L33:
 672              		.align	2
 673              	.L32:
 674 0044 00000000 		.word	ch
 675              		.cfi_endproc
 676              	.LFE222:
 677              		.size	chCondWaitS, .-chCondWaitS
 678 0048 AFF30080 		.section	.text.chCondWaitTimeout,"ax",%progbits
 678      AFF30080 
 679              		.align	2
 680              		.p2align 4,,15
 681              		.global	chCondWaitTimeout
 682              		.thumb
 683              		.thumb_func
 684              		.type	chCondWaitTimeout, %function
 685              	chCondWaitTimeout:
 686              	.LFB223:
 687              		.loc 7 258 0
 688              		.cfi_startproc
 689              		@ args = 0, pretend = 0, frame = 16
 690              		@ frame_needed = 0, uses_anonymous_args = 0
 691 0000 00B5     		push	{lr}
 692              		.cfi_def_cfa_offset 4
 693              		.cfi_offset 14, -4
 694 0002 85B0     		sub	sp, sp, #20
 695              		.cfi_def_cfa_offset 24
 696 0004 0190     		str	r0, [sp, #4]
 697 0006 0091     		str	r1, [sp]
 698              		.loc 7 261 0
 699 0008 FFF7FEFF 		bl	chSysLock
 700              		.loc 7 262 0
 701 000c 0198     		ldr	r0, [sp, #4]
 702 000e 0099     		ldr	r1, [sp]
 703 0010 FFF7FEFF 		bl	chCondWaitTimeoutS
 704 0014 0390     		str	r0, [sp, #12]
 705              		.loc 7 263 0
 706 0016 FFF7FEFF 		bl	chSysUnlock
 707              		.loc 7 265 0
 708 001a 039B     		ldr	r3, [sp, #12]
 709              		.loc 7 266 0
 710 001c 1846     		mov	r0, r3
 711 001e 05B0     		add	sp, sp, #20
 712              		.cfi_def_cfa_offset 4
 713              		@ sp needed
 714 0020 5DF804FB 		ldr	pc, [sp], #4
 715              		.cfi_endproc
 716              	.LFE223:
 717              		.size	chCondWaitTimeout, .-chCondWaitTimeout
 718 0024 AFF30080 		.section	.text.chCondWaitTimeoutS,"ax",%progbits
 718      AFF30080 
 718      AFF30080 
 719              		.align	2
 720              		.p2align 4,,15
 721              		.global	chCondWaitTimeoutS
 722              		.thumb
 723              		.thumb_func
ARM GAS  /tmp/ccHfAbIj.s 			page 14


 724              		.type	chCondWaitTimeoutS, %function
 725              	chCondWaitTimeoutS:
 726              	.LFB224:
 727              		.loc 7 296 0
 728              		.cfi_startproc
 729              		@ args = 0, pretend = 0, frame = 16
 730              		@ frame_needed = 0, uses_anonymous_args = 0
 731 0000 00B5     		push	{lr}
 732              		.cfi_def_cfa_offset 4
 733              		.cfi_offset 14, -4
 734 0002 85B0     		sub	sp, sp, #20
 735              		.cfi_def_cfa_offset 24
 736 0004 0190     		str	r0, [sp, #4]
 737 0006 0091     		str	r1, [sp]
 738              		.loc 7 305 0
 739 0008 FFF7FEFF 		bl	chMtxGetNextMutexS
 740 000c 0390     		str	r0, [sp, #12]
 741              		.loc 7 306 0
 742 000e 0398     		ldr	r0, [sp, #12]
 743 0010 FFF7FEFF 		bl	chMtxUnlockS
 744              		.loc 7 310 0
 745 0014 0D4B     		ldr	r3, .L39
 746 0016 9B69     		ldr	r3, [r3, #24]
 747 0018 019A     		ldr	r2, [sp, #4]
 748 001a 1A62     		str	r2, [r3, #32]
 749              		.loc 7 311 0
 750 001c 0B4B     		ldr	r3, .L39
 751 001e 9A69     		ldr	r2, [r3, #24]
 752 0020 019B     		ldr	r3, [sp, #4]
 753 0022 1046     		mov	r0, r2
 754 0024 1946     		mov	r1, r3
 755 0026 FFF7FEFF 		bl	queue_prio_insert
 756              		.loc 7 312 0
 757 002a 0720     		movs	r0, #7
 758 002c 0099     		ldr	r1, [sp]
 759 002e FFF7FEFF 		bl	chSchGoSleepTimeoutS
 760 0032 0290     		str	r0, [sp, #8]
 761              		.loc 7 313 0
 762 0034 029B     		ldr	r3, [sp, #8]
 763 0036 B3F1FF3F 		cmp	r3, #-1
 764 003a 02D0     		beq	.L37
 765              		.loc 7 314 0
 766 003c 0398     		ldr	r0, [sp, #12]
 767 003e FFF7FEFF 		bl	chMtxLockS
 768              	.L37:
 769              		.loc 7 317 0
 770 0042 029B     		ldr	r3, [sp, #8]
 771              		.loc 7 318 0
 772 0044 1846     		mov	r0, r3
 773 0046 05B0     		add	sp, sp, #20
 774              		.cfi_def_cfa_offset 4
 775              		@ sp needed
 776 0048 5DF804FB 		ldr	pc, [sp], #4
 777              	.L40:
 778              		.align	2
 779              	.L39:
 780 004c 00000000 		.word	ch
ARM GAS  /tmp/ccHfAbIj.s 			page 15


 781              		.cfi_endproc
 782              	.LFE224:
 783              		.size	chCondWaitTimeoutS, .-chCondWaitTimeoutS
 784              		.text
 785              	.Letext0:
 786              		.file 8 "/opt/gcc-arm-none-eabi/arm-none-eabi/include/machine/_default_types.h"
 787              		.file 9 "/opt/gcc-arm-none-eabi/arm-none-eabi/include/stdint.h"
 788              		.file 10 "/home/makkmarci/workspace/CLEAN/ChibiOS/os/rt/ports/ARMCMx/compilers/GCC/chtypes.h"
 789              		.file 11 "/home/makkmarci/workspace/CLEAN/ChibiOS/os/rt/include/chsystypes.h"
 790              		.file 12 "/home/makkmarci/workspace/CLEAN/ChibiOS/os/rt/ports/ARMCMx/chcore.h"
 791              		.file 13 "/home/makkmarci/workspace/CLEAN/ChibiOS/os/rt/include/chtm.h"
 792              		.file 14 "/home/makkmarci/workspace/CLEAN/ChibiOS/os/rt/include/chsem.h"
 793              		.file 15 "/home/makkmarci/workspace/CLEAN/ChibiOS/os/rt/include/chcond.h"
 794              		.file 16 "/home/makkmarci/workspace/CLEAN/ChibiOS/os/ext/CMSIS/include/core_cm4.h"
 795              		.section	.debug_info,"",%progbits
 796              	.Ldebug_info0:
 797 0000 680B0000 		.4byte	0xb68
 798 0004 0400     		.2byte	0x4
 799 0006 00000000 		.4byte	.Ldebug_abbrev0
 800 000a 04       		.byte	0x4
 801 000b 01       		.uleb128 0x1
 802 000c DD020000 		.4byte	.LASF126
 803 0010 01       		.byte	0x1
 804 0011 99000000 		.4byte	.LASF127
 805 0015 00000000 		.4byte	.Ldebug_ranges0+0
 806 0019 00000000 		.4byte	0
 807 001d 00000000 		.4byte	.Ldebug_line0
 808 0021 02       		.uleb128 0x2
 809 0022 04       		.byte	0x4
 810 0023 05       		.byte	0x5
 811 0024 696E7400 		.ascii	"int\000"
 812 0028 03       		.uleb128 0x3
 813 0029 04       		.byte	0x4
 814 002a 07       		.byte	0x7
 815 002b F5010000 		.4byte	.LASF0
 816 002f 03       		.uleb128 0x3
 817 0030 01       		.byte	0x1
 818 0031 06       		.byte	0x6
 819 0032 1D010000 		.4byte	.LASF1
 820 0036 04       		.uleb128 0x4
 821 0037 23000000 		.4byte	.LASF5
 822 003b 08       		.byte	0x8
 823 003c 1D       		.byte	0x1d
 824 003d 41000000 		.4byte	0x41
 825 0041 03       		.uleb128 0x3
 826 0042 01       		.byte	0x1
 827 0043 08       		.byte	0x8
 828 0044 B3040000 		.4byte	.LASF2
 829 0048 03       		.uleb128 0x3
 830 0049 02       		.byte	0x2
 831 004a 05       		.byte	0x5
 832 004b CB040000 		.4byte	.LASF3
 833 004f 03       		.uleb128 0x3
 834 0050 02       		.byte	0x2
 835 0051 07       		.byte	0x7
 836 0052 2B020000 		.4byte	.LASF4
 837 0056 04       		.uleb128 0x4
ARM GAS  /tmp/ccHfAbIj.s 			page 16


 838 0057 7C020000 		.4byte	.LASF6
 839 005b 08       		.byte	0x8
 840 005c 3F       		.byte	0x3f
 841 005d 61000000 		.4byte	0x61
 842 0061 03       		.uleb128 0x3
 843 0062 04       		.byte	0x4
 844 0063 05       		.byte	0x5
 845 0064 6B010000 		.4byte	.LASF7
 846 0068 04       		.uleb128 0x4
 847 0069 DD050000 		.4byte	.LASF8
 848 006d 08       		.byte	0x8
 849 006e 41       		.byte	0x41
 850 006f 73000000 		.4byte	0x73
 851 0073 03       		.uleb128 0x3
 852 0074 04       		.byte	0x4
 853 0075 07       		.byte	0x7
 854 0076 79050000 		.4byte	.LASF9
 855 007a 03       		.uleb128 0x3
 856 007b 08       		.byte	0x8
 857 007c 05       		.byte	0x5
 858 007d 0F010000 		.4byte	.LASF10
 859 0081 04       		.uleb128 0x4
 860 0082 65040000 		.4byte	.LASF11
 861 0086 08       		.byte	0x8
 862 0087 5B       		.byte	0x5b
 863 0088 8C000000 		.4byte	0x8c
 864 008c 03       		.uleb128 0x3
 865 008d 08       		.byte	0x8
 866 008e 07       		.byte	0x7
 867 008f 6E000000 		.4byte	.LASF12
 868 0093 04       		.uleb128 0x4
 869 0094 66060000 		.4byte	.LASF13
 870 0098 09       		.byte	0x9
 871 0099 15       		.byte	0x15
 872 009a 36000000 		.4byte	0x36
 873 009e 04       		.uleb128 0x4
 874 009f AB040000 		.4byte	.LASF14
 875 00a3 09       		.byte	0x9
 876 00a4 2C       		.byte	0x2c
 877 00a5 56000000 		.4byte	0x56
 878 00a9 04       		.uleb128 0x4
 879 00aa 51050000 		.4byte	.LASF15
 880 00ae 09       		.byte	0x9
 881 00af 2D       		.byte	0x2d
 882 00b0 68000000 		.4byte	0x68
 883 00b4 04       		.uleb128 0x4
 884 00b5 1A000000 		.4byte	.LASF16
 885 00b9 09       		.byte	0x9
 886 00ba 39       		.byte	0x39
 887 00bb 81000000 		.4byte	0x81
 888 00bf 05       		.uleb128 0x5
 889 00c0 9E000000 		.4byte	0x9e
 890 00c4 04       		.uleb128 0x4
 891 00c5 0F060000 		.4byte	.LASF17
 892 00c9 0A       		.byte	0xa
 893 00ca 46       		.byte	0x46
 894 00cb A9000000 		.4byte	0xa9
ARM GAS  /tmp/ccHfAbIj.s 			page 17


 895 00cf 04       		.uleb128 0x4
 896 00d0 5A020000 		.4byte	.LASF18
 897 00d4 0A       		.byte	0xa
 898 00d5 49       		.byte	0x49
 899 00d6 93000000 		.4byte	0x93
 900 00da 04       		.uleb128 0x4
 901 00db 74010000 		.4byte	.LASF19
 902 00df 0A       		.byte	0xa
 903 00e0 4A       		.byte	0x4a
 904 00e1 93000000 		.4byte	0x93
 905 00e5 04       		.uleb128 0x4
 906 00e6 70040000 		.4byte	.LASF20
 907 00ea 0A       		.byte	0xa
 908 00eb 4B       		.byte	0x4b
 909 00ec 93000000 		.4byte	0x93
 910 00f0 04       		.uleb128 0x4
 911 00f1 8F040000 		.4byte	.LASF21
 912 00f5 0A       		.byte	0xa
 913 00f6 4D       		.byte	0x4d
 914 00f7 A9000000 		.4byte	0xa9
 915 00fb 04       		.uleb128 0x4
 916 00fc 48020000 		.4byte	.LASF22
 917 0100 0A       		.byte	0xa
 918 0101 4E       		.byte	0x4e
 919 0102 9E000000 		.4byte	0x9e
 920 0106 04       		.uleb128 0x4
 921 0107 70020000 		.4byte	.LASF23
 922 010b 0A       		.byte	0xa
 923 010c 50       		.byte	0x50
 924 010d A9000000 		.4byte	0xa9
 925 0111 04       		.uleb128 0x4
 926 0112 EF010000 		.4byte	.LASF24
 927 0116 0A       		.byte	0xa
 928 0117 52       		.byte	0x52
 929 0118 9E000000 		.4byte	0x9e
 930 011c 04       		.uleb128 0x4
 931 011d BF050000 		.4byte	.LASF25
 932 0121 0B       		.byte	0xb
 933 0122 33       		.byte	0x33
 934 0123 A9000000 		.4byte	0xa9
 935 0127 04       		.uleb128 0x4
 936 0128 49060000 		.4byte	.LASF26
 937 012c 0B       		.byte	0xb
 938 012d 3F       		.byte	0x3f
 939 012e 32010000 		.4byte	0x132
 940 0132 06       		.uleb128 0x6
 941 0133 3E020000 		.4byte	.LASF46
 942 0137 44       		.byte	0x44
 943 0138 03       		.byte	0x3
 944 0139 C2       		.byte	0xc2
 945 013a 1F020000 		.4byte	0x21f
 946 013e 07       		.uleb128 0x7
 947 013f EB040000 		.4byte	.LASF27
 948 0143 03       		.byte	0x3
 949 0144 C3       		.byte	0xc3
 950 0145 2A020000 		.4byte	0x22a
 951 0149 00       		.byte	0
ARM GAS  /tmp/ccHfAbIj.s 			page 18


 952 014a 07       		.uleb128 0x7
 953 014b 88040000 		.4byte	.LASF28
 954 014f 03       		.byte	0x3
 955 0150 C5       		.byte	0xc5
 956 0151 2A020000 		.4byte	0x22a
 957 0155 04       		.byte	0x4
 958 0156 07       		.uleb128 0x7
 959 0157 08010000 		.4byte	.LASF29
 960 015b 03       		.byte	0x3
 961 015c C7       		.byte	0xc7
 962 015d F0000000 		.4byte	0xf0
 963 0161 08       		.byte	0x8
 964 0162 07       		.uleb128 0x7
 965 0163 C5060000 		.4byte	.LASF30
 966 0167 03       		.byte	0x3
 967 0168 C8       		.byte	0xc8
 968 0169 5A040000 		.4byte	0x45a
 969 016d 0C       		.byte	0xc
 970 016e 07       		.uleb128 0x7
 971 016f 8C010000 		.4byte	.LASF31
 972 0173 03       		.byte	0x3
 973 0174 CA       		.byte	0xca
 974 0175 2A020000 		.4byte	0x22a
 975 0179 10       		.byte	0x10
 976 017a 07       		.uleb128 0x7
 977 017b 18040000 		.4byte	.LASF32
 978 017f 03       		.byte	0x3
 979 0180 CB       		.byte	0xcb
 980 0181 2A020000 		.4byte	0x22a
 981 0185 14       		.byte	0x14
 982 0186 07       		.uleb128 0x7
 983 0187 75060000 		.4byte	.LASF33
 984 018b 03       		.byte	0x3
 985 018c D2       		.byte	0xd2
 986 018d 9F060000 		.4byte	0x69f
 987 0191 18       		.byte	0x18
 988 0192 07       		.uleb128 0x7
 989 0193 D5040000 		.4byte	.LASF34
 990 0197 03       		.byte	0x3
 991 0198 DD       		.byte	0xdd
 992 0199 DA000000 		.4byte	0xda
 993 019d 1C       		.byte	0x1c
 994 019e 07       		.uleb128 0x7
 995 019f F2040000 		.4byte	.LASF35
 996 01a3 03       		.byte	0x3
 997 01a4 E1       		.byte	0xe1
 998 01a5 CF000000 		.4byte	0xcf
 999 01a9 1D       		.byte	0x1d
 1000 01aa 07       		.uleb128 0x7
 1001 01ab 42060000 		.4byte	.LASF36
 1002 01af 03       		.byte	0x3
 1003 01b0 E6       		.byte	0xe6
 1004 01b1 E5000000 		.4byte	0xe5
 1005 01b5 1E       		.byte	0x1e
 1006 01b6 08       		.uleb128 0x8
 1007 01b7 705F7500 		.ascii	"p_u\000"
 1008 01bb 03       		.byte	0x3
ARM GAS  /tmp/ccHfAbIj.s 			page 19


 1009 01bc 3101     		.2byte	0x131
 1010 01be DA050000 		.4byte	0x5da
 1011 01c2 20       		.byte	0x20
 1012 01c3 09       		.uleb128 0x9
 1013 01c4 A0020000 		.4byte	.LASF37
 1014 01c8 03       		.byte	0x3
 1015 01c9 3601     		.2byte	0x136
 1016 01cb 30020000 		.4byte	0x230
 1017 01cf 24       		.byte	0x24
 1018 01d0 09       		.uleb128 0x9
 1019 01d1 1A020000 		.4byte	.LASF38
 1020 01d5 03       		.byte	0x3
 1021 01d6 3C01     		.2byte	0x13c
 1022 01d8 54020000 		.4byte	0x254
 1023 01dc 28       		.byte	0x28
 1024 01dd 09       		.uleb128 0x9
 1025 01de A5060000 		.4byte	.LASF39
 1026 01e2 03       		.byte	0x3
 1027 01e3 4001     		.2byte	0x140
 1028 01e5 FB000000 		.4byte	0xfb
 1029 01e9 30       		.byte	0x30
 1030 01ea 09       		.uleb128 0x9
 1031 01eb 33050000 		.4byte	.LASF40
 1032 01ef 03       		.byte	0x3
 1033 01f0 4601     		.2byte	0x146
 1034 01f2 06010000 		.4byte	0x106
 1035 01f6 34       		.byte	0x34
 1036 01f7 09       		.uleb128 0x9
 1037 01f8 C1040000 		.4byte	.LASF41
 1038 01fc 03       		.byte	0x3
 1039 01fd 4D01     		.2byte	0x14d
 1040 01ff 99060000 		.4byte	0x699
 1041 0203 38       		.byte	0x38
 1042 0204 09       		.uleb128 0x9
 1043 0205 C9050000 		.4byte	.LASF42
 1044 0209 03       		.byte	0x3
 1045 020a 5101     		.2byte	0x151
 1046 020c F0000000 		.4byte	0xf0
 1047 0210 3C       		.byte	0x3c
 1048 0211 09       		.uleb128 0x9
 1049 0212 3E010000 		.4byte	.LASF43
 1050 0216 03       		.byte	0x3
 1051 0217 5801     		.2byte	0x158
 1052 0219 07030000 		.4byte	0x307
 1053 021d 40       		.byte	0x40
 1054 021e 00       		.byte	0
 1055 021f 04       		.uleb128 0x4
 1056 0220 B3020000 		.4byte	.LASF44
 1057 0224 0B       		.byte	0xb
 1058 0225 44       		.byte	0x44
 1059 0226 2A020000 		.4byte	0x22a
 1060 022a 0A       		.uleb128 0xa
 1061 022b 04       		.byte	0x4
 1062 022c 27010000 		.4byte	0x127
 1063 0230 04       		.uleb128 0x4
 1064 0231 91020000 		.4byte	.LASF45
 1065 0235 0B       		.byte	0xb
ARM GAS  /tmp/ccHfAbIj.s 			page 20


 1066 0236 49       		.byte	0x49
 1067 0237 3B020000 		.4byte	0x23b
 1068 023b 06       		.uleb128 0x6
 1069 023c 69050000 		.4byte	.LASF47
 1070 0240 04       		.byte	0x4
 1071 0241 03       		.byte	0x3
 1072 0242 B0       		.byte	0xb0
 1073 0243 54020000 		.4byte	0x254
 1074 0247 07       		.uleb128 0x7
 1075 0248 EB040000 		.4byte	.LASF27
 1076 024c 03       		.byte	0x3
 1077 024d B1       		.byte	0xb1
 1078 024e 2A020000 		.4byte	0x22a
 1079 0252 00       		.byte	0
 1080 0253 00       		.byte	0
 1081 0254 04       		.uleb128 0x4
 1082 0255 29060000 		.4byte	.LASF48
 1083 0259 0B       		.byte	0xb
 1084 025a 50       		.byte	0x50
 1085 025b 5F020000 		.4byte	0x25f
 1086 025f 06       		.uleb128 0x6
 1087 0260 F7000000 		.4byte	.LASF49
 1088 0264 08       		.byte	0x8
 1089 0265 03       		.byte	0x3
 1090 0266 B7       		.byte	0xb7
 1091 0267 84020000 		.4byte	0x284
 1092 026b 07       		.uleb128 0x7
 1093 026c EB040000 		.4byte	.LASF27
 1094 0270 03       		.byte	0x3
 1095 0271 B8       		.byte	0xb8
 1096 0272 2A020000 		.4byte	0x22a
 1097 0276 00       		.byte	0
 1098 0277 07       		.uleb128 0x7
 1099 0278 88040000 		.4byte	.LASF28
 1100 027c 03       		.byte	0x3
 1101 027d B9       		.byte	0xb9
 1102 027e 2A020000 		.4byte	0x22a
 1103 0282 04       		.byte	0x4
 1104 0283 00       		.byte	0
 1105 0284 04       		.uleb128 0x4
 1106 0285 00000000 		.4byte	.LASF50
 1107 0289 0B       		.byte	0xb
 1108 028a 57       		.byte	0x57
 1109 028b 8F020000 		.4byte	0x28f
 1110 028f 0B       		.uleb128 0xb
 1111 0290 62020000 		.4byte	.LASF51
 1112 0294 1C       		.byte	0x1c
 1113 0295 03       		.byte	0x3
 1114 0296 9001     		.2byte	0x190
 1115 0298 EB020000 		.4byte	0x2eb
 1116 029c 09       		.uleb128 0x9
 1117 029d 61050000 		.4byte	.LASF52
 1118 02a1 03       		.byte	0x3
 1119 02a2 9101     		.2byte	0x191
 1120 02a4 54020000 		.4byte	0x254
 1121 02a8 00       		.byte	0
 1122 02a9 09       		.uleb128 0x9
ARM GAS  /tmp/ccHfAbIj.s 			page 21


 1123 02aa DD040000 		.4byte	.LASF53
 1124 02ae 03       		.byte	0x3
 1125 02af 9201     		.2byte	0x192
 1126 02b1 F0000000 		.4byte	0xf0
 1127 02b5 08       		.byte	0x8
 1128 02b6 09       		.uleb128 0x9
 1129 02b7 20040000 		.4byte	.LASF54
 1130 02bb 03       		.byte	0x3
 1131 02bc 9401     		.2byte	0x194
 1132 02be 5A040000 		.4byte	0x45a
 1133 02c2 0C       		.byte	0xc
 1134 02c3 09       		.uleb128 0x9
 1135 02c4 9C010000 		.4byte	.LASF55
 1136 02c8 03       		.byte	0x3
 1137 02c9 9701     		.2byte	0x197
 1138 02cb 2A020000 		.4byte	0x22a
 1139 02cf 10       		.byte	0x10
 1140 02d0 09       		.uleb128 0x9
 1141 02d1 4D040000 		.4byte	.LASF56
 1142 02d5 03       		.byte	0x3
 1143 02d6 9801     		.2byte	0x198
 1144 02d8 2A020000 		.4byte	0x22a
 1145 02dc 14       		.byte	0x14
 1146 02dd 09       		.uleb128 0x9
 1147 02de 43040000 		.4byte	.LASF57
 1148 02e2 03       		.byte	0x3
 1149 02e3 9B01     		.2byte	0x19b
 1150 02e5 2A020000 		.4byte	0x22a
 1151 02e9 18       		.byte	0x18
 1152 02ea 00       		.byte	0
 1153 02eb 04       		.uleb128 0x4
 1154 02ec D4050000 		.4byte	.LASF58
 1155 02f0 0B       		.byte	0xb
 1156 02f1 5C       		.byte	0x5c
 1157 02f2 F6020000 		.4byte	0x2f6
 1158 02f6 0A       		.uleb128 0xa
 1159 02f7 04       		.byte	0x4
 1160 02f8 FC020000 		.4byte	0x2fc
 1161 02fc 0C       		.uleb128 0xc
 1162 02fd 07030000 		.4byte	0x307
 1163 0301 0D       		.uleb128 0xd
 1164 0302 07030000 		.4byte	0x307
 1165 0306 00       		.byte	0
 1166 0307 0E       		.uleb128 0xe
 1167 0308 04       		.byte	0x4
 1168 0309 04       		.uleb128 0x4
 1169 030a 78040000 		.4byte	.LASF59
 1170 030e 0B       		.byte	0xb
 1171 030f 61       		.byte	0x61
 1172 0310 14030000 		.4byte	0x314
 1173 0314 0B       		.uleb128 0xb
 1174 0315 0D050000 		.4byte	.LASF60
 1175 0319 14       		.byte	0x14
 1176 031a 03       		.byte	0x3
 1177 031b 6B01     		.2byte	0x16b
 1178 031d 63030000 		.4byte	0x363
 1179 0321 09       		.uleb128 0x9
ARM GAS  /tmp/ccHfAbIj.s 			page 22


 1180 0322 02020000 		.4byte	.LASF61
 1181 0326 03       		.byte	0x3
 1182 0327 6C01     		.2byte	0x16c
 1183 0329 B1060000 		.4byte	0x6b1
 1184 032d 00       		.byte	0
 1185 032e 09       		.uleb128 0x9
 1186 032f AD010000 		.4byte	.LASF62
 1187 0333 03       		.byte	0x3
 1188 0334 6D01     		.2byte	0x16d
 1189 0336 B1060000 		.4byte	0x6b1
 1190 033a 04       		.byte	0x4
 1191 033b 09       		.uleb128 0x9
 1192 033c 11020000 		.4byte	.LASF63
 1193 0340 03       		.byte	0x3
 1194 0341 6E01     		.2byte	0x16e
 1195 0343 1C010000 		.4byte	0x11c
 1196 0347 08       		.byte	0x8
 1197 0348 09       		.uleb128 0x9
 1198 0349 CB060000 		.4byte	.LASF64
 1199 034d 03       		.byte	0x3
 1200 034e 6F01     		.2byte	0x16f
 1201 0350 EB020000 		.4byte	0x2eb
 1202 0354 0C       		.byte	0xc
 1203 0355 09       		.uleb128 0x9
 1204 0356 22060000 		.4byte	.LASF65
 1205 035a 03       		.byte	0x3
 1206 035b 7101     		.2byte	0x171
 1207 035d 07030000 		.4byte	0x307
 1208 0361 10       		.byte	0x10
 1209 0362 00       		.byte	0
 1210 0363 04       		.uleb128 0x4
 1211 0364 D4000000 		.4byte	.LASF66
 1212 0368 0B       		.byte	0xb
 1213 0369 66       		.byte	0x66
 1214 036a 6E030000 		.4byte	0x36e
 1215 036e 0B       		.uleb128 0xb
 1216 036f C6020000 		.4byte	.LASF67
 1217 0373 10       		.byte	0x10
 1218 0374 03       		.byte	0x3
 1219 0375 7B01     		.2byte	0x17b
 1220 0377 B0030000 		.4byte	0x3b0
 1221 037b 09       		.uleb128 0x9
 1222 037c 02020000 		.4byte	.LASF61
 1223 0380 03       		.byte	0x3
 1224 0381 7C01     		.2byte	0x17c
 1225 0383 B1060000 		.4byte	0x6b1
 1226 0387 00       		.byte	0
 1227 0388 09       		.uleb128 0x9
 1228 0389 AD010000 		.4byte	.LASF62
 1229 038d 03       		.byte	0x3
 1230 038e 7E01     		.2byte	0x17e
 1231 0390 B1060000 		.4byte	0x6b1
 1232 0394 04       		.byte	0x4
 1233 0395 09       		.uleb128 0x9
 1234 0396 11020000 		.4byte	.LASF63
 1235 039a 03       		.byte	0x3
 1236 039b 8001     		.2byte	0x180
ARM GAS  /tmp/ccHfAbIj.s 			page 23


 1237 039d 1C010000 		.4byte	0x11c
 1238 03a1 08       		.byte	0x8
 1239 03a2 09       		.uleb128 0x9
 1240 03a3 8E060000 		.4byte	.LASF68
 1241 03a7 03       		.byte	0x3
 1242 03a8 8201     		.2byte	0x182
 1243 03aa B7060000 		.4byte	0x6b7
 1244 03ae 0C       		.byte	0xc
 1245 03af 00       		.byte	0
 1246 03b0 04       		.uleb128 0x4
 1247 03b1 39000000 		.4byte	.LASF69
 1248 03b5 0B       		.byte	0xb
 1249 03b6 6B       		.byte	0x6b
 1250 03b7 BB030000 		.4byte	0x3bb
 1251 03bb 0B       		.uleb128 0xb
 1252 03bc B5010000 		.4byte	.LASF70
 1253 03c0 04       		.byte	0x4
 1254 03c1 03       		.byte	0x3
 1255 03c2 A201     		.2byte	0x1a2
 1256 03c4 D6030000 		.4byte	0x3d6
 1257 03c8 09       		.uleb128 0x9
 1258 03c9 F6050000 		.4byte	.LASF71
 1259 03cd 03       		.byte	0x3
 1260 03ce AA01     		.2byte	0x1aa
 1261 03d0 BC060000 		.4byte	0x6bc
 1262 03d4 00       		.byte	0
 1263 03d5 00       		.byte	0
 1264 03d6 04       		.uleb128 0x4
 1265 03d7 4E020000 		.4byte	.LASF72
 1266 03db 0B       		.byte	0xb
 1267 03dc 70       		.byte	0x70
 1268 03dd E1030000 		.4byte	0x3e1
 1269 03e1 0F       		.uleb128 0xf
 1270 03e2 61010000 		.4byte	.LASF73
 1271 03e6 D801     		.2byte	0x1d8
 1272 03e8 03       		.byte	0x3
 1273 03e9 C201     		.2byte	0x1c2
 1274 03eb 3D040000 		.4byte	0x43d
 1275 03ef 09       		.uleb128 0x9
 1276 03f0 52060000 		.4byte	.LASF74
 1277 03f4 03       		.byte	0x3
 1278 03f5 C601     		.2byte	0x1c6
 1279 03f7 84020000 		.4byte	0x284
 1280 03fb 00       		.byte	0
 1281 03fc 09       		.uleb128 0x9
 1282 03fd 4E010000 		.4byte	.LASF75
 1283 0401 03       		.byte	0x3
 1284 0402 CA01     		.2byte	0x1ca
 1285 0404 63030000 		.4byte	0x363
 1286 0408 1C       		.byte	0x1c
 1287 0409 08       		.uleb128 0x8
 1288 040a 64626700 		.ascii	"dbg\000"
 1289 040e 03       		.byte	0x3
 1290 040f CE01     		.2byte	0x1ce
 1291 0411 B0030000 		.4byte	0x3b0
 1292 0415 2C       		.byte	0x2c
 1293 0416 09       		.uleb128 0x9
ARM GAS  /tmp/ccHfAbIj.s 			page 24


 1294 0417 8E000000 		.4byte	.LASF76
 1295 041b 03       		.byte	0x3
 1296 041c D201     		.2byte	0x1d2
 1297 041e 27010000 		.4byte	0x127
 1298 0422 30       		.byte	0x30
 1299 0423 08       		.uleb128 0x8
 1300 0424 746D00   		.ascii	"tm\000"
 1301 0427 03       		.byte	0x3
 1302 0428 D701     		.2byte	0x1d7
 1303 042a CF050000 		.4byte	0x5cf
 1304 042e 74       		.byte	0x74
 1305 042f 09       		.uleb128 0x9
 1306 0430 E0010000 		.4byte	.LASF77
 1307 0434 03       		.byte	0x3
 1308 0435 E301     		.2byte	0x1e3
 1309 0437 C1060000 		.4byte	0x6c1
 1310 043b 78       		.byte	0x78
 1311 043c 00       		.byte	0
 1312 043d 03       		.uleb128 0x3
 1313 043e 04       		.byte	0x4
 1314 043f 07       		.byte	0x7
 1315 0440 AA020000 		.4byte	.LASF78
 1316 0444 04       		.uleb128 0x4
 1317 0445 A4010000 		.4byte	.LASF79
 1318 0449 0C       		.byte	0xc
 1319 044a 65       		.byte	0x65
 1320 044b 07030000 		.4byte	0x307
 1321 044f 04       		.uleb128 0x4
 1322 0450 86020000 		.4byte	.LASF80
 1323 0454 0C       		.byte	0xc
 1324 0455 6D       		.byte	0x6d
 1325 0456 B4000000 		.4byte	0xb4
 1326 045a 06       		.uleb128 0x6
 1327 045b 07060000 		.4byte	.LASF81
 1328 045f 04       		.byte	0x4
 1329 0460 0C       		.byte	0xc
 1330 0461 89       		.byte	0x89
 1331 0462 73040000 		.4byte	0x473
 1332 0466 10       		.uleb128 0x10
 1333 0467 72313300 		.ascii	"r13\000"
 1334 046b 0C       		.byte	0xc
 1335 046c 8A       		.byte	0x8a
 1336 046d B4050000 		.4byte	0x5b4
 1337 0471 00       		.byte	0
 1338 0472 00       		.byte	0
 1339 0473 06       		.uleb128 0x6
 1340 0474 2D000000 		.4byte	.LASF82
 1341 0478 64       		.byte	0x64
 1342 0479 01       		.byte	0x1
 1343 047a F4       		.byte	0xf4
 1344 047b B4050000 		.4byte	0x5b4
 1345 047f 10       		.uleb128 0x10
 1346 0480 73313600 		.ascii	"s16\000"
 1347 0484 01       		.byte	0x1
 1348 0485 F6       		.byte	0xf6
 1349 0486 44040000 		.4byte	0x444
 1350 048a 00       		.byte	0
ARM GAS  /tmp/ccHfAbIj.s 			page 25


 1351 048b 10       		.uleb128 0x10
 1352 048c 73313700 		.ascii	"s17\000"
 1353 0490 01       		.byte	0x1
 1354 0491 F7       		.byte	0xf7
 1355 0492 44040000 		.4byte	0x444
 1356 0496 04       		.byte	0x4
 1357 0497 10       		.uleb128 0x10
 1358 0498 73313800 		.ascii	"s18\000"
 1359 049c 01       		.byte	0x1
 1360 049d F8       		.byte	0xf8
 1361 049e 44040000 		.4byte	0x444
 1362 04a2 08       		.byte	0x8
 1363 04a3 10       		.uleb128 0x10
 1364 04a4 73313900 		.ascii	"s19\000"
 1365 04a8 01       		.byte	0x1
 1366 04a9 F9       		.byte	0xf9
 1367 04aa 44040000 		.4byte	0x444
 1368 04ae 0C       		.byte	0xc
 1369 04af 10       		.uleb128 0x10
 1370 04b0 73323000 		.ascii	"s20\000"
 1371 04b4 01       		.byte	0x1
 1372 04b5 FA       		.byte	0xfa
 1373 04b6 44040000 		.4byte	0x444
 1374 04ba 10       		.byte	0x10
 1375 04bb 10       		.uleb128 0x10
 1376 04bc 73323100 		.ascii	"s21\000"
 1377 04c0 01       		.byte	0x1
 1378 04c1 FB       		.byte	0xfb
 1379 04c2 44040000 		.4byte	0x444
 1380 04c6 14       		.byte	0x14
 1381 04c7 10       		.uleb128 0x10
 1382 04c8 73323200 		.ascii	"s22\000"
 1383 04cc 01       		.byte	0x1
 1384 04cd FC       		.byte	0xfc
 1385 04ce 44040000 		.4byte	0x444
 1386 04d2 18       		.byte	0x18
 1387 04d3 10       		.uleb128 0x10
 1388 04d4 73323300 		.ascii	"s23\000"
 1389 04d8 01       		.byte	0x1
 1390 04d9 FD       		.byte	0xfd
 1391 04da 44040000 		.4byte	0x444
 1392 04de 1C       		.byte	0x1c
 1393 04df 10       		.uleb128 0x10
 1394 04e0 73323400 		.ascii	"s24\000"
 1395 04e4 01       		.byte	0x1
 1396 04e5 FE       		.byte	0xfe
 1397 04e6 44040000 		.4byte	0x444
 1398 04ea 20       		.byte	0x20
 1399 04eb 10       		.uleb128 0x10
 1400 04ec 73323500 		.ascii	"s25\000"
 1401 04f0 01       		.byte	0x1
 1402 04f1 FF       		.byte	0xff
 1403 04f2 44040000 		.4byte	0x444
 1404 04f6 24       		.byte	0x24
 1405 04f7 08       		.uleb128 0x8
 1406 04f8 73323600 		.ascii	"s26\000"
 1407 04fc 01       		.byte	0x1
ARM GAS  /tmp/ccHfAbIj.s 			page 26


 1408 04fd 0001     		.2byte	0x100
 1409 04ff 44040000 		.4byte	0x444
 1410 0503 28       		.byte	0x28
 1411 0504 08       		.uleb128 0x8
 1412 0505 73323700 		.ascii	"s27\000"
 1413 0509 01       		.byte	0x1
 1414 050a 0101     		.2byte	0x101
 1415 050c 44040000 		.4byte	0x444
 1416 0510 2C       		.byte	0x2c
 1417 0511 08       		.uleb128 0x8
 1418 0512 73323800 		.ascii	"s28\000"
 1419 0516 01       		.byte	0x1
 1420 0517 0201     		.2byte	0x102
 1421 0519 44040000 		.4byte	0x444
 1422 051d 30       		.byte	0x30
 1423 051e 08       		.uleb128 0x8
 1424 051f 73323900 		.ascii	"s29\000"
 1425 0523 01       		.byte	0x1
 1426 0524 0301     		.2byte	0x103
 1427 0526 44040000 		.4byte	0x444
 1428 052a 34       		.byte	0x34
 1429 052b 08       		.uleb128 0x8
 1430 052c 73333000 		.ascii	"s30\000"
 1431 0530 01       		.byte	0x1
 1432 0531 0401     		.2byte	0x104
 1433 0533 44040000 		.4byte	0x444
 1434 0537 38       		.byte	0x38
 1435 0538 08       		.uleb128 0x8
 1436 0539 73333100 		.ascii	"s31\000"
 1437 053d 01       		.byte	0x1
 1438 053e 0501     		.2byte	0x105
 1439 0540 44040000 		.4byte	0x444
 1440 0544 3C       		.byte	0x3c
 1441 0545 08       		.uleb128 0x8
 1442 0546 723400   		.ascii	"r4\000"
 1443 0549 01       		.byte	0x1
 1444 054a 0701     		.2byte	0x107
 1445 054c 44040000 		.4byte	0x444
 1446 0550 40       		.byte	0x40
 1447 0551 08       		.uleb128 0x8
 1448 0552 723500   		.ascii	"r5\000"
 1449 0555 01       		.byte	0x1
 1450 0556 0801     		.2byte	0x108
 1451 0558 44040000 		.4byte	0x444
 1452 055c 44       		.byte	0x44
 1453 055d 08       		.uleb128 0x8
 1454 055e 723600   		.ascii	"r6\000"
 1455 0561 01       		.byte	0x1
 1456 0562 0901     		.2byte	0x109
 1457 0564 44040000 		.4byte	0x444
 1458 0568 48       		.byte	0x48
 1459 0569 08       		.uleb128 0x8
 1460 056a 723700   		.ascii	"r7\000"
 1461 056d 01       		.byte	0x1
 1462 056e 0A01     		.2byte	0x10a
 1463 0570 44040000 		.4byte	0x444
 1464 0574 4C       		.byte	0x4c
ARM GAS  /tmp/ccHfAbIj.s 			page 27


 1465 0575 08       		.uleb128 0x8
 1466 0576 723800   		.ascii	"r8\000"
 1467 0579 01       		.byte	0x1
 1468 057a 0B01     		.2byte	0x10b
 1469 057c 44040000 		.4byte	0x444
 1470 0580 50       		.byte	0x50
 1471 0581 08       		.uleb128 0x8
 1472 0582 723900   		.ascii	"r9\000"
 1473 0585 01       		.byte	0x1
 1474 0586 0C01     		.2byte	0x10c
 1475 0588 44040000 		.4byte	0x444
 1476 058c 54       		.byte	0x54
 1477 058d 08       		.uleb128 0x8
 1478 058e 72313000 		.ascii	"r10\000"
 1479 0592 01       		.byte	0x1
 1480 0593 0D01     		.2byte	0x10d
 1481 0595 44040000 		.4byte	0x444
 1482 0599 58       		.byte	0x58
 1483 059a 08       		.uleb128 0x8
 1484 059b 72313100 		.ascii	"r11\000"
 1485 059f 01       		.byte	0x1
 1486 05a0 0E01     		.2byte	0x10e
 1487 05a2 44040000 		.4byte	0x444
 1488 05a6 5C       		.byte	0x5c
 1489 05a7 08       		.uleb128 0x8
 1490 05a8 6C7200   		.ascii	"lr\000"
 1491 05ab 01       		.byte	0x1
 1492 05ac 0F01     		.2byte	0x10f
 1493 05ae 44040000 		.4byte	0x444
 1494 05b2 60       		.byte	0x60
 1495 05b3 00       		.byte	0
 1496 05b4 0A       		.uleb128 0xa
 1497 05b5 04       		.byte	0x4
 1498 05b6 73040000 		.4byte	0x473
 1499 05ba 11       		.uleb128 0x11
 1500 05bb 04       		.byte	0x4
 1501 05bc 0D       		.byte	0xd
 1502 05bd 38       		.byte	0x38
 1503 05be CF050000 		.4byte	0x5cf
 1504 05c2 07       		.uleb128 0x7
 1505 05c3 00060000 		.4byte	.LASF83
 1506 05c7 0D       		.byte	0xd
 1507 05c8 3C       		.byte	0x3c
 1508 05c9 C4000000 		.4byte	0xc4
 1509 05cd 00       		.byte	0
 1510 05ce 00       		.byte	0
 1511 05cf 04       		.uleb128 0x4
 1512 05d0 26040000 		.4byte	.LASF84
 1513 05d4 0D       		.byte	0xd
 1514 05d5 3D       		.byte	0x3d
 1515 05d6 BA050000 		.4byte	0x5ba
 1516 05da 12       		.uleb128 0x12
 1517 05db 04       		.byte	0x4
 1518 05dc 03       		.byte	0x3
 1519 05dd FA       		.byte	0xfa
 1520 05de 37060000 		.4byte	0x637
 1521 05e2 13       		.uleb128 0x13
ARM GAS  /tmp/ccHfAbIj.s 			page 28


 1522 05e3 13000000 		.4byte	.LASF85
 1523 05e7 03       		.byte	0x3
 1524 05e8 0101     		.2byte	0x101
 1525 05ea FB000000 		.4byte	0xfb
 1526 05ee 13       		.uleb128 0x13
 1527 05ef 85000000 		.4byte	.LASF86
 1528 05f3 03       		.byte	0x3
 1529 05f4 0801     		.2byte	0x108
 1530 05f6 FB000000 		.4byte	0xfb
 1531 05fa 13       		.uleb128 0x13
 1532 05fb 6E060000 		.4byte	.LASF87
 1533 05ff 03       		.byte	0x3
 1534 0600 0F01     		.2byte	0x10f
 1535 0602 07030000 		.4byte	0x307
 1536 0606 13       		.uleb128 0x13
 1537 0607 0D000000 		.4byte	.LASF88
 1538 060b 03       		.byte	0x3
 1539 060c 1601     		.2byte	0x116
 1540 060e 37060000 		.4byte	0x637
 1541 0612 13       		.uleb128 0x13
 1542 0613 0A020000 		.4byte	.LASF89
 1543 0617 03       		.byte	0x3
 1544 0618 1E01     		.2byte	0x11e
 1545 061a 62060000 		.4byte	0x662
 1546 061e 13       		.uleb128 0x13
 1547 061f 5A050000 		.4byte	.LASF90
 1548 0623 03       		.byte	0x3
 1549 0624 2701     		.2byte	0x127
 1550 0626 99060000 		.4byte	0x699
 1551 062a 13       		.uleb128 0x13
 1552 062b E4040000 		.4byte	.LASF91
 1553 062f 03       		.byte	0x3
 1554 0630 2F01     		.2byte	0x12f
 1555 0632 06010000 		.4byte	0x106
 1556 0636 00       		.byte	0
 1557 0637 0A       		.uleb128 0xa
 1558 0638 04       		.byte	0x4
 1559 0639 1F020000 		.4byte	0x21f
 1560 063d 06       		.uleb128 0x6
 1561 063e 26050000 		.4byte	.LASF92
 1562 0642 0C       		.byte	0xc
 1563 0643 0E       		.byte	0xe
 1564 0644 34       		.byte	0x34
 1565 0645 62060000 		.4byte	0x662
 1566 0649 07       		.uleb128 0x7
 1567 064a 94010000 		.4byte	.LASF93
 1568 064e 0E       		.byte	0xe
 1569 064f 35       		.byte	0x35
 1570 0650 54020000 		.4byte	0x254
 1571 0654 00       		.byte	0
 1572 0655 07       		.uleb128 0x7
 1573 0656 25020000 		.4byte	.LASF94
 1574 065a 0E       		.byte	0xe
 1575 065b 37       		.byte	0x37
 1576 065c 11010000 		.4byte	0x111
 1577 0660 08       		.byte	0x8
 1578 0661 00       		.byte	0
ARM GAS  /tmp/ccHfAbIj.s 			page 29


 1579 0662 0A       		.uleb128 0xa
 1580 0663 04       		.byte	0x4
 1581 0664 3D060000 		.4byte	0x63d
 1582 0668 06       		.uleb128 0x6
 1583 0669 39060000 		.4byte	.LASF95
 1584 066d 10       		.byte	0x10
 1585 066e 06       		.byte	0x6
 1586 066f 39       		.byte	0x39
 1587 0670 99060000 		.4byte	0x699
 1588 0674 07       		.uleb128 0x7
 1589 0675 46010000 		.4byte	.LASF96
 1590 0679 06       		.byte	0x6
 1591 067a 3A       		.byte	0x3a
 1592 067b 54020000 		.4byte	0x254
 1593 067f 00       		.byte	0
 1594 0680 07       		.uleb128 0x7
 1595 0681 BD060000 		.4byte	.LASF97
 1596 0685 06       		.byte	0x6
 1597 0686 3C       		.byte	0x3c
 1598 0687 2A020000 		.4byte	0x22a
 1599 068b 08       		.byte	0x8
 1600 068c 07       		.uleb128 0x7
 1601 068d 37040000 		.4byte	.LASF98
 1602 0691 06       		.byte	0x6
 1603 0692 3E       		.byte	0x3e
 1604 0693 DC060000 		.4byte	0x6dc
 1605 0697 0C       		.byte	0xc
 1606 0698 00       		.byte	0
 1607 0699 0A       		.uleb128 0xa
 1608 069a 04       		.byte	0x4
 1609 069b 68060000 		.4byte	0x668
 1610 069f 0A       		.uleb128 0xa
 1611 06a0 04       		.byte	0x4
 1612 06a1 A5060000 		.4byte	0x6a5
 1613 06a5 14       		.uleb128 0x14
 1614 06a6 AA060000 		.4byte	0x6aa
 1615 06aa 03       		.uleb128 0x3
 1616 06ab 01       		.byte	0x1
 1617 06ac 08       		.byte	0x8
 1618 06ad 8B050000 		.4byte	.LASF99
 1619 06b1 0A       		.uleb128 0xa
 1620 06b2 04       		.byte	0x4
 1621 06b3 09030000 		.4byte	0x309
 1622 06b7 05       		.uleb128 0x5
 1623 06b8 1C010000 		.4byte	0x11c
 1624 06bc 05       		.uleb128 0x5
 1625 06bd 9F060000 		.4byte	0x69f
 1626 06c1 15       		.uleb128 0x15
 1627 06c2 4F040000 		.4byte	0x44f
 1628 06c6 D1060000 		.4byte	0x6d1
 1629 06ca 16       		.uleb128 0x16
 1630 06cb 3D040000 		.4byte	0x43d
 1631 06cf 2B       		.byte	0x2b
 1632 06d0 00       		.byte	0
 1633 06d1 04       		.uleb128 0x4
 1634 06d2 C5010000 		.4byte	.LASF100
 1635 06d6 06       		.byte	0x6
ARM GAS  /tmp/ccHfAbIj.s 			page 30


 1636 06d7 34       		.byte	0x34
 1637 06d8 68060000 		.4byte	0x668
 1638 06dc 0A       		.uleb128 0xa
 1639 06dd 04       		.byte	0x4
 1640 06de D1060000 		.4byte	0x6d1
 1641 06e2 06       		.uleb128 0x6
 1642 06e3 F2030000 		.4byte	.LASF101
 1643 06e7 08       		.byte	0x8
 1644 06e8 0F       		.byte	0xf
 1645 06e9 3B       		.byte	0x3b
 1646 06ea FB060000 		.4byte	0x6fb
 1647 06ee 07       		.uleb128 0x7
 1648 06ef 1E050000 		.4byte	.LASF102
 1649 06f3 0F       		.byte	0xf
 1650 06f4 3C       		.byte	0x3c
 1651 06f5 54020000 		.4byte	0x254
 1652 06f9 00       		.byte	0
 1653 06fa 00       		.byte	0
 1654 06fb 04       		.uleb128 0x4
 1655 06fc 29010000 		.4byte	.LASF103
 1656 0700 0F       		.byte	0xf
 1657 0701 3E       		.byte	0x3e
 1658 0702 E2060000 		.4byte	0x6e2
 1659 0706 17       		.uleb128 0x17
 1660 0707 E8050000 		.4byte	.LASF128
 1661 070b 02       		.byte	0x2
 1662 070c 2002     		.2byte	0x220
 1663 070e 03       		.byte	0x3
 1664 070f 20070000 		.4byte	0x720
 1665 0713 18       		.uleb128 0x18
 1666 0714 CD010000 		.4byte	.LASF129
 1667 0718 02       		.byte	0x2
 1668 0719 2002     		.2byte	0x220
 1669 071b A9000000 		.4byte	0xa9
 1670 071f 00       		.byte	0
 1671 0720 19       		.uleb128 0x19
 1672 0721 53000000 		.4byte	.LASF104
 1673 0725 01       		.byte	0x1
 1674 0726 BC01     		.2byte	0x1bc
 1675 0728 00000000 		.4byte	.LFB116
 1676 072c 10000000 		.4byte	.LFE116-.LFB116
 1677 0730 01       		.uleb128 0x1
 1678 0731 9C       		.byte	0x9c
 1679 0732 50070000 		.4byte	0x750
 1680 0736 1A       		.uleb128 0x1a
 1681 0737 06070000 		.4byte	0x706
 1682 073b 06000000 		.4byte	.LBB6
 1683 073f 06000000 		.4byte	.LBE6-.LBB6
 1684 0743 01       		.byte	0x1
 1685 0744 BF01     		.2byte	0x1bf
 1686 0746 1B       		.uleb128 0x1b
 1687 0747 13070000 		.4byte	0x713
 1688 074b 02       		.uleb128 0x2
 1689 074c 91       		.byte	0x91
 1690 074d 7C       		.sleb128 -4
 1691 074e 00       		.byte	0
 1692 074f 00       		.byte	0
ARM GAS  /tmp/ccHfAbIj.s 			page 31


 1693 0750 19       		.uleb128 0x19
 1694 0751 55010000 		.4byte	.LASF105
 1695 0755 01       		.byte	0x1
 1696 0756 CA01     		.2byte	0x1ca
 1697 0758 00000000 		.4byte	.LFB117
 1698 075c 10000000 		.4byte	.LFE117-.LFB117
 1699 0760 01       		.uleb128 0x1
 1700 0761 9C       		.byte	0x9c
 1701 0762 80070000 		.4byte	0x780
 1702 0766 1A       		.uleb128 0x1a
 1703 0767 06070000 		.4byte	0x706
 1704 076b 06000000 		.4byte	.LBB8
 1705 076f 06000000 		.4byte	.LBE8-.LBB8
 1706 0773 01       		.byte	0x1
 1707 0774 CD01     		.2byte	0x1cd
 1708 0776 1B       		.uleb128 0x1b
 1709 0777 13070000 		.4byte	0x713
 1710 077b 02       		.uleb128 0x2
 1711 077c 91       		.byte	0x91
 1712 077d 7C       		.sleb128 -4
 1713 077e 00       		.byte	0
 1714 077f 00       		.byte	0
 1715 0780 19       		.uleb128 0x19
 1716 0781 48000000 		.4byte	.LASF106
 1717 0785 03       		.byte	0x3
 1718 0786 5A02     		.2byte	0x25a
 1719 0788 00000000 		.4byte	.LFB128
 1720 078c 14000000 		.4byte	.LFE128-.LFB128
 1721 0790 01       		.uleb128 0x1
 1722 0791 9C       		.byte	0x9c
 1723 0792 A6070000 		.4byte	0x7a6
 1724 0796 1C       		.uleb128 0x1c
 1725 0797 74717000 		.ascii	"tqp\000"
 1726 079b 03       		.byte	0x3
 1727 079c 5A02     		.2byte	0x25a
 1728 079e A6070000 		.4byte	0x7a6
 1729 07a2 02       		.uleb128 0x2
 1730 07a3 91       		.byte	0x91
 1731 07a4 7C       		.sleb128 -4
 1732 07a5 00       		.byte	0
 1733 07a6 0A       		.uleb128 0xa
 1734 07a7 04       		.byte	0x4
 1735 07a8 54020000 		.4byte	0x254
 1736 07ac 1D       		.uleb128 0x1d
 1737 07ad 7D010000 		.4byte	.LASF109
 1738 07b1 03       		.byte	0x3
 1739 07b2 7502     		.2byte	0x275
 1740 07b4 D6070000 		.4byte	0x7d6
 1741 07b8 00000000 		.4byte	.LFB130
 1742 07bc 1A000000 		.4byte	.LFE130-.LFB130
 1743 07c0 01       		.uleb128 0x1
 1744 07c1 9C       		.byte	0x9c
 1745 07c2 D6070000 		.4byte	0x7d6
 1746 07c6 1C       		.uleb128 0x1c
 1747 07c7 74717000 		.ascii	"tqp\000"
 1748 07cb 03       		.byte	0x3
 1749 07cc 7502     		.2byte	0x275
ARM GAS  /tmp/ccHfAbIj.s 			page 32


 1750 07ce DD070000 		.4byte	0x7dd
 1751 07d2 02       		.uleb128 0x2
 1752 07d3 91       		.byte	0x91
 1753 07d4 7C       		.sleb128 -4
 1754 07d5 00       		.byte	0
 1755 07d6 03       		.uleb128 0x3
 1756 07d7 01       		.byte	0x1
 1757 07d8 02       		.byte	0x2
 1758 07d9 A5040000 		.4byte	.LASF107
 1759 07dd 0A       		.uleb128 0xa
 1760 07de 04       		.byte	0x4
 1761 07df E3070000 		.4byte	0x7e3
 1762 07e3 14       		.uleb128 0x14
 1763 07e4 54020000 		.4byte	0x254
 1764 07e8 19       		.uleb128 0x19
 1765 07e9 AB060000 		.4byte	.LASF108
 1766 07ed 03       		.byte	0x3
 1767 07ee 8B02     		.2byte	0x28b
 1768 07f0 00000000 		.4byte	.LFB133
 1769 07f4 44000000 		.4byte	.LFE133-.LFB133
 1770 07f8 01       		.uleb128 0x1
 1771 07f9 9C       		.byte	0x9c
 1772 07fa 2A080000 		.4byte	0x82a
 1773 07fe 1C       		.uleb128 0x1c
 1774 07ff 747000   		.ascii	"tp\000"
 1775 0802 03       		.byte	0x3
 1776 0803 8B02     		.2byte	0x28b
 1777 0805 2A020000 		.4byte	0x22a
 1778 0809 02       		.uleb128 0x2
 1779 080a 91       		.byte	0x91
 1780 080b 74       		.sleb128 -12
 1781 080c 1C       		.uleb128 0x1c
 1782 080d 74717000 		.ascii	"tqp\000"
 1783 0811 03       		.byte	0x3
 1784 0812 8B02     		.2byte	0x28b
 1785 0814 A6070000 		.4byte	0x7a6
 1786 0818 02       		.uleb128 0x2
 1787 0819 91       		.byte	0x91
 1788 081a 70       		.sleb128 -16
 1789 081b 1E       		.uleb128 0x1e
 1790 081c 637000   		.ascii	"cp\000"
 1791 081f 03       		.byte	0x3
 1792 0820 8D02     		.2byte	0x28d
 1793 0822 2A020000 		.4byte	0x22a
 1794 0826 02       		.uleb128 0x2
 1795 0827 91       		.byte	0x91
 1796 0828 7C       		.sleb128 -4
 1797 0829 00       		.byte	0
 1798 082a 1D       		.uleb128 0x1d
 1799 082b AD050000 		.4byte	.LASF110
 1800 082f 03       		.byte	0x3
 1801 0830 9F02     		.2byte	0x29f
 1802 0832 2A020000 		.4byte	0x22a
 1803 0836 00000000 		.4byte	.LFB135
 1804 083a 22000000 		.4byte	.LFE135-.LFB135
 1805 083e 01       		.uleb128 0x1
 1806 083f 9C       		.byte	0x9c
ARM GAS  /tmp/ccHfAbIj.s 			page 33


 1807 0840 62080000 		.4byte	0x862
 1808 0844 1C       		.uleb128 0x1c
 1809 0845 74717000 		.ascii	"tqp\000"
 1810 0849 03       		.byte	0x3
 1811 084a 9F02     		.2byte	0x29f
 1812 084c A6070000 		.4byte	0x7a6
 1813 0850 02       		.uleb128 0x2
 1814 0851 91       		.byte	0x91
 1815 0852 74       		.sleb128 -12
 1816 0853 1E       		.uleb128 0x1e
 1817 0854 747000   		.ascii	"tp\000"
 1818 0857 03       		.byte	0x3
 1819 0858 A002     		.2byte	0x2a0
 1820 085a 2A020000 		.4byte	0x22a
 1821 085e 02       		.uleb128 0x2
 1822 085f 91       		.byte	0x91
 1823 0860 7C       		.sleb128 -4
 1824 0861 00       		.byte	0
 1825 0862 1F       		.uleb128 0x1f
 1826 0863 03050000 		.4byte	.LASF130
 1827 0867 04       		.byte	0x4
 1828 0868 5A01     		.2byte	0x15a
 1829 086a 00000000 		.4byte	.LFB145
 1830 086e 08000000 		.4byte	.LFE145-.LFB145
 1831 0872 01       		.uleb128 0x1
 1832 0873 9C       		.byte	0x9c
 1833 0874 20       		.uleb128 0x20
 1834 0875 99060000 		.4byte	.LASF111
 1835 0879 04       		.byte	0x4
 1836 087a 6601     		.2byte	0x166
 1837 087c 00000000 		.4byte	.LFB146
 1838 0880 08000000 		.4byte	.LFE146-.LFB146
 1839 0884 01       		.uleb128 0x1
 1840 0885 9C       		.byte	0x9c
 1841 0886 94080000 		.4byte	0x894
 1842 088a 21       		.uleb128 0x21
 1843 088b FA040000 		.4byte	.LASF114
 1844 088f A4080000 		.4byte	0x8a4
 1845 0893 00       		.byte	0
 1846 0894 15       		.uleb128 0x15
 1847 0895 AA060000 		.4byte	0x6aa
 1848 0899 A4080000 		.4byte	0x8a4
 1849 089d 16       		.uleb128 0x16
 1850 089e 3D040000 		.4byte	0x43d
 1851 08a2 0B       		.byte	0xb
 1852 08a3 00       		.byte	0
 1853 08a4 14       		.uleb128 0x14
 1854 08a5 94080000 		.4byte	0x894
 1855 08a9 22       		.uleb128 0x22
 1856 08aa 58060000 		.4byte	.LASF112
 1857 08ae 05       		.byte	0x5
 1858 08af AE       		.byte	0xae
 1859 08b0 2A020000 		.4byte	0x22a
 1860 08b4 00000000 		.4byte	.LFB166
 1861 08b8 0C000000 		.4byte	.LFE166-.LFB166
 1862 08bc 01       		.uleb128 0x1
 1863 08bd 9C       		.byte	0x9c
ARM GAS  /tmp/ccHfAbIj.s 			page 34


 1864 08be 23       		.uleb128 0x23
 1865 08bf 3E050000 		.4byte	.LASF113
 1866 08c3 06       		.byte	0x6
 1867 08c4 90       		.byte	0x90
 1868 08c5 DC060000 		.4byte	0x6dc
 1869 08c9 00000000 		.4byte	.LFB190
 1870 08cd 0E000000 		.4byte	.LFE190-.LFB190
 1871 08d1 01       		.uleb128 0x1
 1872 08d2 9C       		.byte	0x9c
 1873 08d3 24       		.uleb128 0x24
 1874 08d4 9C050000 		.4byte	.LASF115
 1875 08d8 07       		.byte	0x7
 1876 08d9 4B       		.byte	0x4b
 1877 08da 00000000 		.4byte	.LFB216
 1878 08de 14000000 		.4byte	.LFE216-.LFB216
 1879 08e2 01       		.uleb128 0x1
 1880 08e3 9C       		.byte	0x9c
 1881 08e4 FF080000 		.4byte	0x8ff
 1882 08e8 25       		.uleb128 0x25
 1883 08e9 637000   		.ascii	"cp\000"
 1884 08ec 07       		.byte	0x7
 1885 08ed 4B       		.byte	0x4b
 1886 08ee FF080000 		.4byte	0x8ff
 1887 08f2 02       		.uleb128 0x2
 1888 08f3 91       		.byte	0x91
 1889 08f4 74       		.sleb128 -12
 1890 08f5 21       		.uleb128 0x21
 1891 08f6 FA040000 		.4byte	.LASF114
 1892 08fa 15090000 		.4byte	0x915
 1893 08fe 00       		.byte	0
 1894 08ff 0A       		.uleb128 0xa
 1895 0900 04       		.byte	0x4
 1896 0901 FB060000 		.4byte	0x6fb
 1897 0905 15       		.uleb128 0x15
 1898 0906 AA060000 		.4byte	0x6aa
 1899 090a 15090000 		.4byte	0x915
 1900 090e 16       		.uleb128 0x16
 1901 090f 3D040000 		.4byte	0x43d
 1902 0913 10       		.byte	0x10
 1903 0914 00       		.byte	0
 1904 0915 14       		.uleb128 0x14
 1905 0916 05090000 		.4byte	0x905
 1906 091a 24       		.uleb128 0x24
 1907 091b D3010000 		.4byte	.LASF116
 1908 091f 07       		.byte	0x7
 1909 0920 59       		.byte	0x59
 1910 0921 00000000 		.4byte	.LFB217
 1911 0925 34000000 		.4byte	.LFE217-.LFB217
 1912 0929 01       		.uleb128 0x1
 1913 092a 9C       		.byte	0x9c
 1914 092b 46090000 		.4byte	0x946
 1915 092f 25       		.uleb128 0x25
 1916 0930 637000   		.ascii	"cp\000"
 1917 0933 07       		.byte	0x7
 1918 0934 59       		.byte	0x59
 1919 0935 FF080000 		.4byte	0x8ff
 1920 0939 02       		.uleb128 0x2
ARM GAS  /tmp/ccHfAbIj.s 			page 35


 1921 093a 91       		.byte	0x91
 1922 093b 74       		.sleb128 -12
 1923 093c 21       		.uleb128 0x21
 1924 093d FA040000 		.4byte	.LASF114
 1925 0941 56090000 		.4byte	0x956
 1926 0945 00       		.byte	0
 1927 0946 15       		.uleb128 0x15
 1928 0947 AA060000 		.4byte	0x6aa
 1929 094b 56090000 		.4byte	0x956
 1930 094f 16       		.uleb128 0x16
 1931 0950 3D040000 		.4byte	0x43d
 1932 0954 0C       		.byte	0xc
 1933 0955 00       		.byte	0
 1934 0956 14       		.uleb128 0x14
 1935 0957 46090000 		.4byte	0x946
 1936 095b 24       		.uleb128 0x24
 1937 095c 97040000 		.4byte	.LASF117
 1938 0960 07       		.byte	0x7
 1939 0961 6F       		.byte	0x6f
 1940 0962 00000000 		.4byte	.LFB218
 1941 0966 30000000 		.4byte	.LFE218-.LFB218
 1942 096a 01       		.uleb128 0x1
 1943 096b 9C       		.byte	0x9c
 1944 096c 9E090000 		.4byte	0x99e
 1945 0970 25       		.uleb128 0x25
 1946 0971 637000   		.ascii	"cp\000"
 1947 0974 07       		.byte	0x7
 1948 0975 6F       		.byte	0x6f
 1949 0976 FF080000 		.4byte	0x8ff
 1950 097a 02       		.uleb128 0x2
 1951 097b 91       		.byte	0x91
 1952 097c 6C       		.sleb128 -20
 1953 097d 21       		.uleb128 0x21
 1954 097e FA040000 		.4byte	.LASF114
 1955 0982 AE090000 		.4byte	0x9ae
 1956 0986 26       		.uleb128 0x26
 1957 0987 14000000 		.4byte	.LBB10
 1958 098b 16000000 		.4byte	.LBE10-.LBB10
 1959 098f 27       		.uleb128 0x27
 1960 0990 747000   		.ascii	"tp\000"
 1961 0993 07       		.byte	0x7
 1962 0994 75       		.byte	0x75
 1963 0995 2A020000 		.4byte	0x22a
 1964 0999 02       		.uleb128 0x2
 1965 099a 91       		.byte	0x91
 1966 099b 74       		.sleb128 -12
 1967 099c 00       		.byte	0
 1968 099d 00       		.byte	0
 1969 099e 15       		.uleb128 0x15
 1970 099f AA060000 		.4byte	0x6aa
 1971 09a3 AE090000 		.4byte	0x9ae
 1972 09a7 16       		.uleb128 0x16
 1973 09a8 3D040000 		.4byte	0x43d
 1974 09ac 0D       		.byte	0xd
 1975 09ad 00       		.byte	0
 1976 09ae 14       		.uleb128 0x14
 1977 09af 9E090000 		.4byte	0x99e
ARM GAS  /tmp/ccHfAbIj.s 			page 36


 1978 09b3 24       		.uleb128 0x24
 1979 09b4 55040000 		.4byte	.LASF118
 1980 09b8 07       		.byte	0x7
 1981 09b9 82       		.byte	0x82
 1982 09ba 00000000 		.4byte	.LFB219
 1983 09be 1E000000 		.4byte	.LFE219-.LFB219
 1984 09c2 01       		.uleb128 0x1
 1985 09c3 9C       		.byte	0x9c
 1986 09c4 D6090000 		.4byte	0x9d6
 1987 09c8 25       		.uleb128 0x25
 1988 09c9 637000   		.ascii	"cp\000"
 1989 09cc 07       		.byte	0x7
 1990 09cd 82       		.byte	0x82
 1991 09ce FF080000 		.4byte	0x8ff
 1992 09d2 02       		.uleb128 0x2
 1993 09d3 91       		.byte	0x91
 1994 09d4 74       		.sleb128 -12
 1995 09d5 00       		.byte	0
 1996 09d6 24       		.uleb128 0x24
 1997 09d7 5D000000 		.4byte	.LASF119
 1998 09db 07       		.byte	0x7
 1999 09dc 95       		.byte	0x95
 2000 09dd 00000000 		.4byte	.LFB220
 2001 09e1 34000000 		.4byte	.LFE220-.LFB220
 2002 09e5 01       		.uleb128 0x1
 2003 09e6 9C       		.byte	0x9c
 2004 09e7 020A0000 		.4byte	0xa02
 2005 09eb 25       		.uleb128 0x25
 2006 09ec 637000   		.ascii	"cp\000"
 2007 09ef 07       		.byte	0x7
 2008 09f0 95       		.byte	0x95
 2009 09f1 FF080000 		.4byte	0x8ff
 2010 09f5 02       		.uleb128 0x2
 2011 09f6 91       		.byte	0x91
 2012 09f7 74       		.sleb128 -12
 2013 09f8 21       		.uleb128 0x21
 2014 09f9 FA040000 		.4byte	.LASF114
 2015 09fd 020A0000 		.4byte	0xa02
 2016 0a01 00       		.byte	0
 2017 0a02 14       		.uleb128 0x14
 2018 0a03 05090000 		.4byte	0x905
 2019 0a07 28       		.uleb128 0x28
 2020 0a08 17060000 		.4byte	.LASF120
 2021 0a0c 07       		.byte	0x7
 2022 0a0d B3       		.byte	0xb3
 2023 0a0e FB000000 		.4byte	0xfb
 2024 0a12 00000000 		.4byte	.LFB221
 2025 0a16 20000000 		.4byte	.LFE221-.LFB221
 2026 0a1a 01       		.uleb128 0x1
 2027 0a1b 9C       		.byte	0x9c
 2028 0a1c 3C0A0000 		.4byte	0xa3c
 2029 0a20 25       		.uleb128 0x25
 2030 0a21 637000   		.ascii	"cp\000"
 2031 0a24 07       		.byte	0x7
 2032 0a25 B3       		.byte	0xb3
 2033 0a26 FF080000 		.4byte	0x8ff
 2034 0a2a 02       		.uleb128 0x2
ARM GAS  /tmp/ccHfAbIj.s 			page 37


 2035 0a2b 91       		.byte	0x91
 2036 0a2c 6C       		.sleb128 -20
 2037 0a2d 27       		.uleb128 0x27
 2038 0a2e 6D736700 		.ascii	"msg\000"
 2039 0a32 07       		.byte	0x7
 2040 0a33 B4       		.byte	0xb4
 2041 0a34 FB000000 		.4byte	0xfb
 2042 0a38 02       		.uleb128 0x2
 2043 0a39 91       		.byte	0x91
 2044 0a3a 74       		.sleb128 -12
 2045 0a3b 00       		.byte	0
 2046 0a3c 28       		.uleb128 0x28
 2047 0a3d 90050000 		.4byte	.LASF121
 2048 0a41 07       		.byte	0x7
 2049 0a42 CD       		.byte	0xcd
 2050 0a43 FB000000 		.4byte	0xfb
 2051 0a47 00000000 		.4byte	.LFB222
 2052 0a4b 48000000 		.4byte	.LFE222-.LFB222
 2053 0a4f 01       		.uleb128 0x1
 2054 0a50 9C       		.byte	0x9c
 2055 0a51 950A0000 		.4byte	0xa95
 2056 0a55 25       		.uleb128 0x25
 2057 0a56 637000   		.ascii	"cp\000"
 2058 0a59 07       		.byte	0x7
 2059 0a5a CD       		.byte	0xcd
 2060 0a5b FF080000 		.4byte	0x8ff
 2061 0a5f 02       		.uleb128 0x2
 2062 0a60 91       		.byte	0x91
 2063 0a61 64       		.sleb128 -28
 2064 0a62 27       		.uleb128 0x27
 2065 0a63 63747000 		.ascii	"ctp\000"
 2066 0a67 07       		.byte	0x7
 2067 0a68 CE       		.byte	0xce
 2068 0a69 2A020000 		.4byte	0x22a
 2069 0a6d 02       		.uleb128 0x2
 2070 0a6e 91       		.byte	0x91
 2071 0a6f 74       		.sleb128 -12
 2072 0a70 27       		.uleb128 0x27
 2073 0a71 6D7000   		.ascii	"mp\000"
 2074 0a74 07       		.byte	0x7
 2075 0a75 CF       		.byte	0xcf
 2076 0a76 DC060000 		.4byte	0x6dc
 2077 0a7a 02       		.uleb128 0x2
 2078 0a7b 91       		.byte	0x91
 2079 0a7c 70       		.sleb128 -16
 2080 0a7d 27       		.uleb128 0x27
 2081 0a7e 6D736700 		.ascii	"msg\000"
 2082 0a82 07       		.byte	0x7
 2083 0a83 D0       		.byte	0xd0
 2084 0a84 FB000000 		.4byte	0xfb
 2085 0a88 02       		.uleb128 0x2
 2086 0a89 91       		.byte	0x91
 2087 0a8a 6C       		.sleb128 -20
 2088 0a8b 21       		.uleb128 0x21
 2089 0a8c FA040000 		.4byte	.LASF114
 2090 0a90 950A0000 		.4byte	0xa95
 2091 0a94 00       		.byte	0
ARM GAS  /tmp/ccHfAbIj.s 			page 38


 2092 0a95 14       		.uleb128 0x14
 2093 0a96 94080000 		.4byte	0x894
 2094 0a9a 29       		.uleb128 0x29
 2095 0a9b 7C060000 		.4byte	.LASF122
 2096 0a9f 07       		.byte	0x7
 2097 0aa0 0201     		.2byte	0x102
 2098 0aa2 FB000000 		.4byte	0xfb
 2099 0aa6 00000000 		.4byte	.LFB223
 2100 0aaa 24000000 		.4byte	.LFE223-.LFB223
 2101 0aae 01       		.uleb128 0x1
 2102 0aaf 9C       		.byte	0x9c
 2103 0ab0 E10A0000 		.4byte	0xae1
 2104 0ab4 1C       		.uleb128 0x1c
 2105 0ab5 637000   		.ascii	"cp\000"
 2106 0ab8 07       		.byte	0x7
 2107 0ab9 0201     		.2byte	0x102
 2108 0abb FF080000 		.4byte	0x8ff
 2109 0abf 02       		.uleb128 0x2
 2110 0ac0 91       		.byte	0x91
 2111 0ac1 6C       		.sleb128 -20
 2112 0ac2 2A       		.uleb128 0x2a
 2113 0ac3 3E040000 		.4byte	.LASF123
 2114 0ac7 07       		.byte	0x7
 2115 0ac8 0201     		.2byte	0x102
 2116 0aca 1C010000 		.4byte	0x11c
 2117 0ace 02       		.uleb128 0x2
 2118 0acf 91       		.byte	0x91
 2119 0ad0 68       		.sleb128 -24
 2120 0ad1 1E       		.uleb128 0x1e
 2121 0ad2 6D736700 		.ascii	"msg\000"
 2122 0ad6 07       		.byte	0x7
 2123 0ad7 0301     		.2byte	0x103
 2124 0ad9 FB000000 		.4byte	0xfb
 2125 0add 02       		.uleb128 0x2
 2126 0ade 91       		.byte	0x91
 2127 0adf 74       		.sleb128 -12
 2128 0ae0 00       		.byte	0
 2129 0ae1 29       		.uleb128 0x29
 2130 0ae2 05040000 		.4byte	.LASF124
 2131 0ae6 07       		.byte	0x7
 2132 0ae7 2801     		.2byte	0x128
 2133 0ae9 FB000000 		.4byte	0xfb
 2134 0aed 00000000 		.4byte	.LFB224
 2135 0af1 50000000 		.4byte	.LFE224-.LFB224
 2136 0af5 01       		.uleb128 0x1
 2137 0af6 9C       		.byte	0x9c
 2138 0af7 3F0B0000 		.4byte	0xb3f
 2139 0afb 1C       		.uleb128 0x1c
 2140 0afc 637000   		.ascii	"cp\000"
 2141 0aff 07       		.byte	0x7
 2142 0b00 2801     		.2byte	0x128
 2143 0b02 FF080000 		.4byte	0x8ff
 2144 0b06 02       		.uleb128 0x2
 2145 0b07 91       		.byte	0x91
 2146 0b08 6C       		.sleb128 -20
 2147 0b09 2A       		.uleb128 0x2a
 2148 0b0a 3E040000 		.4byte	.LASF123
ARM GAS  /tmp/ccHfAbIj.s 			page 39


 2149 0b0e 07       		.byte	0x7
 2150 0b0f 2801     		.2byte	0x128
 2151 0b11 1C010000 		.4byte	0x11c
 2152 0b15 02       		.uleb128 0x2
 2153 0b16 91       		.byte	0x91
 2154 0b17 68       		.sleb128 -24
 2155 0b18 1E       		.uleb128 0x1e
 2156 0b19 6D7000   		.ascii	"mp\000"
 2157 0b1c 07       		.byte	0x7
 2158 0b1d 2901     		.2byte	0x129
 2159 0b1f DC060000 		.4byte	0x6dc
 2160 0b23 02       		.uleb128 0x2
 2161 0b24 91       		.byte	0x91
 2162 0b25 74       		.sleb128 -12
 2163 0b26 1E       		.uleb128 0x1e
 2164 0b27 6D736700 		.ascii	"msg\000"
 2165 0b2b 07       		.byte	0x7
 2166 0b2c 2A01     		.2byte	0x12a
 2167 0b2e FB000000 		.4byte	0xfb
 2168 0b32 02       		.uleb128 0x2
 2169 0b33 91       		.byte	0x91
 2170 0b34 70       		.sleb128 -16
 2171 0b35 21       		.uleb128 0x21
 2172 0b36 FA040000 		.4byte	.LASF114
 2173 0b3a 4F0B0000 		.4byte	0xb4f
 2174 0b3e 00       		.byte	0
 2175 0b3f 15       		.uleb128 0x15
 2176 0b40 AA060000 		.4byte	0x6aa
 2177 0b44 4F0B0000 		.4byte	0xb4f
 2178 0b48 16       		.uleb128 0x16
 2179 0b49 3D040000 		.4byte	0x43d
 2180 0b4d 12       		.byte	0x12
 2181 0b4e 00       		.byte	0
 2182 0b4f 14       		.uleb128 0x14
 2183 0b50 3F0B0000 		.4byte	0xb3f
 2184 0b54 2B       		.uleb128 0x2b
 2185 0b55 EA000000 		.4byte	.LASF125
 2186 0b59 10       		.byte	0x10
 2187 0b5a A706     		.2byte	0x6a7
 2188 0b5c BF000000 		.4byte	0xbf
 2189 0b60 2C       		.uleb128 0x2c
 2190 0b61 636800   		.ascii	"ch\000"
 2191 0b64 03       		.byte	0x3
 2192 0b65 0902     		.2byte	0x209
 2193 0b67 D6030000 		.4byte	0x3d6
 2194 0b6b 00       		.byte	0
 2195              		.section	.debug_abbrev,"",%progbits
 2196              	.Ldebug_abbrev0:
 2197 0000 01       		.uleb128 0x1
 2198 0001 11       		.uleb128 0x11
 2199 0002 01       		.byte	0x1
 2200 0003 25       		.uleb128 0x25
 2201 0004 0E       		.uleb128 0xe
 2202 0005 13       		.uleb128 0x13
 2203 0006 0B       		.uleb128 0xb
 2204 0007 03       		.uleb128 0x3
 2205 0008 0E       		.uleb128 0xe
ARM GAS  /tmp/ccHfAbIj.s 			page 40


 2206 0009 55       		.uleb128 0x55
 2207 000a 17       		.uleb128 0x17
 2208 000b 11       		.uleb128 0x11
 2209 000c 01       		.uleb128 0x1
 2210 000d 10       		.uleb128 0x10
 2211 000e 17       		.uleb128 0x17
 2212 000f 00       		.byte	0
 2213 0010 00       		.byte	0
 2214 0011 02       		.uleb128 0x2
 2215 0012 24       		.uleb128 0x24
 2216 0013 00       		.byte	0
 2217 0014 0B       		.uleb128 0xb
 2218 0015 0B       		.uleb128 0xb
 2219 0016 3E       		.uleb128 0x3e
 2220 0017 0B       		.uleb128 0xb
 2221 0018 03       		.uleb128 0x3
 2222 0019 08       		.uleb128 0x8
 2223 001a 00       		.byte	0
 2224 001b 00       		.byte	0
 2225 001c 03       		.uleb128 0x3
 2226 001d 24       		.uleb128 0x24
 2227 001e 00       		.byte	0
 2228 001f 0B       		.uleb128 0xb
 2229 0020 0B       		.uleb128 0xb
 2230 0021 3E       		.uleb128 0x3e
 2231 0022 0B       		.uleb128 0xb
 2232 0023 03       		.uleb128 0x3
 2233 0024 0E       		.uleb128 0xe
 2234 0025 00       		.byte	0
 2235 0026 00       		.byte	0
 2236 0027 04       		.uleb128 0x4
 2237 0028 16       		.uleb128 0x16
 2238 0029 00       		.byte	0
 2239 002a 03       		.uleb128 0x3
 2240 002b 0E       		.uleb128 0xe
 2241 002c 3A       		.uleb128 0x3a
 2242 002d 0B       		.uleb128 0xb
 2243 002e 3B       		.uleb128 0x3b
 2244 002f 0B       		.uleb128 0xb
 2245 0030 49       		.uleb128 0x49
 2246 0031 13       		.uleb128 0x13
 2247 0032 00       		.byte	0
 2248 0033 00       		.byte	0
 2249 0034 05       		.uleb128 0x5
 2250 0035 35       		.uleb128 0x35
 2251 0036 00       		.byte	0
 2252 0037 49       		.uleb128 0x49
 2253 0038 13       		.uleb128 0x13
 2254 0039 00       		.byte	0
 2255 003a 00       		.byte	0
 2256 003b 06       		.uleb128 0x6
 2257 003c 13       		.uleb128 0x13
 2258 003d 01       		.byte	0x1
 2259 003e 03       		.uleb128 0x3
 2260 003f 0E       		.uleb128 0xe
 2261 0040 0B       		.uleb128 0xb
 2262 0041 0B       		.uleb128 0xb
ARM GAS  /tmp/ccHfAbIj.s 			page 41


 2263 0042 3A       		.uleb128 0x3a
 2264 0043 0B       		.uleb128 0xb
 2265 0044 3B       		.uleb128 0x3b
 2266 0045 0B       		.uleb128 0xb
 2267 0046 01       		.uleb128 0x1
 2268 0047 13       		.uleb128 0x13
 2269 0048 00       		.byte	0
 2270 0049 00       		.byte	0
 2271 004a 07       		.uleb128 0x7
 2272 004b 0D       		.uleb128 0xd
 2273 004c 00       		.byte	0
 2274 004d 03       		.uleb128 0x3
 2275 004e 0E       		.uleb128 0xe
 2276 004f 3A       		.uleb128 0x3a
 2277 0050 0B       		.uleb128 0xb
 2278 0051 3B       		.uleb128 0x3b
 2279 0052 0B       		.uleb128 0xb
 2280 0053 49       		.uleb128 0x49
 2281 0054 13       		.uleb128 0x13
 2282 0055 38       		.uleb128 0x38
 2283 0056 0B       		.uleb128 0xb
 2284 0057 00       		.byte	0
 2285 0058 00       		.byte	0
 2286 0059 08       		.uleb128 0x8
 2287 005a 0D       		.uleb128 0xd
 2288 005b 00       		.byte	0
 2289 005c 03       		.uleb128 0x3
 2290 005d 08       		.uleb128 0x8
 2291 005e 3A       		.uleb128 0x3a
 2292 005f 0B       		.uleb128 0xb
 2293 0060 3B       		.uleb128 0x3b
 2294 0061 05       		.uleb128 0x5
 2295 0062 49       		.uleb128 0x49
 2296 0063 13       		.uleb128 0x13
 2297 0064 38       		.uleb128 0x38
 2298 0065 0B       		.uleb128 0xb
 2299 0066 00       		.byte	0
 2300 0067 00       		.byte	0
 2301 0068 09       		.uleb128 0x9
 2302 0069 0D       		.uleb128 0xd
 2303 006a 00       		.byte	0
 2304 006b 03       		.uleb128 0x3
 2305 006c 0E       		.uleb128 0xe
 2306 006d 3A       		.uleb128 0x3a
 2307 006e 0B       		.uleb128 0xb
 2308 006f 3B       		.uleb128 0x3b
 2309 0070 05       		.uleb128 0x5
 2310 0071 49       		.uleb128 0x49
 2311 0072 13       		.uleb128 0x13
 2312 0073 38       		.uleb128 0x38
 2313 0074 0B       		.uleb128 0xb
 2314 0075 00       		.byte	0
 2315 0076 00       		.byte	0
 2316 0077 0A       		.uleb128 0xa
 2317 0078 0F       		.uleb128 0xf
 2318 0079 00       		.byte	0
 2319 007a 0B       		.uleb128 0xb
ARM GAS  /tmp/ccHfAbIj.s 			page 42


 2320 007b 0B       		.uleb128 0xb
 2321 007c 49       		.uleb128 0x49
 2322 007d 13       		.uleb128 0x13
 2323 007e 00       		.byte	0
 2324 007f 00       		.byte	0
 2325 0080 0B       		.uleb128 0xb
 2326 0081 13       		.uleb128 0x13
 2327 0082 01       		.byte	0x1
 2328 0083 03       		.uleb128 0x3
 2329 0084 0E       		.uleb128 0xe
 2330 0085 0B       		.uleb128 0xb
 2331 0086 0B       		.uleb128 0xb
 2332 0087 3A       		.uleb128 0x3a
 2333 0088 0B       		.uleb128 0xb
 2334 0089 3B       		.uleb128 0x3b
 2335 008a 05       		.uleb128 0x5
 2336 008b 01       		.uleb128 0x1
 2337 008c 13       		.uleb128 0x13
 2338 008d 00       		.byte	0
 2339 008e 00       		.byte	0
 2340 008f 0C       		.uleb128 0xc
 2341 0090 15       		.uleb128 0x15
 2342 0091 01       		.byte	0x1
 2343 0092 27       		.uleb128 0x27
 2344 0093 19       		.uleb128 0x19
 2345 0094 01       		.uleb128 0x1
 2346 0095 13       		.uleb128 0x13
 2347 0096 00       		.byte	0
 2348 0097 00       		.byte	0
 2349 0098 0D       		.uleb128 0xd
 2350 0099 05       		.uleb128 0x5
 2351 009a 00       		.byte	0
 2352 009b 49       		.uleb128 0x49
 2353 009c 13       		.uleb128 0x13
 2354 009d 00       		.byte	0
 2355 009e 00       		.byte	0
 2356 009f 0E       		.uleb128 0xe
 2357 00a0 0F       		.uleb128 0xf
 2358 00a1 00       		.byte	0
 2359 00a2 0B       		.uleb128 0xb
 2360 00a3 0B       		.uleb128 0xb
 2361 00a4 00       		.byte	0
 2362 00a5 00       		.byte	0
 2363 00a6 0F       		.uleb128 0xf
 2364 00a7 13       		.uleb128 0x13
 2365 00a8 01       		.byte	0x1
 2366 00a9 03       		.uleb128 0x3
 2367 00aa 0E       		.uleb128 0xe
 2368 00ab 0B       		.uleb128 0xb
 2369 00ac 05       		.uleb128 0x5
 2370 00ad 3A       		.uleb128 0x3a
 2371 00ae 0B       		.uleb128 0xb
 2372 00af 3B       		.uleb128 0x3b
 2373 00b0 05       		.uleb128 0x5
 2374 00b1 01       		.uleb128 0x1
 2375 00b2 13       		.uleb128 0x13
 2376 00b3 00       		.byte	0
ARM GAS  /tmp/ccHfAbIj.s 			page 43


 2377 00b4 00       		.byte	0
 2378 00b5 10       		.uleb128 0x10
 2379 00b6 0D       		.uleb128 0xd
 2380 00b7 00       		.byte	0
 2381 00b8 03       		.uleb128 0x3
 2382 00b9 08       		.uleb128 0x8
 2383 00ba 3A       		.uleb128 0x3a
 2384 00bb 0B       		.uleb128 0xb
 2385 00bc 3B       		.uleb128 0x3b
 2386 00bd 0B       		.uleb128 0xb
 2387 00be 49       		.uleb128 0x49
 2388 00bf 13       		.uleb128 0x13
 2389 00c0 38       		.uleb128 0x38
 2390 00c1 0B       		.uleb128 0xb
 2391 00c2 00       		.byte	0
 2392 00c3 00       		.byte	0
 2393 00c4 11       		.uleb128 0x11
 2394 00c5 13       		.uleb128 0x13
 2395 00c6 01       		.byte	0x1
 2396 00c7 0B       		.uleb128 0xb
 2397 00c8 0B       		.uleb128 0xb
 2398 00c9 3A       		.uleb128 0x3a
 2399 00ca 0B       		.uleb128 0xb
 2400 00cb 3B       		.uleb128 0x3b
 2401 00cc 0B       		.uleb128 0xb
 2402 00cd 01       		.uleb128 0x1
 2403 00ce 13       		.uleb128 0x13
 2404 00cf 00       		.byte	0
 2405 00d0 00       		.byte	0
 2406 00d1 12       		.uleb128 0x12
 2407 00d2 17       		.uleb128 0x17
 2408 00d3 01       		.byte	0x1
 2409 00d4 0B       		.uleb128 0xb
 2410 00d5 0B       		.uleb128 0xb
 2411 00d6 3A       		.uleb128 0x3a
 2412 00d7 0B       		.uleb128 0xb
 2413 00d8 3B       		.uleb128 0x3b
 2414 00d9 0B       		.uleb128 0xb
 2415 00da 01       		.uleb128 0x1
 2416 00db 13       		.uleb128 0x13
 2417 00dc 00       		.byte	0
 2418 00dd 00       		.byte	0
 2419 00de 13       		.uleb128 0x13
 2420 00df 0D       		.uleb128 0xd
 2421 00e0 00       		.byte	0
 2422 00e1 03       		.uleb128 0x3
 2423 00e2 0E       		.uleb128 0xe
 2424 00e3 3A       		.uleb128 0x3a
 2425 00e4 0B       		.uleb128 0xb
 2426 00e5 3B       		.uleb128 0x3b
 2427 00e6 05       		.uleb128 0x5
 2428 00e7 49       		.uleb128 0x49
 2429 00e8 13       		.uleb128 0x13
 2430 00e9 00       		.byte	0
 2431 00ea 00       		.byte	0
 2432 00eb 14       		.uleb128 0x14
 2433 00ec 26       		.uleb128 0x26
ARM GAS  /tmp/ccHfAbIj.s 			page 44


 2434 00ed 00       		.byte	0
 2435 00ee 49       		.uleb128 0x49
 2436 00ef 13       		.uleb128 0x13
 2437 00f0 00       		.byte	0
 2438 00f1 00       		.byte	0
 2439 00f2 15       		.uleb128 0x15
 2440 00f3 01       		.uleb128 0x1
 2441 00f4 01       		.byte	0x1
 2442 00f5 49       		.uleb128 0x49
 2443 00f6 13       		.uleb128 0x13
 2444 00f7 01       		.uleb128 0x1
 2445 00f8 13       		.uleb128 0x13
 2446 00f9 00       		.byte	0
 2447 00fa 00       		.byte	0
 2448 00fb 16       		.uleb128 0x16
 2449 00fc 21       		.uleb128 0x21
 2450 00fd 00       		.byte	0
 2451 00fe 49       		.uleb128 0x49
 2452 00ff 13       		.uleb128 0x13
 2453 0100 2F       		.uleb128 0x2f
 2454 0101 0B       		.uleb128 0xb
 2455 0102 00       		.byte	0
 2456 0103 00       		.byte	0
 2457 0104 17       		.uleb128 0x17
 2458 0105 2E       		.uleb128 0x2e
 2459 0106 01       		.byte	0x1
 2460 0107 03       		.uleb128 0x3
 2461 0108 0E       		.uleb128 0xe
 2462 0109 3A       		.uleb128 0x3a
 2463 010a 0B       		.uleb128 0xb
 2464 010b 3B       		.uleb128 0x3b
 2465 010c 05       		.uleb128 0x5
 2466 010d 27       		.uleb128 0x27
 2467 010e 19       		.uleb128 0x19
 2468 010f 20       		.uleb128 0x20
 2469 0110 0B       		.uleb128 0xb
 2470 0111 01       		.uleb128 0x1
 2471 0112 13       		.uleb128 0x13
 2472 0113 00       		.byte	0
 2473 0114 00       		.byte	0
 2474 0115 18       		.uleb128 0x18
 2475 0116 05       		.uleb128 0x5
 2476 0117 00       		.byte	0
 2477 0118 03       		.uleb128 0x3
 2478 0119 0E       		.uleb128 0xe
 2479 011a 3A       		.uleb128 0x3a
 2480 011b 0B       		.uleb128 0xb
 2481 011c 3B       		.uleb128 0x3b
 2482 011d 05       		.uleb128 0x5
 2483 011e 49       		.uleb128 0x49
 2484 011f 13       		.uleb128 0x13
 2485 0120 00       		.byte	0
 2486 0121 00       		.byte	0
 2487 0122 19       		.uleb128 0x19
 2488 0123 2E       		.uleb128 0x2e
 2489 0124 01       		.byte	0x1
 2490 0125 03       		.uleb128 0x3
ARM GAS  /tmp/ccHfAbIj.s 			page 45


 2491 0126 0E       		.uleb128 0xe
 2492 0127 3A       		.uleb128 0x3a
 2493 0128 0B       		.uleb128 0xb
 2494 0129 3B       		.uleb128 0x3b
 2495 012a 05       		.uleb128 0x5
 2496 012b 27       		.uleb128 0x27
 2497 012c 19       		.uleb128 0x19
 2498 012d 11       		.uleb128 0x11
 2499 012e 01       		.uleb128 0x1
 2500 012f 12       		.uleb128 0x12
 2501 0130 06       		.uleb128 0x6
 2502 0131 40       		.uleb128 0x40
 2503 0132 18       		.uleb128 0x18
 2504 0133 9742     		.uleb128 0x2117
 2505 0135 19       		.uleb128 0x19
 2506 0136 01       		.uleb128 0x1
 2507 0137 13       		.uleb128 0x13
 2508 0138 00       		.byte	0
 2509 0139 00       		.byte	0
 2510 013a 1A       		.uleb128 0x1a
 2511 013b 1D       		.uleb128 0x1d
 2512 013c 01       		.byte	0x1
 2513 013d 31       		.uleb128 0x31
 2514 013e 13       		.uleb128 0x13
 2515 013f 11       		.uleb128 0x11
 2516 0140 01       		.uleb128 0x1
 2517 0141 12       		.uleb128 0x12
 2518 0142 06       		.uleb128 0x6
 2519 0143 58       		.uleb128 0x58
 2520 0144 0B       		.uleb128 0xb
 2521 0145 59       		.uleb128 0x59
 2522 0146 05       		.uleb128 0x5
 2523 0147 00       		.byte	0
 2524 0148 00       		.byte	0
 2525 0149 1B       		.uleb128 0x1b
 2526 014a 05       		.uleb128 0x5
 2527 014b 00       		.byte	0
 2528 014c 31       		.uleb128 0x31
 2529 014d 13       		.uleb128 0x13
 2530 014e 02       		.uleb128 0x2
 2531 014f 18       		.uleb128 0x18
 2532 0150 00       		.byte	0
 2533 0151 00       		.byte	0
 2534 0152 1C       		.uleb128 0x1c
 2535 0153 05       		.uleb128 0x5
 2536 0154 00       		.byte	0
 2537 0155 03       		.uleb128 0x3
 2538 0156 08       		.uleb128 0x8
 2539 0157 3A       		.uleb128 0x3a
 2540 0158 0B       		.uleb128 0xb
 2541 0159 3B       		.uleb128 0x3b
 2542 015a 05       		.uleb128 0x5
 2543 015b 49       		.uleb128 0x49
 2544 015c 13       		.uleb128 0x13
 2545 015d 02       		.uleb128 0x2
 2546 015e 18       		.uleb128 0x18
 2547 015f 00       		.byte	0
ARM GAS  /tmp/ccHfAbIj.s 			page 46


 2548 0160 00       		.byte	0
 2549 0161 1D       		.uleb128 0x1d
 2550 0162 2E       		.uleb128 0x2e
 2551 0163 01       		.byte	0x1
 2552 0164 03       		.uleb128 0x3
 2553 0165 0E       		.uleb128 0xe
 2554 0166 3A       		.uleb128 0x3a
 2555 0167 0B       		.uleb128 0xb
 2556 0168 3B       		.uleb128 0x3b
 2557 0169 05       		.uleb128 0x5
 2558 016a 27       		.uleb128 0x27
 2559 016b 19       		.uleb128 0x19
 2560 016c 49       		.uleb128 0x49
 2561 016d 13       		.uleb128 0x13
 2562 016e 11       		.uleb128 0x11
 2563 016f 01       		.uleb128 0x1
 2564 0170 12       		.uleb128 0x12
 2565 0171 06       		.uleb128 0x6
 2566 0172 40       		.uleb128 0x40
 2567 0173 18       		.uleb128 0x18
 2568 0174 9742     		.uleb128 0x2117
 2569 0176 19       		.uleb128 0x19
 2570 0177 01       		.uleb128 0x1
 2571 0178 13       		.uleb128 0x13
 2572 0179 00       		.byte	0
 2573 017a 00       		.byte	0
 2574 017b 1E       		.uleb128 0x1e
 2575 017c 34       		.uleb128 0x34
 2576 017d 00       		.byte	0
 2577 017e 03       		.uleb128 0x3
 2578 017f 08       		.uleb128 0x8
 2579 0180 3A       		.uleb128 0x3a
 2580 0181 0B       		.uleb128 0xb
 2581 0182 3B       		.uleb128 0x3b
 2582 0183 05       		.uleb128 0x5
 2583 0184 49       		.uleb128 0x49
 2584 0185 13       		.uleb128 0x13
 2585 0186 02       		.uleb128 0x2
 2586 0187 18       		.uleb128 0x18
 2587 0188 00       		.byte	0
 2588 0189 00       		.byte	0
 2589 018a 1F       		.uleb128 0x1f
 2590 018b 2E       		.uleb128 0x2e
 2591 018c 00       		.byte	0
 2592 018d 03       		.uleb128 0x3
 2593 018e 0E       		.uleb128 0xe
 2594 018f 3A       		.uleb128 0x3a
 2595 0190 0B       		.uleb128 0xb
 2596 0191 3B       		.uleb128 0x3b
 2597 0192 05       		.uleb128 0x5
 2598 0193 27       		.uleb128 0x27
 2599 0194 19       		.uleb128 0x19
 2600 0195 11       		.uleb128 0x11
 2601 0196 01       		.uleb128 0x1
 2602 0197 12       		.uleb128 0x12
 2603 0198 06       		.uleb128 0x6
 2604 0199 40       		.uleb128 0x40
ARM GAS  /tmp/ccHfAbIj.s 			page 47


 2605 019a 18       		.uleb128 0x18
 2606 019b 9642     		.uleb128 0x2116
 2607 019d 19       		.uleb128 0x19
 2608 019e 00       		.byte	0
 2609 019f 00       		.byte	0
 2610 01a0 20       		.uleb128 0x20
 2611 01a1 2E       		.uleb128 0x2e
 2612 01a2 01       		.byte	0x1
 2613 01a3 03       		.uleb128 0x3
 2614 01a4 0E       		.uleb128 0xe
 2615 01a5 3A       		.uleb128 0x3a
 2616 01a6 0B       		.uleb128 0xb
 2617 01a7 3B       		.uleb128 0x3b
 2618 01a8 05       		.uleb128 0x5
 2619 01a9 27       		.uleb128 0x27
 2620 01aa 19       		.uleb128 0x19
 2621 01ab 11       		.uleb128 0x11
 2622 01ac 01       		.uleb128 0x1
 2623 01ad 12       		.uleb128 0x12
 2624 01ae 06       		.uleb128 0x6
 2625 01af 40       		.uleb128 0x40
 2626 01b0 18       		.uleb128 0x18
 2627 01b1 9642     		.uleb128 0x2116
 2628 01b3 19       		.uleb128 0x19
 2629 01b4 01       		.uleb128 0x1
 2630 01b5 13       		.uleb128 0x13
 2631 01b6 00       		.byte	0
 2632 01b7 00       		.byte	0
 2633 01b8 21       		.uleb128 0x21
 2634 01b9 34       		.uleb128 0x34
 2635 01ba 00       		.byte	0
 2636 01bb 03       		.uleb128 0x3
 2637 01bc 0E       		.uleb128 0xe
 2638 01bd 49       		.uleb128 0x49
 2639 01be 13       		.uleb128 0x13
 2640 01bf 34       		.uleb128 0x34
 2641 01c0 19       		.uleb128 0x19
 2642 01c1 00       		.byte	0
 2643 01c2 00       		.byte	0
 2644 01c3 22       		.uleb128 0x22
 2645 01c4 2E       		.uleb128 0x2e
 2646 01c5 00       		.byte	0
 2647 01c6 03       		.uleb128 0x3
 2648 01c7 0E       		.uleb128 0xe
 2649 01c8 3A       		.uleb128 0x3a
 2650 01c9 0B       		.uleb128 0xb
 2651 01ca 3B       		.uleb128 0x3b
 2652 01cb 0B       		.uleb128 0xb
 2653 01cc 27       		.uleb128 0x27
 2654 01cd 19       		.uleb128 0x19
 2655 01ce 49       		.uleb128 0x49
 2656 01cf 13       		.uleb128 0x13
 2657 01d0 11       		.uleb128 0x11
 2658 01d1 01       		.uleb128 0x1
 2659 01d2 12       		.uleb128 0x12
 2660 01d3 06       		.uleb128 0x6
 2661 01d4 40       		.uleb128 0x40
ARM GAS  /tmp/ccHfAbIj.s 			page 48


 2662 01d5 18       		.uleb128 0x18
 2663 01d6 9742     		.uleb128 0x2117
 2664 01d8 19       		.uleb128 0x19
 2665 01d9 00       		.byte	0
 2666 01da 00       		.byte	0
 2667 01db 23       		.uleb128 0x23
 2668 01dc 2E       		.uleb128 0x2e
 2669 01dd 00       		.byte	0
 2670 01de 03       		.uleb128 0x3
 2671 01df 0E       		.uleb128 0xe
 2672 01e0 3A       		.uleb128 0x3a
 2673 01e1 0B       		.uleb128 0xb
 2674 01e2 3B       		.uleb128 0x3b
 2675 01e3 0B       		.uleb128 0xb
 2676 01e4 27       		.uleb128 0x27
 2677 01e5 19       		.uleb128 0x19
 2678 01e6 49       		.uleb128 0x49
 2679 01e7 13       		.uleb128 0x13
 2680 01e8 11       		.uleb128 0x11
 2681 01e9 01       		.uleb128 0x1
 2682 01ea 12       		.uleb128 0x12
 2683 01eb 06       		.uleb128 0x6
 2684 01ec 40       		.uleb128 0x40
 2685 01ed 18       		.uleb128 0x18
 2686 01ee 9642     		.uleb128 0x2116
 2687 01f0 19       		.uleb128 0x19
 2688 01f1 00       		.byte	0
 2689 01f2 00       		.byte	0
 2690 01f3 24       		.uleb128 0x24
 2691 01f4 2E       		.uleb128 0x2e
 2692 01f5 01       		.byte	0x1
 2693 01f6 3F       		.uleb128 0x3f
 2694 01f7 19       		.uleb128 0x19
 2695 01f8 03       		.uleb128 0x3
 2696 01f9 0E       		.uleb128 0xe
 2697 01fa 3A       		.uleb128 0x3a
 2698 01fb 0B       		.uleb128 0xb
 2699 01fc 3B       		.uleb128 0x3b
 2700 01fd 0B       		.uleb128 0xb
 2701 01fe 27       		.uleb128 0x27
 2702 01ff 19       		.uleb128 0x19
 2703 0200 11       		.uleb128 0x11
 2704 0201 01       		.uleb128 0x1
 2705 0202 12       		.uleb128 0x12
 2706 0203 06       		.uleb128 0x6
 2707 0204 40       		.uleb128 0x40
 2708 0205 18       		.uleb128 0x18
 2709 0206 9642     		.uleb128 0x2116
 2710 0208 19       		.uleb128 0x19
 2711 0209 01       		.uleb128 0x1
 2712 020a 13       		.uleb128 0x13
 2713 020b 00       		.byte	0
 2714 020c 00       		.byte	0
 2715 020d 25       		.uleb128 0x25
 2716 020e 05       		.uleb128 0x5
 2717 020f 00       		.byte	0
 2718 0210 03       		.uleb128 0x3
ARM GAS  /tmp/ccHfAbIj.s 			page 49


 2719 0211 08       		.uleb128 0x8
 2720 0212 3A       		.uleb128 0x3a
 2721 0213 0B       		.uleb128 0xb
 2722 0214 3B       		.uleb128 0x3b
 2723 0215 0B       		.uleb128 0xb
 2724 0216 49       		.uleb128 0x49
 2725 0217 13       		.uleb128 0x13
 2726 0218 02       		.uleb128 0x2
 2727 0219 18       		.uleb128 0x18
 2728 021a 00       		.byte	0
 2729 021b 00       		.byte	0
 2730 021c 26       		.uleb128 0x26
 2731 021d 0B       		.uleb128 0xb
 2732 021e 01       		.byte	0x1
 2733 021f 11       		.uleb128 0x11
 2734 0220 01       		.uleb128 0x1
 2735 0221 12       		.uleb128 0x12
 2736 0222 06       		.uleb128 0x6
 2737 0223 00       		.byte	0
 2738 0224 00       		.byte	0
 2739 0225 27       		.uleb128 0x27
 2740 0226 34       		.uleb128 0x34
 2741 0227 00       		.byte	0
 2742 0228 03       		.uleb128 0x3
 2743 0229 08       		.uleb128 0x8
 2744 022a 3A       		.uleb128 0x3a
 2745 022b 0B       		.uleb128 0xb
 2746 022c 3B       		.uleb128 0x3b
 2747 022d 0B       		.uleb128 0xb
 2748 022e 49       		.uleb128 0x49
 2749 022f 13       		.uleb128 0x13
 2750 0230 02       		.uleb128 0x2
 2751 0231 18       		.uleb128 0x18
 2752 0232 00       		.byte	0
 2753 0233 00       		.byte	0
 2754 0234 28       		.uleb128 0x28
 2755 0235 2E       		.uleb128 0x2e
 2756 0236 01       		.byte	0x1
 2757 0237 3F       		.uleb128 0x3f
 2758 0238 19       		.uleb128 0x19
 2759 0239 03       		.uleb128 0x3
 2760 023a 0E       		.uleb128 0xe
 2761 023b 3A       		.uleb128 0x3a
 2762 023c 0B       		.uleb128 0xb
 2763 023d 3B       		.uleb128 0x3b
 2764 023e 0B       		.uleb128 0xb
 2765 023f 27       		.uleb128 0x27
 2766 0240 19       		.uleb128 0x19
 2767 0241 49       		.uleb128 0x49
 2768 0242 13       		.uleb128 0x13
 2769 0243 11       		.uleb128 0x11
 2770 0244 01       		.uleb128 0x1
 2771 0245 12       		.uleb128 0x12
 2772 0246 06       		.uleb128 0x6
 2773 0247 40       		.uleb128 0x40
 2774 0248 18       		.uleb128 0x18
 2775 0249 9642     		.uleb128 0x2116
ARM GAS  /tmp/ccHfAbIj.s 			page 50


 2776 024b 19       		.uleb128 0x19
 2777 024c 01       		.uleb128 0x1
 2778 024d 13       		.uleb128 0x13
 2779 024e 00       		.byte	0
 2780 024f 00       		.byte	0
 2781 0250 29       		.uleb128 0x29
 2782 0251 2E       		.uleb128 0x2e
 2783 0252 01       		.byte	0x1
 2784 0253 3F       		.uleb128 0x3f
 2785 0254 19       		.uleb128 0x19
 2786 0255 03       		.uleb128 0x3
 2787 0256 0E       		.uleb128 0xe
 2788 0257 3A       		.uleb128 0x3a
 2789 0258 0B       		.uleb128 0xb
 2790 0259 3B       		.uleb128 0x3b
 2791 025a 05       		.uleb128 0x5
 2792 025b 27       		.uleb128 0x27
 2793 025c 19       		.uleb128 0x19
 2794 025d 49       		.uleb128 0x49
 2795 025e 13       		.uleb128 0x13
 2796 025f 11       		.uleb128 0x11
 2797 0260 01       		.uleb128 0x1
 2798 0261 12       		.uleb128 0x12
 2799 0262 06       		.uleb128 0x6
 2800 0263 40       		.uleb128 0x40
 2801 0264 18       		.uleb128 0x18
 2802 0265 9642     		.uleb128 0x2116
 2803 0267 19       		.uleb128 0x19
 2804 0268 01       		.uleb128 0x1
 2805 0269 13       		.uleb128 0x13
 2806 026a 00       		.byte	0
 2807 026b 00       		.byte	0
 2808 026c 2A       		.uleb128 0x2a
 2809 026d 05       		.uleb128 0x5
 2810 026e 00       		.byte	0
 2811 026f 03       		.uleb128 0x3
 2812 0270 0E       		.uleb128 0xe
 2813 0271 3A       		.uleb128 0x3a
 2814 0272 0B       		.uleb128 0xb
 2815 0273 3B       		.uleb128 0x3b
 2816 0274 05       		.uleb128 0x5
 2817 0275 49       		.uleb128 0x49
 2818 0276 13       		.uleb128 0x13
 2819 0277 02       		.uleb128 0x2
 2820 0278 18       		.uleb128 0x18
 2821 0279 00       		.byte	0
 2822 027a 00       		.byte	0
 2823 027b 2B       		.uleb128 0x2b
 2824 027c 34       		.uleb128 0x34
 2825 027d 00       		.byte	0
 2826 027e 03       		.uleb128 0x3
 2827 027f 0E       		.uleb128 0xe
 2828 0280 3A       		.uleb128 0x3a
 2829 0281 0B       		.uleb128 0xb
 2830 0282 3B       		.uleb128 0x3b
 2831 0283 05       		.uleb128 0x5
 2832 0284 49       		.uleb128 0x49
ARM GAS  /tmp/ccHfAbIj.s 			page 51


 2833 0285 13       		.uleb128 0x13
 2834 0286 3F       		.uleb128 0x3f
 2835 0287 19       		.uleb128 0x19
 2836 0288 3C       		.uleb128 0x3c
 2837 0289 19       		.uleb128 0x19
 2838 028a 00       		.byte	0
 2839 028b 00       		.byte	0
 2840 028c 2C       		.uleb128 0x2c
 2841 028d 34       		.uleb128 0x34
 2842 028e 00       		.byte	0
 2843 028f 03       		.uleb128 0x3
 2844 0290 08       		.uleb128 0x8
 2845 0291 3A       		.uleb128 0x3a
 2846 0292 0B       		.uleb128 0xb
 2847 0293 3B       		.uleb128 0x3b
 2848 0294 05       		.uleb128 0x5
 2849 0295 49       		.uleb128 0x49
 2850 0296 13       		.uleb128 0x13
 2851 0297 3F       		.uleb128 0x3f
 2852 0298 19       		.uleb128 0x19
 2853 0299 3C       		.uleb128 0x3c
 2854 029a 19       		.uleb128 0x19
 2855 029b 00       		.byte	0
 2856 029c 00       		.byte	0
 2857 029d 00       		.byte	0
 2858              		.section	.debug_aranges,"",%progbits
 2859 0000 AC000000 		.4byte	0xac
 2860 0004 0200     		.2byte	0x2
 2861 0006 00000000 		.4byte	.Ldebug_info0
 2862 000a 04       		.byte	0x4
 2863 000b 00       		.byte	0
 2864 000c 0000     		.2byte	0
 2865 000e 0000     		.2byte	0
 2866 0010 00000000 		.4byte	.LFB116
 2867 0014 10000000 		.4byte	.LFE116-.LFB116
 2868 0018 00000000 		.4byte	.LFB117
 2869 001c 10000000 		.4byte	.LFE117-.LFB117
 2870 0020 00000000 		.4byte	.LFB128
 2871 0024 14000000 		.4byte	.LFE128-.LFB128
 2872 0028 00000000 		.4byte	.LFB130
 2873 002c 1A000000 		.4byte	.LFE130-.LFB130
 2874 0030 00000000 		.4byte	.LFB133
 2875 0034 44000000 		.4byte	.LFE133-.LFB133
 2876 0038 00000000 		.4byte	.LFB135
 2877 003c 22000000 		.4byte	.LFE135-.LFB135
 2878 0040 00000000 		.4byte	.LFB145
 2879 0044 08000000 		.4byte	.LFE145-.LFB145
 2880 0048 00000000 		.4byte	.LFB146
 2881 004c 08000000 		.4byte	.LFE146-.LFB146
 2882 0050 00000000 		.4byte	.LFB166
 2883 0054 0C000000 		.4byte	.LFE166-.LFB166
 2884 0058 00000000 		.4byte	.LFB190
 2885 005c 0E000000 		.4byte	.LFE190-.LFB190
 2886 0060 00000000 		.4byte	.LFB216
 2887 0064 14000000 		.4byte	.LFE216-.LFB216
 2888 0068 00000000 		.4byte	.LFB217
 2889 006c 34000000 		.4byte	.LFE217-.LFB217
ARM GAS  /tmp/ccHfAbIj.s 			page 52


 2890 0070 00000000 		.4byte	.LFB218
 2891 0074 30000000 		.4byte	.LFE218-.LFB218
 2892 0078 00000000 		.4byte	.LFB219
 2893 007c 1E000000 		.4byte	.LFE219-.LFB219
 2894 0080 00000000 		.4byte	.LFB220
 2895 0084 34000000 		.4byte	.LFE220-.LFB220
 2896 0088 00000000 		.4byte	.LFB221
 2897 008c 20000000 		.4byte	.LFE221-.LFB221
 2898 0090 00000000 		.4byte	.LFB222
 2899 0094 48000000 		.4byte	.LFE222-.LFB222
 2900 0098 00000000 		.4byte	.LFB223
 2901 009c 24000000 		.4byte	.LFE223-.LFB223
 2902 00a0 00000000 		.4byte	.LFB224
 2903 00a4 50000000 		.4byte	.LFE224-.LFB224
 2904 00a8 00000000 		.4byte	0
 2905 00ac 00000000 		.4byte	0
 2906              		.section	.debug_ranges,"",%progbits
 2907              	.Ldebug_ranges0:
 2908 0000 00000000 		.4byte	.LFB116
 2909 0004 10000000 		.4byte	.LFE116
 2910 0008 00000000 		.4byte	.LFB117
 2911 000c 10000000 		.4byte	.LFE117
 2912 0010 00000000 		.4byte	.LFB128
 2913 0014 14000000 		.4byte	.LFE128
 2914 0018 00000000 		.4byte	.LFB130
 2915 001c 1A000000 		.4byte	.LFE130
 2916 0020 00000000 		.4byte	.LFB133
 2917 0024 44000000 		.4byte	.LFE133
 2918 0028 00000000 		.4byte	.LFB135
 2919 002c 22000000 		.4byte	.LFE135
 2920 0030 00000000 		.4byte	.LFB145
 2921 0034 08000000 		.4byte	.LFE145
 2922 0038 00000000 		.4byte	.LFB146
 2923 003c 08000000 		.4byte	.LFE146
 2924 0040 00000000 		.4byte	.LFB166
 2925 0044 0C000000 		.4byte	.LFE166
 2926 0048 00000000 		.4byte	.LFB190
 2927 004c 0E000000 		.4byte	.LFE190
 2928 0050 00000000 		.4byte	.LFB216
 2929 0054 14000000 		.4byte	.LFE216
 2930 0058 00000000 		.4byte	.LFB217
 2931 005c 34000000 		.4byte	.LFE217
 2932 0060 00000000 		.4byte	.LFB218
 2933 0064 30000000 		.4byte	.LFE218
 2934 0068 00000000 		.4byte	.LFB219
 2935 006c 1E000000 		.4byte	.LFE219
 2936 0070 00000000 		.4byte	.LFB220
 2937 0074 34000000 		.4byte	.LFE220
 2938 0078 00000000 		.4byte	.LFB221
 2939 007c 20000000 		.4byte	.LFE221
 2940 0080 00000000 		.4byte	.LFB222
 2941 0084 48000000 		.4byte	.LFE222
 2942 0088 00000000 		.4byte	.LFB223
 2943 008c 24000000 		.4byte	.LFE223
 2944 0090 00000000 		.4byte	.LFB224
 2945 0094 50000000 		.4byte	.LFE224
 2946 0098 00000000 		.4byte	0
ARM GAS  /tmp/ccHfAbIj.s 			page 53


 2947 009c 00000000 		.4byte	0
 2948              		.section	.debug_line,"",%progbits
 2949              	.Ldebug_line0:
 2950 0000 45040000 		.section	.debug_str,"MS",%progbits,1
 2950      02007402 
 2950      00000201 
 2950      FB0E0D00 
 2950      01010101 
 2951              	.LASF50:
 2952 0000 72656164 		.ascii	"ready_list_t\000"
 2952      795F6C69 
 2952      73745F74 
 2952      00
 2953              	.LASF88:
 2954 000d 77747472 		.ascii	"wttrp\000"
 2954      7000
 2955              	.LASF85:
 2956 0013 7264796D 		.ascii	"rdymsg\000"
 2956      736700
 2957              	.LASF16:
 2958 001a 75696E74 		.ascii	"uint64_t\000"
 2958      36345F74 
 2958      00
 2959              	.LASF5:
 2960 0023 5F5F7569 		.ascii	"__uint8_t\000"
 2960      6E74385F 
 2960      7400
 2961              	.LASF82:
 2962 002d 706F7274 		.ascii	"port_intctx\000"
 2962      5F696E74 
 2962      63747800 
 2963              	.LASF69:
 2964 0039 73797374 		.ascii	"system_debug_t\000"
 2964      656D5F64 
 2964      65627567 
 2964      5F7400
 2965              	.LASF106:
 2966 0048 71756575 		.ascii	"queue_init\000"
 2966      655F696E 
 2966      697400
 2967              	.LASF104:
 2968 0053 706F7274 		.ascii	"port_lock\000"
 2968      5F6C6F63 
 2968      6B00
 2969              	.LASF119:
 2970 005d 6368436F 		.ascii	"chCondBroadcastI\000"
 2970      6E644272 
 2970      6F616463 
 2970      61737449 
 2970      00
 2971              	.LASF12:
 2972 006e 6C6F6E67 		.ascii	"long long unsigned int\000"
 2972      206C6F6E 
 2972      6720756E 
 2972      7369676E 
 2972      65642069 
 2973              	.LASF86:
ARM GAS  /tmp/ccHfAbIj.s 			page 54


 2974 0085 65786974 		.ascii	"exitcode\000"
 2974      636F6465 
 2974      00
 2975              	.LASF76:
 2976 008e 6D61696E 		.ascii	"mainthread\000"
 2976      74687265 
 2976      616400
 2977              	.LASF127:
 2978 0099 2F686F6D 		.ascii	"/home/makkmarci/workspace/CLEAN/ChibiOS/os/rt/src/c"
 2978      652F6D61 
 2978      6B6B6D61 
 2978      7263692F 
 2978      776F726B 
 2979 00cc 68636F6E 		.ascii	"hcond.c\000"
 2979      642E6300 
 2980              	.LASF66:
 2981 00d4 76697274 		.ascii	"virtual_timers_list_t\000"
 2981      75616C5F 
 2981      74696D65 
 2981      72735F6C 
 2981      6973745F 
 2982              	.LASF125:
 2983 00ea 49544D5F 		.ascii	"ITM_RxBuffer\000"
 2983      52784275 
 2983      66666572 
 2983      00
 2984              	.LASF49:
 2985 00f7 63685F74 		.ascii	"ch_threads_queue\000"
 2985      68726561 
 2985      64735F71 
 2985      75657565 
 2985      00
 2986              	.LASF29:
 2987 0108 705F7072 		.ascii	"p_prio\000"
 2987      696F00
 2988              	.LASF10:
 2989 010f 6C6F6E67 		.ascii	"long long int\000"
 2989      206C6F6E 
 2989      6720696E 
 2989      7400
 2990              	.LASF1:
 2991 011d 7369676E 		.ascii	"signed char\000"
 2991      65642063 
 2991      68617200 
 2992              	.LASF103:
 2993 0129 636F6E64 		.ascii	"condition_variable_t\000"
 2993      6974696F 
 2993      6E5F7661 
 2993      72696162 
 2993      6C655F74 
 2994              	.LASF43:
 2995 013e 705F6D70 		.ascii	"p_mpool\000"
 2995      6F6F6C00 
 2996              	.LASF96:
 2997 0146 6D5F7175 		.ascii	"m_queue\000"
 2997      65756500 
 2998              	.LASF75:
ARM GAS  /tmp/ccHfAbIj.s 			page 55


 2999 014e 76746C69 		.ascii	"vtlist\000"
 2999      737400
 3000              	.LASF105:
 3001 0155 706F7274 		.ascii	"port_unlock\000"
 3001      5F756E6C 
 3001      6F636B00 
 3002              	.LASF73:
 3003 0161 63685F73 		.ascii	"ch_system\000"
 3003      79737465 
 3003      6D00
 3004              	.LASF7:
 3005 016b 6C6F6E67 		.ascii	"long int\000"
 3005      20696E74 
 3005      00
 3006              	.LASF19:
 3007 0174 74737461 		.ascii	"tstate_t\000"
 3007      74655F74 
 3007      00
 3008              	.LASF109:
 3009 017d 71756575 		.ascii	"queue_notempty\000"
 3009      655F6E6F 
 3009      74656D70 
 3009      747900
 3010              	.LASF31:
 3011 018c 705F6E65 		.ascii	"p_newer\000"
 3011      77657200 
 3012              	.LASF93:
 3013 0194 735F7175 		.ascii	"s_queue\000"
 3013      65756500 
 3014              	.LASF55:
 3015 019c 725F6E65 		.ascii	"r_newer\000"
 3015      77657200 
 3016              	.LASF79:
 3017 01a4 72656761 		.ascii	"regarm_t\000"
 3017      726D5F74 
 3017      00
 3018              	.LASF62:
 3019 01ad 76745F70 		.ascii	"vt_prev\000"
 3019      72657600 
 3020              	.LASF70:
 3021 01b5 63685F73 		.ascii	"ch_system_debug\000"
 3021      79737465 
 3021      6D5F6465 
 3021      62756700 
 3022              	.LASF100:
 3023 01c5 6D757465 		.ascii	"mutex_t\000"
 3023      785F7400 
 3024              	.LASF129:
 3025 01cd 76616C75 		.ascii	"value\000"
 3025      6500
 3026              	.LASF116:
 3027 01d3 6368436F 		.ascii	"chCondSignal\000"
 3027      6E645369 
 3027      676E616C 
 3027      00
 3028              	.LASF77:
 3029 01e0 69646C65 		.ascii	"idle_thread_wa\000"
ARM GAS  /tmp/ccHfAbIj.s 			page 56


 3029      5F746872 
 3029      6561645F 
 3029      776100
 3030              	.LASF24:
 3031 01ef 636E745F 		.ascii	"cnt_t\000"
 3031      7400
 3032              	.LASF0:
 3033 01f5 756E7369 		.ascii	"unsigned int\000"
 3033      676E6564 
 3033      20696E74 
 3033      00
 3034              	.LASF61:
 3035 0202 76745F6E 		.ascii	"vt_next\000"
 3035      65787400 
 3036              	.LASF89:
 3037 020a 77747365 		.ascii	"wtsemp\000"
 3037      6D7000
 3038              	.LASF63:
 3039 0211 76745F64 		.ascii	"vt_delta\000"
 3039      656C7461 
 3039      00
 3040              	.LASF38:
 3041 021a 705F6D73 		.ascii	"p_msgqueue\000"
 3041      67717565 
 3041      756500
 3042              	.LASF94:
 3043 0225 735F636E 		.ascii	"s_cnt\000"
 3043      7400
 3044              	.LASF4:
 3045 022b 73686F72 		.ascii	"short unsigned int\000"
 3045      7420756E 
 3045      7369676E 
 3045      65642069 
 3045      6E7400
 3046              	.LASF46:
 3047 023e 63685F74 		.ascii	"ch_thread\000"
 3047      68726561 
 3047      6400
 3048              	.LASF22:
 3049 0248 6D73675F 		.ascii	"msg_t\000"
 3049      7400
 3050              	.LASF72:
 3051 024e 63685F73 		.ascii	"ch_system_t\000"
 3051      79737465 
 3051      6D5F7400 
 3052              	.LASF18:
 3053 025a 746D6F64 		.ascii	"tmode_t\000"
 3053      655F7400 
 3054              	.LASF51:
 3055 0262 63685F72 		.ascii	"ch_ready_list\000"
 3055      65616479 
 3055      5F6C6973 
 3055      7400
 3056              	.LASF23:
 3057 0270 6576656E 		.ascii	"eventmask_t\000"
 3057      746D6173 
 3057      6B5F7400 
ARM GAS  /tmp/ccHfAbIj.s 			page 57


 3058              	.LASF6:
 3059 027c 5F5F696E 		.ascii	"__int32_t\000"
 3059      7433325F 
 3059      7400
 3060              	.LASF80:
 3061 0286 73746B61 		.ascii	"stkalign_t\000"
 3061      6C69676E 
 3061      5F7400
 3062              	.LASF45:
 3063 0291 74687265 		.ascii	"threads_list_t\000"
 3063      6164735F 
 3063      6C697374 
 3063      5F7400
 3064              	.LASF37:
 3065 02a0 705F7761 		.ascii	"p_waiting\000"
 3065      6974696E 
 3065      6700
 3066              	.LASF78:
 3067 02aa 73697A65 		.ascii	"sizetype\000"
 3067      74797065 
 3067      00
 3068              	.LASF44:
 3069 02b3 74687265 		.ascii	"thread_reference_t\000"
 3069      61645F72 
 3069      65666572 
 3069      656E6365 
 3069      5F7400
 3070              	.LASF67:
 3071 02c6 63685F76 		.ascii	"ch_virtual_timers_list\000"
 3071      69727475 
 3071      616C5F74 
 3071      696D6572 
 3071      735F6C69 
 3072              	.LASF126:
 3073 02dd 474E5520 		.ascii	"GNU C 4.9.3 20150303 (release) [ARM/embedded-4_9-br"
 3073      4320342E 
 3073      392E3320 
 3073      32303135 
 3073      30333033 
 3074 0310 616E6368 		.ascii	"anch revision 221220] -mcpu=cortex-m4 -mfloat-abi=h"
 3074      20726576 
 3074      6973696F 
 3074      6E203232 
 3074      31323230 
 3075 0343 61726420 		.ascii	"ard -mfpu=fpv4-sp-d16 -mno-thumb-interwork -mthumb "
 3075      2D6D6670 
 3075      753D6670 
 3075      76342D73 
 3075      702D6431 
 3076 0376 2D676764 		.ascii	"-ggdb -fomit-frame-pointer -falign-functions=16 -ff"
 3076      62202D66 
 3076      6F6D6974 
 3076      2D667261 
 3076      6D652D70 
 3077 03a9 756E6374 		.ascii	"unction-sections -fdata-sections -fno-common -fsing"
 3077      696F6E2D 
 3077      73656374 
ARM GAS  /tmp/ccHfAbIj.s 			page 58


 3077      696F6E73 
 3077      202D6664 
 3078 03dc 6C652D70 		.ascii	"le-precision-constant\000"
 3078      72656369 
 3078      73696F6E 
 3078      2D636F6E 
 3078      7374616E 
 3079              	.LASF101:
 3080 03f2 636F6E64 		.ascii	"condition_variable\000"
 3080      6974696F 
 3080      6E5F7661 
 3080      72696162 
 3080      6C6500
 3081              	.LASF124:
 3082 0405 6368436F 		.ascii	"chCondWaitTimeoutS\000"
 3082      6E645761 
 3082      69745469 
 3082      6D656F75 
 3082      745300
 3083              	.LASF32:
 3084 0418 705F6F6C 		.ascii	"p_older\000"
 3084      64657200 
 3085              	.LASF54:
 3086 0420 725F6374 		.ascii	"r_ctx\000"
 3086      7800
 3087              	.LASF84:
 3088 0426 746D5F63 		.ascii	"tm_calibration_t\000"
 3088      616C6962 
 3088      72617469 
 3088      6F6E5F74 
 3088      00
 3089              	.LASF98:
 3090 0437 6D5F6E65 		.ascii	"m_next\000"
 3090      787400
 3091              	.LASF123:
 3092 043e 74696D65 		.ascii	"time\000"
 3092      00
 3093              	.LASF57:
 3094 0443 725F6375 		.ascii	"r_current\000"
 3094      7272656E 
 3094      7400
 3095              	.LASF56:
 3096 044d 725F6F6C 		.ascii	"r_older\000"
 3096      64657200 
 3097              	.LASF118:
 3098 0455 6368436F 		.ascii	"chCondBroadcast\000"
 3098      6E644272 
 3098      6F616463 
 3098      61737400 
 3099              	.LASF11:
 3100 0465 5F5F7569 		.ascii	"__uint64_t\000"
 3100      6E743634 
 3100      5F7400
 3101              	.LASF20:
 3102 0470 74726566 		.ascii	"trefs_t\000"
 3102      735F7400 
 3103              	.LASF59:
ARM GAS  /tmp/ccHfAbIj.s 			page 59


 3104 0478 76697274 		.ascii	"virtual_timer_t\000"
 3104      75616C5F 
 3104      74696D65 
 3104      725F7400 
 3105              	.LASF28:
 3106 0488 705F7072 		.ascii	"p_prev\000"
 3106      657600
 3107              	.LASF21:
 3108 048f 74707269 		.ascii	"tprio_t\000"
 3108      6F5F7400 
 3109              	.LASF117:
 3110 0497 6368436F 		.ascii	"chCondSignalI\000"
 3110      6E645369 
 3110      676E616C 
 3110      4900
 3111              	.LASF107:
 3112 04a5 5F426F6F 		.ascii	"_Bool\000"
 3112      6C00
 3113              	.LASF14:
 3114 04ab 696E7433 		.ascii	"int32_t\000"
 3114      325F7400 
 3115              	.LASF2:
 3116 04b3 756E7369 		.ascii	"unsigned char\000"
 3116      676E6564 
 3116      20636861 
 3116      7200
 3117              	.LASF41:
 3118 04c1 705F6D74 		.ascii	"p_mtxlist\000"
 3118      786C6973 
 3118      7400
 3119              	.LASF3:
 3120 04cb 73686F72 		.ascii	"short int\000"
 3120      7420696E 
 3120      7400
 3121              	.LASF34:
 3122 04d5 705F7374 		.ascii	"p_state\000"
 3122      61746500 
 3123              	.LASF53:
 3124 04dd 725F7072 		.ascii	"r_prio\000"
 3124      696F00
 3125              	.LASF91:
 3126 04e4 65776D61 		.ascii	"ewmask\000"
 3126      736B00
 3127              	.LASF27:
 3128 04eb 705F6E65 		.ascii	"p_next\000"
 3128      787400
 3129              	.LASF35:
 3130 04f2 705F666C 		.ascii	"p_flags\000"
 3130      61677300 
 3131              	.LASF114:
 3132 04fa 5F5F6675 		.ascii	"__func__\000"
 3132      6E635F5F 
 3132      00
 3133              	.LASF130:
 3134 0503 63685379 		.ascii	"chSysLock\000"
 3134      734C6F63 
 3134      6B00
ARM GAS  /tmp/ccHfAbIj.s 			page 60


 3135              	.LASF60:
 3136 050d 63685F76 		.ascii	"ch_virtual_timer\000"
 3136      69727475 
 3136      616C5F74 
 3136      696D6572 
 3136      00
 3137              	.LASF102:
 3138 051e 635F7175 		.ascii	"c_queue\000"
 3138      65756500 
 3139              	.LASF92:
 3140 0526 63685F73 		.ascii	"ch_semaphore\000"
 3140      656D6170 
 3140      686F7265 
 3140      00
 3141              	.LASF40:
 3142 0533 705F6570 		.ascii	"p_epending\000"
 3142      656E6469 
 3142      6E6700
 3143              	.LASF113:
 3144 053e 63684D74 		.ascii	"chMtxGetNextMutexS\000"
 3144      78476574 
 3144      4E657874 
 3144      4D757465 
 3144      785300
 3145              	.LASF15:
 3146 0551 75696E74 		.ascii	"uint32_t\000"
 3146      33325F74 
 3146      00
 3147              	.LASF90:
 3148 055a 77746D74 		.ascii	"wtmtxp\000"
 3148      787000
 3149              	.LASF52:
 3150 0561 725F7175 		.ascii	"r_queue\000"
 3150      65756500 
 3151              	.LASF47:
 3152 0569 63685F74 		.ascii	"ch_threads_list\000"
 3152      68726561 
 3152      64735F6C 
 3152      69737400 
 3153              	.LASF9:
 3154 0579 6C6F6E67 		.ascii	"long unsigned int\000"
 3154      20756E73 
 3154      69676E65 
 3154      6420696E 
 3154      7400
 3155              	.LASF99:
 3156 058b 63686172 		.ascii	"char\000"
 3156      00
 3157              	.LASF121:
 3158 0590 6368436F 		.ascii	"chCondWaitS\000"
 3158      6E645761 
 3158      69745300 
 3159              	.LASF115:
 3160 059c 6368436F 		.ascii	"chCondObjectInit\000"
 3160      6E644F62 
 3160      6A656374 
 3160      496E6974 
ARM GAS  /tmp/ccHfAbIj.s 			page 61


 3160      00
 3161              	.LASF110:
 3162 05ad 71756575 		.ascii	"queue_fifo_remove\000"
 3162      655F6669 
 3162      666F5F72 
 3162      656D6F76 
 3162      6500
 3163              	.LASF25:
 3164 05bf 73797374 		.ascii	"systime_t\000"
 3164      696D655F 
 3164      7400
 3165              	.LASF42:
 3166 05c9 705F7265 		.ascii	"p_realprio\000"
 3166      616C7072 
 3166      696F00
 3167              	.LASF58:
 3168 05d4 76746675 		.ascii	"vtfunc_t\000"
 3168      6E635F74 
 3168      00
 3169              	.LASF8:
 3170 05dd 5F5F7569 		.ascii	"__uint32_t\000"
 3170      6E743332 
 3170      5F7400
 3171              	.LASF128:
 3172 05e8 5F5F7365 		.ascii	"__set_BASEPRI\000"
 3172      745F4241 
 3172      53455052 
 3172      4900
 3173              	.LASF71:
 3174 05f6 70616E69 		.ascii	"panic_msg\000"
 3174      635F6D73 
 3174      6700
 3175              	.LASF83:
 3176 0600 6F666673 		.ascii	"offset\000"
 3176      657400
 3177              	.LASF81:
 3178 0607 636F6E74 		.ascii	"context\000"
 3178      65787400 
 3179              	.LASF17:
 3180 060f 7274636E 		.ascii	"rtcnt_t\000"
 3180      745F7400 
 3181              	.LASF120:
 3182 0617 6368436F 		.ascii	"chCondWait\000"
 3182      6E645761 
 3182      697400
 3183              	.LASF65:
 3184 0622 76745F70 		.ascii	"vt_par\000"
 3184      617200
 3185              	.LASF48:
 3186 0629 74687265 		.ascii	"threads_queue_t\000"
 3186      6164735F 
 3186      71756575 
 3186      655F7400 
 3187              	.LASF95:
 3188 0639 63685F6D 		.ascii	"ch_mutex\000"
 3188      75746578 
 3188      00
ARM GAS  /tmp/ccHfAbIj.s 			page 62


 3189              	.LASF36:
 3190 0642 705F7265 		.ascii	"p_refs\000"
 3190      667300
 3191              	.LASF26:
 3192 0649 74687265 		.ascii	"thread_t\000"
 3192      61645F74 
 3192      00
 3193              	.LASF74:
 3194 0652 726C6973 		.ascii	"rlist\000"
 3194      7400
 3195              	.LASF112:
 3196 0658 63685468 		.ascii	"chThdGetSelfX\000"
 3196      64476574 
 3196      53656C66 
 3196      5800
 3197              	.LASF13:
 3198 0666 75696E74 		.ascii	"uint8_t\000"
 3198      385F7400 
 3199              	.LASF87:
 3200 066e 77746F62 		.ascii	"wtobjp\000"
 3200      6A7000
 3201              	.LASF33:
 3202 0675 705F6E61 		.ascii	"p_name\000"
 3202      6D6500
 3203              	.LASF122:
 3204 067c 6368436F 		.ascii	"chCondWaitTimeout\000"
 3204      6E645761 
 3204      69745469 
 3204      6D656F75 
 3204      7400
 3205              	.LASF68:
 3206 068e 76745F73 		.ascii	"vt_systime\000"
 3206      79737469 
 3206      6D6500
 3207              	.LASF111:
 3208 0699 63685379 		.ascii	"chSysUnlock\000"
 3208      73556E6C 
 3208      6F636B00 
 3209              	.LASF39:
 3210 06a5 705F6D73 		.ascii	"p_msg\000"
 3210      6700
 3211              	.LASF108:
 3212 06ab 71756575 		.ascii	"queue_prio_insert\000"
 3212      655F7072 
 3212      696F5F69 
 3212      6E736572 
 3212      7400
 3213              	.LASF97:
 3214 06bd 6D5F6F77 		.ascii	"m_owner\000"
 3214      6E657200 
 3215              	.LASF30:
 3216 06c5 705F6374 		.ascii	"p_ctx\000"
 3216      7800
 3217              	.LASF64:
 3218 06cb 76745F66 		.ascii	"vt_func\000"
 3218      756E6300 
 3219              		.ident	"GCC: (GNU Tools for ARM Embedded Processors) 4.9.3 20150303 (release) [ARM/embedded-4_9-br
ARM GAS  /tmp/ccHfAbIj.s 			page 63


ARM GAS  /tmp/ccHfAbIj.s 			page 64


DEFINED SYMBOLS
                            *ABS*:00000000 chcond.c
     /tmp/ccHfAbIj.s:21     .text.port_lock:00000000 $t
     /tmp/ccHfAbIj.s:26     .text.port_lock:00000000 port_lock
     /tmp/ccHfAbIj.s:58     .text.port_unlock:00000000 $t
     /tmp/ccHfAbIj.s:63     .text.port_unlock:00000000 port_unlock
     /tmp/ccHfAbIj.s:93     .text.queue_init:00000000 $t
     /tmp/ccHfAbIj.s:98     .text.queue_init:00000000 queue_init
     /tmp/ccHfAbIj.s:126    .text.queue_notempty:00000000 $t
     /tmp/ccHfAbIj.s:131    .text.queue_notempty:00000000 queue_notempty
     /tmp/ccHfAbIj.s:160    .text.queue_prio_insert:00000000 $t
     /tmp/ccHfAbIj.s:165    .text.queue_prio_insert:00000000 queue_prio_insert
     /tmp/ccHfAbIj.s:224    .text.queue_fifo_remove:00000000 $t
     /tmp/ccHfAbIj.s:229    .text.queue_fifo_remove:00000000 queue_fifo_remove
     /tmp/ccHfAbIj.s:265    .text.chSysLock:00000000 $t
     /tmp/ccHfAbIj.s:270    .text.chSysLock:00000000 chSysLock
     /tmp/ccHfAbIj.s:289    .text.chSysUnlock:00000000 $t
     /tmp/ccHfAbIj.s:294    .text.chSysUnlock:00000000 chSysUnlock
     /tmp/ccHfAbIj.s:312    .text.chThdGetSelfX:00000000 $t
     /tmp/ccHfAbIj.s:317    .text.chThdGetSelfX:00000000 chThdGetSelfX
     /tmp/ccHfAbIj.s:334    .text.chThdGetSelfX:00000008 $d
     /tmp/ccHfAbIj.s:339    .text.chMtxGetNextMutexS:00000000 $t
     /tmp/ccHfAbIj.s:344    .text.chMtxGetNextMutexS:00000000 chMtxGetNextMutexS
     /tmp/ccHfAbIj.s:366    .text.chCondObjectInit:00000000 $t
     /tmp/ccHfAbIj.s:372    .text.chCondObjectInit:00000000 chCondObjectInit
     /tmp/ccHfAbIj.s:398    .text.chCondSignal:00000000 $t
     /tmp/ccHfAbIj.s:404    .text.chCondSignal:00000000 chCondSignal
     /tmp/ccHfAbIj.s:445    .text.chCondSignalI:00000000 $t
     /tmp/ccHfAbIj.s:451    .text.chCondSignalI:00000000 chCondSignalI
     /tmp/ccHfAbIj.s:494    .text.chCondBroadcast:00000000 $t
     /tmp/ccHfAbIj.s:500    .text.chCondBroadcast:00000000 chCondBroadcast
     /tmp/ccHfAbIj.s:536    .text.chCondBroadcastI:00000000 chCondBroadcastI
     /tmp/ccHfAbIj.s:530    .text.chCondBroadcastI:00000000 $t
     /tmp/ccHfAbIj.s:578    .text.chCondWait:00000000 $t
     /tmp/ccHfAbIj.s:584    .text.chCondWait:00000000 chCondWait
     /tmp/ccHfAbIj.s:622    .text.chCondWaitS:00000000 chCondWaitS
     /tmp/ccHfAbIj.s:616    .text.chCondWaitS:00000000 $t
     /tmp/ccHfAbIj.s:674    .text.chCondWaitS:00000044 $d
     /tmp/ccHfAbIj.s:679    .text.chCondWaitTimeout:00000000 $t
     /tmp/ccHfAbIj.s:685    .text.chCondWaitTimeout:00000000 chCondWaitTimeout
     /tmp/ccHfAbIj.s:725    .text.chCondWaitTimeoutS:00000000 chCondWaitTimeoutS
     /tmp/ccHfAbIj.s:719    .text.chCondWaitTimeoutS:00000000 $t
     /tmp/ccHfAbIj.s:780    .text.chCondWaitTimeoutS:0000004c $d
                     .debug_frame:00000010 $d
     /tmp/ccHfAbIj.s:338    .text.chThdGetSelfX:0000000c $t
     /tmp/ccHfAbIj.s:678    .text.chCondWaitS:00000048 $t

UNDEFINED SYMBOLS
ch
chSchWakeupS
chSchReadyI
chSchRescheduleS
chMtxUnlockS
chSchGoSleepS
chMtxLockS
chSchGoSleepTimeoutS
