ARM GAS  /tmp/ccdYiTJd.s 			page 1


   1              		.syntax unified
   2              		.cpu cortex-m4
   3              		.eabi_attribute 27, 1
   4              		.eabi_attribute 28, 1
   5              		.fpu fpv4-sp-d16
   6              		.eabi_attribute 20, 1
   7              		.eabi_attribute 21, 1
   8              		.eabi_attribute 23, 3
   9              		.eabi_attribute 24, 1
  10              		.eabi_attribute 25, 1
  11              		.eabi_attribute 26, 1
  12              		.eabi_attribute 30, 6
  13              		.eabi_attribute 34, 1
  14              		.eabi_attribute 18, 4
  15              		.thumb
  16              		.file	"chdynamic.c"
  17              		.text
  18              	.Ltext0:
  19              		.cfi_sections	.debug_frame
  20              		.section	.text.port_lock,"ax",%progbits
  21              		.align	2
  22              		.p2align 4,,15
  23              		.thumb
  24              		.thumb_func
  25              		.type	port_lock, %function
  26              	port_lock:
  27              	.LFB116:
  28              		.file 1 "/home/makkmarci/workspace/CLEAN/ChibiOS/os/rt/ports/ARMCMx/chcore_v7m.h"
  29              		.loc 1 444 0
  30              		.cfi_startproc
  31              		@ args = 0, pretend = 0, frame = 8
  32              		@ frame_needed = 0, uses_anonymous_args = 0
  33              		@ link register save eliminated.
  34 0000 82B0     		sub	sp, sp, #8
  35              		.cfi_def_cfa_offset 8
  36 0002 2023     		movs	r3, #32
  37 0004 0193     		str	r3, [sp, #4]
  38              	.LBB6:
  39              	.LBB7:
  40              		.file 2 "/home/makkmarci/workspace/CLEAN/ChibiOS/os/ext/CMSIS/include/core_cmFunc.h"
  41              		.loc 2 546 0
  42 0006 019B     		ldr	r3, [sp, #4]
  43              	@ 546 "/home/makkmarci/workspace/CLEAN/ChibiOS/os/ext/CMSIS/include/core_cmFunc.h" 1
  44 0008 83F31188 		MSR basepri, r3
  45              	@ 0 "" 2
  46              		.thumb
  47              	.LBE7:
  48              	.LBE6:
  49              		.loc 1 451 0
  50 000c 02B0     		add	sp, sp, #8
  51              		.cfi_def_cfa_offset 0
  52              		@ sp needed
  53 000e 7047     		bx	lr
  54              		.cfi_endproc
  55              	.LFE116:
  56              		.size	port_lock, .-port_lock
  57              		.section	.text.port_unlock,"ax",%progbits
ARM GAS  /tmp/ccdYiTJd.s 			page 2


  58              		.align	2
  59              		.p2align 4,,15
  60              		.thumb
  61              		.thumb_func
  62              		.type	port_unlock, %function
  63              	port_unlock:
  64              	.LFB117:
  65              		.loc 1 458 0
  66              		.cfi_startproc
  67              		@ args = 0, pretend = 0, frame = 8
  68              		@ frame_needed = 0, uses_anonymous_args = 0
  69              		@ link register save eliminated.
  70 0000 82B0     		sub	sp, sp, #8
  71              		.cfi_def_cfa_offset 8
  72 0002 0023     		movs	r3, #0
  73 0004 0193     		str	r3, [sp, #4]
  74              	.LBB8:
  75              	.LBB9:
  76              		.loc 2 546 0
  77 0006 019B     		ldr	r3, [sp, #4]
  78              	@ 546 "/home/makkmarci/workspace/CLEAN/ChibiOS/os/ext/CMSIS/include/core_cmFunc.h" 1
  79 0008 83F31188 		MSR basepri, r3
  80              	@ 0 "" 2
  81              		.thumb
  82              	.LBE9:
  83              	.LBE8:
  84              		.loc 1 465 0
  85 000c 02B0     		add	sp, sp, #8
  86              		.cfi_def_cfa_offset 0
  87              		@ sp needed
  88 000e 7047     		bx	lr
  89              		.cfi_endproc
  90              	.LFE117:
  91              		.size	port_unlock, .-port_unlock
  92              		.section	.text.chSysLock,"ax",%progbits
  93              		.align	2
  94              		.p2align 4,,15
  95              		.thumb
  96              		.thumb_func
  97              		.type	chSysLock, %function
  98              	chSysLock:
  99              	.LFB145:
 100              		.file 3 "/home/makkmarci/workspace/CLEAN/ChibiOS/os/rt/include/chsys.h"
 101              		.loc 3 346 0
 102              		.cfi_startproc
 103              		@ args = 0, pretend = 0, frame = 0
 104              		@ frame_needed = 0, uses_anonymous_args = 0
 105 0000 08B5     		push	{r3, lr}
 106              		.cfi_def_cfa_offset 8
 107              		.cfi_offset 3, -8
 108              		.cfi_offset 14, -4
 109              		.loc 3 348 0
 110 0002 FFF7FEFF 		bl	port_lock
 111              		.loc 3 351 0
 112 0006 08BD     		pop	{r3, pc}
 113              		.cfi_endproc
 114              	.LFE145:
ARM GAS  /tmp/ccdYiTJd.s 			page 3


 115              		.size	chSysLock, .-chSysLock
 116              		.section	.text.chSysUnlock,"ax",%progbits
 117              		.align	2
 118              		.p2align 4,,15
 119              		.thumb
 120              		.thumb_func
 121              		.type	chSysUnlock, %function
 122              	chSysUnlock:
 123              	.LFB146:
 124              		.loc 3 358 0
 125              		.cfi_startproc
 126              		@ args = 0, pretend = 0, frame = 0
 127              		@ frame_needed = 0, uses_anonymous_args = 0
 128 0000 08B5     		push	{r3, lr}
 129              		.cfi_def_cfa_offset 8
 130              		.cfi_offset 3, -8
 131              		.cfi_offset 14, -4
 132              		.loc 3 371 0
 133 0002 FFF7FEFF 		bl	port_unlock
 134              		.loc 3 372 0
 135 0006 08BD     		pop	{r3, pc}
 136              		.cfi_endproc
 137              	.LFE146:
 138              		.size	chSysUnlock, .-chSysUnlock
 139 0008 AFF30080 		.section	.text.chThdAddRef,"ax",%progbits
 139      AFF30080 
 140              		.align	2
 141              		.p2align 4,,15
 142              		.global	chThdAddRef
 143              		.thumb
 144              		.thumb_func
 145              		.type	chThdAddRef, %function
 146              	chThdAddRef:
 147              	.LFB216:
 148              		.file 4 "/home/makkmarci/workspace/CLEAN/ChibiOS/os/rt/src/chdynamic.c"
 149              		.loc 4 68 0
 150              		.cfi_startproc
 151              		@ args = 0, pretend = 0, frame = 8
 152              		@ frame_needed = 0, uses_anonymous_args = 0
 153 0000 00B5     		push	{lr}
 154              		.cfi_def_cfa_offset 4
 155              		.cfi_offset 14, -4
 156 0002 83B0     		sub	sp, sp, #12
 157              		.cfi_def_cfa_offset 16
 158 0004 0190     		str	r0, [sp, #4]
 159              		.loc 4 70 0
 160 0006 FFF7FEFF 		bl	chSysLock
 161              		.loc 4 72 0
 162 000a 019B     		ldr	r3, [sp, #4]
 163 000c 9B7F     		ldrb	r3, [r3, #30]	@ zero_extendqisi2
 164 000e 0133     		adds	r3, r3, #1
 165 0010 DAB2     		uxtb	r2, r3
 166 0012 019B     		ldr	r3, [sp, #4]
 167 0014 9A77     		strb	r2, [r3, #30]
 168              		.loc 4 73 0
 169 0016 FFF7FEFF 		bl	chSysUnlock
 170              		.loc 4 75 0
ARM GAS  /tmp/ccdYiTJd.s 			page 4


 171 001a 019B     		ldr	r3, [sp, #4]
 172              		.loc 4 76 0
 173 001c 1846     		mov	r0, r3
 174 001e 03B0     		add	sp, sp, #12
 175              		.cfi_def_cfa_offset 4
 176              		@ sp needed
 177 0020 5DF804FB 		ldr	pc, [sp], #4
 178              		.cfi_endproc
 179              	.LFE216:
 180              		.size	chThdAddRef, .-chThdAddRef
 181 0024 AFF30080 		.section	.text.chThdRelease,"ax",%progbits
 181      AFF30080 
 181      AFF30080 
 182              		.align	2
 183              		.p2align 4,,15
 184              		.global	chThdRelease
 185              		.thumb
 186              		.thumb_func
 187              		.type	chThdRelease, %function
 188              	chThdRelease:
 189              	.LFB217:
 190              		.loc 4 91 0
 191              		.cfi_startproc
 192              		@ args = 0, pretend = 0, frame = 16
 193              		@ frame_needed = 0, uses_anonymous_args = 0
 194 0000 00B5     		push	{lr}
 195              		.cfi_def_cfa_offset 4
 196              		.cfi_offset 14, -4
 197 0002 85B0     		sub	sp, sp, #20
 198              		.cfi_def_cfa_offset 24
 199 0004 0190     		str	r0, [sp, #4]
 200              		.loc 4 94 0
 201 0006 FFF7FEFF 		bl	chSysLock
 202              		.loc 4 96 0
 203 000a 019B     		ldr	r3, [sp, #4]
 204 000c 9B7F     		ldrb	r3, [r3, #30]	@ zero_extendqisi2
 205 000e 013B     		subs	r3, r3, #1
 206 0010 DAB2     		uxtb	r2, r3
 207 0012 019B     		ldr	r3, [sp, #4]
 208 0014 9A77     		strb	r2, [r3, #30]
 209              		.loc 4 97 0
 210 0016 019B     		ldr	r3, [sp, #4]
 211 0018 9B7F     		ldrb	r3, [r3, #30]
 212 001a 8DF80F30 		strb	r3, [sp, #15]
 213              		.loc 4 98 0
 214 001e FFF7FEFF 		bl	chSysUnlock
 215              		.loc 4 103 0
 216 0022 9DF80F30 		ldrb	r3, [sp, #15]	@ zero_extendqisi2
 217 0026 002B     		cmp	r3, #0
 218 0028 2BD1     		bne	.L7
 219              		.loc 4 103 0 is_stmt 0 discriminator 1
 220 002a 019B     		ldr	r3, [sp, #4]
 221 002c 1B7F     		ldrb	r3, [r3, #28]	@ zero_extendqisi2
 222 002e 0F2B     		cmp	r3, #15
 223 0030 27D1     		bne	.L7
 224              		.loc 4 104 0 is_stmt 1
 225 0032 019B     		ldr	r3, [sp, #4]
ARM GAS  /tmp/ccdYiTJd.s 			page 5


 226 0034 5B7F     		ldrb	r3, [r3, #29]	@ zero_extendqisi2
 227 0036 03F00303 		and	r3, r3, #3
 228 003a 012B     		cmp	r3, #1
 229 003c 02D0     		beq	.L10
 230 003e 022B     		cmp	r3, #2
 231 0040 0ED0     		beq	.L11
 232              		.loc 4 124 0
 233 0042 1EE0     		b	.L7
 234              	.L10:
 235              		.loc 4 108 0
 236 0044 019B     		ldr	r3, [sp, #4]
 237 0046 5B69     		ldr	r3, [r3, #20]
 238 0048 019A     		ldr	r2, [sp, #4]
 239 004a 1269     		ldr	r2, [r2, #16]
 240 004c 1A61     		str	r2, [r3, #16]
 241 004e 019B     		ldr	r3, [sp, #4]
 242 0050 1B69     		ldr	r3, [r3, #16]
 243 0052 019A     		ldr	r2, [sp, #4]
 244 0054 5269     		ldr	r2, [r2, #20]
 245 0056 5A61     		str	r2, [r3, #20]
 246              		.loc 4 110 0
 247 0058 0198     		ldr	r0, [sp, #4]
 248 005a FFF7FEFF 		bl	chHeapFree
 249              		.loc 4 111 0
 250 005e 10E0     		b	.L7
 251              	.L11:
 252              		.loc 4 116 0
 253 0060 019B     		ldr	r3, [sp, #4]
 254 0062 5B69     		ldr	r3, [r3, #20]
 255 0064 019A     		ldr	r2, [sp, #4]
 256 0066 1269     		ldr	r2, [r2, #16]
 257 0068 1A61     		str	r2, [r3, #16]
 258 006a 019B     		ldr	r3, [sp, #4]
 259 006c 1B69     		ldr	r3, [r3, #16]
 260 006e 019A     		ldr	r2, [sp, #4]
 261 0070 5269     		ldr	r2, [r2, #20]
 262 0072 5A61     		str	r2, [r3, #20]
 263              		.loc 4 118 0
 264 0074 019B     		ldr	r3, [sp, #4]
 265 0076 1B6C     		ldr	r3, [r3, #64]
 266 0078 1846     		mov	r0, r3
 267 007a 0199     		ldr	r1, [sp, #4]
 268 007c FFF7FEFF 		bl	chPoolFree
 269              		.loc 4 119 0
 270 0080 00BF     		nop
 271              	.L7:
 272              		.loc 4 127 0
 273 0082 05B0     		add	sp, sp, #20
 274              		.cfi_def_cfa_offset 4
 275              		@ sp needed
 276 0084 5DF804FB 		ldr	pc, [sp], #4
 277              		.cfi_endproc
 278              	.LFE217:
 279              		.size	chThdRelease, .-chThdRelease
 280 0088 AFF30080 		.section	.text.chThdCreateFromHeap,"ax",%progbits
 280      AFF30080 
 281              		.align	2
ARM GAS  /tmp/ccdYiTJd.s 			page 6


 282              		.p2align 4,,15
 283              		.global	chThdCreateFromHeap
 284              		.thumb
 285              		.thumb_func
 286              		.type	chThdCreateFromHeap, %function
 287              	chThdCreateFromHeap:
 288              	.LFB218:
 289              		.loc 4 153 0
 290              		.cfi_startproc
 291              		@ args = 4, pretend = 0, frame = 24
 292              		@ frame_needed = 0, uses_anonymous_args = 0
 293 0000 00B5     		push	{lr}
 294              		.cfi_def_cfa_offset 4
 295              		.cfi_offset 14, -4
 296 0002 89B0     		sub	sp, sp, #36
 297              		.cfi_def_cfa_offset 40
 298 0004 0590     		str	r0, [sp, #20]
 299 0006 0491     		str	r1, [sp, #16]
 300 0008 0392     		str	r2, [sp, #12]
 301 000a 0293     		str	r3, [sp, #8]
 302              		.loc 4 157 0
 303 000c 0598     		ldr	r0, [sp, #20]
 304 000e 0499     		ldr	r1, [sp, #16]
 305 0010 FFF7FEFF 		bl	chHeapAlloc
 306 0014 0790     		str	r0, [sp, #28]
 307              		.loc 4 158 0
 308 0016 079B     		ldr	r3, [sp, #28]
 309 0018 002B     		cmp	r3, #0
 310 001a 01D1     		bne	.L13
 311              		.loc 4 159 0
 312 001c 0023     		movs	r3, #0
 313 001e 14E0     		b	.L14
 314              	.L13:
 315              		.loc 4 171 0
 316 0020 FFF7FEFF 		bl	chSysLock
 317              		.loc 4 172 0
 318 0024 0A9B     		ldr	r3, [sp, #40]
 319 0026 0093     		str	r3, [sp]
 320 0028 0798     		ldr	r0, [sp, #28]
 321 002a 0499     		ldr	r1, [sp, #16]
 322 002c 039A     		ldr	r2, [sp, #12]
 323 002e 029B     		ldr	r3, [sp, #8]
 324 0030 FFF7FEFF 		bl	chThdCreateI
 325 0034 0690     		str	r0, [sp, #24]
 326              		.loc 4 173 0
 327 0036 069B     		ldr	r3, [sp, #24]
 328 0038 0122     		movs	r2, #1
 329 003a 5A77     		strb	r2, [r3, #29]
 330              		.loc 4 174 0
 331 003c 0698     		ldr	r0, [sp, #24]
 332 003e 0021     		movs	r1, #0
 333 0040 FFF7FEFF 		bl	chSchWakeupS
 334              		.loc 4 175 0
 335 0044 FFF7FEFF 		bl	chSysUnlock
 336              		.loc 4 177 0
 337 0048 069B     		ldr	r3, [sp, #24]
 338              	.L14:
ARM GAS  /tmp/ccdYiTJd.s 			page 7


 339              		.loc 4 178 0
 340 004a 1846     		mov	r0, r3
 341 004c 09B0     		add	sp, sp, #36
 342              		.cfi_def_cfa_offset 4
 343              		@ sp needed
 344 004e 5DF804FB 		ldr	pc, [sp], #4
 345              		.cfi_endproc
 346              	.LFE218:
 347              		.size	chThdCreateFromHeap, .-chThdCreateFromHeap
 348 0052 00BFAFF3 		.section	.text.chThdCreateFromMemoryPool,"ax",%progbits
 348      0080AFF3 
 348      0080AFF3 
 348      0080
 349              		.align	2
 350              		.p2align 4,,15
 351              		.global	chThdCreateFromMemoryPool
 352              		.thumb
 353              		.thumb_func
 354              		.type	chThdCreateFromMemoryPool, %function
 355              	chThdCreateFromMemoryPool:
 356              	.LFB219:
 357              		.loc 4 205 0
 358              		.cfi_startproc
 359              		@ args = 0, pretend = 0, frame = 24
 360              		@ frame_needed = 0, uses_anonymous_args = 0
 361 0000 00B5     		push	{lr}
 362              		.cfi_def_cfa_offset 4
 363              		.cfi_offset 14, -4
 364 0002 89B0     		sub	sp, sp, #36
 365              		.cfi_def_cfa_offset 40
 366 0004 0590     		str	r0, [sp, #20]
 367 0006 0491     		str	r1, [sp, #16]
 368 0008 0392     		str	r2, [sp, #12]
 369 000a 0293     		str	r3, [sp, #8]
 370              		.loc 4 211 0
 371 000c 0598     		ldr	r0, [sp, #20]
 372 000e FFF7FEFF 		bl	chPoolAlloc
 373 0012 0790     		str	r0, [sp, #28]
 374              		.loc 4 212 0
 375 0014 079B     		ldr	r3, [sp, #28]
 376 0016 002B     		cmp	r3, #0
 377 0018 01D1     		bne	.L16
 378              		.loc 4 213 0
 379 001a 0023     		movs	r3, #0
 380 001c 19E0     		b	.L17
 381              	.L16:
 382              		.loc 4 225 0
 383 001e FFF7FEFF 		bl	chSysLock
 384              		.loc 4 226 0
 385 0022 059B     		ldr	r3, [sp, #20]
 386 0024 5A68     		ldr	r2, [r3, #4]
 387 0026 029B     		ldr	r3, [sp, #8]
 388 0028 0093     		str	r3, [sp]
 389 002a 0798     		ldr	r0, [sp, #28]
 390 002c 1146     		mov	r1, r2
 391 002e 049A     		ldr	r2, [sp, #16]
 392 0030 039B     		ldr	r3, [sp, #12]
ARM GAS  /tmp/ccdYiTJd.s 			page 8


 393 0032 FFF7FEFF 		bl	chThdCreateI
 394 0036 0690     		str	r0, [sp, #24]
 395              		.loc 4 227 0
 396 0038 069B     		ldr	r3, [sp, #24]
 397 003a 0222     		movs	r2, #2
 398 003c 5A77     		strb	r2, [r3, #29]
 399              		.loc 4 228 0
 400 003e 069B     		ldr	r3, [sp, #24]
 401 0040 059A     		ldr	r2, [sp, #20]
 402 0042 1A64     		str	r2, [r3, #64]
 403              		.loc 4 229 0
 404 0044 0698     		ldr	r0, [sp, #24]
 405 0046 0021     		movs	r1, #0
 406 0048 FFF7FEFF 		bl	chSchWakeupS
 407              		.loc 4 230 0
 408 004c FFF7FEFF 		bl	chSysUnlock
 409              		.loc 4 232 0
 410 0050 069B     		ldr	r3, [sp, #24]
 411              	.L17:
 412              		.loc 4 233 0
 413 0052 1846     		mov	r0, r3
 414 0054 09B0     		add	sp, sp, #36
 415              		.cfi_def_cfa_offset 4
 416              		@ sp needed
 417 0056 5DF804FB 		ldr	pc, [sp], #4
 418              		.cfi_endproc
 419              	.LFE219:
 420              		.size	chThdCreateFromMemoryPool, .-chThdCreateFromMemoryPool
 421 005a 00BFAFF3 		.text
 421      0080
 422              	.Letext0:
 423              		.file 5 "/opt/gcc-arm-none-eabi/lib/gcc/arm-none-eabi/4.9.3/include/stddef.h"
 424              		.file 6 "/opt/gcc-arm-none-eabi/arm-none-eabi/include/machine/_default_types.h"
 425              		.file 7 "/opt/gcc-arm-none-eabi/arm-none-eabi/include/stdint.h"
 426              		.file 8 "/home/makkmarci/workspace/CLEAN/ChibiOS/os/rt/ports/ARMCMx/compilers/GCC/chtypes.h"
 427              		.file 9 "/home/makkmarci/workspace/CLEAN/ChibiOS/os/rt/include/chsystypes.h"
 428              		.file 10 "/home/makkmarci/workspace/CLEAN/ChibiOS/os/rt/include/chschd.h"
 429              		.file 11 "/home/makkmarci/workspace/CLEAN/ChibiOS/os/rt/ports/ARMCMx/chcore.h"
 430              		.file 12 "/home/makkmarci/workspace/CLEAN/ChibiOS/os/rt/include/chtm.h"
 431              		.file 13 "/home/makkmarci/workspace/CLEAN/ChibiOS/os/rt/include/chsem.h"
 432              		.file 14 "/home/makkmarci/workspace/CLEAN/ChibiOS/os/rt/include/chmtx.h"
 433              		.file 15 "/home/makkmarci/workspace/CLEAN/ChibiOS/os/rt/include/chthreads.h"
 434              		.file 16 "/home/makkmarci/workspace/CLEAN/ChibiOS/os/rt/include/chmemcore.h"
 435              		.file 17 "/home/makkmarci/workspace/CLEAN/ChibiOS/os/rt/include/chheap.h"
 436              		.file 18 "/home/makkmarci/workspace/CLEAN/ChibiOS/os/rt/include/chmempools.h"
 437              		.file 19 "/home/makkmarci/workspace/CLEAN/ChibiOS/os/ext/CMSIS/include/core_cm4.h"