ARM GAS  /tmp/ccxJ78bg.s 			page 1


   1              		.syntax unified
   2              		.cpu cortex-m4
   3              		.eabi_attribute 27, 1
   4              		.eabi_attribute 28, 1
   5              		.fpu fpv4-sp-d16
   6              		.eabi_attribute 20, 1
   7              		.eabi_attribute 21, 1
   8              		.eabi_attribute 23, 3
   9              		.eabi_attribute 24, 1
  10              		.eabi_attribute 25, 1
  11              		.eabi_attribute 26, 1
  12              		.eabi_attribute 30, 6
  13              		.eabi_attribute 34, 1
  14              		.eabi_attribute 18, 4
  15              		.thumb
  16              		.file	"chevents.c"
  17              		.text
  18              	.Ltext0:
  19              		.cfi_sections	.debug_frame
  20              		.section	.text.port_lock,"ax",%progbits
  21              		.align	2
  22              		.p2align 4,,15
  23              		.thumb
  24              		.thumb_func
  25              		.type	port_lock, %function
  26              	port_lock:
  27              	.LFB116:
  28              		.file 1 "/home/makkmarci/workspace/CLEAN/ChibiOS/os/rt/ports/ARMCMx/chcore_v7m.h"
  29              		.loc 1 444 0
  30              		.cfi_startproc
  31              		@ args = 0, pretend = 0, frame = 8
  32              		@ frame_needed = 0, uses_anonymous_args = 0
  33              		@ link register save eliminated.
  34 0000 82B0     		sub	sp, sp, #8
  35              		.cfi_def_cfa_offset 8
  36 0002 2023     		movs	r3, #32
  37 0004 0193     		str	r3, [sp, #4]
  38              	.LBB6:
  39              	.LBB7:
  40              		.file 2 "/home/makkmarci/workspace/CLEAN/ChibiOS/os/ext/CMSIS/include/core_cmFunc.h"
  41              		.loc 2 546 0
  42 0006 019B     		ldr	r3, [sp, #4]
  43              	@ 546 "/home/makkmarci/workspace/CLEAN/ChibiOS/os/ext/CMSIS/include/core_cmFunc.h" 1
  44 0008 83F31188 		MSR basepri, r3
  45              	@ 0 "" 2
  46              		.thumb
  47              	.LBE7:
  48              	.LBE6:
  49              		.loc 1 451 0
  50 000c 02B0     		add	sp, sp, #8
  51              		.cfi_def_cfa_offset 0
  52              		@ sp needed
  53 000e 7047     		bx	lr
  54              		.cfi_endproc
  55              	.LFE116:
  56              		.size	port_lock, .-port_lock
  57              		.section	.text.port_unlock,"ax",%progbits
ARM GAS  /tmp/ccxJ78bg.s 			page 2


  58              		.align	2
  59              		.p2align 4,,15
  60              		.thumb
  61              		.thumb_func
  62              		.type	port_unlock, %function
  63              	port_unlock:
  64              	.LFB117:
  65              		.loc 1 458 0
  66              		.cfi_startproc
  67              		@ args = 0, pretend = 0, frame = 8
  68              		@ frame_needed = 0, uses_anonymous_args = 0
  69              		@ link register save eliminated.
  70 0000 82B0     		sub	sp, sp, #8
  71              		.cfi_def_cfa_offset 8
  72 0002 0023     		movs	r3, #0
  73 0004 0193     		str	r3, [sp, #4]
  74              	.LBB8:
  75              	.LBB9:
  76              		.loc 2 546 0
  77 0006 019B     		ldr	r3, [sp, #4]
  78              	@ 546 "/home/makkmarci/workspace/CLEAN/ChibiOS/os/ext/CMSIS/include/core_cmFunc.h" 1
  79 0008 83F31188 		MSR basepri, r3
  80              	@ 0 "" 2
  81              		.thumb
  82              	.LBE9:
  83              	.LBE8:
  84              		.loc 1 465 0
  85 000c 02B0     		add	sp, sp, #8
  86              		.cfi_def_cfa_offset 0
  87              		@ sp needed
  88 000e 7047     		bx	lr
  89              		.cfi_endproc
  90              	.LFE117:
  91              		.size	port_unlock, .-port_unlock
  92              		.section	.text.chSysLock,"ax",%progbits
  93              		.align	2
  94              		.p2align 4,,15
  95              		.thumb
  96              		.thumb_func
  97              		.type	chSysLock, %function
  98              	chSysLock:
  99              	.LFB145:
 100              		.file 3 "/home/makkmarci/workspace/CLEAN/ChibiOS/os/rt/include/chsys.h"
 101              		.loc 3 346 0
 102              		.cfi_startproc
 103              		@ args = 0, pretend = 0, frame = 0
 104              		@ frame_needed = 0, uses_anonymous_args = 0
 105 0000 08B5     		push	{r3, lr}
 106              		.cfi_def_cfa_offset 8
 107              		.cfi_offset 3, -8
 108              		.cfi_offset 14, -4
 109              		.loc 3 348 0
 110 0002 FFF7FEFF 		bl	port_lock
 111              		.loc 3 351 0
 112 0006 08BD     		pop	{r3, pc}
 113              		.cfi_endproc
 114              	.LFE145:
ARM GAS  /tmp/ccxJ78bg.s 			page 3


 115              		.size	chSysLock, .-chSysLock
 116              		.section	.text.chSysUnlock,"ax",%progbits
 117              		.align	2
 118              		.p2align 4,,15
 119              		.thumb
 120              		.thumb_func
 121              		.type	chSysUnlock, %function
 122              	chSysUnlock:
 123              	.LFB146:
 124              		.loc 3 358 0
 125              		.cfi_startproc
 126              		@ args = 0, pretend = 0, frame = 0
 127              		@ frame_needed = 0, uses_anonymous_args = 0
 128 0000 08B5     		push	{r3, lr}
 129              		.cfi_def_cfa_offset 8
 130              		.cfi_offset 3, -8
 131              		.cfi_offset 14, -4
 132              		.loc 3 371 0
 133 0002 FFF7FEFF 		bl	port_unlock
 134              		.loc 3 372 0
 135 0006 08BD     		pop	{r3, pc}
 136              		.cfi_endproc
 137              	.LFE146:
 138              		.size	chSysUnlock, .-chSysUnlock
 139 0008 AFF30080 		.section	.text.chEvtRegisterMaskWithFlags,"ax",%progbits
 139      AFF30080 
 140              		.align	2
 141              		.p2align 4,,15
 142              		.global	chEvtRegisterMaskWithFlags
 143              		.thumb
 144              		.thumb_func
 145              		.type	chEvtRegisterMaskWithFlags, %function
 146              	chEvtRegisterMaskWithFlags:
 147              	.LFB216:
 148              		.file 4 "/home/makkmarci/workspace/CLEAN/ChibiOS/os/rt/src/chevents.c"
 149              		.loc 4 106 0
 150              		.cfi_startproc
 151              		@ args = 0, pretend = 0, frame = 16
 152              		@ frame_needed = 0, uses_anonymous_args = 0
 153 0000 00B5     		push	{lr}
 154              		.cfi_def_cfa_offset 4
 155              		.cfi_offset 14, -4
 156 0002 85B0     		sub	sp, sp, #20
 157              		.cfi_def_cfa_offset 24
 158 0004 0390     		str	r0, [sp, #12]
 159 0006 0291     		str	r1, [sp, #8]
 160 0008 0192     		str	r2, [sp, #4]
 161 000a 0093     		str	r3, [sp]
 162              		.loc 4 110 0
 163 000c FFF7FEFF 		bl	chSysLock
 164              		.loc 4 111 0
 165 0010 039B     		ldr	r3, [sp, #12]
 166 0012 1A68     		ldr	r2, [r3]
 167 0014 029B     		ldr	r3, [sp, #8]
 168 0016 1A60     		str	r2, [r3]
 169              		.loc 4 112 0
 170 0018 039B     		ldr	r3, [sp, #12]
ARM GAS  /tmp/ccxJ78bg.s 			page 4


 171 001a 029A     		ldr	r2, [sp, #8]
 172 001c 1A60     		str	r2, [r3]
 173              		.loc 4 113 0
 174 001e 094B     		ldr	r3, .L6
 175 0020 9A69     		ldr	r2, [r3, #24]
 176 0022 029B     		ldr	r3, [sp, #8]
 177 0024 5A60     		str	r2, [r3, #4]
 178              		.loc 4 114 0
 179 0026 029B     		ldr	r3, [sp, #8]
 180 0028 019A     		ldr	r2, [sp, #4]
 181 002a 9A60     		str	r2, [r3, #8]
 182              		.loc 4 115 0
 183 002c 029B     		ldr	r3, [sp, #8]
 184 002e 0022     		movs	r2, #0
 185 0030 DA60     		str	r2, [r3, #12]
 186              		.loc 4 116 0
 187 0032 029B     		ldr	r3, [sp, #8]
 188 0034 009A     		ldr	r2, [sp]
 189 0036 1A61     		str	r2, [r3, #16]
 190              		.loc 4 117 0
 191 0038 FFF7FEFF 		bl	chSysUnlock
 192              		.loc 4 118 0
 193 003c 05B0     		add	sp, sp, #20
 194              		.cfi_def_cfa_offset 4
 195              		@ sp needed
 196 003e 5DF804FB 		ldr	pc, [sp], #4
 197              	.L7:
 198 0042 00BF     		.align	2
 199              	.L6:
 200 0044 00000000 		.word	ch
 201              		.cfi_endproc
 202              	.LFE216:
 203              		.size	chEvtRegisterMaskWithFlags, .-chEvtRegisterMaskWithFlags
 204 0048 AFF30080 		.section	.text.chEvtUnregister,"ax",%progbits
 204      AFF30080 
 205              		.align	2
 206              		.p2align 4,,15
 207              		.global	chEvtUnregister
 208              		.thumb
 209              		.thumb_func
 210              		.type	chEvtUnregister, %function
 211              	chEvtUnregister:
 212              	.LFB217:
 213              		.loc 4 133 0
 214              		.cfi_startproc
 215              		@ args = 0, pretend = 0, frame = 16
 216              		@ frame_needed = 0, uses_anonymous_args = 0
 217 0000 00B5     		push	{lr}
 218              		.cfi_def_cfa_offset 4
 219              		.cfi_offset 14, -4
 220 0002 85B0     		sub	sp, sp, #20
 221              		.cfi_def_cfa_offset 24
 222 0004 0190     		str	r0, [sp, #4]
 223 0006 0091     		str	r1, [sp]
 224              		.loc 4 139 0
 225 0008 019B     		ldr	r3, [sp, #4]
 226 000a 0393     		str	r3, [sp, #12]
ARM GAS  /tmp/ccxJ78bg.s 			page 5


 227              		.loc 4 141 0
 228 000c FFF7FEFF 		bl	chSysLock
 229              		.loc 4 143 0
 230 0010 0CE0     		b	.L9
 231              	.L12:
 232              		.loc 4 145 0
 233 0012 039B     		ldr	r3, [sp, #12]
 234 0014 1A68     		ldr	r2, [r3]
 235 0016 009B     		ldr	r3, [sp]
 236 0018 9A42     		cmp	r2, r3
 237 001a 04D1     		bne	.L10
 238              		.loc 4 146 0
 239 001c 009B     		ldr	r3, [sp]
 240 001e 1A68     		ldr	r2, [r3]
 241 0020 039B     		ldr	r3, [sp, #12]
 242 0022 1A60     		str	r2, [r3]
 243              		.loc 4 147 0
 244 0024 07E0     		b	.L11
 245              	.L10:
 246              		.loc 4 149 0
 247 0026 039B     		ldr	r3, [sp, #12]
 248 0028 1B68     		ldr	r3, [r3]
 249 002a 0393     		str	r3, [sp, #12]
 250              	.L9:
 251              		.loc 4 143 0
 252 002c 039B     		ldr	r3, [sp, #12]
 253 002e 1A68     		ldr	r2, [r3]
 254 0030 019B     		ldr	r3, [sp, #4]
 255 0032 9A42     		cmp	r2, r3
 256 0034 EDD1     		bne	.L12
 257              	.L11:
 258              		.loc 4 151 0
 259 0036 FFF7FEFF 		bl	chSysUnlock
 260              		.loc 4 152 0
 261 003a 05B0     		add	sp, sp, #20
 262              		.cfi_def_cfa_offset 4
 263              		@ sp needed
 264 003c 5DF804FB 		ldr	pc, [sp], #4
 265              		.cfi_endproc
 266              	.LFE217:
 267              		.size	chEvtUnregister, .-chEvtUnregister
 268              		.section	.text.chEvtGetAndClearEvents,"ax",%progbits
 269              		.align	2
 270              		.p2align 4,,15
 271              		.global	chEvtGetAndClearEvents
 272              		.thumb
 273              		.thumb_func
 274              		.type	chEvtGetAndClearEvents, %function
 275              	chEvtGetAndClearEvents:
 276              	.LFB218:
 277              		.loc 4 162 0
 278              		.cfi_startproc
 279              		@ args = 0, pretend = 0, frame = 16
 280              		@ frame_needed = 0, uses_anonymous_args = 0
 281 0000 00B5     		push	{lr}
 282              		.cfi_def_cfa_offset 4
 283              		.cfi_offset 14, -4
ARM GAS  /tmp/ccxJ78bg.s 			page 6


 284 0002 85B0     		sub	sp, sp, #20
 285              		.cfi_def_cfa_offset 24
 286 0004 0190     		str	r0, [sp, #4]
 287              		.loc 4 165 0
 288 0006 FFF7FEFF 		bl	chSysLock
 289              		.loc 4 166 0
 290 000a 0B4B     		ldr	r3, .L15
 291 000c 9B69     		ldr	r3, [r3, #24]
 292 000e 5A6B     		ldr	r2, [r3, #52]
 293 0010 019B     		ldr	r3, [sp, #4]
 294 0012 1340     		ands	r3, r3, r2
 295 0014 0393     		str	r3, [sp, #12]
 296              		.loc 4 167 0
 297 0016 084B     		ldr	r3, .L15
 298 0018 9B69     		ldr	r3, [r3, #24]
 299 001a 074A     		ldr	r2, .L15
 300 001c 9269     		ldr	r2, [r2, #24]
 301 001e 516B     		ldr	r1, [r2, #52]
 302 0020 019A     		ldr	r2, [sp, #4]
 303 0022 D243     		mvns	r2, r2
 304 0024 0A40     		ands	r2, r2, r1
 305 0026 5A63     		str	r2, [r3, #52]
 306              		.loc 4 168 0
 307 0028 FFF7FEFF 		bl	chSysUnlock
 308              		.loc 4 170 0
 309 002c 039B     		ldr	r3, [sp, #12]
 310              		.loc 4 171 0
 311 002e 1846     		mov	r0, r3
 312 0030 05B0     		add	sp, sp, #20
 313              		.cfi_def_cfa_offset 4
 314              		@ sp needed
 315 0032 5DF804FB 		ldr	pc, [sp], #4
 316              	.L16:
 317 0036 00BF     		.align	2
 318              	.L15:
 319 0038 00000000 		.word	ch
 320              		.cfi_endproc
 321              	.LFE218:
 322              		.size	chEvtGetAndClearEvents, .-chEvtGetAndClearEvents
 323 003c AFF30080 		.section	.text.chEvtAddEvents,"ax",%progbits
 324              		.align	2
 325              		.p2align 4,,15
 326              		.global	chEvtAddEvents
 327              		.thumb
 328              		.thumb_func
 329              		.type	chEvtAddEvents, %function
 330              	chEvtAddEvents:
 331              	.LFB219:
 332              		.loc 4 182 0
 333              		.cfi_startproc
 334              		@ args = 0, pretend = 0, frame = 8
 335              		@ frame_needed = 0, uses_anonymous_args = 0
 336 0000 00B5     		push	{lr}
 337              		.cfi_def_cfa_offset 4
 338              		.cfi_offset 14, -4
 339 0002 83B0     		sub	sp, sp, #12
 340              		.cfi_def_cfa_offset 16
ARM GAS  /tmp/ccxJ78bg.s 			page 7


 341 0004 0190     		str	r0, [sp, #4]
 342              		.loc 4 184 0
 343 0006 FFF7FEFF 		bl	chSysLock
 344              		.loc 4 185 0
 345 000a 094B     		ldr	r3, .L19
 346 000c 9B69     		ldr	r3, [r3, #24]
 347 000e 084A     		ldr	r2, .L19
 348 0010 9269     		ldr	r2, [r2, #24]
 349 0012 516B     		ldr	r1, [r2, #52]
 350 0014 019A     		ldr	r2, [sp, #4]
 351 0016 0A43     		orrs	r2, r2, r1
 352 0018 5A63     		str	r2, [r3, #52]
 353              		.loc 4 186 0
 354 001a 054B     		ldr	r3, .L19
 355 001c 9B69     		ldr	r3, [r3, #24]
 356 001e 5B6B     		ldr	r3, [r3, #52]
 357 0020 0193     		str	r3, [sp, #4]
 358              		.loc 4 187 0
 359 0022 FFF7FEFF 		bl	chSysUnlock
 360              		.loc 4 189 0
 361 0026 019B     		ldr	r3, [sp, #4]
 362              		.loc 4 190 0
 363 0028 1846     		mov	r0, r3
 364 002a 03B0     		add	sp, sp, #12
 365              		.cfi_def_cfa_offset 4
 366              		@ sp needed
 367 002c 5DF804FB 		ldr	pc, [sp], #4
 368              	.L20:
 369              		.align	2
 370              	.L19:
 371 0030 00000000 		.word	ch
 372              		.cfi_endproc
 373              	.LFE219:
 374              		.size	chEvtAddEvents, .-chEvtAddEvents
 375 0034 AFF30080 		.section	.text.chEvtBroadcastFlagsI,"ax",%progbits
 375      AFF30080 
 375      AFF30080 
 376              		.align	2
 377              		.p2align 4,,15
 378              		.global	chEvtBroadcastFlagsI
 379              		.thumb
 380              		.thumb_func
 381              		.type	chEvtBroadcastFlagsI, %function
 382              	chEvtBroadcastFlagsI:
 383              	.LFB220:
 384              		.loc 4 209 0
 385              		.cfi_startproc
 386              		@ args = 0, pretend = 0, frame = 16
 387              		@ frame_needed = 0, uses_anonymous_args = 0
 388 0000 00B5     		push	{lr}
 389              		.cfi_def_cfa_offset 4
 390              		.cfi_offset 14, -4
 391 0002 85B0     		sub	sp, sp, #20
 392              		.cfi_def_cfa_offset 24
 393 0004 0190     		str	r0, [sp, #4]
 394 0006 0091     		str	r1, [sp]
 395              		.loc 4 215 0
ARM GAS  /tmp/ccxJ78bg.s 			page 8


 396 0008 019B     		ldr	r3, [sp, #4]
 397 000a 1B68     		ldr	r3, [r3]
 398 000c 0393     		str	r3, [sp, #12]
 399              		.loc 4 217 0
 400 000e 1AE0     		b	.L22
 401              	.L25:
 402              		.loc 4 219 0
 403 0010 039B     		ldr	r3, [sp, #12]
 404 0012 DA68     		ldr	r2, [r3, #12]
 405 0014 009B     		ldr	r3, [sp]
 406 0016 1A43     		orrs	r2, r2, r3
 407 0018 039B     		ldr	r3, [sp, #12]
 408 001a DA60     		str	r2, [r3, #12]
 409              		.loc 4 222 0
 410 001c 009B     		ldr	r3, [sp]
 411 001e 002B     		cmp	r3, #0
 412 0020 06D0     		beq	.L23
 413              		.loc 4 223 0 discriminator 1
 414 0022 039B     		ldr	r3, [sp, #12]
 415 0024 DA68     		ldr	r2, [r3, #12]
 416 0026 039B     		ldr	r3, [sp, #12]
 417 0028 1B69     		ldr	r3, [r3, #16]
 418 002a 1340     		ands	r3, r3, r2
 419              		.loc 4 222 0 discriminator 1
 420 002c 002B     		cmp	r3, #0
 421 002e 07D0     		beq	.L24
 422              	.L23:
 423              		.loc 4 224 0
 424 0030 039B     		ldr	r3, [sp, #12]
 425 0032 5A68     		ldr	r2, [r3, #4]
 426 0034 039B     		ldr	r3, [sp, #12]
 427 0036 9B68     		ldr	r3, [r3, #8]
 428 0038 1046     		mov	r0, r2
 429 003a 1946     		mov	r1, r3
 430 003c FFF7FEFF 		bl	chEvtSignalI
 431              	.L24:
 432              		.loc 4 226 0
 433 0040 039B     		ldr	r3, [sp, #12]
 434 0042 1B68     		ldr	r3, [r3]
 435 0044 0393     		str	r3, [sp, #12]
 436              	.L22:
 437              		.loc 4 217 0
 438 0046 039A     		ldr	r2, [sp, #12]
 439 0048 019B     		ldr	r3, [sp, #4]
 440 004a 9A42     		cmp	r2, r3
 441 004c E0D1     		bne	.L25
 442              		.loc 4 228 0
 443 004e 05B0     		add	sp, sp, #20
 444              		.cfi_def_cfa_offset 4
 445              		@ sp needed
 446 0050 5DF804FB 		ldr	pc, [sp], #4
 447              		.cfi_endproc
 448              	.LFE220:
 449              		.size	chEvtBroadcastFlagsI, .-chEvtBroadcastFlagsI
 450 0054 AFF30080 		.section	.text.chEvtGetAndClearFlags,"ax",%progbits
 450      AFF30080 
 450      AFF30080 
ARM GAS  /tmp/ccxJ78bg.s 			page 9


 451              		.align	2
 452              		.p2align 4,,15
 453              		.global	chEvtGetAndClearFlags
 454              		.thumb
 455              		.thumb_func
 456              		.type	chEvtGetAndClearFlags, %function
 457              	chEvtGetAndClearFlags:
 458              	.LFB221:
 459              		.loc 4 241 0
 460              		.cfi_startproc
 461              		@ args = 0, pretend = 0, frame = 16
 462              		@ frame_needed = 0, uses_anonymous_args = 0
 463 0000 00B5     		push	{lr}
 464              		.cfi_def_cfa_offset 4
 465              		.cfi_offset 14, -4
 466 0002 85B0     		sub	sp, sp, #20
 467              		.cfi_def_cfa_offset 24
 468 0004 0190     		str	r0, [sp, #4]
 469              		.loc 4 244 0
 470 0006 FFF7FEFF 		bl	chSysLock
 471              		.loc 4 245 0
 472 000a 019B     		ldr	r3, [sp, #4]
 473 000c DB68     		ldr	r3, [r3, #12]
 474 000e 0393     		str	r3, [sp, #12]
 475              		.loc 4 246 0
 476 0010 019B     		ldr	r3, [sp, #4]
 477 0012 0022     		movs	r2, #0
 478 0014 DA60     		str	r2, [r3, #12]
 479              		.loc 4 247 0
 480 0016 FFF7FEFF 		bl	chSysUnlock
 481              		.loc 4 249 0
 482 001a 039B     		ldr	r3, [sp, #12]
 483              		.loc 4 250 0
 484 001c 1846     		mov	r0, r3
 485 001e 05B0     		add	sp, sp, #20
 486              		.cfi_def_cfa_offset 4
 487              		@ sp needed
 488 0020 5DF804FB 		ldr	pc, [sp], #4
 489              		.cfi_endproc
 490              	.LFE221:
 491              		.size	chEvtGetAndClearFlags, .-chEvtGetAndClearFlags
 492 0024 AFF30080 		.section	.text.chEvtSignal,"ax",%progbits
 492      AFF30080 
 492      AFF30080 
 493              		.align	2
 494              		.p2align 4,,15
 495              		.global	chEvtSignal
 496              		.thumb
 497              		.thumb_func
 498              		.type	chEvtSignal, %function
 499              	chEvtSignal:
 500              	.LFB222:
 501              		.loc 4 260 0
 502              		.cfi_startproc
 503              		@ args = 0, pretend = 0, frame = 8
 504              		@ frame_needed = 0, uses_anonymous_args = 0
 505 0000 00B5     		push	{lr}
ARM GAS  /tmp/ccxJ78bg.s 			page 10


 506              		.cfi_def_cfa_offset 4
 507              		.cfi_offset 14, -4
 508 0002 83B0     		sub	sp, sp, #12
 509              		.cfi_def_cfa_offset 16
 510 0004 0190     		str	r0, [sp, #4]
 511 0006 0091     		str	r1, [sp]
 512              		.loc 4 264 0
 513 0008 FFF7FEFF 		bl	chSysLock
 514              		.loc 4 265 0
 515 000c 0198     		ldr	r0, [sp, #4]
 516 000e 0099     		ldr	r1, [sp]
 517 0010 FFF7FEFF 		bl	chEvtSignalI
 518              		.loc 4 266 0
 519 0014 FFF7FEFF 		bl	chSchRescheduleS
 520              		.loc 4 267 0
 521 0018 FFF7FEFF 		bl	chSysUnlock
 522              		.loc 4 268 0
 523 001c 03B0     		add	sp, sp, #12
 524              		.cfi_def_cfa_offset 4
 525              		@ sp needed
 526 001e 5DF804FB 		ldr	pc, [sp], #4
 527              		.cfi_endproc
 528              	.LFE222:
 529              		.size	chEvtSignal, .-chEvtSignal
 530 0022 00BFAFF3 		.section	.text.chEvtSignalI,"ax",%progbits
 530      0080AFF3 
 530      0080AFF3 
 530      0080
 531              		.align	2
 532              		.p2align 4,,15
 533              		.global	chEvtSignalI
 534              		.thumb
 535              		.thumb_func
 536              		.type	chEvtSignalI, %function
 537              	chEvtSignalI:
 538              	.LFB223:
 539              		.loc 4 282 0
 540              		.cfi_startproc
 541              		@ args = 0, pretend = 0, frame = 8
 542              		@ frame_needed = 0, uses_anonymous_args = 0
 543 0000 00B5     		push	{lr}
 544              		.cfi_def_cfa_offset 4
 545              		.cfi_offset 14, -4
 546 0002 83B0     		sub	sp, sp, #12
 547              		.cfi_def_cfa_offset 16
 548 0004 0190     		str	r0, [sp, #4]
 549 0006 0091     		str	r1, [sp]
 550              		.loc 4 287 0
 551 0008 019B     		ldr	r3, [sp, #4]
 552 000a 5A6B     		ldr	r2, [r3, #52]
 553 000c 009B     		ldr	r3, [sp]
 554 000e 1A43     		orrs	r2, r2, r3
 555 0010 019B     		ldr	r3, [sp, #4]
 556 0012 5A63     		str	r2, [r3, #52]
 557              		.loc 4 289 0
 558 0014 019B     		ldr	r3, [sp, #4]
 559 0016 1B7F     		ldrb	r3, [r3, #28]	@ zero_extendqisi2
ARM GAS  /tmp/ccxJ78bg.s 			page 11


 560 0018 0A2B     		cmp	r3, #10
 561 001a 06D1     		bne	.L30
 562              		.loc 4 290 0 discriminator 1
 563 001c 019B     		ldr	r3, [sp, #4]
 564 001e 5A6B     		ldr	r2, [r3, #52]
 565 0020 019B     		ldr	r3, [sp, #4]
 566 0022 1B6A     		ldr	r3, [r3, #32]
 567 0024 1340     		ands	r3, r3, r2
 568              		.loc 4 289 0 discriminator 1
 569 0026 002B     		cmp	r3, #0
 570 0028 0CD1     		bne	.L31
 571              	.L30:
 572              		.loc 4 291 0
 573 002a 019B     		ldr	r3, [sp, #4]
 574 002c 1B7F     		ldrb	r3, [r3, #28]	@ zero_extendqisi2
 575              		.loc 4 290 0
 576 002e 0B2B     		cmp	r3, #11
 577 0030 0ED1     		bne	.L29
 578              		.loc 4 292 0
 579 0032 019B     		ldr	r3, [sp, #4]
 580 0034 5A6B     		ldr	r2, [r3, #52]
 581 0036 019B     		ldr	r3, [sp, #4]
 582 0038 1B6A     		ldr	r3, [r3, #32]
 583 003a 1A40     		ands	r2, r2, r3
 584 003c 019B     		ldr	r3, [sp, #4]
 585 003e 1B6A     		ldr	r3, [r3, #32]
 586              		.loc 4 291 0
 587 0040 9A42     		cmp	r2, r3
 588 0042 05D1     		bne	.L29
 589              	.L31:
 590              		.loc 4 293 0
 591 0044 019B     		ldr	r3, [sp, #4]
 592 0046 0022     		movs	r2, #0
 593 0048 1A62     		str	r2, [r3, #32]
 594              		.loc 4 294 0
 595 004a 0198     		ldr	r0, [sp, #4]
 596 004c FFF7FEFF 		bl	chSchReadyI
 597              	.L29:
 598              		.loc 4 296 0
 599 0050 03B0     		add	sp, sp, #12
 600              		.cfi_def_cfa_offset 4
 601              		@ sp needed
 602 0052 5DF804FB 		ldr	pc, [sp], #4
 603              		.cfi_endproc
 604              	.LFE223:
 605              		.size	chEvtSignalI, .-chEvtSignalI
 606 0056 00BFAFF3 		.section	.text.chEvtBroadcastFlags,"ax",%progbits
 606      0080AFF3 
 606      0080
 607              		.align	2
 608              		.p2align 4,,15
 609              		.global	chEvtBroadcastFlags
 610              		.thumb
 611              		.thumb_func
 612              		.type	chEvtBroadcastFlags, %function
 613              	chEvtBroadcastFlags:
 614              	.LFB224:
ARM GAS  /tmp/ccxJ78bg.s 			page 12


 615              		.loc 4 311 0
 616              		.cfi_startproc
 617              		@ args = 0, pretend = 0, frame = 8
 618              		@ frame_needed = 0, uses_anonymous_args = 0
 619 0000 00B5     		push	{lr}
 620              		.cfi_def_cfa_offset 4
 621              		.cfi_offset 14, -4
 622 0002 83B0     		sub	sp, sp, #12
 623              		.cfi_def_cfa_offset 16
 624 0004 0190     		str	r0, [sp, #4]
 625 0006 0091     		str	r1, [sp]
 626              		.loc 4 313 0
 627 0008 FFF7FEFF 		bl	chSysLock
 628              		.loc 4 314 0
 629 000c 0198     		ldr	r0, [sp, #4]
 630 000e 0099     		ldr	r1, [sp]
 631 0010 FFF7FEFF 		bl	chEvtBroadcastFlagsI
 632              		.loc 4 315 0
 633 0014 FFF7FEFF 		bl	chSchRescheduleS
 634              		.loc 4 316 0
 635 0018 FFF7FEFF 		bl	chSysUnlock
 636              		.loc 4 317 0
 637 001c 03B0     		add	sp, sp, #12
 638              		.cfi_def_cfa_offset 4
 639              		@ sp needed
 640 001e 5DF804FB 		ldr	pc, [sp], #4
 641              		.cfi_endproc
 642              	.LFE224:
 643              		.size	chEvtBroadcastFlags, .-chEvtBroadcastFlags
 644 0022 00BFAFF3 		.section	.text.chEvtGetAndClearFlagsI,"ax",%progbits
 644      0080AFF3 
 644      0080AFF3 
 644      0080
 645              		.align	2
 646              		.p2align 4,,15
 647              		.global	chEvtGetAndClearFlagsI
 648              		.thumb
 649              		.thumb_func
 650              		.type	chEvtGetAndClearFlagsI, %function
 651              	chEvtGetAndClearFlagsI:
 652              	.LFB225:
 653              		.loc 4 330 0
 654              		.cfi_startproc
 655              		@ args = 0, pretend = 0, frame = 16
 656              		@ frame_needed = 0, uses_anonymous_args = 0
 657              		@ link register save eliminated.
 658 0000 84B0     		sub	sp, sp, #16
 659              		.cfi_def_cfa_offset 16
 660 0002 0190     		str	r0, [sp, #4]
 661              		.loc 4 333 0
 662 0004 019B     		ldr	r3, [sp, #4]
 663 0006 DB68     		ldr	r3, [r3, #12]
 664 0008 0393     		str	r3, [sp, #12]
 665              		.loc 4 334 0
 666 000a 019B     		ldr	r3, [sp, #4]
 667 000c 0022     		movs	r2, #0
 668 000e DA60     		str	r2, [r3, #12]
ARM GAS  /tmp/ccxJ78bg.s 			page 13


 669              		.loc 4 336 0
 670 0010 039B     		ldr	r3, [sp, #12]
 671              		.loc 4 337 0
 672 0012 1846     		mov	r0, r3
 673 0014 04B0     		add	sp, sp, #16
 674              		.cfi_def_cfa_offset 0
 675              		@ sp needed
 676 0016 7047     		bx	lr
 677              		.cfi_endproc
 678              	.LFE225:
 679              		.size	chEvtGetAndClearFlagsI, .-chEvtGetAndClearFlagsI
 680 0018 AFF30080 		.section	.text.chEvtDispatch,"ax",%progbits
 680      AFF30080 
 681              		.align	2
 682              		.p2align 4,,15
 683              		.global	chEvtDispatch
 684              		.thumb
 685              		.thumb_func
 686              		.type	chEvtDispatch, %function
 687              	chEvtDispatch:
 688              	.LFB226:
 689              		.loc 4 348 0
 690              		.cfi_startproc
 691              		@ args = 0, pretend = 0, frame = 16
 692              		@ frame_needed = 0, uses_anonymous_args = 0
 693 0000 00B5     		push	{lr}
 694              		.cfi_def_cfa_offset 4
 695              		.cfi_offset 14, -4
 696 0002 85B0     		sub	sp, sp, #20
 697              		.cfi_def_cfa_offset 24
 698 0004 0190     		str	r0, [sp, #4]
 699 0006 0091     		str	r1, [sp]
 700              		.loc 4 353 0
 701 0008 0023     		movs	r3, #0
 702 000a 0393     		str	r3, [sp, #12]
 703              		.loc 4 354 0
 704 000c 19E0     		b	.L37
 705              	.L39:
 706              		.loc 4 355 0
 707 000e 009A     		ldr	r2, [sp]
 708 0010 039B     		ldr	r3, [sp, #12]
 709 0012 22FA03F3 		lsr	r3, r2, r3
 710 0016 03F00103 		and	r3, r3, #1
 711 001a 002B     		cmp	r3, #0
 712 001c 0ED0     		beq	.L38
 713              		.loc 4 357 0
 714 001e 0122     		movs	r2, #1
 715 0020 039B     		ldr	r3, [sp, #12]
 716 0022 02FA03F3 		lsl	r3, r2, r3
 717 0026 DB43     		mvns	r3, r3
 718 0028 009A     		ldr	r2, [sp]
 719 002a 1340     		ands	r3, r3, r2
 720 002c 0093     		str	r3, [sp]
 721              		.loc 4 358 0
 722 002e 039B     		ldr	r3, [sp, #12]
 723 0030 9B00     		lsls	r3, r3, #2
 724 0032 019A     		ldr	r2, [sp, #4]
ARM GAS  /tmp/ccxJ78bg.s 			page 14


 725 0034 1344     		add	r3, r3, r2
 726 0036 1B68     		ldr	r3, [r3]
 727 0038 0398     		ldr	r0, [sp, #12]
 728 003a 9847     		blx	r3
 729              	.L38:
 730              		.loc 4 360 0
 731 003c 039B     		ldr	r3, [sp, #12]
 732 003e 0133     		adds	r3, r3, #1
 733 0040 0393     		str	r3, [sp, #12]
 734              	.L37:
 735              		.loc 4 354 0
 736 0042 009B     		ldr	r3, [sp]
 737 0044 002B     		cmp	r3, #0
 738 0046 E2D1     		bne	.L39
 739              		.loc 4 362 0
 740 0048 05B0     		add	sp, sp, #20
 741              		.cfi_def_cfa_offset 4
 742              		@ sp needed
 743 004a 5DF804FB 		ldr	pc, [sp], #4
 744              		.cfi_endproc
 745              	.LFE226:
 746              		.size	chEvtDispatch, .-chEvtDispatch
 747 004e 00BF     		.section	.text.chEvtWaitOne,"ax",%progbits
 748              		.align	2
 749              		.p2align 4,,15
 750              		.global	chEvtWaitOne
 751              		.thumb
 752              		.thumb_func
 753              		.type	chEvtWaitOne, %function
 754              	chEvtWaitOne:
 755              	.LFB227:
 756              		.loc 4 383 0
 757              		.cfi_startproc
 758              		@ args = 0, pretend = 0, frame = 16
 759              		@ frame_needed = 0, uses_anonymous_args = 0
 760 0000 00B5     		push	{lr}
 761              		.cfi_def_cfa_offset 4
 762              		.cfi_offset 14, -4
 763 0002 85B0     		sub	sp, sp, #20
 764              		.cfi_def_cfa_offset 24
 765 0004 0190     		str	r0, [sp, #4]
 766              		.loc 4 384 0
 767 0006 154B     		ldr	r3, .L43
 768 0008 9B69     		ldr	r3, [r3, #24]
 769 000a 0293     		str	r3, [sp, #8]
 770              		.loc 4 387 0
 771 000c FFF7FEFF 		bl	chSysLock
 772              		.loc 4 388 0
 773 0010 029B     		ldr	r3, [sp, #8]
 774 0012 5A6B     		ldr	r2, [r3, #52]
 775 0014 019B     		ldr	r3, [sp, #4]
 776 0016 1340     		ands	r3, r3, r2
 777 0018 0393     		str	r3, [sp, #12]
 778              		.loc 4 389 0
 779 001a 039B     		ldr	r3, [sp, #12]
 780 001c 002B     		cmp	r3, #0
 781 001e 0AD1     		bne	.L41
ARM GAS  /tmp/ccxJ78bg.s 			page 15


 782              		.loc 4 390 0
 783 0020 029B     		ldr	r3, [sp, #8]
 784 0022 019A     		ldr	r2, [sp, #4]
 785 0024 1A62     		str	r2, [r3, #32]
 786              		.loc 4 391 0
 787 0026 0A20     		movs	r0, #10
 788 0028 FFF7FEFF 		bl	chSchGoSleepS
 789              		.loc 4 392 0
 790 002c 029B     		ldr	r3, [sp, #8]
 791 002e 5A6B     		ldr	r2, [r3, #52]
 792 0030 019B     		ldr	r3, [sp, #4]
 793 0032 1340     		ands	r3, r3, r2
 794 0034 0393     		str	r3, [sp, #12]
 795              	.L41:
 796              		.loc 4 394 0
 797 0036 039B     		ldr	r3, [sp, #12]
 798 0038 5B42     		negs	r3, r3
 799 003a 039A     		ldr	r2, [sp, #12]
 800 003c 1340     		ands	r3, r3, r2
 801 003e 0393     		str	r3, [sp, #12]
 802              		.loc 4 395 0
 803 0040 029B     		ldr	r3, [sp, #8]
 804 0042 5A6B     		ldr	r2, [r3, #52]
 805 0044 039B     		ldr	r3, [sp, #12]
 806 0046 DB43     		mvns	r3, r3
 807 0048 1A40     		ands	r2, r2, r3
 808 004a 029B     		ldr	r3, [sp, #8]
 809 004c 5A63     		str	r2, [r3, #52]
 810              		.loc 4 396 0
 811 004e FFF7FEFF 		bl	chSysUnlock
 812              		.loc 4 398 0
 813 0052 039B     		ldr	r3, [sp, #12]
 814              		.loc 4 399 0
 815 0054 1846     		mov	r0, r3
 816 0056 05B0     		add	sp, sp, #20
 817              		.cfi_def_cfa_offset 4
 818              		@ sp needed
 819 0058 5DF804FB 		ldr	pc, [sp], #4
 820              	.L44:
 821              		.align	2
 822              	.L43:
 823 005c 00000000 		.word	ch
 824              		.cfi_endproc
 825              	.LFE227:
 826              		.size	chEvtWaitOne, .-chEvtWaitOne
 827              		.section	.text.chEvtWaitAny,"ax",%progbits
 828              		.align	2
 829              		.p2align 4,,15
 830              		.global	chEvtWaitAny
 831              		.thumb
 832              		.thumb_func
 833              		.type	chEvtWaitAny, %function
 834              	chEvtWaitAny:
 835              	.LFB228:
 836              		.loc 4 413 0
 837              		.cfi_startproc
 838              		@ args = 0, pretend = 0, frame = 16
ARM GAS  /tmp/ccxJ78bg.s 			page 16


 839              		@ frame_needed = 0, uses_anonymous_args = 0
 840 0000 00B5     		push	{lr}
 841              		.cfi_def_cfa_offset 4
 842              		.cfi_offset 14, -4
 843 0002 85B0     		sub	sp, sp, #20
 844              		.cfi_def_cfa_offset 24
 845 0004 0190     		str	r0, [sp, #4]
 846              		.loc 4 414 0
 847 0006 134B     		ldr	r3, .L48
 848 0008 9B69     		ldr	r3, [r3, #24]
 849 000a 0293     		str	r3, [sp, #8]
 850              		.loc 4 417 0
 851 000c FFF7FEFF 		bl	chSysLock
 852              		.loc 4 418 0
 853 0010 029B     		ldr	r3, [sp, #8]
 854 0012 5A6B     		ldr	r2, [r3, #52]
 855 0014 019B     		ldr	r3, [sp, #4]
 856 0016 1340     		ands	r3, r3, r2
 857 0018 0393     		str	r3, [sp, #12]
 858              		.loc 4 419 0
 859 001a 039B     		ldr	r3, [sp, #12]
 860 001c 002B     		cmp	r3, #0
 861 001e 0AD1     		bne	.L46
 862              		.loc 4 420 0
 863 0020 029B     		ldr	r3, [sp, #8]
 864 0022 019A     		ldr	r2, [sp, #4]
 865 0024 1A62     		str	r2, [r3, #32]
 866              		.loc 4 421 0
 867 0026 0A20     		movs	r0, #10
 868 0028 FFF7FEFF 		bl	chSchGoSleepS
 869              		.loc 4 422 0
 870 002c 029B     		ldr	r3, [sp, #8]
 871 002e 5A6B     		ldr	r2, [r3, #52]
 872 0030 019B     		ldr	r3, [sp, #4]
 873 0032 1340     		ands	r3, r3, r2
 874 0034 0393     		str	r3, [sp, #12]
 875              	.L46:
 876              		.loc 4 424 0
 877 0036 029B     		ldr	r3, [sp, #8]
 878 0038 5A6B     		ldr	r2, [r3, #52]
 879 003a 039B     		ldr	r3, [sp, #12]
 880 003c DB43     		mvns	r3, r3
 881 003e 1A40     		ands	r2, r2, r3
 882 0040 029B     		ldr	r3, [sp, #8]
 883 0042 5A63     		str	r2, [r3, #52]
 884              		.loc 4 425 0
 885 0044 FFF7FEFF 		bl	chSysUnlock
 886              		.loc 4 427 0
 887 0048 039B     		ldr	r3, [sp, #12]
 888              		.loc 4 428 0
 889 004a 1846     		mov	r0, r3
 890 004c 05B0     		add	sp, sp, #20
 891              		.cfi_def_cfa_offset 4
 892              		@ sp needed
 893 004e 5DF804FB 		ldr	pc, [sp], #4
 894              	.L49:
 895 0052 00BF     		.align	2
ARM GAS  /tmp/ccxJ78bg.s 			page 17


 896              	.L48:
 897 0054 00000000 		.word	ch
 898              		.cfi_endproc
 899              	.LFE228:
 900              		.size	chEvtWaitAny, .-chEvtWaitAny
 901 0058 AFF30080 		.section	.text.chEvtWaitAll,"ax",%progbits
 901      AFF30080 
 902              		.align	2
 903              		.p2align 4,,15
 904              		.global	chEvtWaitAll
 905              		.thumb
 906              		.thumb_func
 907              		.type	chEvtWaitAll, %function
 908              	chEvtWaitAll:
 909              	.LFB229:
 910              		.loc 4 441 0
 911              		.cfi_startproc
 912              		@ args = 0, pretend = 0, frame = 16
 913              		@ frame_needed = 0, uses_anonymous_args = 0
 914 0000 00B5     		push	{lr}
 915              		.cfi_def_cfa_offset 4
 916              		.cfi_offset 14, -4
 917 0002 85B0     		sub	sp, sp, #20
 918              		.cfi_def_cfa_offset 24
 919 0004 0190     		str	r0, [sp, #4]
 920              		.loc 4 442 0
 921 0006 104B     		ldr	r3, .L53
 922 0008 9B69     		ldr	r3, [r3, #24]
 923 000a 0393     		str	r3, [sp, #12]
 924              		.loc 4 444 0
 925 000c FFF7FEFF 		bl	chSysLock
 926              		.loc 4 445 0
 927 0010 039B     		ldr	r3, [sp, #12]
 928 0012 5A6B     		ldr	r2, [r3, #52]
 929 0014 019B     		ldr	r3, [sp, #4]
 930 0016 1A40     		ands	r2, r2, r3
 931 0018 019B     		ldr	r3, [sp, #4]
 932 001a 9A42     		cmp	r2, r3
 933 001c 05D0     		beq	.L51
 934              		.loc 4 446 0
 935 001e 039B     		ldr	r3, [sp, #12]
 936 0020 019A     		ldr	r2, [sp, #4]
 937 0022 1A62     		str	r2, [r3, #32]
 938              		.loc 4 447 0
 939 0024 0B20     		movs	r0, #11
 940 0026 FFF7FEFF 		bl	chSchGoSleepS
 941              	.L51:
 942              		.loc 4 449 0
 943 002a 039B     		ldr	r3, [sp, #12]
 944 002c 5A6B     		ldr	r2, [r3, #52]
 945 002e 019B     		ldr	r3, [sp, #4]
 946 0030 DB43     		mvns	r3, r3
 947 0032 1A40     		ands	r2, r2, r3
 948 0034 039B     		ldr	r3, [sp, #12]
 949 0036 5A63     		str	r2, [r3, #52]
 950              		.loc 4 450 0
 951 0038 FFF7FEFF 		bl	chSysUnlock
ARM GAS  /tmp/ccxJ78bg.s 			page 18


 952              		.loc 4 452 0
 953 003c 019B     		ldr	r3, [sp, #4]
 954              		.loc 4 453 0
 955 003e 1846     		mov	r0, r3
 956 0040 05B0     		add	sp, sp, #20
 957              		.cfi_def_cfa_offset 4
 958              		@ sp needed
 959 0042 5DF804FB 		ldr	pc, [sp], #4
 960              	.L54:
 961 0046 00BF     		.align	2
 962              	.L53:
 963 0048 00000000 		.word	ch
 964              		.cfi_endproc
 965              	.LFE229:
 966              		.size	chEvtWaitAll, .-chEvtWaitAll
 967 004c AFF30080 		.section	.text.chEvtWaitOneTimeout,"ax",%progbits
 968              		.align	2
 969              		.p2align 4,,15
 970              		.global	chEvtWaitOneTimeout
 971              		.thumb
 972              		.thumb_func
 973              		.type	chEvtWaitOneTimeout, %function
 974              	chEvtWaitOneTimeout:
 975              	.LFB230:
 976              		.loc 4 479 0
 977              		.cfi_startproc
 978              		@ args = 0, pretend = 0, frame = 16
 979              		@ frame_needed = 0, uses_anonymous_args = 0
 980 0000 00B5     		push	{lr}
 981              		.cfi_def_cfa_offset 4
 982              		.cfi_offset 14, -4
 983 0002 85B0     		sub	sp, sp, #20
 984              		.cfi_def_cfa_offset 24
 985 0004 0190     		str	r0, [sp, #4]
 986 0006 0091     		str	r1, [sp]
 987              		.loc 4 480 0
 988 0008 1C4B     		ldr	r3, .L60
 989 000a 9B69     		ldr	r3, [r3, #24]
 990 000c 0293     		str	r3, [sp, #8]
 991              		.loc 4 483 0
 992 000e FFF7FEFF 		bl	chSysLock
 993              		.loc 4 484 0
 994 0012 029B     		ldr	r3, [sp, #8]
 995 0014 5A6B     		ldr	r2, [r3, #52]
 996 0016 019B     		ldr	r3, [sp, #4]
 997 0018 1340     		ands	r3, r3, r2
 998 001a 0393     		str	r3, [sp, #12]
 999              		.loc 4 485 0
 1000 001c 039B     		ldr	r3, [sp, #12]
 1001 001e 002B     		cmp	r3, #0
 1002 0020 19D1     		bne	.L56
 1003              		.loc 4 486 0
 1004 0022 009B     		ldr	r3, [sp]
 1005 0024 002B     		cmp	r3, #0
 1006 0026 03D1     		bne	.L57
 1007              		.loc 4 487 0
 1008 0028 FFF7FEFF 		bl	chSysUnlock
ARM GAS  /tmp/ccxJ78bg.s 			page 19


 1009              		.loc 4 488 0
 1010 002c 0023     		movs	r3, #0
 1011 002e 21E0     		b	.L58
 1012              	.L57:
 1013              		.loc 4 490 0
 1014 0030 029B     		ldr	r3, [sp, #8]
 1015 0032 019A     		ldr	r2, [sp, #4]
 1016 0034 1A62     		str	r2, [r3, #32]
 1017              		.loc 4 491 0
 1018 0036 0A20     		movs	r0, #10
 1019 0038 0099     		ldr	r1, [sp]
 1020 003a FFF7FEFF 		bl	chSchGoSleepTimeoutS
 1021 003e 0346     		mov	r3, r0
 1022 0040 002B     		cmp	r3, #0
 1023 0042 03DA     		bge	.L59
 1024              		.loc 4 492 0
 1025 0044 FFF7FEFF 		bl	chSysUnlock
 1026              		.loc 4 493 0
 1027 0048 0023     		movs	r3, #0
 1028 004a 13E0     		b	.L58
 1029              	.L59:
 1030              		.loc 4 495 0
 1031 004c 029B     		ldr	r3, [sp, #8]
 1032 004e 5A6B     		ldr	r2, [r3, #52]
 1033 0050 019B     		ldr	r3, [sp, #4]
 1034 0052 1340     		ands	r3, r3, r2
 1035 0054 0393     		str	r3, [sp, #12]
 1036              	.L56:
 1037              		.loc 4 497 0
 1038 0056 039B     		ldr	r3, [sp, #12]
 1039 0058 5B42     		negs	r3, r3
 1040 005a 039A     		ldr	r2, [sp, #12]
 1041 005c 1340     		ands	r3, r3, r2
 1042 005e 0393     		str	r3, [sp, #12]
 1043              		.loc 4 498 0
 1044 0060 029B     		ldr	r3, [sp, #8]
 1045 0062 5A6B     		ldr	r2, [r3, #52]
 1046 0064 039B     		ldr	r3, [sp, #12]
 1047 0066 DB43     		mvns	r3, r3
 1048 0068 1A40     		ands	r2, r2, r3
 1049 006a 029B     		ldr	r3, [sp, #8]
 1050 006c 5A63     		str	r2, [r3, #52]
 1051              		.loc 4 499 0
 1052 006e FFF7FEFF 		bl	chSysUnlock
 1053              		.loc 4 501 0
 1054 0072 039B     		ldr	r3, [sp, #12]
 1055              	.L58:
 1056              		.loc 4 502 0
 1057 0074 1846     		mov	r0, r3
 1058 0076 05B0     		add	sp, sp, #20
 1059              		.cfi_def_cfa_offset 4
 1060              		@ sp needed
 1061 0078 5DF804FB 		ldr	pc, [sp], #4
 1062              	.L61:
 1063              		.align	2
 1064              	.L60:
 1065 007c 00000000 		.word	ch
ARM GAS  /tmp/ccxJ78bg.s 			page 20


 1066              		.cfi_endproc
 1067              	.LFE230:
 1068              		.size	chEvtWaitOneTimeout, .-chEvtWaitOneTimeout
 1069              		.section	.text.chEvtWaitAnyTimeout,"ax",%progbits
 1070              		.align	2
 1071              		.p2align 4,,15
 1072              		.global	chEvtWaitAnyTimeout
 1073              		.thumb
 1074              		.thumb_func
 1075              		.type	chEvtWaitAnyTimeout, %function
 1076              	chEvtWaitAnyTimeout:
 1077              	.LFB231:
 1078              		.loc 4 522 0
 1079              		.cfi_startproc
 1080              		@ args = 0, pretend = 0, frame = 16
 1081              		@ frame_needed = 0, uses_anonymous_args = 0
 1082 0000 00B5     		push	{lr}
 1083              		.cfi_def_cfa_offset 4
 1084              		.cfi_offset 14, -4
 1085 0002 85B0     		sub	sp, sp, #20
 1086              		.cfi_def_cfa_offset 24
 1087 0004 0190     		str	r0, [sp, #4]
 1088 0006 0091     		str	r1, [sp]
 1089              		.loc 4 523 0
 1090 0008 1A4B     		ldr	r3, .L67
 1091 000a 9B69     		ldr	r3, [r3, #24]
 1092 000c 0293     		str	r3, [sp, #8]
 1093              		.loc 4 526 0
 1094 000e FFF7FEFF 		bl	chSysLock
 1095              		.loc 4 527 0
 1096 0012 029B     		ldr	r3, [sp, #8]
 1097 0014 5A6B     		ldr	r2, [r3, #52]
 1098 0016 019B     		ldr	r3, [sp, #4]
 1099 0018 1340     		ands	r3, r3, r2
 1100 001a 0393     		str	r3, [sp, #12]
 1101              		.loc 4 528 0
 1102 001c 039B     		ldr	r3, [sp, #12]
 1103 001e 002B     		cmp	r3, #0
 1104 0020 19D1     		bne	.L63
 1105              		.loc 4 529 0
 1106 0022 009B     		ldr	r3, [sp]
 1107 0024 002B     		cmp	r3, #0
 1108 0026 03D1     		bne	.L64
 1109              		.loc 4 530 0
 1110 0028 FFF7FEFF 		bl	chSysUnlock
 1111              		.loc 4 531 0
 1112 002c 0023     		movs	r3, #0
 1113 002e 1CE0     		b	.L65
 1114              	.L64:
 1115              		.loc 4 533 0
 1116 0030 029B     		ldr	r3, [sp, #8]
 1117 0032 019A     		ldr	r2, [sp, #4]
 1118 0034 1A62     		str	r2, [r3, #32]
 1119              		.loc 4 534 0
 1120 0036 0A20     		movs	r0, #10
 1121 0038 0099     		ldr	r1, [sp]
 1122 003a FFF7FEFF 		bl	chSchGoSleepTimeoutS
ARM GAS  /tmp/ccxJ78bg.s 			page 21


 1123 003e 0346     		mov	r3, r0
 1124 0040 002B     		cmp	r3, #0
 1125 0042 03DA     		bge	.L66
 1126              		.loc 4 535 0
 1127 0044 FFF7FEFF 		bl	chSysUnlock
 1128              		.loc 4 536 0
 1129 0048 0023     		movs	r3, #0
 1130 004a 0EE0     		b	.L65
 1131              	.L66:
 1132              		.loc 4 538 0
 1133 004c 029B     		ldr	r3, [sp, #8]
 1134 004e 5A6B     		ldr	r2, [r3, #52]
 1135 0050 019B     		ldr	r3, [sp, #4]
 1136 0052 1340     		ands	r3, r3, r2
 1137 0054 0393     		str	r3, [sp, #12]
 1138              	.L63:
 1139              		.loc 4 540 0
 1140 0056 029B     		ldr	r3, [sp, #8]
 1141 0058 5A6B     		ldr	r2, [r3, #52]
 1142 005a 039B     		ldr	r3, [sp, #12]
 1143 005c DB43     		mvns	r3, r3
 1144 005e 1A40     		ands	r2, r2, r3
 1145 0060 029B     		ldr	r3, [sp, #8]
 1146 0062 5A63     		str	r2, [r3, #52]
 1147              		.loc 4 541 0
 1148 0064 FFF7FEFF 		bl	chSysUnlock
 1149              		.loc 4 543 0
 1150 0068 039B     		ldr	r3, [sp, #12]
 1151              	.L65:
 1152              		.loc 4 544 0
 1153 006a 1846     		mov	r0, r3
 1154 006c 05B0     		add	sp, sp, #20
 1155              		.cfi_def_cfa_offset 4
 1156              		@ sp needed
 1157 006e 5DF804FB 		ldr	pc, [sp], #4
 1158              	.L68:
 1159 0072 00BF     		.align	2
 1160              	.L67:
 1161 0074 00000000 		.word	ch
 1162              		.cfi_endproc
 1163              	.LFE231:
 1164              		.size	chEvtWaitAnyTimeout, .-chEvtWaitAnyTimeout
 1165 0078 AFF30080 		.section	.text.chEvtWaitAllTimeout,"ax",%progbits
 1165      AFF30080 
 1166              		.align	2
 1167              		.p2align 4,,15
 1168              		.global	chEvtWaitAllTimeout
 1169              		.thumb
 1170              		.thumb_func
 1171              		.type	chEvtWaitAllTimeout, %function
 1172              	chEvtWaitAllTimeout:
 1173              	.LFB232:
 1174              		.loc 4 563 0
 1175              		.cfi_startproc
 1176              		@ args = 0, pretend = 0, frame = 16
 1177              		@ frame_needed = 0, uses_anonymous_args = 0
 1178 0000 00B5     		push	{lr}
ARM GAS  /tmp/ccxJ78bg.s 			page 22


 1179              		.cfi_def_cfa_offset 4
 1180              		.cfi_offset 14, -4
 1181 0002 85B0     		sub	sp, sp, #20
 1182              		.cfi_def_cfa_offset 24
 1183 0004 0190     		str	r0, [sp, #4]
 1184 0006 0091     		str	r1, [sp]
 1185              		.loc 4 564 0
 1186 0008 174B     		ldr	r3, .L73
 1187 000a 9B69     		ldr	r3, [r3, #24]
 1188 000c 0393     		str	r3, [sp, #12]
 1189              		.loc 4 566 0
 1190 000e FFF7FEFF 		bl	chSysLock
 1191              		.loc 4 567 0
 1192 0012 039B     		ldr	r3, [sp, #12]
 1193 0014 5A6B     		ldr	r2, [r3, #52]
 1194 0016 019B     		ldr	r3, [sp, #4]
 1195 0018 1A40     		ands	r2, r2, r3
 1196 001a 019B     		ldr	r3, [sp, #4]
 1197 001c 9A42     		cmp	r2, r3
 1198 001e 14D0     		beq	.L70
 1199              		.loc 4 568 0
 1200 0020 009B     		ldr	r3, [sp]
 1201 0022 002B     		cmp	r3, #0
 1202 0024 03D1     		bne	.L71
 1203              		.loc 4 569 0
 1204 0026 FFF7FEFF 		bl	chSysUnlock
 1205              		.loc 4 570 0
 1206 002a 0023     		movs	r3, #0
 1207 002c 17E0     		b	.L72
 1208              	.L71:
 1209              		.loc 4 572 0
 1210 002e 039B     		ldr	r3, [sp, #12]
 1211 0030 019A     		ldr	r2, [sp, #4]
 1212 0032 1A62     		str	r2, [r3, #32]
 1213              		.loc 4 573 0
 1214 0034 0B20     		movs	r0, #11
 1215 0036 0099     		ldr	r1, [sp]
 1216 0038 FFF7FEFF 		bl	chSchGoSleepTimeoutS
 1217 003c 0346     		mov	r3, r0
 1218 003e 002B     		cmp	r3, #0
 1219 0040 03DA     		bge	.L70
 1220              		.loc 4 574 0
 1221 0042 FFF7FEFF 		bl	chSysUnlock
 1222              		.loc 4 575 0
 1223 0046 0023     		movs	r3, #0
 1224 0048 09E0     		b	.L72
 1225              	.L70:
 1226              		.loc 4 578 0
 1227 004a 039B     		ldr	r3, [sp, #12]
 1228 004c 5A6B     		ldr	r2, [r3, #52]
 1229 004e 019B     		ldr	r3, [sp, #4]
 1230 0050 DB43     		mvns	r3, r3
 1231 0052 1A40     		ands	r2, r2, r3
 1232 0054 039B     		ldr	r3, [sp, #12]
 1233 0056 5A63     		str	r2, [r3, #52]
 1234              		.loc 4 579 0
 1235 0058 FFF7FEFF 		bl	chSysUnlock
ARM GAS  /tmp/ccxJ78bg.s 			page 23


 1236              		.loc 4 581 0
 1237 005c 019B     		ldr	r3, [sp, #4]
 1238              	.L72:
 1239              		.loc 4 582 0
 1240 005e 1846     		mov	r0, r3
 1241 0060 05B0     		add	sp, sp, #20
 1242              		.cfi_def_cfa_offset 4
 1243              		@ sp needed
 1244 0062 5DF804FB 		ldr	pc, [sp], #4
 1245              	.L74:
 1246 0066 00BF     		.align	2
 1247              	.L73:
 1248 0068 00000000 		.word	ch
 1249              		.cfi_endproc
 1250              	.LFE232:
 1251              		.size	chEvtWaitAllTimeout, .-chEvtWaitAllTimeout
 1252 006c AFF30080 		.text
 1253              	.Letext0:
 1254              		.file 5 "/opt/gcc-arm-none-eabi/arm-none-eabi/include/machine/_default_types.h"
 1255              		.file 6 "/opt/gcc-arm-none-eabi/arm-none-eabi/include/stdint.h"
 1256              		.file 7 "/home/makkmarci/workspace/CLEAN/ChibiOS/os/rt/ports/ARMCMx/compilers/GCC/chtypes.h"
 1257              		.file 8 "/home/makkmarci/workspace/CLEAN/ChibiOS/os/rt/include/chsystypes.h"
 1258              		.file 9 "/home/makkmarci/workspace/CLEAN/ChibiOS/os/rt/include/chschd.h"
 1259              		.file 10 "/home/makkmarci/workspace/CLEAN/ChibiOS/os/rt/ports/ARMCMx/chcore.h"
 1260              		.file 11 "/home/makkmarci/workspace/CLEAN/ChibiOS/os/rt/include/chtm.h"
 1261              		.file 12 "/home/makkmarci/workspace/CLEAN/ChibiOS/os/rt/include/chsem.h"
 1262              		.file 13 "/home/makkmarci/workspace/CLEAN/ChibiOS/os/rt/include/chmtx.h"
 1263              		.file 14 "/home/makkmarci/workspace/CLEAN/ChibiOS/os/rt/include/chevents.h"
 1264              		.file 15 "/home/makkmarci/workspace/CLEAN/ChibiOS/os/ext/CMSIS/include/core_cm4.h"