ARM GAS  /tmp/ccud5OTw.s 			page 1


   1              		.syntax unified
   2              		.cpu cortex-m4
   3              		.eabi_attribute 27, 1
   4              		.eabi_attribute 28, 1
   5              		.fpu fpv4-sp-d16
   6              		.eabi_attribute 20, 1
   7              		.eabi_attribute 21, 1
   8              		.eabi_attribute 23, 3
   9              		.eabi_attribute 24, 1
  10              		.eabi_attribute 25, 1
  11              		.eabi_attribute 26, 1
  12              		.eabi_attribute 30, 6
  13              		.eabi_attribute 34, 1
  14              		.eabi_attribute 18, 4
  15              		.thumb
  16              		.file	"chheap.c"
  17              		.text
  18              	.Ltext0:
  19              		.cfi_sections	.debug_frame
  20              		.section	.bss.default_heap,"aw",%nobits
  21              		.align	3
  22              		.type	default_heap, %object
  23              		.size	default_heap, 32
  24              	default_heap:
  25 0000 00000000 		.space	32
  25      00000000 
  25      00000000 
  25      00000000 
  25      00000000 
  26              		.section	.text._heap_init,"ax",%progbits
  27              		.align	2
  28              		.p2align 4,,15
  29              		.global	_heap_init
  30              		.thumb
  31              		.thumb_func
  32              		.type	_heap_init, %function
  33              	_heap_init:
  34              	.LFB216:
  35              		.file 1 "/home/makkmarci/workspace/CLEAN/ChibiOS/os/rt/src/chheap.c"
  36              		.loc 1 91 0
  37              		.cfi_startproc
  38              		@ args = 0, pretend = 0, frame = 0
  39              		@ frame_needed = 0, uses_anonymous_args = 0
  40 0000 08B5     		push	{r3, lr}
  41              		.cfi_def_cfa_offset 8
  42              		.cfi_offset 3, -8
  43              		.cfi_offset 14, -4
  44              		.loc 1 93 0
  45 0002 064B     		ldr	r3, .L2
  46 0004 064A     		ldr	r2, .L2+4
  47 0006 1A60     		str	r2, [r3]
  48              		.loc 1 94 0
  49 0008 044B     		ldr	r3, .L2
  50 000a 0022     		movs	r2, #0
  51 000c 9A60     		str	r2, [r3, #8]
  52              		.loc 1 95 0
  53 000e 034B     		ldr	r3, .L2
ARM GAS  /tmp/ccud5OTw.s 			page 2


  54 0010 0022     		movs	r2, #0
  55 0012 DA60     		str	r2, [r3, #12]
  56              		.loc 1 97 0
  57 0014 0348     		ldr	r0, .L2+8
  58 0016 FFF7FEFF 		bl	chMtxObjectInit
  59              		.loc 1 101 0
  60 001a 08BD     		pop	{r3, pc}
  61              	.L3:
  62              		.align	2
  63              	.L2:
  64 001c 00000000 		.word	default_heap
  65 0020 00000000 		.word	chCoreAlloc
  66 0024 10000000 		.word	default_heap+16
  67              		.cfi_endproc
  68              	.LFE216:
  69              		.size	_heap_init, .-_heap_init
  70 0028 AFF30080 		.section	.text.chHeapObjectInit,"ax",%progbits
  70      AFF30080 
  71              		.align	2
  72              		.p2align 4,,15
  73              		.global	chHeapObjectInit
  74              		.thumb
  75              		.thumb_func
  76              		.type	chHeapObjectInit, %function
  77              	chHeapObjectInit:
  78              	.LFB217:
  79              		.loc 1 114 0
  80              		.cfi_startproc
  81              		@ args = 0, pretend = 0, frame = 24
  82              		@ frame_needed = 0, uses_anonymous_args = 0
  83 0000 00B5     		push	{lr}
  84              		.cfi_def_cfa_offset 4
  85              		.cfi_offset 14, -4
  86 0002 87B0     		sub	sp, sp, #28
  87              		.cfi_def_cfa_offset 32
  88 0004 0390     		str	r0, [sp, #12]
  89 0006 0291     		str	r1, [sp, #8]
  90 0008 0192     		str	r2, [sp, #4]
  91              		.loc 1 115 0
  92 000a 029B     		ldr	r3, [sp, #8]
  93 000c 0593     		str	r3, [sp, #20]
  94              		.loc 1 119 0
  95 000e 039B     		ldr	r3, [sp, #12]
  96 0010 0022     		movs	r2, #0
  97 0012 1A60     		str	r2, [r3]
  98              		.loc 1 120 0
  99 0014 039B     		ldr	r3, [sp, #12]
 100 0016 059A     		ldr	r2, [sp, #20]
 101 0018 9A60     		str	r2, [r3, #8]
 102              		.loc 1 121 0
 103 001a 039B     		ldr	r3, [sp, #12]
 104 001c 0022     		movs	r2, #0
 105 001e DA60     		str	r2, [r3, #12]
 106              		.loc 1 122 0
 107 0020 059B     		ldr	r3, [sp, #20]
 108 0022 0022     		movs	r2, #0
 109 0024 1A60     		str	r2, [r3]
ARM GAS  /tmp/ccud5OTw.s 			page 3


 110              		.loc 1 123 0
 111 0026 019B     		ldr	r3, [sp, #4]
 112 0028 A3F10802 		sub	r2, r3, #8
 113 002c 059B     		ldr	r3, [sp, #20]
 114 002e 5A60     		str	r2, [r3, #4]
 115              		.loc 1 125 0
 116 0030 039B     		ldr	r3, [sp, #12]
 117 0032 1033     		adds	r3, r3, #16
 118 0034 1846     		mov	r0, r3
 119 0036 FFF7FEFF 		bl	chMtxObjectInit
 120              		.loc 1 129 0
 121 003a 07B0     		add	sp, sp, #28
 122              		.cfi_def_cfa_offset 4
 123              		@ sp needed
 124 003c 5DF804FB 		ldr	pc, [sp], #4
 125              		.cfi_endproc
 126              	.LFE217:
 127              		.size	chHeapObjectInit, .-chHeapObjectInit
 128              		.section	.text.chHeapAlloc,"ax",%progbits
 129              		.align	2
 130              		.p2align 4,,15
 131              		.global	chHeapAlloc
 132              		.thumb
 133              		.thumb_func
 134              		.type	chHeapAlloc, %function
 135              	chHeapAlloc:
 136              	.LFB218:
 137              		.loc 1 147 0
 138              		.cfi_startproc
 139              		@ args = 0, pretend = 0, frame = 24
 140              		@ frame_needed = 0, uses_anonymous_args = 0
 141 0000 00B5     		push	{lr}
 142              		.cfi_def_cfa_offset 4
 143              		.cfi_offset 14, -4
 144 0002 87B0     		sub	sp, sp, #28
 145              		.cfi_def_cfa_offset 32
 146 0004 0190     		str	r0, [sp, #4]
 147 0006 0091     		str	r1, [sp]
 148              		.loc 1 150 0
 149 0008 019B     		ldr	r3, [sp, #4]
 150 000a 002B     		cmp	r3, #0
 151 000c 01D1     		bne	.L6
 152              		.loc 1 151 0
 153 000e 374B     		ldr	r3, .L14
 154 0010 0193     		str	r3, [sp, #4]
 155              	.L6:
 156              		.loc 1 154 0
 157 0012 009B     		ldr	r3, [sp]
 158 0014 0733     		adds	r3, r3, #7
 159 0016 23F00703 		bic	r3, r3, #7
 160 001a 0093     		str	r3, [sp]
 161              		.loc 1 155 0
 162 001c 019B     		ldr	r3, [sp, #4]
 163 001e 0833     		adds	r3, r3, #8
 164 0020 0593     		str	r3, [sp, #20]
 165              		.loc 1 157 0
 166 0022 019B     		ldr	r3, [sp, #4]
ARM GAS  /tmp/ccud5OTw.s 			page 4


 167 0024 1033     		adds	r3, r3, #16
 168 0026 1846     		mov	r0, r3
 169 0028 FFF7FEFF 		bl	chMtxLock
 170              		.loc 1 158 0
 171 002c 36E0     		b	.L7
 172              	.L12:
 173              		.loc 1 159 0
 174 002e 059B     		ldr	r3, [sp, #20]
 175 0030 1B68     		ldr	r3, [r3]
 176 0032 0493     		str	r3, [sp, #16]
 177              		.loc 1 160 0
 178 0034 049B     		ldr	r3, [sp, #16]
 179 0036 5A68     		ldr	r2, [r3, #4]
 180 0038 009B     		ldr	r3, [sp]
 181 003a 9A42     		cmp	r2, r3
 182 003c 2CD3     		bcc	.L8
 183              		.loc 1 161 0
 184 003e 049B     		ldr	r3, [sp, #16]
 185 0040 5A68     		ldr	r2, [r3, #4]
 186 0042 009B     		ldr	r3, [sp]
 187 0044 0833     		adds	r3, r3, #8
 188 0046 9A42     		cmp	r2, r3
 189 0048 04D2     		bcs	.L9
 190              		.loc 1 165 0
 191 004a 049B     		ldr	r3, [sp, #16]
 192 004c 1A68     		ldr	r2, [r3]
 193 004e 059B     		ldr	r3, [sp, #20]
 194 0050 1A60     		str	r2, [r3]
 195 0052 16E0     		b	.L10
 196              	.L9:
 197              		.loc 1 170 0
 198 0054 009B     		ldr	r3, [sp]
 199 0056 0833     		adds	r3, r3, #8
 200 0058 049A     		ldr	r2, [sp, #16]
 201 005a 1344     		add	r3, r3, r2
 202 005c 0393     		str	r3, [sp, #12]
 203              		.loc 1 172 0
 204 005e 049B     		ldr	r3, [sp, #16]
 205 0060 1A68     		ldr	r2, [r3]
 206 0062 039B     		ldr	r3, [sp, #12]
 207 0064 1A60     		str	r2, [r3]
 208              		.loc 1 173 0
 209 0066 049B     		ldr	r3, [sp, #16]
 210 0068 5A68     		ldr	r2, [r3, #4]
 211 006a 009B     		ldr	r3, [sp]
 212 006c D31A     		subs	r3, r2, r3
 213 006e A3F10802 		sub	r2, r3, #8
 214 0072 039B     		ldr	r3, [sp, #12]
 215 0074 5A60     		str	r2, [r3, #4]
 216              		.loc 1 174 0
 217 0076 059B     		ldr	r3, [sp, #20]
 218 0078 039A     		ldr	r2, [sp, #12]
 219 007a 1A60     		str	r2, [r3]
 220              		.loc 1 175 0
 221 007c 049B     		ldr	r3, [sp, #16]
 222 007e 009A     		ldr	r2, [sp]
 223 0080 5A60     		str	r2, [r3, #4]
ARM GAS  /tmp/ccud5OTw.s 			page 5


 224              	.L10:
 225              		.loc 1 177 0
 226 0082 049B     		ldr	r3, [sp, #16]
 227 0084 019A     		ldr	r2, [sp, #4]
 228 0086 1A60     		str	r2, [r3]
 229              		.loc 1 178 0
 230 0088 019B     		ldr	r3, [sp, #4]
 231 008a 1033     		adds	r3, r3, #16
 232 008c 1846     		mov	r0, r3
 233 008e FFF7FEFF 		bl	chMtxUnlock
 234              		.loc 1 181 0
 235 0092 049B     		ldr	r3, [sp, #16]
 236 0094 0833     		adds	r3, r3, #8
 237 0096 24E0     		b	.L11
 238              	.L8:
 239              		.loc 1 184 0
 240 0098 049B     		ldr	r3, [sp, #16]
 241 009a 0593     		str	r3, [sp, #20]
 242              	.L7:
 243              		.loc 1 158 0
 244 009c 059B     		ldr	r3, [sp, #20]
 245 009e 1B68     		ldr	r3, [r3]
 246 00a0 002B     		cmp	r3, #0
 247 00a2 C4D1     		bne	.L12
 248              		.loc 1 186 0
 249 00a4 019B     		ldr	r3, [sp, #4]
 250 00a6 1033     		adds	r3, r3, #16
 251 00a8 1846     		mov	r0, r3
 252 00aa FFF7FEFF 		bl	chMtxUnlock
 253              		.loc 1 190 0
 254 00ae 019B     		ldr	r3, [sp, #4]
 255 00b0 1B68     		ldr	r3, [r3]
 256 00b2 002B     		cmp	r3, #0
 257 00b4 14D0     		beq	.L13
 258              		.loc 1 191 0
 259 00b6 019B     		ldr	r3, [sp, #4]
 260 00b8 1B68     		ldr	r3, [r3]
 261 00ba 009A     		ldr	r2, [sp]
 262 00bc 0832     		adds	r2, r2, #8
 263 00be 1046     		mov	r0, r2
 264 00c0 9847     		blx	r3
 265 00c2 0490     		str	r0, [sp, #16]
 266              		.loc 1 192 0
 267 00c4 049B     		ldr	r3, [sp, #16]
 268 00c6 002B     		cmp	r3, #0
 269 00c8 0AD0     		beq	.L13
 270              		.loc 1 193 0
 271 00ca 049B     		ldr	r3, [sp, #16]
 272 00cc 019A     		ldr	r2, [sp, #4]
 273 00ce 1A60     		str	r2, [r3]
 274              		.loc 1 194 0
 275 00d0 049B     		ldr	r3, [sp, #16]
 276 00d2 009A     		ldr	r2, [sp]
 277 00d4 5A60     		str	r2, [r3, #4]
 278              		.loc 1 195 0
 279 00d6 049B     		ldr	r3, [sp, #16]
 280 00d8 0833     		adds	r3, r3, #8
ARM GAS  /tmp/ccud5OTw.s 			page 6


 281 00da 0493     		str	r3, [sp, #16]
 282              		.loc 1 198 0
 283 00dc 049B     		ldr	r3, [sp, #16]
 284 00de 00E0     		b	.L11
 285              	.L13:
 286              		.loc 1 203 0
 287 00e0 0023     		movs	r3, #0
 288              	.L11:
 289              		.loc 1 204 0
 290 00e2 1846     		mov	r0, r3
 291 00e4 07B0     		add	sp, sp, #28
 292              		.cfi_def_cfa_offset 4
 293              		@ sp needed
 294 00e6 5DF804FB 		ldr	pc, [sp], #4
 295              	.L15:
 296 00ea 00BF     		.align	2
 297              	.L14:
 298 00ec 00000000 		.word	default_heap
 299              		.cfi_endproc
 300              	.LFE218:
 301              		.size	chHeapAlloc, .-chHeapAlloc
 302              		.section	.text.chHeapFree,"ax",%progbits
 303              		.align	2
 304              		.p2align 4,,15
 305              		.global	chHeapFree
 306              		.thumb
 307              		.thumb_func
 308              		.type	chHeapFree, %function
 309              	chHeapFree:
 310              	.LFB219:
 311              		.loc 1 213 0
 312              		.cfi_startproc
 313              		@ args = 0, pretend = 0, frame = 24
 314              		@ frame_needed = 0, uses_anonymous_args = 0
 315 0000 00B5     		push	{lr}
 316              		.cfi_def_cfa_offset 4
 317              		.cfi_offset 14, -4
 318 0002 87B0     		sub	sp, sp, #28
 319              		.cfi_def_cfa_offset 32
 320 0004 0190     		str	r0, [sp, #4]
 321              		.loc 1 220 0
 322 0006 019B     		ldr	r3, [sp, #4]
 323 0008 083B     		subs	r3, r3, #8
 324 000a 0493     		str	r3, [sp, #16]
 325              		.loc 1 222 0
 326 000c 049B     		ldr	r3, [sp, #16]
 327 000e 1B68     		ldr	r3, [r3]
 328 0010 0393     		str	r3, [sp, #12]
 329              		.loc 1 223 0
 330 0012 039B     		ldr	r3, [sp, #12]
 331 0014 0833     		adds	r3, r3, #8
 332 0016 0593     		str	r3, [sp, #20]
 333              		.loc 1 225 0
 334 0018 039B     		ldr	r3, [sp, #12]
 335 001a 1033     		adds	r3, r3, #16
 336 001c 1846     		mov	r0, r3
 337 001e FFF7FEFF 		bl	chMtxLock
ARM GAS  /tmp/ccud5OTw.s 			page 7


 338              	.L23:
 339              		.loc 1 229 0
 340 0022 039B     		ldr	r3, [sp, #12]
 341 0024 03F10802 		add	r2, r3, #8
 342 0028 059B     		ldr	r3, [sp, #20]
 343 002a 9A42     		cmp	r2, r3
 344 002c 03D0     		beq	.L17
 345              		.loc 1 229 0 is_stmt 0 discriminator 2
 346 002e 049A     		ldr	r2, [sp, #16]
 347 0030 059B     		ldr	r3, [sp, #20]
 348 0032 9A42     		cmp	r2, r3
 349 0034 3ED9     		bls	.L18
 350              	.L17:
 351              		.loc 1 230 0 is_stmt 1 discriminator 3
 352 0036 059B     		ldr	r3, [sp, #20]
 353 0038 1B68     		ldr	r3, [r3]
 354              		.loc 1 229 0 discriminator 3
 355 003a 002B     		cmp	r3, #0
 356 003c 04D0     		beq	.L19
 357              		.loc 1 230 0
 358 003e 059B     		ldr	r3, [sp, #20]
 359 0040 1A68     		ldr	r2, [r3]
 360 0042 049B     		ldr	r3, [sp, #16]
 361 0044 9A42     		cmp	r2, r3
 362 0046 35D9     		bls	.L18
 363              	.L19:
 364              		.loc 1 232 0
 365 0048 059B     		ldr	r3, [sp, #20]
 366 004a 1A68     		ldr	r2, [r3]
 367 004c 049B     		ldr	r3, [sp, #16]
 368 004e 1A60     		str	r2, [r3]
 369              		.loc 1 233 0
 370 0050 059B     		ldr	r3, [sp, #20]
 371 0052 049A     		ldr	r2, [sp, #16]
 372 0054 1A60     		str	r2, [r3]
 373              		.loc 1 235 0
 374 0056 049B     		ldr	r3, [sp, #16]
 375 0058 5B68     		ldr	r3, [r3, #4]
 376 005a 0833     		adds	r3, r3, #8
 377 005c 049A     		ldr	r2, [sp, #16]
 378 005e 1A44     		add	r2, r2, r3
 379 0060 049B     		ldr	r3, [sp, #16]
 380 0062 1B68     		ldr	r3, [r3]
 381 0064 9A42     		cmp	r2, r3
 382 0066 0ED1     		bne	.L20
 383              		.loc 1 237 0
 384 0068 049B     		ldr	r3, [sp, #16]
 385 006a 5A68     		ldr	r2, [r3, #4]
 386 006c 049B     		ldr	r3, [sp, #16]
 387 006e 1B68     		ldr	r3, [r3]
 388 0070 5B68     		ldr	r3, [r3, #4]
 389 0072 1344     		add	r3, r3, r2
 390 0074 03F10802 		add	r2, r3, #8
 391 0078 049B     		ldr	r3, [sp, #16]
 392 007a 5A60     		str	r2, [r3, #4]
 393              		.loc 1 238 0
 394 007c 049B     		ldr	r3, [sp, #16]
ARM GAS  /tmp/ccud5OTw.s 			page 8


 395 007e 1B68     		ldr	r3, [r3]
 396 0080 1A68     		ldr	r2, [r3]
 397 0082 049B     		ldr	r3, [sp, #16]
 398 0084 1A60     		str	r2, [r3]
 399              	.L20:
 400              		.loc 1 240 0
 401 0086 059B     		ldr	r3, [sp, #20]
 402 0088 5B68     		ldr	r3, [r3, #4]
 403 008a 0833     		adds	r3, r3, #8
 404 008c 059A     		ldr	r2, [sp, #20]
 405 008e 1A44     		add	r2, r2, r3
 406 0090 049B     		ldr	r3, [sp, #16]
 407 0092 9A42     		cmp	r2, r3
 408 0094 0DD1     		bne	.L21
 409              		.loc 1 242 0
 410 0096 059B     		ldr	r3, [sp, #20]
 411 0098 5A68     		ldr	r2, [r3, #4]
 412 009a 049B     		ldr	r3, [sp, #16]
 413 009c 5B68     		ldr	r3, [r3, #4]
 414 009e 1344     		add	r3, r3, r2
 415 00a0 03F10802 		add	r2, r3, #8
 416 00a4 059B     		ldr	r3, [sp, #20]
 417 00a6 5A60     		str	r2, [r3, #4]
 418              		.loc 1 243 0
 419 00a8 049B     		ldr	r3, [sp, #16]
 420 00aa 1A68     		ldr	r2, [r3]
 421 00ac 059B     		ldr	r3, [sp, #20]
 422 00ae 1A60     		str	r2, [r3]
 423              		.loc 1 245 0
 424 00b0 04E0     		b	.L22
 425              	.L21:
 426 00b2 03E0     		b	.L22
 427              	.L18:
 428              		.loc 1 247 0
 429 00b4 059B     		ldr	r3, [sp, #20]
 430 00b6 1B68     		ldr	r3, [r3]
 431 00b8 0593     		str	r3, [sp, #20]
 432              		.loc 1 248 0
 433 00ba B2E7     		b	.L23
 434              	.L22:
 435              		.loc 1 249 0
 436 00bc 039B     		ldr	r3, [sp, #12]
 437 00be 1033     		adds	r3, r3, #16
 438 00c0 1846     		mov	r0, r3
 439 00c2 FFF7FEFF 		bl	chMtxUnlock
 440              		.loc 1 251 0
 441 00c6 00BF     		nop
 442              		.loc 1 252 0
 443 00c8 07B0     		add	sp, sp, #28
 444              		.cfi_def_cfa_offset 4
 445              		@ sp needed
 446 00ca 5DF804FB 		ldr	pc, [sp], #4
 447              		.cfi_endproc
 448              	.LFE219:
 449              		.size	chHeapFree, .-chHeapFree
 450 00ce 00BF     		.section	.text.chHeapStatus,"ax",%progbits
 451              		.align	2
ARM GAS  /tmp/ccud5OTw.s 			page 9


 452              		.p2align 4,,15
 453              		.global	chHeapStatus
 454              		.thumb
 455              		.thumb_func
 456              		.type	chHeapStatus, %function
 457              	chHeapStatus:
 458              	.LFB220:
 459              		.loc 1 267 0
 460              		.cfi_startproc
 461              		@ args = 0, pretend = 0, frame = 24
 462              		@ frame_needed = 0, uses_anonymous_args = 0
 463 0000 00B5     		push	{lr}
 464              		.cfi_def_cfa_offset 4
 465              		.cfi_offset 14, -4
 466 0002 87B0     		sub	sp, sp, #28
 467              		.cfi_def_cfa_offset 32
 468 0004 0190     		str	r0, [sp, #4]
 469 0006 0091     		str	r1, [sp]
 470              		.loc 1 271 0
 471 0008 019B     		ldr	r3, [sp, #4]
 472 000a 002B     		cmp	r3, #0
 473 000c 01D1     		bne	.L26
 474              		.loc 1 272 0
 475 000e 174B     		ldr	r3, .L31
 476 0010 0193     		str	r3, [sp, #4]
 477              	.L26:
 478              		.loc 1 275 0
 479 0012 019B     		ldr	r3, [sp, #4]
 480 0014 1033     		adds	r3, r3, #16
 481 0016 1846     		mov	r0, r3
 482 0018 FFF7FEFF 		bl	chMtxLock
 483              		.loc 1 276 0
 484 001c 0023     		movs	r3, #0
 485 001e 0393     		str	r3, [sp, #12]
 486              		.loc 1 277 0
 487 0020 0023     		movs	r3, #0
 488 0022 0493     		str	r3, [sp, #16]
 489              		.loc 1 278 0
 490 0024 019B     		ldr	r3, [sp, #4]
 491 0026 0833     		adds	r3, r3, #8
 492 0028 0593     		str	r3, [sp, #20]
 493              		.loc 1 279 0
 494 002a 0BE0     		b	.L27
 495              	.L28:
 496              		.loc 1 280 0
 497 002c 059B     		ldr	r3, [sp, #20]
 498 002e 1B68     		ldr	r3, [r3]
 499 0030 5B68     		ldr	r3, [r3, #4]
 500 0032 039A     		ldr	r2, [sp, #12]
 501 0034 1344     		add	r3, r3, r2
 502 0036 0393     		str	r3, [sp, #12]
 503              		.loc 1 281 0
 504 0038 049B     		ldr	r3, [sp, #16]
 505 003a 0133     		adds	r3, r3, #1
 506 003c 0493     		str	r3, [sp, #16]
 507              		.loc 1 282 0
 508 003e 059B     		ldr	r3, [sp, #20]
ARM GAS  /tmp/ccud5OTw.s 			page 10


 509 0040 1B68     		ldr	r3, [r3]
 510 0042 0593     		str	r3, [sp, #20]
 511              	.L27:
 512              		.loc 1 279 0
 513 0044 059B     		ldr	r3, [sp, #20]
 514 0046 1B68     		ldr	r3, [r3]
 515 0048 002B     		cmp	r3, #0
 516 004a EFD1     		bne	.L28
 517              		.loc 1 284 0
 518 004c 009B     		ldr	r3, [sp]
 519 004e 002B     		cmp	r3, #0
 520 0050 02D0     		beq	.L29
 521              		.loc 1 285 0
 522 0052 009B     		ldr	r3, [sp]
 523 0054 039A     		ldr	r2, [sp, #12]
 524 0056 1A60     		str	r2, [r3]
 525              	.L29:
 526              		.loc 1 287 0
 527 0058 019B     		ldr	r3, [sp, #4]
 528 005a 1033     		adds	r3, r3, #16
 529 005c 1846     		mov	r0, r3
 530 005e FFF7FEFF 		bl	chMtxUnlock
 531              		.loc 1 289 0
 532 0062 049B     		ldr	r3, [sp, #16]
 533              		.loc 1 290 0
 534 0064 1846     		mov	r0, r3
 535 0066 07B0     		add	sp, sp, #28
 536              		.cfi_def_cfa_offset 4
 537              		@ sp needed
 538 0068 5DF804FB 		ldr	pc, [sp], #4
 539              	.L32:
 540              		.align	2
 541              	.L31:
 542 006c 00000000 		.word	default_heap
 543              		.cfi_endproc
 544              	.LFE220:
 545              		.size	chHeapStatus, .-chHeapStatus
 546              		.text
 547              	.Letext0:
 548              		.file 2 "/opt/gcc-arm-none-eabi/lib/gcc/arm-none-eabi/4.9.3/include/stddef.h"
 549              		.file 3 "/opt/gcc-arm-none-eabi/arm-none-eabi/include/machine/_default_types.h"
 550              		.file 4 "/opt/gcc-arm-none-eabi/arm-none-eabi/include/stdint.h"
 551              		.file 5 "/home/makkmarci/workspace/CLEAN/ChibiOS/os/rt/ports/ARMCMx/compilers/GCC/chtypes.h"
 552              		.file 6 "/home/makkmarci/workspace/CLEAN/ChibiOS/os/rt/include/chsystypes.h"
 553              		.file 7 "/home/makkmarci/workspace/CLEAN/ChibiOS/os/rt/include/chschd.h"
 554              		.file 8 "/home/makkmarci/workspace/CLEAN/ChibiOS/os/rt/ports/ARMCMx/chcore.h"
 555              		.file 9 "/home/makkmarci/workspace/CLEAN/ChibiOS/os/rt/ports/ARMCMx/chcore_v7m.h"
 556              		.file 10 "/home/makkmarci/workspace/CLEAN/ChibiOS/os/rt/include/chtm.h"
 557              		.file 11 "/home/makkmarci/workspace/CLEAN/ChibiOS/os/rt/include/chsem.h"
 558              		.file 12 "/home/makkmarci/workspace/CLEAN/ChibiOS/os/rt/include/chmtx.h"
 559              		.file 13 "/home/makkmarci/workspace/CLEAN/ChibiOS/os/rt/include/chmemcore.h"
 560              		.file 14 "/home/makkmarci/workspace/CLEAN/ChibiOS/os/rt/include/chheap.h"
 561              		.file 15 "/home/makkmarci/workspace/CLEAN/ChibiOS/os/ext/CMSIS/include/core_cm4.h"