ARM GAS  /tmp/ccWMKwvi.s 			page 1


   1              		.syntax unified
   2              		.cpu cortex-m4
   3              		.eabi_attribute 27, 1
   4              		.eabi_attribute 28, 1
   5              		.fpu fpv4-sp-d16
   6              		.eabi_attribute 20, 1
   7              		.eabi_attribute 21, 1
   8              		.eabi_attribute 23, 3
   9              		.eabi_attribute 24, 1
  10              		.eabi_attribute 25, 1
  11              		.eabi_attribute 26, 1
  12              		.eabi_attribute 30, 6
  13              		.eabi_attribute 34, 1
  14              		.eabi_attribute 18, 4
  15              		.thumb
  16              		.file	"chmboxes.c"
  17              		.text
  18              	.Ltext0:
  19              		.cfi_sections	.debug_frame
  20              		.section	.text.port_lock,"ax",%progbits
  21              		.align	2
  22              		.p2align 4,,15
  23              		.thumb
  24              		.thumb_func
  25              		.type	port_lock, %function
  26              	port_lock:
  27              	.LFB116:
  28              		.file 1 "/home/makkmarci/workspace/CLEAN/ChibiOS/os/rt/ports/ARMCMx/chcore_v7m.h"
  29              		.loc 1 444 0
  30              		.cfi_startproc
  31              		@ args = 0, pretend = 0, frame = 8
  32              		@ frame_needed = 0, uses_anonymous_args = 0
  33              		@ link register save eliminated.
  34 0000 82B0     		sub	sp, sp, #8
  35              		.cfi_def_cfa_offset 8
  36 0002 2023     		movs	r3, #32
  37 0004 0193     		str	r3, [sp, #4]
  38              	.LBB6:
  39              	.LBB7:
  40              		.file 2 "/home/makkmarci/workspace/CLEAN/ChibiOS/os/ext/CMSIS/include/core_cmFunc.h"
  41              		.loc 2 546 0
  42 0006 019B     		ldr	r3, [sp, #4]
  43              	@ 546 "/home/makkmarci/workspace/CLEAN/ChibiOS/os/ext/CMSIS/include/core_cmFunc.h" 1
  44 0008 83F31188 		MSR basepri, r3
  45              	@ 0 "" 2
  46              		.thumb
  47              	.LBE7:
  48              	.LBE6:
  49              		.loc 1 451 0
  50 000c 02B0     		add	sp, sp, #8
  51              		.cfi_def_cfa_offset 0
  52              		@ sp needed
  53 000e 7047     		bx	lr
  54              		.cfi_endproc
  55              	.LFE116:
  56              		.size	port_lock, .-port_lock
  57              		.section	.text.port_unlock,"ax",%progbits
ARM GAS  /tmp/ccWMKwvi.s 			page 2


  58              		.align	2
  59              		.p2align 4,,15
  60              		.thumb
  61              		.thumb_func
  62              		.type	port_unlock, %function
  63              	port_unlock:
  64              	.LFB117:
  65              		.loc 1 458 0
  66              		.cfi_startproc
  67              		@ args = 0, pretend = 0, frame = 8
  68              		@ frame_needed = 0, uses_anonymous_args = 0
  69              		@ link register save eliminated.
  70 0000 82B0     		sub	sp, sp, #8
  71              		.cfi_def_cfa_offset 8
  72 0002 0023     		movs	r3, #0
  73 0004 0193     		str	r3, [sp, #4]
  74              	.LBB8:
  75              	.LBB9:
  76              		.loc 2 546 0
  77 0006 019B     		ldr	r3, [sp, #4]
  78              	@ 546 "/home/makkmarci/workspace/CLEAN/ChibiOS/os/ext/CMSIS/include/core_cmFunc.h" 1
  79 0008 83F31188 		MSR basepri, r3
  80              	@ 0 "" 2
  81              		.thumb
  82              	.LBE9:
  83              	.LBE8:
  84              		.loc 1 465 0
  85 000c 02B0     		add	sp, sp, #8
  86              		.cfi_def_cfa_offset 0
  87              		@ sp needed
  88 000e 7047     		bx	lr
  89              		.cfi_endproc
  90              	.LFE117:
  91              		.size	port_unlock, .-port_unlock
  92              		.section	.text.chSysLock,"ax",%progbits
  93              		.align	2
  94              		.p2align 4,,15
  95              		.thumb
  96              		.thumb_func
  97              		.type	chSysLock, %function
  98              	chSysLock:
  99              	.LFB145:
 100              		.file 3 "/home/makkmarci/workspace/CLEAN/ChibiOS/os/rt/include/chsys.h"
 101              		.loc 3 346 0
 102              		.cfi_startproc
 103              		@ args = 0, pretend = 0, frame = 0
 104              		@ frame_needed = 0, uses_anonymous_args = 0
 105 0000 08B5     		push	{r3, lr}
 106              		.cfi_def_cfa_offset 8
 107              		.cfi_offset 3, -8
 108              		.cfi_offset 14, -4
 109              		.loc 3 348 0
 110 0002 FFF7FEFF 		bl	port_lock
 111              		.loc 3 351 0
 112 0006 08BD     		pop	{r3, pc}
 113              		.cfi_endproc
 114              	.LFE145:
ARM GAS  /tmp/ccWMKwvi.s 			page 3


 115              		.size	chSysLock, .-chSysLock
 116              		.section	.text.chSysUnlock,"ax",%progbits
 117              		.align	2
 118              		.p2align 4,,15
 119              		.thumb
 120              		.thumb_func
 121              		.type	chSysUnlock, %function
 122              	chSysUnlock:
 123              	.LFB146:
 124              		.loc 3 358 0
 125              		.cfi_startproc
 126              		@ args = 0, pretend = 0, frame = 0
 127              		@ frame_needed = 0, uses_anonymous_args = 0
 128 0000 08B5     		push	{r3, lr}
 129              		.cfi_def_cfa_offset 8
 130              		.cfi_offset 3, -8
 131              		.cfi_offset 14, -4
 132              		.loc 3 371 0
 133 0002 FFF7FEFF 		bl	port_unlock
 134              		.loc 3 372 0
 135 0006 08BD     		pop	{r3, pc}
 136              		.cfi_endproc
 137              	.LFE146:
 138              		.size	chSysUnlock, .-chSysUnlock
 139 0008 AFF30080 		.section	.text.chSemFastWaitI,"ax",%progbits
 139      AFF30080 
 140              		.align	2
 141              		.p2align 4,,15
 142              		.thumb
 143              		.thumb_func
 144              		.type	chSemFastWaitI, %function
 145              	chSemFastWaitI:
 146              	.LFB176:
 147              		.file 4 "/home/makkmarci/workspace/CLEAN/ChibiOS/os/rt/include/chsem.h"
 148              		.loc 4 118 0
 149              		.cfi_startproc
 150              		@ args = 0, pretend = 0, frame = 8
 151              		@ frame_needed = 0, uses_anonymous_args = 0
 152              		@ link register save eliminated.
 153 0000 82B0     		sub	sp, sp, #8
 154              		.cfi_def_cfa_offset 8
 155 0002 0190     		str	r0, [sp, #4]
 156              		.loc 4 122 0
 157 0004 019B     		ldr	r3, [sp, #4]
 158 0006 9B68     		ldr	r3, [r3, #8]
 159 0008 5A1E     		subs	r2, r3, #1
 160 000a 019B     		ldr	r3, [sp, #4]
 161 000c 9A60     		str	r2, [r3, #8]
 162              		.loc 4 123 0
 163 000e 02B0     		add	sp, sp, #8
 164              		.cfi_def_cfa_offset 0
 165              		@ sp needed
 166 0010 7047     		bx	lr
 167              		.cfi_endproc
 168              	.LFE176:
 169              		.size	chSemFastWaitI, .-chSemFastWaitI
 170 0012 00BFAFF3 		.section	.text.chSemGetCounterI,"ax",%progbits
ARM GAS  /tmp/ccWMKwvi.s 			page 4


 170      0080AFF3 
 170      0080AFF3 
 170      0080
 171              		.align	2
 172              		.p2align 4,,15
 173              		.thumb
 174              		.thumb_func
 175              		.type	chSemGetCounterI, %function
 176              	chSemGetCounterI:
 177              	.LFB178:
 178              		.loc 4 149 0
 179              		.cfi_startproc
 180              		@ args = 0, pretend = 0, frame = 8
 181              		@ frame_needed = 0, uses_anonymous_args = 0
 182              		@ link register save eliminated.
 183 0000 82B0     		sub	sp, sp, #8
 184              		.cfi_def_cfa_offset 8
 185 0002 0190     		str	r0, [sp, #4]
 186              		.loc 4 153 0
 187 0004 019B     		ldr	r3, [sp, #4]
 188 0006 9B68     		ldr	r3, [r3, #8]
 189              		.loc 4 154 0
 190 0008 1846     		mov	r0, r3
 191 000a 02B0     		add	sp, sp, #8
 192              		.cfi_def_cfa_offset 0
 193              		@ sp needed
 194 000c 7047     		bx	lr
 195              		.cfi_endproc
 196              	.LFE178:
 197              		.size	chSemGetCounterI, .-chSemGetCounterI
 198 000e 00BF     		.section	.text.chMBObjectInit,"ax",%progbits
 199              		.align	2
 200              		.p2align 4,,15
 201              		.global	chMBObjectInit
 202              		.thumb
 203              		.thumb_func
 204              		.type	chMBObjectInit, %function
 205              	chMBObjectInit:
 206              	.LFB216:
 207              		.file 5 "/home/makkmarci/workspace/CLEAN/ChibiOS/os/rt/src/chmboxes.c"
 208              		.loc 5 86 0
 209              		.cfi_startproc
 210              		@ args = 0, pretend = 0, frame = 16
 211              		@ frame_needed = 0, uses_anonymous_args = 0
 212 0000 00B5     		push	{lr}
 213              		.cfi_def_cfa_offset 4
 214              		.cfi_offset 14, -4
 215 0002 85B0     		sub	sp, sp, #20
 216              		.cfi_def_cfa_offset 24
 217 0004 0390     		str	r0, [sp, #12]
 218 0006 0291     		str	r1, [sp, #8]
 219 0008 0192     		str	r2, [sp, #4]
 220              		.loc 5 90 0
 221 000a 039B     		ldr	r3, [sp, #12]
 222 000c 029A     		ldr	r2, [sp, #8]
 223 000e 1A60     		str	r2, [r3]
 224              		.loc 5 91 0
ARM GAS  /tmp/ccWMKwvi.s 			page 5


 225 0010 039B     		ldr	r3, [sp, #12]
 226 0012 029A     		ldr	r2, [sp, #8]
 227 0014 DA60     		str	r2, [r3, #12]
 228              		.loc 5 92 0
 229 0016 039B     		ldr	r3, [sp, #12]
 230 0018 029A     		ldr	r2, [sp, #8]
 231 001a 9A60     		str	r2, [r3, #8]
 232              		.loc 5 93 0
 233 001c 019B     		ldr	r3, [sp, #4]
 234 001e 9B00     		lsls	r3, r3, #2
 235 0020 029A     		ldr	r2, [sp, #8]
 236 0022 1A44     		add	r2, r2, r3
 237 0024 039B     		ldr	r3, [sp, #12]
 238 0026 5A60     		str	r2, [r3, #4]
 239              		.loc 5 94 0
 240 0028 039B     		ldr	r3, [sp, #12]
 241 002a 1C33     		adds	r3, r3, #28
 242 002c 1846     		mov	r0, r3
 243 002e 0199     		ldr	r1, [sp, #4]
 244 0030 FFF7FEFF 		bl	chSemObjectInit
 245              		.loc 5 95 0
 246 0034 039B     		ldr	r3, [sp, #12]
 247 0036 1033     		adds	r3, r3, #16
 248 0038 1846     		mov	r0, r3
 249 003a 0021     		movs	r1, #0
 250 003c FFF7FEFF 		bl	chSemObjectInit
 251              		.loc 5 96 0
 252 0040 05B0     		add	sp, sp, #20
 253              		.cfi_def_cfa_offset 4
 254              		@ sp needed
 255 0042 5DF804FB 		ldr	pc, [sp], #4
 256              		.cfi_endproc
 257              	.LFE216:
 258              		.size	chMBObjectInit, .-chMBObjectInit
 259 0046 00BFAFF3 		.section	.text.chMBReset,"ax",%progbits
 259      0080AFF3 
 259      0080
 260              		.align	2
 261              		.p2align 4,,15
 262              		.global	chMBReset
 263              		.thumb
 264              		.thumb_func
 265              		.type	chMBReset, %function
 266              	chMBReset:
 267              	.LFB217:
 268              		.loc 5 107 0
 269              		.cfi_startproc
 270              		@ args = 0, pretend = 0, frame = 8
 271              		@ frame_needed = 0, uses_anonymous_args = 0
 272 0000 00B5     		push	{lr}
 273              		.cfi_def_cfa_offset 4
 274              		.cfi_offset 14, -4
 275 0002 83B0     		sub	sp, sp, #12
 276              		.cfi_def_cfa_offset 16
 277 0004 0190     		str	r0, [sp, #4]
 278              		.loc 5 109 0
 279 0006 FFF7FEFF 		bl	chSysLock
ARM GAS  /tmp/ccWMKwvi.s 			page 6


 280              		.loc 5 110 0
 281 000a 0198     		ldr	r0, [sp, #4]
 282 000c FFF7FEFF 		bl	chMBResetI
 283              		.loc 5 111 0
 284 0010 FFF7FEFF 		bl	chSchRescheduleS
 285              		.loc 5 112 0
 286 0014 FFF7FEFF 		bl	chSysUnlock
 287              		.loc 5 113 0
 288 0018 03B0     		add	sp, sp, #12
 289              		.cfi_def_cfa_offset 4
 290              		@ sp needed
 291 001a 5DF804FB 		ldr	pc, [sp], #4
 292              		.cfi_endproc
 293              	.LFE217:
 294              		.size	chMBReset, .-chMBReset
 295 001e 00BF     		.section	.text.chMBResetI,"ax",%progbits
 296              		.align	2
 297              		.p2align 4,,15
 298              		.global	chMBResetI
 299              		.thumb
 300              		.thumb_func
 301              		.type	chMBResetI, %function
 302              	chMBResetI:
 303              	.LFB218:
 304              		.loc 5 124 0
 305              		.cfi_startproc
 306              		@ args = 0, pretend = 0, frame = 8
 307              		@ frame_needed = 0, uses_anonymous_args = 0
 308 0000 00B5     		push	{lr}
 309              		.cfi_def_cfa_offset 4
 310              		.cfi_offset 14, -4
 311 0002 83B0     		sub	sp, sp, #12
 312              		.cfi_def_cfa_offset 16
 313 0004 0190     		str	r0, [sp, #4]
 314              		.loc 5 129 0
 315 0006 019B     		ldr	r3, [sp, #4]
 316 0008 1A68     		ldr	r2, [r3]
 317 000a 019B     		ldr	r3, [sp, #4]
 318 000c 9A60     		str	r2, [r3, #8]
 319              		.loc 5 130 0
 320 000e 019B     		ldr	r3, [sp, #4]
 321 0010 1A68     		ldr	r2, [r3]
 322 0012 019B     		ldr	r3, [sp, #4]
 323 0014 DA60     		str	r2, [r3, #12]
 324              		.loc 5 131 0
 325 0016 019B     		ldr	r3, [sp, #4]
 326 0018 03F11C02 		add	r2, r3, #28
 327 001c 019B     		ldr	r3, [sp, #4]
 328 001e 5B68     		ldr	r3, [r3, #4]
 329 0020 1946     		mov	r1, r3
 330 0022 019B     		ldr	r3, [sp, #4]
 331 0024 1B68     		ldr	r3, [r3]
 332 0026 CB1A     		subs	r3, r1, r3
 333 0028 9B10     		asrs	r3, r3, #2
 334 002a 1046     		mov	r0, r2
 335 002c 1946     		mov	r1, r3
 336 002e FFF7FEFF 		bl	chSemResetI
ARM GAS  /tmp/ccWMKwvi.s 			page 7


 337              		.loc 5 132 0
 338 0032 019B     		ldr	r3, [sp, #4]
 339 0034 1033     		adds	r3, r3, #16
 340 0036 1846     		mov	r0, r3
 341 0038 0021     		movs	r1, #0
 342 003a FFF7FEFF 		bl	chSemResetI
 343              		.loc 5 133 0
 344 003e 03B0     		add	sp, sp, #12
 345              		.cfi_def_cfa_offset 4
 346              		@ sp needed
 347 0040 5DF804FB 		ldr	pc, [sp], #4
 348              		.cfi_endproc
 349              	.LFE218:
 350              		.size	chMBResetI, .-chMBResetI
 351 0044 AFF30080 		.section	.text.chMBPost,"ax",%progbits
 351      AFF30080 
 351      AFF30080 
 352              		.align	2
 353              		.p2align 4,,15
 354              		.global	chMBPost
 355              		.thumb
 356              		.thumb_func
 357              		.type	chMBPost, %function
 358              	chMBPost:
 359              	.LFB219:
 360              		.loc 5 154 0
 361              		.cfi_startproc
 362              		@ args = 0, pretend = 0, frame = 24
 363              		@ frame_needed = 0, uses_anonymous_args = 0
 364 0000 00B5     		push	{lr}
 365              		.cfi_def_cfa_offset 4
 366              		.cfi_offset 14, -4
 367 0002 87B0     		sub	sp, sp, #28
 368              		.cfi_def_cfa_offset 32
 369 0004 0390     		str	r0, [sp, #12]
 370 0006 0291     		str	r1, [sp, #8]
 371 0008 0192     		str	r2, [sp, #4]
 372              		.loc 5 157 0
 373 000a FFF7FEFF 		bl	chSysLock
 374              		.loc 5 158 0
 375 000e 0398     		ldr	r0, [sp, #12]
 376 0010 0299     		ldr	r1, [sp, #8]
 377 0012 019A     		ldr	r2, [sp, #4]
 378 0014 FFF7FEFF 		bl	chMBPostS
 379 0018 0590     		str	r0, [sp, #20]
 380              		.loc 5 159 0
 381 001a FFF7FEFF 		bl	chSysUnlock
 382              		.loc 5 161 0
 383 001e 059B     		ldr	r3, [sp, #20]
 384              		.loc 5 162 0
 385 0020 1846     		mov	r0, r3
 386 0022 07B0     		add	sp, sp, #28
 387              		.cfi_def_cfa_offset 4
 388              		@ sp needed
 389 0024 5DF804FB 		ldr	pc, [sp], #4
 390              		.cfi_endproc
 391              	.LFE219:
ARM GAS  /tmp/ccWMKwvi.s 			page 8


 392              		.size	chMBPost, .-chMBPost
 393 0028 AFF30080 		.section	.text.chMBPostS,"ax",%progbits
 393      AFF30080 
 394              		.align	2
 395              		.p2align 4,,15
 396              		.global	chMBPostS
 397              		.thumb
 398              		.thumb_func
 399              		.type	chMBPostS, %function
 400              	chMBPostS:
 401              	.LFB220:
 402              		.loc 5 183 0
 403              		.cfi_startproc
 404              		@ args = 0, pretend = 0, frame = 24
 405              		@ frame_needed = 0, uses_anonymous_args = 0
 406 0000 00B5     		push	{lr}
 407              		.cfi_def_cfa_offset 4
 408              		.cfi_offset 14, -4
 409 0002 87B0     		sub	sp, sp, #28
 410              		.cfi_def_cfa_offset 32
 411 0004 0390     		str	r0, [sp, #12]
 412 0006 0291     		str	r1, [sp, #8]
 413 0008 0192     		str	r2, [sp, #4]
 414              		.loc 5 189 0
 415 000a 039B     		ldr	r3, [sp, #12]
 416 000c 1C33     		adds	r3, r3, #28
 417 000e 1846     		mov	r0, r3
 418 0010 0199     		ldr	r1, [sp, #4]
 419 0012 FFF7FEFF 		bl	chSemWaitTimeoutS
 420 0016 0590     		str	r0, [sp, #20]
 421              		.loc 5 190 0
 422 0018 059B     		ldr	r3, [sp, #20]
 423 001a 002B     		cmp	r3, #0
 424 001c 17D1     		bne	.L14
 425              		.loc 5 191 0
 426 001e 039B     		ldr	r3, [sp, #12]
 427 0020 9B68     		ldr	r3, [r3, #8]
 428 0022 191D     		adds	r1, r3, #4
 429 0024 039A     		ldr	r2, [sp, #12]
 430 0026 9160     		str	r1, [r2, #8]
 431 0028 029A     		ldr	r2, [sp, #8]
 432 002a 1A60     		str	r2, [r3]
 433              		.loc 5 192 0
 434 002c 039B     		ldr	r3, [sp, #12]
 435 002e 9A68     		ldr	r2, [r3, #8]
 436 0030 039B     		ldr	r3, [sp, #12]
 437 0032 5B68     		ldr	r3, [r3, #4]
 438 0034 9A42     		cmp	r2, r3
 439 0036 03D3     		bcc	.L15
 440              		.loc 5 193 0
 441 0038 039B     		ldr	r3, [sp, #12]
 442 003a 1A68     		ldr	r2, [r3]
 443 003c 039B     		ldr	r3, [sp, #12]
 444 003e 9A60     		str	r2, [r3, #8]
 445              	.L15:
 446              		.loc 5 195 0
 447 0040 039B     		ldr	r3, [sp, #12]
ARM GAS  /tmp/ccWMKwvi.s 			page 9


 448 0042 1033     		adds	r3, r3, #16
 449 0044 1846     		mov	r0, r3
 450 0046 FFF7FEFF 		bl	chSemSignalI
 451              		.loc 5 196 0
 452 004a FFF7FEFF 		bl	chSchRescheduleS
 453              	.L14:
 454              		.loc 5 199 0
 455 004e 059B     		ldr	r3, [sp, #20]
 456              		.loc 5 200 0
 457 0050 1846     		mov	r0, r3
 458 0052 07B0     		add	sp, sp, #28
 459              		.cfi_def_cfa_offset 4
 460              		@ sp needed
 461 0054 5DF804FB 		ldr	pc, [sp], #4
 462              		.cfi_endproc
 463              	.LFE220:
 464              		.size	chMBPostS, .-chMBPostS
 465 0058 AFF30080 		.section	.text.chMBPostI,"ax",%progbits
 465      AFF30080 
 466              		.align	2
 467              		.p2align 4,,15
 468              		.global	chMBPostI
 469              		.thumb
 470              		.thumb_func
 471              		.type	chMBPostI, %function
 472              	chMBPostI:
 473              	.LFB221:
 474              		.loc 5 216 0
 475              		.cfi_startproc
 476              		@ args = 0, pretend = 0, frame = 8
 477              		@ frame_needed = 0, uses_anonymous_args = 0
 478 0000 00B5     		push	{lr}
 479              		.cfi_def_cfa_offset 4
 480              		.cfi_offset 14, -4
 481 0002 83B0     		sub	sp, sp, #12
 482              		.cfi_def_cfa_offset 16
 483 0004 0190     		str	r0, [sp, #4]
 484 0006 0091     		str	r1, [sp]
 485              		.loc 5 221 0
 486 0008 019B     		ldr	r3, [sp, #4]
 487 000a 1C33     		adds	r3, r3, #28
 488 000c 1846     		mov	r0, r3
 489 000e FFF7FEFF 		bl	chSemGetCounterI
 490 0012 0346     		mov	r3, r0
 491 0014 002B     		cmp	r3, #0
 492 0016 02DC     		bgt	.L18
 493              		.loc 5 222 0
 494 0018 4FF0FF33 		mov	r3, #-1
 495 001c 1BE0     		b	.L19
 496              	.L18:
 497              		.loc 5 225 0
 498 001e 019B     		ldr	r3, [sp, #4]
 499 0020 1C33     		adds	r3, r3, #28
 500 0022 1846     		mov	r0, r3
 501 0024 FFF7FEFF 		bl	chSemFastWaitI
 502              		.loc 5 226 0
 503 0028 019B     		ldr	r3, [sp, #4]
ARM GAS  /tmp/ccWMKwvi.s 			page 10


 504 002a 9B68     		ldr	r3, [r3, #8]
 505 002c 191D     		adds	r1, r3, #4
 506 002e 019A     		ldr	r2, [sp, #4]
 507 0030 9160     		str	r1, [r2, #8]
 508 0032 009A     		ldr	r2, [sp]
 509 0034 1A60     		str	r2, [r3]
 510              		.loc 5 227 0
 511 0036 019B     		ldr	r3, [sp, #4]
 512 0038 9A68     		ldr	r2, [r3, #8]
 513 003a 019B     		ldr	r3, [sp, #4]
 514 003c 5B68     		ldr	r3, [r3, #4]
 515 003e 9A42     		cmp	r2, r3
 516 0040 03D3     		bcc	.L20
 517              		.loc 5 228 0
 518 0042 019B     		ldr	r3, [sp, #4]
 519 0044 1A68     		ldr	r2, [r3]
 520 0046 019B     		ldr	r3, [sp, #4]
 521 0048 9A60     		str	r2, [r3, #8]
 522              	.L20:
 523              		.loc 5 230 0
 524 004a 019B     		ldr	r3, [sp, #4]
 525 004c 1033     		adds	r3, r3, #16
 526 004e 1846     		mov	r0, r3
 527 0050 FFF7FEFF 		bl	chSemSignalI
 528              		.loc 5 232 0
 529 0054 0023     		movs	r3, #0
 530              	.L19:
 531              		.loc 5 233 0
 532 0056 1846     		mov	r0, r3
 533 0058 03B0     		add	sp, sp, #12
 534              		.cfi_def_cfa_offset 4
 535              		@ sp needed
 536 005a 5DF804FB 		ldr	pc, [sp], #4
 537              		.cfi_endproc
 538              	.LFE221:
 539              		.size	chMBPostI, .-chMBPostI
 540 005e 00BF     		.section	.text.chMBPostAhead,"ax",%progbits
 541              		.align	2
 542              		.p2align 4,,15
 543              		.global	chMBPostAhead
 544              		.thumb
 545              		.thumb_func
 546              		.type	chMBPostAhead, %function
 547              	chMBPostAhead:
 548              	.LFB222:
 549              		.loc 5 254 0
 550              		.cfi_startproc
 551              		@ args = 0, pretend = 0, frame = 24
 552              		@ frame_needed = 0, uses_anonymous_args = 0
 553 0000 00B5     		push	{lr}
 554              		.cfi_def_cfa_offset 4
 555              		.cfi_offset 14, -4
 556 0002 87B0     		sub	sp, sp, #28
 557              		.cfi_def_cfa_offset 32
 558 0004 0390     		str	r0, [sp, #12]
 559 0006 0291     		str	r1, [sp, #8]
 560 0008 0192     		str	r2, [sp, #4]
ARM GAS  /tmp/ccWMKwvi.s 			page 11


 561              		.loc 5 257 0
 562 000a FFF7FEFF 		bl	chSysLock
 563              		.loc 5 258 0
 564 000e 0398     		ldr	r0, [sp, #12]
 565 0010 0299     		ldr	r1, [sp, #8]
 566 0012 019A     		ldr	r2, [sp, #4]
 567 0014 FFF7FEFF 		bl	chMBPostAheadS
 568 0018 0590     		str	r0, [sp, #20]
 569              		.loc 5 259 0
 570 001a FFF7FEFF 		bl	chSysUnlock
 571              		.loc 5 261 0
 572 001e 059B     		ldr	r3, [sp, #20]
 573              		.loc 5 262 0
 574 0020 1846     		mov	r0, r3
 575 0022 07B0     		add	sp, sp, #28
 576              		.cfi_def_cfa_offset 4
 577              		@ sp needed
 578 0024 5DF804FB 		ldr	pc, [sp], #4
 579              		.cfi_endproc
 580              	.LFE222:
 581              		.size	chMBPostAhead, .-chMBPostAhead
 582 0028 AFF30080 		.section	.text.chMBPostAheadS,"ax",%progbits
 582      AFF30080 
 583              		.align	2
 584              		.p2align 4,,15
 585              		.global	chMBPostAheadS
 586              		.thumb
 587              		.thumb_func
 588              		.type	chMBPostAheadS, %function
 589              	chMBPostAheadS:
 590              	.LFB223:
 591              		.loc 5 283 0
 592              		.cfi_startproc
 593              		@ args = 0, pretend = 0, frame = 24
 594              		@ frame_needed = 0, uses_anonymous_args = 0
 595 0000 00B5     		push	{lr}
 596              		.cfi_def_cfa_offset 4
 597              		.cfi_offset 14, -4
 598 0002 87B0     		sub	sp, sp, #28
 599              		.cfi_def_cfa_offset 32
 600 0004 0390     		str	r0, [sp, #12]
 601 0006 0291     		str	r1, [sp, #8]
 602 0008 0192     		str	r2, [sp, #4]
 603              		.loc 5 289 0
 604 000a 039B     		ldr	r3, [sp, #12]
 605 000c 1C33     		adds	r3, r3, #28
 606 000e 1846     		mov	r0, r3
 607 0010 0199     		ldr	r1, [sp, #4]
 608 0012 FFF7FEFF 		bl	chSemWaitTimeoutS
 609 0016 0590     		str	r0, [sp, #20]
 610              		.loc 5 290 0
 611 0018 059B     		ldr	r3, [sp, #20]
 612 001a 002B     		cmp	r3, #0
 613 001c 1AD1     		bne	.L24
 614              		.loc 5 291 0
 615 001e 039B     		ldr	r3, [sp, #12]
 616 0020 DB68     		ldr	r3, [r3, #12]
ARM GAS  /tmp/ccWMKwvi.s 			page 12


 617 0022 1A1F     		subs	r2, r3, #4
 618 0024 039B     		ldr	r3, [sp, #12]
 619 0026 DA60     		str	r2, [r3, #12]
 620 0028 039B     		ldr	r3, [sp, #12]
 621 002a DA68     		ldr	r2, [r3, #12]
 622 002c 039B     		ldr	r3, [sp, #12]
 623 002e 1B68     		ldr	r3, [r3]
 624 0030 9A42     		cmp	r2, r3
 625 0032 04D2     		bcs	.L25
 626              		.loc 5 292 0
 627 0034 039B     		ldr	r3, [sp, #12]
 628 0036 5B68     		ldr	r3, [r3, #4]
 629 0038 1A1F     		subs	r2, r3, #4
 630 003a 039B     		ldr	r3, [sp, #12]
 631 003c DA60     		str	r2, [r3, #12]
 632              	.L25:
 633              		.loc 5 294 0
 634 003e 039B     		ldr	r3, [sp, #12]
 635 0040 DB68     		ldr	r3, [r3, #12]
 636 0042 029A     		ldr	r2, [sp, #8]
 637 0044 1A60     		str	r2, [r3]
 638              		.loc 5 295 0
 639 0046 039B     		ldr	r3, [sp, #12]
 640 0048 1033     		adds	r3, r3, #16
 641 004a 1846     		mov	r0, r3
 642 004c FFF7FEFF 		bl	chSemSignalI
 643              		.loc 5 296 0
 644 0050 FFF7FEFF 		bl	chSchRescheduleS
 645              	.L24:
 646              		.loc 5 299 0
 647 0054 059B     		ldr	r3, [sp, #20]
 648              		.loc 5 300 0
 649 0056 1846     		mov	r0, r3
 650 0058 07B0     		add	sp, sp, #28
 651              		.cfi_def_cfa_offset 4
 652              		@ sp needed
 653 005a 5DF804FB 		ldr	pc, [sp], #4
 654              		.cfi_endproc
 655              	.LFE223:
 656              		.size	chMBPostAheadS, .-chMBPostAheadS
 657 005e 00BF     		.section	.text.chMBPostAheadI,"ax",%progbits
 658              		.align	2
 659              		.p2align 4,,15
 660              		.global	chMBPostAheadI
 661              		.thumb
 662              		.thumb_func
 663              		.type	chMBPostAheadI, %function
 664              	chMBPostAheadI:
 665              	.LFB224:
 666              		.loc 5 316 0
 667              		.cfi_startproc
 668              		@ args = 0, pretend = 0, frame = 8
 669              		@ frame_needed = 0, uses_anonymous_args = 0
 670 0000 00B5     		push	{lr}
 671              		.cfi_def_cfa_offset 4
 672              		.cfi_offset 14, -4
 673 0002 83B0     		sub	sp, sp, #12
ARM GAS  /tmp/ccWMKwvi.s 			page 13


 674              		.cfi_def_cfa_offset 16
 675 0004 0190     		str	r0, [sp, #4]
 676 0006 0091     		str	r1, [sp]
 677              		.loc 5 321 0
 678 0008 019B     		ldr	r3, [sp, #4]
 679 000a 1C33     		adds	r3, r3, #28
 680 000c 1846     		mov	r0, r3
 681 000e FFF7FEFF 		bl	chSemGetCounterI
 682 0012 0346     		mov	r3, r0
 683 0014 002B     		cmp	r3, #0
 684 0016 02DC     		bgt	.L28
 685              		.loc 5 322 0
 686 0018 4FF0FF33 		mov	r3, #-1
 687 001c 1EE0     		b	.L29
 688              	.L28:
 689              		.loc 5 324 0
 690 001e 019B     		ldr	r3, [sp, #4]
 691 0020 1C33     		adds	r3, r3, #28
 692 0022 1846     		mov	r0, r3
 693 0024 FFF7FEFF 		bl	chSemFastWaitI
 694              		.loc 5 325 0
 695 0028 019B     		ldr	r3, [sp, #4]
 696 002a DB68     		ldr	r3, [r3, #12]
 697 002c 1A1F     		subs	r2, r3, #4
 698 002e 019B     		ldr	r3, [sp, #4]
 699 0030 DA60     		str	r2, [r3, #12]
 700 0032 019B     		ldr	r3, [sp, #4]
 701 0034 DA68     		ldr	r2, [r3, #12]
 702 0036 019B     		ldr	r3, [sp, #4]
 703 0038 1B68     		ldr	r3, [r3]
 704 003a 9A42     		cmp	r2, r3
 705 003c 04D2     		bcs	.L30
 706              		.loc 5 326 0
 707 003e 019B     		ldr	r3, [sp, #4]
 708 0040 5B68     		ldr	r3, [r3, #4]
 709 0042 1A1F     		subs	r2, r3, #4
 710 0044 019B     		ldr	r3, [sp, #4]
 711 0046 DA60     		str	r2, [r3, #12]
 712              	.L30:
 713              		.loc 5 328 0
 714 0048 019B     		ldr	r3, [sp, #4]
 715 004a DB68     		ldr	r3, [r3, #12]
 716 004c 009A     		ldr	r2, [sp]
 717 004e 1A60     		str	r2, [r3]
 718              		.loc 5 329 0
 719 0050 019B     		ldr	r3, [sp, #4]
 720 0052 1033     		adds	r3, r3, #16
 721 0054 1846     		mov	r0, r3
 722 0056 FFF7FEFF 		bl	chSemSignalI
 723              		.loc 5 331 0
 724 005a 0023     		movs	r3, #0
 725              	.L29:
 726              		.loc 5 332 0
 727 005c 1846     		mov	r0, r3
 728 005e 03B0     		add	sp, sp, #12
 729              		.cfi_def_cfa_offset 4
 730              		@ sp needed
ARM GAS  /tmp/ccWMKwvi.s 			page 14


 731 0060 5DF804FB 		ldr	pc, [sp], #4
 732              		.cfi_endproc
 733              	.LFE224:
 734              		.size	chMBPostAheadI, .-chMBPostAheadI
 735 0064 AFF30080 		.section	.text.chMBFetch,"ax",%progbits
 735      AFF30080 
 735      AFF30080 
 736              		.align	2
 737              		.p2align 4,,15
 738              		.global	chMBFetch
 739              		.thumb
 740              		.thumb_func
 741              		.type	chMBFetch, %function
 742              	chMBFetch:
 743              	.LFB225:
 744              		.loc 5 353 0
 745              		.cfi_startproc
 746              		@ args = 0, pretend = 0, frame = 24
 747              		@ frame_needed = 0, uses_anonymous_args = 0
 748 0000 00B5     		push	{lr}
 749              		.cfi_def_cfa_offset 4
 750              		.cfi_offset 14, -4
 751 0002 87B0     		sub	sp, sp, #28
 752              		.cfi_def_cfa_offset 32
 753 0004 0390     		str	r0, [sp, #12]
 754 0006 0291     		str	r1, [sp, #8]
 755 0008 0192     		str	r2, [sp, #4]
 756              		.loc 5 356 0
 757 000a FFF7FEFF 		bl	chSysLock
 758              		.loc 5 357 0
 759 000e 0398     		ldr	r0, [sp, #12]
 760 0010 0299     		ldr	r1, [sp, #8]
 761 0012 019A     		ldr	r2, [sp, #4]
 762 0014 FFF7FEFF 		bl	chMBFetchS
 763 0018 0590     		str	r0, [sp, #20]
 764              		.loc 5 358 0
 765 001a FFF7FEFF 		bl	chSysUnlock
 766              		.loc 5 360 0
 767 001e 059B     		ldr	r3, [sp, #20]
 768              		.loc 5 361 0
 769 0020 1846     		mov	r0, r3
 770 0022 07B0     		add	sp, sp, #28
 771              		.cfi_def_cfa_offset 4
 772              		@ sp needed
 773 0024 5DF804FB 		ldr	pc, [sp], #4
 774              		.cfi_endproc
 775              	.LFE225:
 776              		.size	chMBFetch, .-chMBFetch
 777 0028 AFF30080 		.section	.text.chMBFetchS,"ax",%progbits
 777      AFF30080 
 778              		.align	2
 779              		.p2align 4,,15
 780              		.global	chMBFetchS
 781              		.thumb
 782              		.thumb_func
 783              		.type	chMBFetchS, %function
 784              	chMBFetchS:
ARM GAS  /tmp/ccWMKwvi.s 			page 15


 785              	.LFB226:
 786              		.loc 5 382 0
 787              		.cfi_startproc
 788              		@ args = 0, pretend = 0, frame = 24
 789              		@ frame_needed = 0, uses_anonymous_args = 0
 790 0000 00B5     		push	{lr}
 791              		.cfi_def_cfa_offset 4
 792              		.cfi_offset 14, -4
 793 0002 87B0     		sub	sp, sp, #28
 794              		.cfi_def_cfa_offset 32
 795 0004 0390     		str	r0, [sp, #12]
 796 0006 0291     		str	r1, [sp, #8]
 797 0008 0192     		str	r2, [sp, #4]
 798              		.loc 5 388 0
 799 000a 039B     		ldr	r3, [sp, #12]
 800 000c 1033     		adds	r3, r3, #16
 801 000e 1846     		mov	r0, r3
 802 0010 0199     		ldr	r1, [sp, #4]
 803 0012 FFF7FEFF 		bl	chSemWaitTimeoutS
 804 0016 0590     		str	r0, [sp, #20]
 805              		.loc 5 389 0
 806 0018 059B     		ldr	r3, [sp, #20]
 807 001a 002B     		cmp	r3, #0
 808 001c 18D1     		bne	.L34
 809              		.loc 5 390 0
 810 001e 039B     		ldr	r3, [sp, #12]
 811 0020 DB68     		ldr	r3, [r3, #12]
 812 0022 191D     		adds	r1, r3, #4
 813 0024 039A     		ldr	r2, [sp, #12]
 814 0026 D160     		str	r1, [r2, #12]
 815 0028 1A68     		ldr	r2, [r3]
 816 002a 029B     		ldr	r3, [sp, #8]
 817 002c 1A60     		str	r2, [r3]
 818              		.loc 5 391 0
 819 002e 039B     		ldr	r3, [sp, #12]
 820 0030 DA68     		ldr	r2, [r3, #12]
 821 0032 039B     		ldr	r3, [sp, #12]
 822 0034 5B68     		ldr	r3, [r3, #4]
 823 0036 9A42     		cmp	r2, r3
 824 0038 03D3     		bcc	.L35
 825              		.loc 5 392 0
 826 003a 039B     		ldr	r3, [sp, #12]
 827 003c 1A68     		ldr	r2, [r3]
 828 003e 039B     		ldr	r3, [sp, #12]
 829 0040 DA60     		str	r2, [r3, #12]
 830              	.L35:
 831              		.loc 5 394 0
 832 0042 039B     		ldr	r3, [sp, #12]
 833 0044 1C33     		adds	r3, r3, #28
 834 0046 1846     		mov	r0, r3
 835 0048 FFF7FEFF 		bl	chSemSignalI
 836              		.loc 5 395 0
 837 004c FFF7FEFF 		bl	chSchRescheduleS
 838              	.L34:
 839              		.loc 5 398 0
 840 0050 059B     		ldr	r3, [sp, #20]
 841              		.loc 5 399 0
ARM GAS  /tmp/ccWMKwvi.s 			page 16


 842 0052 1846     		mov	r0, r3
 843 0054 07B0     		add	sp, sp, #28
 844              		.cfi_def_cfa_offset 4
 845              		@ sp needed
 846 0056 5DF804FB 		ldr	pc, [sp], #4
 847              		.cfi_endproc
 848              	.LFE226:
 849              		.size	chMBFetchS, .-chMBFetchS
 850 005a 00BFAFF3 		.section	.text.chMBFetchI,"ax",%progbits
 850      0080
 851              		.align	2
 852              		.p2align 4,,15
 853              		.global	chMBFetchI
 854              		.thumb
 855              		.thumb_func
 856              		.type	chMBFetchI, %function
 857              	chMBFetchI:
 858              	.LFB227:
 859              		.loc 5 415 0
 860              		.cfi_startproc
 861              		@ args = 0, pretend = 0, frame = 8
 862              		@ frame_needed = 0, uses_anonymous_args = 0
 863 0000 00B5     		push	{lr}
 864              		.cfi_def_cfa_offset 4
 865              		.cfi_offset 14, -4
 866 0002 83B0     		sub	sp, sp, #12
 867              		.cfi_def_cfa_offset 16
 868 0004 0190     		str	r0, [sp, #4]
 869 0006 0091     		str	r1, [sp]
 870              		.loc 5 420 0
 871 0008 019B     		ldr	r3, [sp, #4]
 872 000a 1033     		adds	r3, r3, #16
 873 000c 1846     		mov	r0, r3
 874 000e FFF7FEFF 		bl	chSemGetCounterI
 875 0012 0346     		mov	r3, r0
 876 0014 002B     		cmp	r3, #0
 877 0016 02DC     		bgt	.L38
 878              		.loc 5 421 0
 879 0018 4FF0FF33 		mov	r3, #-1
 880 001c 1CE0     		b	.L39
 881              	.L38:
 882              		.loc 5 423 0
 883 001e 019B     		ldr	r3, [sp, #4]
 884 0020 1033     		adds	r3, r3, #16
 885 0022 1846     		mov	r0, r3
 886 0024 FFF7FEFF 		bl	chSemFastWaitI
 887              		.loc 5 424 0
 888 0028 019B     		ldr	r3, [sp, #4]
 889 002a DB68     		ldr	r3, [r3, #12]
 890 002c 191D     		adds	r1, r3, #4
 891 002e 019A     		ldr	r2, [sp, #4]
 892 0030 D160     		str	r1, [r2, #12]
 893 0032 1A68     		ldr	r2, [r3]
 894 0034 009B     		ldr	r3, [sp]
 895 0036 1A60     		str	r2, [r3]
 896              		.loc 5 425 0
 897 0038 019B     		ldr	r3, [sp, #4]
ARM GAS  /tmp/ccWMKwvi.s 			page 17


 898 003a DA68     		ldr	r2, [r3, #12]
 899 003c 019B     		ldr	r3, [sp, #4]
 900 003e 5B68     		ldr	r3, [r3, #4]
 901 0040 9A42     		cmp	r2, r3
 902 0042 03D3     		bcc	.L40
 903              		.loc 5 426 0
 904 0044 019B     		ldr	r3, [sp, #4]
 905 0046 1A68     		ldr	r2, [r3]
 906 0048 019B     		ldr	r3, [sp, #4]
 907 004a DA60     		str	r2, [r3, #12]
 908              	.L40:
 909              		.loc 5 428 0
 910 004c 019B     		ldr	r3, [sp, #4]
 911 004e 1C33     		adds	r3, r3, #28
 912 0050 1846     		mov	r0, r3
 913 0052 FFF7FEFF 		bl	chSemSignalI
 914              		.loc 5 430 0
 915 0056 0023     		movs	r3, #0
 916              	.L39:
 917              		.loc 5 431 0
 918 0058 1846     		mov	r0, r3
 919 005a 03B0     		add	sp, sp, #12
 920              		.cfi_def_cfa_offset 4
 921              		@ sp needed
 922 005c 5DF804FB 		ldr	pc, [sp], #4
 923              		.cfi_endproc
 924              	.LFE227:
 925              		.size	chMBFetchI, .-chMBFetchI
 926              		.text
 927              	.Letext0:
 928              		.file 6 "/opt/gcc-arm-none-eabi/arm-none-eabi/include/machine/_default_types.h"
 929              		.file 7 "/opt/gcc-arm-none-eabi/arm-none-eabi/include/stdint.h"
 930              		.file 8 "/home/makkmarci/workspace/CLEAN/ChibiOS/os/rt/ports/ARMCMx/compilers/GCC/chtypes.h"
 931              		.file 9 "/home/makkmarci/workspace/CLEAN/ChibiOS/os/rt/include/chsystypes.h"
 932              		.file 10 "/home/makkmarci/workspace/CLEAN/ChibiOS/os/rt/include/chschd.h"
 933              		.file 11 "/home/makkmarci/workspace/CLEAN/ChibiOS/os/rt/ports/ARMCMx/chcore.h"
 934              		.file 12 "/home/makkmarci/workspace/CLEAN/ChibiOS/os/rt/include/chtm.h"
 935              		.file 13 "/home/makkmarci/workspace/CLEAN/ChibiOS/os/rt/include/chmtx.h"
 936              		.file 14 "/home/makkmarci/workspace/CLEAN/ChibiOS/os/rt/include/chmboxes.h"
 937              		.file 15 "/home/makkmarci/workspace/CLEAN/ChibiOS/os/ext/CMSIS/include/core_cm4.h"