ARM GAS  /tmp/ccmLxHDv.s 			page 1


   1              		.syntax unified
   2              		.cpu cortex-m4
   3              		.eabi_attribute 27, 1
   4              		.eabi_attribute 28, 1
   5              		.fpu fpv4-sp-d16
   6              		.eabi_attribute 20, 1
   7              		.eabi_attribute 21, 1
   8              		.eabi_attribute 23, 3
   9              		.eabi_attribute 24, 1
  10              		.eabi_attribute 25, 1
  11              		.eabi_attribute 26, 1
  12              		.eabi_attribute 30, 6
  13              		.eabi_attribute 34, 1
  14              		.eabi_attribute 18, 4
  15              		.thumb
  16              		.file	"chmempools.c"
  17              		.text
  18              	.Ltext0:
  19              		.cfi_sections	.debug_frame
  20              		.section	.text.port_lock,"ax",%progbits
  21              		.align	2
  22              		.p2align 4,,15
  23              		.thumb
  24              		.thumb_func
  25              		.type	port_lock, %function
  26              	port_lock:
  27              	.LFB116:
  28              		.file 1 "/home/makkmarci/workspace/CLEAN/ChibiOS/os/rt/ports/ARMCMx/chcore_v7m.h"
  29              		.loc 1 444 0
  30              		.cfi_startproc
  31              		@ args = 0, pretend = 0, frame = 8
  32              		@ frame_needed = 0, uses_anonymous_args = 0
  33              		@ link register save eliminated.
  34 0000 82B0     		sub	sp, sp, #8
  35              		.cfi_def_cfa_offset 8
  36 0002 2023     		movs	r3, #32
  37 0004 0193     		str	r3, [sp, #4]
  38              	.LBB6:
  39              	.LBB7:
  40              		.file 2 "/home/makkmarci/workspace/CLEAN/ChibiOS/os/ext/CMSIS/include/core_cmFunc.h"
  41              		.loc 2 546 0
  42 0006 019B     		ldr	r3, [sp, #4]
  43              	@ 546 "/home/makkmarci/workspace/CLEAN/ChibiOS/os/ext/CMSIS/include/core_cmFunc.h" 1
  44 0008 83F31188 		MSR basepri, r3
  45              	@ 0 "" 2
  46              		.thumb
  47              	.LBE7:
  48              	.LBE6:
  49              		.loc 1 451 0
  50 000c 02B0     		add	sp, sp, #8
  51              		.cfi_def_cfa_offset 0
  52              		@ sp needed
  53 000e 7047     		bx	lr
  54              		.cfi_endproc
  55              	.LFE116:
  56              		.size	port_lock, .-port_lock
  57              		.section	.text.port_unlock,"ax",%progbits
ARM GAS  /tmp/ccmLxHDv.s 			page 2


  58              		.align	2
  59              		.p2align 4,,15
  60              		.thumb
  61              		.thumb_func
  62              		.type	port_unlock, %function
  63              	port_unlock:
  64              	.LFB117:
  65              		.loc 1 458 0
  66              		.cfi_startproc
  67              		@ args = 0, pretend = 0, frame = 8
  68              		@ frame_needed = 0, uses_anonymous_args = 0
  69              		@ link register save eliminated.
  70 0000 82B0     		sub	sp, sp, #8
  71              		.cfi_def_cfa_offset 8
  72 0002 0023     		movs	r3, #0
  73 0004 0193     		str	r3, [sp, #4]
  74              	.LBB8:
  75              	.LBB9:
  76              		.loc 2 546 0
  77 0006 019B     		ldr	r3, [sp, #4]
  78              	@ 546 "/home/makkmarci/workspace/CLEAN/ChibiOS/os/ext/CMSIS/include/core_cmFunc.h" 1
  79 0008 83F31188 		MSR basepri, r3
  80              	@ 0 "" 2
  81              		.thumb
  82              	.LBE9:
  83              	.LBE8:
  84              		.loc 1 465 0
  85 000c 02B0     		add	sp, sp, #8
  86              		.cfi_def_cfa_offset 0
  87              		@ sp needed
  88 000e 7047     		bx	lr
  89              		.cfi_endproc
  90              	.LFE117:
  91              		.size	port_unlock, .-port_unlock
  92              		.section	.text.chSysLock,"ax",%progbits
  93              		.align	2
  94              		.p2align 4,,15
  95              		.thumb
  96              		.thumb_func
  97              		.type	chSysLock, %function
  98              	chSysLock:
  99              	.LFB145:
 100              		.file 3 "/home/makkmarci/workspace/CLEAN/ChibiOS/os/rt/include/chsys.h"
 101              		.loc 3 346 0
 102              		.cfi_startproc
 103              		@ args = 0, pretend = 0, frame = 0
 104              		@ frame_needed = 0, uses_anonymous_args = 0
 105 0000 08B5     		push	{r3, lr}
 106              		.cfi_def_cfa_offset 8
 107              		.cfi_offset 3, -8
 108              		.cfi_offset 14, -4
 109              		.loc 3 348 0
 110 0002 FFF7FEFF 		bl	port_lock
 111              		.loc 3 351 0
 112 0006 08BD     		pop	{r3, pc}
 113              		.cfi_endproc
 114              	.LFE145:
ARM GAS  /tmp/ccmLxHDv.s 			page 3


 115              		.size	chSysLock, .-chSysLock
 116              		.section	.text.chSysUnlock,"ax",%progbits
 117              		.align	2
 118              		.p2align 4,,15
 119              		.thumb
 120              		.thumb_func
 121              		.type	chSysUnlock, %function
 122              	chSysUnlock:
 123              	.LFB146:
 124              		.loc 3 358 0
 125              		.cfi_startproc
 126              		@ args = 0, pretend = 0, frame = 0
 127              		@ frame_needed = 0, uses_anonymous_args = 0
 128 0000 08B5     		push	{r3, lr}
 129              		.cfi_def_cfa_offset 8
 130              		.cfi_offset 3, -8
 131              		.cfi_offset 14, -4
 132              		.loc 3 371 0
 133 0002 FFF7FEFF 		bl	port_unlock
 134              		.loc 3 372 0
 135 0006 08BD     		pop	{r3, pc}
 136              		.cfi_endproc
 137              	.LFE146:
 138              		.size	chSysUnlock, .-chSysUnlock
 139 0008 AFF30080 		.section	.text.chPoolAdd,"ax",%progbits
 139      AFF30080 
 140              		.align	2
 141              		.p2align 4,,15
 142              		.thumb
 143              		.thumb_func
 144              		.type	chPoolAdd, %function
 145              	chPoolAdd:
 146              	.LFB204:
 147              		.file 4 "/home/makkmarci/workspace/CLEAN/ChibiOS/os/rt/include/chmempools.h"
 148              		.loc 4 137 0
 149              		.cfi_startproc
 150              		@ args = 0, pretend = 0, frame = 8
 151              		@ frame_needed = 0, uses_anonymous_args = 0
 152 0000 00B5     		push	{lr}
 153              		.cfi_def_cfa_offset 4
 154              		.cfi_offset 14, -4
 155 0002 83B0     		sub	sp, sp, #12
 156              		.cfi_def_cfa_offset 16
 157 0004 0190     		str	r0, [sp, #4]
 158 0006 0091     		str	r1, [sp]
 159              		.loc 4 139 0
 160 0008 0198     		ldr	r0, [sp, #4]
 161 000a 0099     		ldr	r1, [sp]
 162 000c FFF7FEFF 		bl	chPoolFree
 163              		.loc 4 140 0
 164 0010 03B0     		add	sp, sp, #12
 165              		.cfi_def_cfa_offset 4
 166              		@ sp needed
 167 0012 5DF804FB 		ldr	pc, [sp], #4
 168              		.cfi_endproc
 169              	.LFE204:
 170              		.size	chPoolAdd, .-chPoolAdd
ARM GAS  /tmp/ccmLxHDv.s 			page 4


 171 0016 00BFAFF3 		.section	.text.chPoolObjectInit,"ax",%progbits
 171      0080AFF3 
 171      0080
 172              		.align	2
 173              		.p2align 4,,15
 174              		.global	chPoolObjectInit
 175              		.thumb
 176              		.thumb_func
 177              		.type	chPoolObjectInit, %function
 178              	chPoolObjectInit:
 179              	.LFB216:
 180              		.file 5 "/home/makkmarci/workspace/CLEAN/ChibiOS/os/rt/src/chmempools.c"
 181              		.loc 5 75 0
 182              		.cfi_startproc
 183              		@ args = 0, pretend = 0, frame = 16
 184              		@ frame_needed = 0, uses_anonymous_args = 0
 185              		@ link register save eliminated.
 186 0000 84B0     		sub	sp, sp, #16
 187              		.cfi_def_cfa_offset 16
 188 0002 0390     		str	r0, [sp, #12]
 189 0004 0291     		str	r1, [sp, #8]
 190 0006 0192     		str	r2, [sp, #4]
 191              		.loc 5 79 0
 192 0008 039B     		ldr	r3, [sp, #12]
 193 000a 0022     		movs	r2, #0
 194 000c 1A60     		str	r2, [r3]
 195              		.loc 5 80 0
 196 000e 039B     		ldr	r3, [sp, #12]
 197 0010 029A     		ldr	r2, [sp, #8]
 198 0012 5A60     		str	r2, [r3, #4]
 199              		.loc 5 81 0
 200 0014 039B     		ldr	r3, [sp, #12]
 201 0016 019A     		ldr	r2, [sp, #4]
 202 0018 9A60     		str	r2, [r3, #8]
 203              		.loc 5 82 0
 204 001a 04B0     		add	sp, sp, #16
 205              		.cfi_def_cfa_offset 0
 206              		@ sp needed
 207 001c 7047     		bx	lr
 208              		.cfi_endproc
 209              	.LFE216:
 210              		.size	chPoolObjectInit, .-chPoolObjectInit
 211 001e 00BF     		.section	.text.chPoolLoadArray,"ax",%progbits
 212              		.align	2
 213              		.p2align 4,,15
 214              		.global	chPoolLoadArray
 215              		.thumb
 216              		.thumb_func
 217              		.type	chPoolLoadArray, %function
 218              	chPoolLoadArray:
 219              	.LFB217:
 220              		.loc 5 97 0
 221              		.cfi_startproc
 222              		@ args = 0, pretend = 0, frame = 16
 223              		@ frame_needed = 0, uses_anonymous_args = 0
 224 0000 00B5     		push	{lr}
 225              		.cfi_def_cfa_offset 4
ARM GAS  /tmp/ccmLxHDv.s 			page 5


 226              		.cfi_offset 14, -4
 227 0002 85B0     		sub	sp, sp, #20
 228              		.cfi_def_cfa_offset 24
 229 0004 0390     		str	r0, [sp, #12]
 230 0006 0291     		str	r1, [sp, #8]
 231 0008 0192     		str	r2, [sp, #4]
 232              		.loc 5 101 0
 233 000a 0BE0     		b	.L8
 234              	.L9:
 235              		.loc 5 102 0
 236 000c 0398     		ldr	r0, [sp, #12]
 237 000e 0299     		ldr	r1, [sp, #8]
 238 0010 FFF7FEFF 		bl	chPoolAdd
 239              		.loc 5 104 0
 240 0014 039B     		ldr	r3, [sp, #12]
 241 0016 5B68     		ldr	r3, [r3, #4]
 242 0018 029A     		ldr	r2, [sp, #8]
 243 001a 1344     		add	r3, r3, r2
 244 001c 0293     		str	r3, [sp, #8]
 245              		.loc 5 106 0
 246 001e 019B     		ldr	r3, [sp, #4]
 247 0020 013B     		subs	r3, r3, #1
 248 0022 0193     		str	r3, [sp, #4]
 249              	.L8:
 250              		.loc 5 101 0
 251 0024 019B     		ldr	r3, [sp, #4]
 252 0026 002B     		cmp	r3, #0
 253 0028 F0D1     		bne	.L9
 254              		.loc 5 108 0
 255 002a 05B0     		add	sp, sp, #20
 256              		.cfi_def_cfa_offset 4
 257              		@ sp needed
 258 002c 5DF804FB 		ldr	pc, [sp], #4
 259              		.cfi_endproc
 260              	.LFE217:
 261              		.size	chPoolLoadArray, .-chPoolLoadArray
 262              		.section	.text.chPoolAllocI,"ax",%progbits
 263              		.align	2
 264              		.p2align 4,,15
 265              		.global	chPoolAllocI
 266              		.thumb
 267              		.thumb_func
 268              		.type	chPoolAllocI, %function
 269              	chPoolAllocI:
 270              	.LFB218:
 271              		.loc 5 120 0
 272              		.cfi_startproc
 273              		@ args = 0, pretend = 0, frame = 16
 274              		@ frame_needed = 0, uses_anonymous_args = 0
 275 0000 00B5     		push	{lr}
 276              		.cfi_def_cfa_offset 4
 277              		.cfi_offset 14, -4
 278 0002 85B0     		sub	sp, sp, #20
 279              		.cfi_def_cfa_offset 24
 280 0004 0190     		str	r0, [sp, #4]
 281              		.loc 5 126 0
 282 0006 019B     		ldr	r3, [sp, #4]
ARM GAS  /tmp/ccmLxHDv.s 			page 6


 283 0008 1B68     		ldr	r3, [r3]
 284 000a 0393     		str	r3, [sp, #12]
 285              		.loc 5 128 0
 286 000c 039B     		ldr	r3, [sp, #12]
 287 000e 002B     		cmp	r3, #0
 288 0010 05D0     		beq	.L11
 289              		.loc 5 129 0
 290 0012 019B     		ldr	r3, [sp, #4]
 291 0014 1B68     		ldr	r3, [r3]
 292 0016 1A68     		ldr	r2, [r3]
 293 0018 019B     		ldr	r3, [sp, #4]
 294 001a 1A60     		str	r2, [r3]
 295 001c 0AE0     		b	.L12
 296              	.L11:
 297              		.loc 5 131 0
 298 001e 019B     		ldr	r3, [sp, #4]
 299 0020 9B68     		ldr	r3, [r3, #8]
 300 0022 002B     		cmp	r3, #0
 301 0024 06D0     		beq	.L12
 302              		.loc 5 132 0
 303 0026 019B     		ldr	r3, [sp, #4]
 304 0028 9B68     		ldr	r3, [r3, #8]
 305 002a 019A     		ldr	r2, [sp, #4]
 306 002c 5268     		ldr	r2, [r2, #4]
 307 002e 1046     		mov	r0, r2
 308 0030 9847     		blx	r3
 309 0032 0390     		str	r0, [sp, #12]
 310              	.L12:
 311              		.loc 5 136 0
 312 0034 039B     		ldr	r3, [sp, #12]
 313              		.loc 5 137 0
 314 0036 1846     		mov	r0, r3
 315 0038 05B0     		add	sp, sp, #20
 316              		.cfi_def_cfa_offset 4
 317              		@ sp needed
 318 003a 5DF804FB 		ldr	pc, [sp], #4
 319              		.cfi_endproc
 320              	.LFE218:
 321              		.size	chPoolAllocI, .-chPoolAllocI
 322 003e 00BF     		.section	.text.chPoolAlloc,"ax",%progbits
 323              		.align	2
 324              		.p2align 4,,15
 325              		.global	chPoolAlloc
 326              		.thumb
 327              		.thumb_func
 328              		.type	chPoolAlloc, %function
 329              	chPoolAlloc:
 330              	.LFB219:
 331              		.loc 5 149 0
 332              		.cfi_startproc
 333              		@ args = 0, pretend = 0, frame = 16
 334              		@ frame_needed = 0, uses_anonymous_args = 0
 335 0000 00B5     		push	{lr}
 336              		.cfi_def_cfa_offset 4
 337              		.cfi_offset 14, -4
 338 0002 85B0     		sub	sp, sp, #20
 339              		.cfi_def_cfa_offset 24
ARM GAS  /tmp/ccmLxHDv.s 			page 7


 340 0004 0190     		str	r0, [sp, #4]
 341              		.loc 5 152 0
 342 0006 FFF7FEFF 		bl	chSysLock
 343              		.loc 5 153 0
 344 000a 0198     		ldr	r0, [sp, #4]
 345 000c FFF7FEFF 		bl	chPoolAllocI
 346 0010 0390     		str	r0, [sp, #12]
 347              		.loc 5 154 0
 348 0012 FFF7FEFF 		bl	chSysUnlock
 349              		.loc 5 156 0
 350 0016 039B     		ldr	r3, [sp, #12]
 351              		.loc 5 157 0
 352 0018 1846     		mov	r0, r3
 353 001a 05B0     		add	sp, sp, #20
 354              		.cfi_def_cfa_offset 4
 355              		@ sp needed
 356 001c 5DF804FB 		ldr	pc, [sp], #4
 357              		.cfi_endproc
 358              	.LFE219:
 359              		.size	chPoolAlloc, .-chPoolAlloc
 360              		.section	.text.chPoolFreeI,"ax",%progbits
 361              		.align	2
 362              		.p2align 4,,15
 363              		.global	chPoolFreeI
 364              		.thumb
 365              		.thumb_func
 366              		.type	chPoolFreeI, %function
 367              	chPoolFreeI:
 368              	.LFB220:
 369              		.loc 5 171 0
 370              		.cfi_startproc
 371              		@ args = 0, pretend = 0, frame = 16
 372              		@ frame_needed = 0, uses_anonymous_args = 0
 373              		@ link register save eliminated.
 374 0000 84B0     		sub	sp, sp, #16
 375              		.cfi_def_cfa_offset 16
 376 0002 0190     		str	r0, [sp, #4]
 377 0004 0091     		str	r1, [sp]
 378              		.loc 5 172 0
 379 0006 009B     		ldr	r3, [sp]
 380 0008 0393     		str	r3, [sp, #12]
 381              		.loc 5 177 0
 382 000a 019B     		ldr	r3, [sp, #4]
 383 000c 1A68     		ldr	r2, [r3]
 384 000e 039B     		ldr	r3, [sp, #12]
 385 0010 1A60     		str	r2, [r3]
 386              		.loc 5 178 0
 387 0012 019B     		ldr	r3, [sp, #4]
 388 0014 039A     		ldr	r2, [sp, #12]
 389 0016 1A60     		str	r2, [r3]
 390              		.loc 5 179 0
 391 0018 04B0     		add	sp, sp, #16
 392              		.cfi_def_cfa_offset 0
 393              		@ sp needed
 394 001a 7047     		bx	lr
 395              		.cfi_endproc
 396              	.LFE220:
ARM GAS  /tmp/ccmLxHDv.s 			page 8


 397              		.size	chPoolFreeI, .-chPoolFreeI
 398 001c AFF30080 		.section	.text.chPoolFree,"ax",%progbits
 399              		.align	2
 400              		.p2align 4,,15
 401              		.global	chPoolFree
 402              		.thumb
 403              		.thumb_func
 404              		.type	chPoolFree, %function
 405              	chPoolFree:
 406              	.LFB221:
 407              		.loc 5 193 0
 408              		.cfi_startproc
 409              		@ args = 0, pretend = 0, frame = 8
 410              		@ frame_needed = 0, uses_anonymous_args = 0
 411 0000 00B5     		push	{lr}
 412              		.cfi_def_cfa_offset 4
 413              		.cfi_offset 14, -4
 414 0002 83B0     		sub	sp, sp, #12
 415              		.cfi_def_cfa_offset 16
 416 0004 0190     		str	r0, [sp, #4]
 417 0006 0091     		str	r1, [sp]
 418              		.loc 5 195 0
 419 0008 FFF7FEFF 		bl	chSysLock
 420              		.loc 5 196 0
 421 000c 0198     		ldr	r0, [sp, #4]
 422 000e 0099     		ldr	r1, [sp]
 423 0010 FFF7FEFF 		bl	chPoolFreeI
 424              		.loc 5 197 0
 425 0014 FFF7FEFF 		bl	chSysUnlock
 426              		.loc 5 198 0
 427 0018 03B0     		add	sp, sp, #12
 428              		.cfi_def_cfa_offset 4
 429              		@ sp needed
 430 001a 5DF804FB 		ldr	pc, [sp], #4
 431              		.cfi_endproc
 432              	.LFE221:
 433              		.size	chPoolFree, .-chPoolFree
 434 001e 00BF     		.text
 435              	.Letext0:
 436              		.file 6 "/opt/gcc-arm-none-eabi/lib/gcc/arm-none-eabi/4.9.3/include/stddef.h"
 437              		.file 7 "/opt/gcc-arm-none-eabi/arm-none-eabi/include/machine/_default_types.h"
 438              		.file 8 "/opt/gcc-arm-none-eabi/arm-none-eabi/include/stdint.h"
 439              		.file 9 "/home/makkmarci/workspace/CLEAN/ChibiOS/os/rt/ports/ARMCMx/compilers/GCC/chtypes.h"
 440              		.file 10 "/home/makkmarci/workspace/CLEAN/ChibiOS/os/rt/include/chsystypes.h"
 441              		.file 11 "/home/makkmarci/workspace/CLEAN/ChibiOS/os/rt/include/chschd.h"
 442              		.file 12 "/home/makkmarci/workspace/CLEAN/ChibiOS/os/rt/ports/ARMCMx/chcore.h"
 443              		.file 13 "/home/makkmarci/workspace/CLEAN/ChibiOS/os/rt/include/chtm.h"
 444              		.file 14 "/home/makkmarci/workspace/CLEAN/ChibiOS/os/rt/include/chsem.h"
 445              		.file 15 "/home/makkmarci/workspace/CLEAN/ChibiOS/os/rt/include/chmtx.h"
 446              		.file 16 "/home/makkmarci/workspace/CLEAN/ChibiOS/os/rt/include/chmemcore.h"
 447              		.file 17 "/home/makkmarci/workspace/CLEAN/ChibiOS/os/ext/CMSIS/include/core_cm4.h"