ARM GAS  /tmp/ccmLxHDv.s 			page 1


   1              		.syntax unified
   2              		.cpu cortex-m4
   3              		.eabi_attribute 27, 1
   4              		.eabi_attribute 28, 1
   5              		.fpu fpv4-sp-d16
   6              		.eabi_attribute 20, 1
   7              		.eabi_attribute 21, 1
   8              		.eabi_attribute 23, 3
   9              		.eabi_attribute 24, 1
  10              		.eabi_attribute 25, 1
  11              		.eabi_attribute 26, 1
  12              		.eabi_attribute 30, 6
  13              		.eabi_attribute 34, 1
  14              		.eabi_attribute 18, 4
  15              		.thumb
  16              		.file	"chmempools.c"
  17              		.text
  18              	.Ltext0:
  19              		.cfi_sections	.debug_frame
  20              		.section	.text.port_lock,"ax",%progbits
  21              		.align	2
  22              		.p2align 4,,15
  23              		.thumb
  24              		.thumb_func
  25              		.type	port_lock, %function
  26              	port_lock:
  27              	.LFB116:
  28              		.file 1 "/home/makkmarci/workspace/CLEAN/ChibiOS/os/rt/ports/ARMCMx/chcore_v7m.h"
  29              		.loc 1 444 0
  30              		.cfi_startproc
  31              		@ args = 0, pretend = 0, frame = 8
  32              		@ frame_needed = 0, uses_anonymous_args = 0
  33              		@ link register save eliminated.
  34 0000 82B0     		sub	sp, sp, #8
  35              		.cfi_def_cfa_offset 8
  36 0002 2023     		movs	r3, #32
  37 0004 0193     		str	r3, [sp, #4]
  38              	.LBB6:
  39              	.LBB7:
  40              		.file 2 "/home/makkmarci/workspace/CLEAN/ChibiOS/os/ext/CMSIS/include/core_cmFunc.h"
  41              		.loc 2 546 0
  42 0006 019B     		ldr	r3, [sp, #4]
  43              	@ 546 "/home/makkmarci/workspace/CLEAN/ChibiOS/os/ext/CMSIS/include/core_cmFunc.h" 1
  44 0008 83F31188 		MSR basepri, r3
  45              	@ 0 "" 2
  46              		.thumb
  47              	.LBE7:
  48              	.LBE6:
  49              		.loc 1 451 0
  50 000c 02B0     		add	sp, sp, #8
  51              		.cfi_def_cfa_offset 0
  52              		@ sp needed
  53 000e 7047     		bx	lr
  54              		.cfi_endproc
  55              	.LFE116:
  56              		.size	port_lock, .-port_lock
  57              		.section	.text.port_unlock,"ax",%progbits
ARM GAS  /tmp/ccmLxHDv.s 			page 2


  58              		.align	2
  59              		.p2align 4,,15
  60              		.thumb
  61              		.thumb_func
  62              		.type	port_unlock, %function
  63              	port_unlock:
  64              	.LFB117:
  65              		.loc 1 458 0
  66              		.cfi_startproc
  67              		@ args = 0, pretend = 0, frame = 8
  68              		@ frame_needed = 0, uses_anonymous_args = 0
  69              		@ link register save eliminated.
  70 0000 82B0     		sub	sp, sp, #8
  71              		.cfi_def_cfa_offset 8
  72 0002 0023     		movs	r3, #0
  73 0004 0193     		str	r3, [sp, #4]
  74              	.LBB8:
  75              	.LBB9:
  76              		.loc 2 546 0
  77 0006 019B     		ldr	r3, [sp, #4]
  78              	@ 546 "/home/makkmarci/workspace/CLEAN/ChibiOS/os/ext/CMSIS/include/core_cmFunc.h" 1
  79 0008 83F31188 		MSR basepri, r3
  80              	@ 0 "" 2
  81              		.thumb
  82              	.LBE9:
  83              	.LBE8:
  84              		.loc 1 465 0
  85 000c 02B0     		add	sp, sp, #8
  86              		.cfi_def_cfa_offset 0
  87              		@ sp needed
  88 000e 7047     		bx	lr
  89              		.cfi_endproc
  90              	.LFE117:
  91              		.size	port_unlock, .-port_unlock
  92              		.section	.text.chSysLock,"ax",%progbits
  93              		.align	2
  94              		.p2align 4,,15
  95              		.thumb
  96              		.thumb_func
  97              		.type	chSysLock, %function
  98              	chSysLock:
  99              	.LFB145:
 100              		.file 3 "/home/makkmarci/workspace/CLEAN/ChibiOS/os/rt/include/chsys.h"
 101              		.loc 3 346 0
 102              		.cfi_startproc
 103              		@ args = 0, pretend = 0, frame = 0
 104              		@ frame_needed = 0, uses_anonymous_args = 0
 105 0000 08B5     		push	{r3, lr}
 106              		.cfi_def_cfa_offset 8
 107              		.cfi_offset 3, -8
 108              		.cfi_offset 14, -4
 109              		.loc 3 348 0
 110 0002 FFF7FEFF 		bl	port_lock
 111              		.loc 3 351 0
 112 0006 08BD     		pop	{r3, pc}
 113              		.cfi_endproc
 114              	.LFE145:
ARM GAS  /tmp/ccmLxHDv.s 			page 3


 115              		.size	chSysLock, .-chSysLock
 116              		.section	.text.chSysUnlock,"ax",%progbits
 117              		.align	2
 118              		.p2align 4,,15
 119              		.thumb
 120              		.thumb_func
 121              		.type	chSysUnlock, %function
 122              	chSysUnlock:
 123              	.LFB146:
 124              		.loc 3 358 0
 125              		.cfi_startproc
 126              		@ args = 0, pretend = 0, frame = 0
 127              		@ frame_needed = 0, uses_anonymous_args = 0
 128 0000 08B5     		push	{r3, lr}
 129              		.cfi_def_cfa_offset 8
 130              		.cfi_offset 3, -8
 131              		.cfi_offset 14, -4
 132              		.loc 3 371 0
 133 0002 FFF7FEFF 		bl	port_unlock
 134              		.loc 3 372 0
 135 0006 08BD     		pop	{r3, pc}
 136              		.cfi_endproc
 137              	.LFE146:
 138              		.size	chSysUnlock, .-chSysUnlock
 139 0008 AFF30080 		.section	.text.chPoolAdd,"ax",%progbits
 139      AFF30080 
 140              		.align	2
 141              		.p2align 4,,15
 142              		.thumb
 143              		.thumb_func
 144              		.type	chPoolAdd, %function
 145              	chPoolAdd:
 146              	.LFB204:
 147              		.file 4 "/home/makkmarci/workspace/CLEAN/ChibiOS/os/rt/include/chmempools.h"
 148              		.loc 4 137 0
 149              		.cfi_startproc
 150              		@ args = 0, pretend = 0, frame = 8
 151              		@ frame_needed = 0, uses_anonymous_args = 0
 152 0000 00B5     		push	{lr}
 153              		.cfi_def_cfa_offset 4
 154              		.cfi_offset 14, -4
 155 0002 83B0     		sub	sp, sp, #12
 156              		.cfi_def_cfa_offset 16
 157 0004 0190     		str	r0, [sp, #4]
 158 0006 0091     		str	r1, [sp]
 159              		.loc 4 139 0
 160 0008 0198     		ldr	r0, [sp, #4]
 161 000a 0099     		ldr	r1, [sp]
 162 000c FFF7FEFF 		bl	chPoolFree
 163              		.loc 4 140 0
 164 0010 03B0     		add	sp, sp, #12
 165              		.cfi_def_cfa_offset 4
 166              		@ sp needed
 167 0012 5DF804FB 		ldr	pc, [sp], #4
 168              		.cfi_endproc
 169              	.LFE204:
 170              		.size	chPoolAdd, .-chPoolAdd
ARM GAS  /tmp/ccmLxHDv.s 			page 4


 171 0016 00BFAFF3 		.section	.text.chPoolObjectInit,"ax",%progbits
 171      0080AFF3 
 171      0080
 172              		.align	2
 173              		.p2align 4,,15
 174              		.global	chPoolObjectInit
 175              		.thumb
 176              		.thumb_func
 177              		.type	chPoolObjectInit, %function
 178              	chPoolObjectInit:
 179              	.LFB216:
 180              		.file 5 "/home/makkmarci/workspace/CLEAN/ChibiOS/os/rt/src/chmempools.c"
 181              		.loc 5 75 0
 182              		.cfi_startproc
 183              		@ args = 0, pretend = 0, frame = 16
 184              		@ frame_needed = 0, uses_anonymous_args = 0
 185              		@ link register save eliminated.
 186 0000 84B0     		sub	sp, sp, #16
 187              		.cfi_def_cfa_offset 16
 188 0002 0390     		str	r0, [sp, #12]
 189 0004 0291     		str	r1, [sp, #8]
 190 0006 0192     		str	r2, [sp, #4]
 191              		.loc 5 79 0
 192 0008 039B     		ldr	r3, [sp, #12]
 193 000a 0022     		movs	r2, #0
 194 000c 1A60     		str	r2, [r3]
 195              		.loc 5 80 0
 196 000e 039B     		ldr	r3, [sp, #12]
 197 0010 029A     		ldr	r2, [sp, #8]
 198 0012 5A60     		str	r2, [r3, #4]
 199              		.loc 5 81 0
 200 0014 039B     		ldr	r3, [sp, #12]
 201 0016 019A     		ldr	r2, [sp, #4]
 202 0018 9A60     		str	r2, [r3, #8]
 203              		.loc 5 82 0
 204 001a 04B0     		add	sp, sp, #16
 205              		.cfi_def_cfa_offset 0
 206              		@ sp needed
 207 001c 7047     		bx	lr
 208              		.cfi_endproc
 209              	.LFE216:
 210              		.size	chPoolObjectInit, .-chPoolObjectInit
 211 001e 00BF     		.section	.text.chPoolLoadArray,"ax",%progbits
 212              		.align	2
 213              		.p2align 4,,15
 214              		.global	chPoolLoadArray
 215              		.thumb
 216              		.thumb_func
 217              		.type	chPoolLoadArray, %function
 218              	chPoolLoadArray:
 219              	.LFB217:
 220              		.loc 5 97 0
 221              		.cfi_startproc
 222              		@ args = 0, pretend = 0, frame = 16
 223              		@ frame_needed = 0, uses_anonymous_args = 0
 224 0000 00B5     		push	{lr}
 225              		.cfi_def_cfa_offset 4
ARM GAS  /tmp/ccmLxHDv.s 			page 5


 226              		.cfi_offset 14, -4
 227 0002 85B0     		sub	sp, sp, #20
 228              		.cfi_def_cfa_offset 24
 229 0004 0390     		str	r0, [sp, #12]
 230 0006 0291     		str	r1, [sp, #8]
 231 0008 0192     		str	r2, [sp, #4]
 232              		.loc 5 101 0
 233 000a 0BE0     		b	.L8
 234              	.L9:
 235              		.loc 5 102 0
 236 000c 0398     		ldr	r0, [sp, #12]
 237 000e 0299     		ldr	r1, [sp, #8]
 238 0010 FFF7FEFF 		bl	chPoolAdd
 239              		.loc 5 104 0
 240 0014 039B     		ldr	r3, [sp, #12]
 241 0016 5B68     		ldr	r3, [r3, #4]
 242 0018 029A     		ldr	r2, [sp, #8]
 243 001a 1344     		add	r3, r3, r2
 244 001c 0293     		str	r3, [sp, #8]
 245              		.loc 5 106 0
 246 001e 019B     		ldr	r3, [sp, #4]
 247 0020 013B     		subs	r3, r3, #1
 248 0022 0193     		str	r3, [sp, #4]
 249              	.L8:
 250              		.loc 5 101 0
 251 0024 019B     		ldr	r3, [sp, #4]
 252 0026 002B     		cmp	r3, #0
 253 0028 F0D1     		bne	.L9
 254              		.loc 5 108 0
 255 002a 05B0     		add	sp, sp, #20
 256              		.cfi_def_cfa_offset 4
 257              		@ sp needed
 258 002c 5DF804FB 		ldr	pc, [sp], #4
 259              		.cfi_endproc
 260              	.LFE217:
 261              		.size	chPoolLoadArray, .-chPoolLoadArray
 262              		.section	.text.chPoolAllocI,"ax",%progbits
 263              		.align	2
 264              		.p2align 4,,15
 265              		.global	chPoolAllocI
 266              		.thumb
 267              		.thumb_func
 268              		.type	chPoolAllocI, %function
 269              	chPoolAllocI:
 270              	.LFB218:
 271              		.loc 5 120 0
 272              		.cfi_startproc
 273              		@ args = 0, pretend = 0, frame = 16
 274              		@ frame_needed = 0, uses_anonymous_args = 0
 275 0000 00B5     		push	{lr}
 276              		.cfi_def_cfa_offset 4
 277              		.cfi_offset 14, -4
 278 0002 85B0     		sub	sp, sp, #20
 279              		.cfi_def_cfa_offset 24
 280 0004 0190     		str	r0, [sp, #4]
 281              		.loc 5 126 0
 282 0006 019B     		ldr	r3, [sp, #4]
ARM GAS  /tmp/ccmLxHDv.s 			page 6


 283 0008 1B68     		ldr	r3, [r3]
 284 000a 0393     		str	r3, [sp, #12]
 285              		.loc 5 128 0
 286 000c 039B     		ldr	r3, [sp, #12]
 287 000e 002B     		cmp	r3, #0
 288 0010 05D0     		beq	.L11
 289              		.loc 5 129 0
 290 0012 019B     		ldr	r3, [sp, #4]
 291 0014 1B68     		ldr	r3, [r3]
 292 0016 1A68     		ldr	r2, [r3]
 293 0018 019B     		ldr	r3, [sp, #4]
 294 001a 1A60     		str	r2, [r3]
 295 001c 0AE0     		b	.L12
 296              	.L11:
 297              		.loc 5 131 0
 298 001e 019B     		ldr	r3, [sp, #4]
 299 0020 9B68     		ldr	r3, [r3, #8]
 300 0022 002B     		cmp	r3, #0
 301 0024 06D0     		beq	.L12
 302              		.loc 5 132 0
 303 0026 019B     		ldr	r3, [sp, #4]
 304 0028 9B68     		ldr	r3, [r3, #8]
 305 002a 019A     		ldr	r2, [sp, #4]
 306 002c 5268     		ldr	r2, [r2, #4]
 307 002e 1046     		mov	r0, r2
 308 0030 9847     		blx	r3
 309 0032 0390     		str	r0, [sp, #12]
 310              	.L12:
 311              		.loc 5 136 0
 312 0034 039B     		ldr	r3, [sp, #12]
 313              		.loc 5 137 0
 314 0036 1846     		mov	r0, r3
 315 0038 05B0     		add	sp, sp, #20
 316              		.cfi_def_cfa_offset 4
 317              		@ sp needed
 318 003a 5DF804FB 		ldr	pc, [sp], #4
 319              		.cfi_endproc
 320              	.LFE218:
 321              		.size	chPoolAllocI, .-chPoolAllocI
 322 003e 00BF     		.section	.text.chPoolAlloc,"ax",%progbits
 323              		.align	2
 324              		.p2align 4,,15
 325              		.global	chPoolAlloc
 326              		.thumb
 327              		.thumb_func
 328              		.type	chPoolAlloc, %function
 329              	chPoolAlloc:
 330              	.LFB219:
 331              		.loc 5 149 0
 332              		.cfi_startproc
 333              		@ args = 0, pretend = 0, frame = 16
 334              		@ frame_needed = 0, uses_anonymous_args = 0
 335 0000 00B5     		push	{lr}
 336              		.cfi_def_cfa_offset 4
 337              		.cfi_offset 14, -4
 338 0002 85B0     		sub	sp, sp, #20
 339              		.cfi_def_cfa_offset 24
ARM GAS  /tmp/ccmLxHDv.s 			page 7


 340 0004 0190     		str	r0, [sp, #4]
 341              		.loc 5 152 0
 342 0006 FFF7FEFF 		bl	chSysLock
 343              		.loc 5 153 0
 344 000a 0198     		ldr	r0, [sp, #4]
 345 000c FFF7FEFF 		bl	chPoolAllocI
 346 0010 0390     		str	r0, [sp, #12]
 347              		.loc 5 154 0
 348 0012 FFF7FEFF 		bl	chSysUnlock
 349              		.loc 5 156 0
 350 0016 039B     		ldr	r3, [sp, #12]
 351              		.loc 5 157 0
 352 0018 1846     		mov	r0, r3
 353 001a 05B0     		add	sp, sp, #20
 354              		.cfi_def_cfa_offset 4
 355              		@ sp needed
 356 001c 5DF804FB 		ldr	pc, [sp], #4
 357              		.cfi_endproc
 358              	.LFE219:
 359              		.size	chPoolAlloc, .-chPoolAlloc
 360              		.section	.text.chPoolFreeI,"ax",%progbits
 361              		.align	2
 362              		.p2align 4,,15
 363              		.global	chPoolFreeI
 364              		.thumb
 365              		.thumb_func
 366              		.type	chPoolFreeI, %function
 367              	chPoolFreeI:
 368              	.LFB220:
 369              		.loc 5 171 0
 370              		.cfi_startproc
 371              		@ args = 0, pretend = 0, frame = 16
 372              		@ frame_needed = 0, uses_anonymous_args = 0
 373              		@ link register save eliminated.
 374 0000 84B0     		sub	sp, sp, #16
 375              		.cfi_def_cfa_offset 16
 376 0002 0190     		str	r0, [sp, #4]
 377 0004 0091     		str	r1, [sp]
 378              		.loc 5 172 0
 379 0006 009B     		ldr	r3, [sp]
 380 0008 0393     		str	r3, [sp, #12]
 381              		.loc 5 177 0
 382 000a 019B     		ldr	r3, [sp, #4]
 383 000c 1A68     		ldr	r2, [r3]
 384 000e 039B     		ldr	r3, [sp, #12]
 385 0010 1A60     		str	r2, [r3]
 386              		.loc 5 178 0
 387 0012 019B     		ldr	r3, [sp, #4]
 388 0014 039A     		ldr	r2, [sp, #12]
 389 0016 1A60     		str	r2, [r3]
 390              		.loc 5 179 0
 391 0018 04B0     		add	sp, sp, #16
 392              		.cfi_def_cfa_offset 0
 393              		@ sp needed
 394 001a 7047     		bx	lr
 395              		.cfi_endproc
 396              	.LFE220:
ARM GAS  /tmp/ccmLxHDv.s 			page 8


 397              		.size	chPoolFreeI, .-chPoolFreeI
 398 001c AFF30080 		.section	.text.chPoolFree,"ax",%progbits
 399              		.align	2
 400              		.p2align 4,,15
 401              		.global	chPoolFree
 402              		.thumb
 403              		.thumb_func
 404              		.type	chPoolFree, %function
 405              	chPoolFree:
 406              	.LFB221:
 407              		.loc 5 193 0
 408              		.cfi_startproc
 409              		@ args = 0, pretend = 0, frame = 8
 410              		@ frame_needed = 0, uses_anonymous_args = 0
 411 0000 00B5     		push	{lr}
 412              		.cfi_def_cfa_offset 4
 413              		.cfi_offset 14, -4
 414 0002 83B0     		sub	sp, sp, #12
 415              		.cfi_def_cfa_offset 16
 416 0004 0190     		str	r0, [sp, #4]
 417 0006 0091     		str	r1, [sp]
 418              		.loc 5 195 0
 419 0008 FFF7FEFF 		bl	chSysLock
 420              		.loc 5 196 0
 421 000c 0198     		ldr	r0, [sp, #4]
 422 000e 0099     		ldr	r1, [sp]
 423 0010 FFF7FEFF 		bl	chPoolFreeI
 424              		.loc 5 197 0
 425 0014 FFF7FEFF 		bl	chSysUnlock
 426              		.loc 5 198 0
 427 0018 03B0     		add	sp, sp, #12
 428              		.cfi_def_cfa_offset 4
 429              		@ sp needed
 430 001a 5DF804FB 		ldr	pc, [sp], #4
 431              		.cfi_endproc
 432              	.LFE221:
 433              		.size	chPoolFree, .-chPoolFree
 434 001e 00BF     		.text
 435              	.Letext0:
 436              		.file 6 "/opt/gcc-arm-none-eabi/lib/gcc/arm-none-eabi/4.9.3/include/stddef.h"
 437              		.file 7 "/opt/gcc-arm-none-eabi/arm-none-eabi/include/machine/_default_types.h"
 438              		.file 8 "/opt/gcc-arm-none-eabi/arm-none-eabi/include/stdint.h"
 439              		.file 9 "/home/makkmarci/workspace/CLEAN/ChibiOS/os/rt/ports/ARMCMx/compilers/GCC/chtypes.h"
 440              		.file 10 "/home/makkmarci/workspace/CLEAN/ChibiOS/os/rt/include/chsystypes.h"
 441              		.file 11 "/home/makkmarci/workspace/CLEAN/ChibiOS/os/rt/include/chschd.h"
 442              		.file 12 "/home/makkmarci/workspace/CLEAN/ChibiOS/os/rt/ports/ARMCMx/chcore.h"
 443              		.file 13 "/home/makkmarci/workspace/CLEAN/ChibiOS/os/rt/include/chtm.h"
 444              		.file 14 "/home/makkmarci/workspace/CLEAN/ChibiOS/os/rt/include/chsem.h"
 445              		.file 15 "/home/makkmarci/workspace/CLEAN/ChibiOS/os/rt/include/chmtx.h"
 446              		.file 16 "/home/makkmarci/workspace/CLEAN/ChibiOS/os/rt/include/chmemcore.h"
 447              		.file 17 "/home/makkmarci/workspace/CLEAN/ChibiOS/os/ext/CMSIS/include/core_cm4.h"
 448              		.section	.debug_info,"",%progbits
 449              	.Ldebug_info0:
 450 0000 2C0A0000 		.4byte	0xa2c
 451 0004 0400     		.2byte	0x4
 452 0006 00000000 		.4byte	.Ldebug_abbrev0
 453 000a 04       		.byte	0x4
ARM GAS  /tmp/ccmLxHDv.s 			page 9


 454 000b 01       		.uleb128 0x1
 455 000c CD020000 		.4byte	.LASF124
 456 0010 01       		.byte	0x1
 457 0011 52010000 		.4byte	.LASF125
 458 0015 00000000 		.4byte	.Ldebug_ranges0+0
 459 0019 00000000 		.4byte	0
 460 001d 00000000 		.4byte	.Ldebug_line0
 461 0021 02       		.uleb128 0x2
 462 0022 04       		.byte	0x4
 463 0023 05       		.byte	0x5
 464 0024 696E7400 		.ascii	"int\000"
 465 0028 03       		.uleb128 0x3
 466 0029 0D000000 		.4byte	.LASF2
 467 002d 06       		.byte	0x6
 468 002e D4       		.byte	0xd4
 469 002f 33000000 		.4byte	0x33
 470 0033 04       		.uleb128 0x4
 471 0034 04       		.byte	0x4
 472 0035 07       		.byte	0x7
 473 0036 BC010000 		.4byte	.LASF0
 474 003a 04       		.uleb128 0x4
 475 003b 01       		.byte	0x1
 476 003c 06       		.byte	0x6
 477 003d DD000000 		.4byte	.LASF1
 478 0041 03       		.uleb128 0x3
 479 0042 24000000 		.4byte	.LASF3
 480 0046 07       		.byte	0x7
 481 0047 1D       		.byte	0x1d
 482 0048 4C000000 		.4byte	0x4c
 483 004c 04       		.uleb128 0x4
 484 004d 01       		.byte	0x1
 485 004e 08       		.byte	0x8
 486 004f 8D040000 		.4byte	.LASF4
 487 0053 04       		.uleb128 0x4
 488 0054 02       		.byte	0x2
 489 0055 05       		.byte	0x5
 490 0056 A5040000 		.4byte	.LASF5
 491 005a 04       		.uleb128 0x4
 492 005b 02       		.byte	0x2
 493 005c 07       		.byte	0x7
 494 005d 00020000 		.4byte	.LASF6
 495 0061 03       		.uleb128 0x3
 496 0062 6C020000 		.4byte	.LASF7
 497 0066 07       		.byte	0x7
 498 0067 3F       		.byte	0x3f
 499 0068 6C000000 		.4byte	0x6c
 500 006c 04       		.uleb128 0x4
 501 006d 04       		.byte	0x4
 502 006e 05       		.byte	0x5
 503 006f 1C010000 		.4byte	.LASF8
 504 0073 03       		.uleb128 0x3
 505 0074 83050000 		.4byte	.LASF9
 506 0078 07       		.byte	0x7
 507 0079 41       		.byte	0x41
 508 007a 7E000000 		.4byte	0x7e
 509 007e 04       		.uleb128 0x4
 510 007f 04       		.byte	0x4
ARM GAS  /tmp/ccmLxHDv.s 			page 10


 511 0080 07       		.byte	0x7
 512 0081 37050000 		.4byte	.LASF10
 513 0085 04       		.uleb128 0x4
 514 0086 08       		.byte	0x8
 515 0087 05       		.byte	0x5
 516 0088 CF000000 		.4byte	.LASF11
 517 008c 03       		.uleb128 0x3
 518 008d 3B040000 		.4byte	.LASF12
 519 0091 07       		.byte	0x7
 520 0092 5B       		.byte	0x5b
 521 0093 97000000 		.4byte	0x97
 522 0097 04       		.uleb128 0x4
 523 0098 08       		.byte	0x8
 524 0099 07       		.byte	0x7
 525 009a 69000000 		.4byte	.LASF13
 526 009e 03       		.uleb128 0x3
 527 009f 04060000 		.4byte	.LASF14
 528 00a3 08       		.byte	0x8
 529 00a4 15       		.byte	0x15
 530 00a5 41000000 		.4byte	0x41
 531 00a9 03       		.uleb128 0x3
 532 00aa 85040000 		.4byte	.LASF15
 533 00ae 08       		.byte	0x8
 534 00af 2C       		.byte	0x2c
 535 00b0 61000000 		.4byte	0x61
 536 00b4 03       		.uleb128 0x3
 537 00b5 0D050000 		.4byte	.LASF16
 538 00b9 08       		.byte	0x8
 539 00ba 2D       		.byte	0x2d
 540 00bb 73000000 		.4byte	0x73
 541 00bf 03       		.uleb128 0x3
 542 00c0 1B000000 		.4byte	.LASF17
 543 00c4 08       		.byte	0x8
 544 00c5 39       		.byte	0x39
 545 00c6 8C000000 		.4byte	0x8c
 546 00ca 05       		.uleb128 0x5
 547 00cb A9000000 		.4byte	0xa9
 548 00cf 03       		.uleb128 0x3
 549 00d0 CC050000 		.4byte	.LASF18
 550 00d4 09       		.byte	0x9
 551 00d5 46       		.byte	0x46
 552 00d6 B4000000 		.4byte	0xb4
 553 00da 03       		.uleb128 0x3
 554 00db 39020000 		.4byte	.LASF19
 555 00df 09       		.byte	0x9
 556 00e0 49       		.byte	0x49
 557 00e1 9E000000 		.4byte	0x9e
 558 00e5 03       		.uleb128 0x3
 559 00e6 25010000 		.4byte	.LASF20
 560 00ea 09       		.byte	0x9
 561 00eb 4A       		.byte	0x4a
 562 00ec 9E000000 		.4byte	0x9e
 563 00f0 03       		.uleb128 0x3
 564 00f1 4E040000 		.4byte	.LASF21
 565 00f5 09       		.byte	0x9
 566 00f6 4B       		.byte	0x4b
 567 00f7 9E000000 		.4byte	0x9e
ARM GAS  /tmp/ccmLxHDv.s 			page 11


 568 00fb 03       		.uleb128 0x3
 569 00fc 6D040000 		.4byte	.LASF22
 570 0100 09       		.byte	0x9
 571 0101 4D       		.byte	0x4d
 572 0102 B4000000 		.4byte	0xb4
 573 0106 03       		.uleb128 0x3
 574 0107 1D020000 		.4byte	.LASF23
 575 010b 09       		.byte	0x9
 576 010c 4E       		.byte	0x4e
 577 010d A9000000 		.4byte	0xa9
 578 0111 03       		.uleb128 0x3
 579 0112 60020000 		.4byte	.LASF24
 580 0116 09       		.byte	0x9
 581 0117 50       		.byte	0x50
 582 0118 B4000000 		.4byte	0xb4
 583 011c 03       		.uleb128 0x3
 584 011d B6010000 		.4byte	.LASF25
 585 0121 09       		.byte	0x9
 586 0122 52       		.byte	0x52
 587 0123 A9000000 		.4byte	0xa9
 588 0127 03       		.uleb128 0x3
 589 0128 65050000 		.4byte	.LASF26
 590 012c 0A       		.byte	0xa
 591 012d 33       		.byte	0x33
 592 012e B4000000 		.4byte	0xb4
 593 0132 03       		.uleb128 0x3
 594 0133 55050000 		.4byte	.LASF27
 595 0137 0A       		.byte	0xa
 596 0138 3F       		.byte	0x3f
 597 0139 3D010000 		.4byte	0x13d
 598 013d 06       		.uleb128 0x6
 599 013e 13020000 		.4byte	.LASF47
 600 0142 44       		.byte	0x44
 601 0143 0B       		.byte	0xb
 602 0144 C2       		.byte	0xc2
 603 0145 2A020000 		.4byte	0x22a
 604 0149 07       		.uleb128 0x7
 605 014a C5040000 		.4byte	.LASF28
 606 014e 0B       		.byte	0xb
 607 014f C3       		.byte	0xc3
 608 0150 35020000 		.4byte	0x235
 609 0154 00       		.byte	0
 610 0155 07       		.uleb128 0x7
 611 0156 66040000 		.4byte	.LASF29
 612 015a 0B       		.byte	0xb
 613 015b C5       		.byte	0xc5
 614 015c 35020000 		.4byte	0x235
 615 0160 04       		.byte	0x4
 616 0161 07       		.uleb128 0x7
 617 0162 C8000000 		.4byte	.LASF30
 618 0166 0B       		.byte	0xb
 619 0167 C7       		.byte	0xc7
 620 0168 FB000000 		.4byte	0xfb
 621 016c 08       		.byte	0x8
 622 016d 07       		.uleb128 0x7
 623 016e 6D060000 		.4byte	.LASF31
 624 0172 0B       		.byte	0xb
ARM GAS  /tmp/ccmLxHDv.s 			page 12


 625 0173 C8       		.byte	0xc8
 626 0174 65040000 		.4byte	0x465
 627 0178 0C       		.byte	0xc
 628 0179 07       		.uleb128 0x7
 629 017a 2E010000 		.4byte	.LASF32
 630 017e 0B       		.byte	0xb
 631 017f CA       		.byte	0xca
 632 0180 35020000 		.4byte	0x235
 633 0184 10       		.byte	0x10
 634 0185 07       		.uleb128 0x7
 635 0186 FB030000 		.4byte	.LASF33
 636 018a 0B       		.byte	0xb
 637 018b CB       		.byte	0xcb
 638 018c 35020000 		.4byte	0x235
 639 0190 14       		.byte	0x14
 640 0191 07       		.uleb128 0x7
 641 0192 2A060000 		.4byte	.LASF34
 642 0196 0B       		.byte	0xb
 643 0197 D2       		.byte	0xd2
 644 0198 AA060000 		.4byte	0x6aa
 645 019c 18       		.byte	0x18
 646 019d 07       		.uleb128 0x7
 647 019e AF040000 		.4byte	.LASF35
 648 01a2 0B       		.byte	0xb
 649 01a3 DD       		.byte	0xdd
 650 01a4 E5000000 		.4byte	0xe5
 651 01a8 1C       		.byte	0x1c
 652 01a9 07       		.uleb128 0x7
 653 01aa 41060000 		.4byte	.LASF36
 654 01ae 0B       		.byte	0xb
 655 01af E1       		.byte	0xe1
 656 01b0 DA000000 		.4byte	0xda
 657 01b4 1D       		.byte	0x1d
 658 01b5 07       		.uleb128 0x7
 659 01b6 F7050000 		.4byte	.LASF37
 660 01ba 0B       		.byte	0xb
 661 01bb E6       		.byte	0xe6
 662 01bc F0000000 		.4byte	0xf0
 663 01c0 1E       		.byte	0x1e
 664 01c1 08       		.uleb128 0x8
 665 01c2 705F7500 		.ascii	"p_u\000"
 666 01c6 0B       		.byte	0xb
 667 01c7 3101     		.2byte	0x131
 668 01c9 E5050000 		.4byte	0x5e5
 669 01cd 20       		.byte	0x20
 670 01ce 09       		.uleb128 0x9
 671 01cf 90020000 		.4byte	.LASF38
 672 01d3 0B       		.byte	0xb
 673 01d4 3601     		.2byte	0x136
 674 01d6 3B020000 		.4byte	0x23b
 675 01da 24       		.byte	0x24
 676 01db 09       		.uleb128 0x9
 677 01dc E1010000 		.4byte	.LASF39
 678 01e0 0B       		.byte	0xb
 679 01e1 3C01     		.2byte	0x13c
 680 01e3 5F020000 		.4byte	0x25f
 681 01e7 28       		.byte	0x28
ARM GAS  /tmp/ccmLxHDv.s 			page 13


 682 01e8 09       		.uleb128 0x9
 683 01e9 C6050000 		.4byte	.LASF40
 684 01ed 0B       		.byte	0xb
 685 01ee 4001     		.2byte	0x140
 686 01f0 06010000 		.4byte	0x106
 687 01f4 30       		.byte	0x30
 688 01f5 09       		.uleb128 0x9
 689 01f6 02050000 		.4byte	.LASF41
 690 01fa 0B       		.byte	0xb
 691 01fb 4601     		.2byte	0x146
 692 01fd 11010000 		.4byte	0x111
 693 0201 34       		.byte	0x34
 694 0202 09       		.uleb128 0x9
 695 0203 9B040000 		.4byte	.LASF42
 696 0207 0B       		.byte	0xb
 697 0208 4D01     		.2byte	0x14d
 698 020a A4060000 		.4byte	0x6a4
 699 020e 38       		.byte	0x38
 700 020f 09       		.uleb128 0x9
 701 0210 6F050000 		.4byte	.LASF43
 702 0214 0B       		.byte	0xb
 703 0215 5101     		.2byte	0x151
 704 0217 FB000000 		.4byte	0xfb
 705 021b 3C       		.byte	0x3c
 706 021c 09       		.uleb128 0x9
 707 021d E9000000 		.4byte	.LASF44
 708 0221 0B       		.byte	0xb
 709 0222 5801     		.2byte	0x158
 710 0224 12030000 		.4byte	0x312
 711 0228 40       		.byte	0x40
 712 0229 00       		.byte	0
 713 022a 03       		.uleb128 0x3
 714 022b A3020000 		.4byte	.LASF45
 715 022f 0A       		.byte	0xa
 716 0230 44       		.byte	0x44
 717 0231 35020000 		.4byte	0x235
 718 0235 0A       		.uleb128 0xa
 719 0236 04       		.byte	0x4
 720 0237 32010000 		.4byte	0x132
 721 023b 03       		.uleb128 0x3
 722 023c 81020000 		.4byte	.LASF46
 723 0240 0A       		.byte	0xa
 724 0241 49       		.byte	0x49
 725 0242 46020000 		.4byte	0x246
 726 0246 06       		.uleb128 0x6
 727 0247 27050000 		.4byte	.LASF48
 728 024b 04       		.byte	0x4
 729 024c 0B       		.byte	0xb
 730 024d B0       		.byte	0xb0
 731 024e 5F020000 		.4byte	0x25f
 732 0252 07       		.uleb128 0x7
 733 0253 C5040000 		.4byte	.LASF28
 734 0257 0B       		.byte	0xb
 735 0258 B1       		.byte	0xb1
 736 0259 35020000 		.4byte	0x235
 737 025d 00       		.byte	0
 738 025e 00       		.byte	0
ARM GAS  /tmp/ccmLxHDv.s 			page 14


 739 025f 03       		.uleb128 0x3
 740 0260 DB050000 		.4byte	.LASF49
 741 0264 0A       		.byte	0xa
 742 0265 50       		.byte	0x50
 743 0266 6A020000 		.4byte	0x26a
 744 026a 06       		.uleb128 0x6
 745 026b B7000000 		.4byte	.LASF50
 746 026f 08       		.byte	0x8
 747 0270 0B       		.byte	0xb
 748 0271 B7       		.byte	0xb7
 749 0272 8F020000 		.4byte	0x28f
 750 0276 07       		.uleb128 0x7
 751 0277 C5040000 		.4byte	.LASF28
 752 027b 0B       		.byte	0xb
 753 027c B8       		.byte	0xb8
 754 027d 35020000 		.4byte	0x235
 755 0281 00       		.byte	0
 756 0282 07       		.uleb128 0x7
 757 0283 66040000 		.4byte	.LASF29
 758 0287 0B       		.byte	0xb
 759 0288 B9       		.byte	0xb9
 760 0289 35020000 		.4byte	0x235
 761 028d 04       		.byte	0x4
 762 028e 00       		.byte	0
 763 028f 03       		.uleb128 0x3
 764 0290 00000000 		.4byte	.LASF51
 765 0294 0A       		.byte	0xa
 766 0295 57       		.byte	0x57
 767 0296 9A020000 		.4byte	0x29a
 768 029a 0B       		.uleb128 0xb
 769 029b 52020000 		.4byte	.LASF52
 770 029f 1C       		.byte	0x1c
 771 02a0 0B       		.byte	0xb
 772 02a1 9001     		.2byte	0x190
 773 02a3 F6020000 		.4byte	0x2f6
 774 02a7 09       		.uleb128 0x9
 775 02a8 1F050000 		.4byte	.LASF53
 776 02ac 0B       		.byte	0xb
 777 02ad 9101     		.2byte	0x191
 778 02af 5F020000 		.4byte	0x25f
 779 02b3 00       		.byte	0
 780 02b4 09       		.uleb128 0x9
 781 02b5 B7040000 		.4byte	.LASF54
 782 02b9 0B       		.byte	0xb
 783 02ba 9201     		.2byte	0x192
 784 02bc FB000000 		.4byte	0xfb
 785 02c0 08       		.byte	0x8
 786 02c1 09       		.uleb128 0x9
 787 02c2 03040000 		.4byte	.LASF55
 788 02c6 0B       		.byte	0xb
 789 02c7 9401     		.2byte	0x194
 790 02c9 65040000 		.4byte	0x465
 791 02cd 0C       		.byte	0xc
 792 02ce 09       		.uleb128 0x9
 793 02cf 3E010000 		.4byte	.LASF56
 794 02d3 0B       		.byte	0xb
 795 02d4 9701     		.2byte	0x197
ARM GAS  /tmp/ccmLxHDv.s 			page 15


 796 02d6 35020000 		.4byte	0x235
 797 02da 10       		.byte	0x10
 798 02db 09       		.uleb128 0x9
 799 02dc 33040000 		.4byte	.LASF57
 800 02e0 0B       		.byte	0xb
 801 02e1 9801     		.2byte	0x198
 802 02e3 35020000 		.4byte	0x235
 803 02e7 14       		.byte	0x14
 804 02e8 09       		.uleb128 0x9
 805 02e9 29040000 		.4byte	.LASF58
 806 02ed 0B       		.byte	0xb
 807 02ee 9B01     		.2byte	0x19b
 808 02f0 35020000 		.4byte	0x235
 809 02f4 18       		.byte	0x18
 810 02f5 00       		.byte	0
 811 02f6 03       		.uleb128 0x3
 812 02f7 7A050000 		.4byte	.LASF59
 813 02fb 0A       		.byte	0xa
 814 02fc 5C       		.byte	0x5c
 815 02fd 01030000 		.4byte	0x301
 816 0301 0A       		.uleb128 0xa
 817 0302 04       		.byte	0x4
 818 0303 07030000 		.4byte	0x307
 819 0307 0C       		.uleb128 0xc
 820 0308 12030000 		.4byte	0x312
 821 030c 0D       		.uleb128 0xd
 822 030d 12030000 		.4byte	0x312
 823 0311 00       		.byte	0
 824 0312 0E       		.uleb128 0xe
 825 0313 04       		.byte	0x4
 826 0314 03       		.uleb128 0x3
 827 0315 56040000 		.4byte	.LASF60
 828 0319 0A       		.byte	0xa
 829 031a 61       		.byte	0x61
 830 031b 1F030000 		.4byte	0x31f
 831 031f 0B       		.uleb128 0xb
 832 0320 E4040000 		.4byte	.LASF61
 833 0324 14       		.byte	0x14
 834 0325 0B       		.byte	0xb
 835 0326 6B01     		.2byte	0x16b
 836 0328 6E030000 		.4byte	0x36e
 837 032c 09       		.uleb128 0x9
 838 032d C9010000 		.4byte	.LASF62
 839 0331 0B       		.byte	0xb
 840 0332 6C01     		.2byte	0x16c
 841 0334 BC060000 		.4byte	0x6bc
 842 0338 00       		.byte	0
 843 0339 09       		.uleb128 0x9
 844 033a 91010000 		.4byte	.LASF63
 845 033e 0B       		.byte	0xb
 846 033f 6D01     		.2byte	0x16d
 847 0341 BC060000 		.4byte	0x6bc
 848 0345 04       		.byte	0x4
 849 0346 09       		.uleb128 0x9
 850 0347 D8010000 		.4byte	.LASF64
 851 034b 0B       		.byte	0xb
 852 034c 6E01     		.2byte	0x16e
ARM GAS  /tmp/ccmLxHDv.s 			page 16


 853 034e 27010000 		.4byte	0x127
 854 0352 08       		.byte	0x8
 855 0353 09       		.uleb128 0x9
 856 0354 73060000 		.4byte	.LASF65
 857 0358 0B       		.byte	0xb
 858 0359 6F01     		.2byte	0x16f
 859 035b F6020000 		.4byte	0x2f6
 860 035f 0C       		.byte	0xc
 861 0360 09       		.uleb128 0x9
 862 0361 D4050000 		.4byte	.LASF66
 863 0365 0B       		.byte	0xb
 864 0366 7101     		.2byte	0x171
 865 0368 12030000 		.4byte	0x312
 866 036c 10       		.byte	0x10
 867 036d 00       		.byte	0
 868 036e 03       		.uleb128 0x3
 869 036f 94000000 		.4byte	.LASF67
 870 0373 0A       		.byte	0xa
 871 0374 66       		.byte	0x66
 872 0375 79030000 		.4byte	0x379
 873 0379 0B       		.uleb128 0xb
 874 037a B6020000 		.4byte	.LASF68
 875 037e 10       		.byte	0x10
 876 037f 0B       		.byte	0xb
 877 0380 7B01     		.2byte	0x17b
 878 0382 BB030000 		.4byte	0x3bb
 879 0386 09       		.uleb128 0x9
 880 0387 C9010000 		.4byte	.LASF62
 881 038b 0B       		.byte	0xb
 882 038c 7C01     		.2byte	0x17c
 883 038e BC060000 		.4byte	0x6bc
 884 0392 00       		.byte	0
 885 0393 09       		.uleb128 0x9
 886 0394 91010000 		.4byte	.LASF63
 887 0398 0B       		.byte	0xb
 888 0399 7E01     		.2byte	0x17e
 889 039b BC060000 		.4byte	0x6bc
 890 039f 04       		.byte	0x4
 891 03a0 09       		.uleb128 0x9
 892 03a1 D8010000 		.4byte	.LASF64
 893 03a5 0B       		.byte	0xb
 894 03a6 8001     		.2byte	0x180
 895 03a8 27010000 		.4byte	0x127
 896 03ac 08       		.byte	0x8
 897 03ad 09       		.uleb128 0x9
 898 03ae 36060000 		.4byte	.LASF69
 899 03b2 0B       		.byte	0xb
 900 03b3 8201     		.2byte	0x182
 901 03b5 C2060000 		.4byte	0x6c2
 902 03b9 0C       		.byte	0xc
 903 03ba 00       		.byte	0
 904 03bb 03       		.uleb128 0x3
 905 03bc 3A000000 		.4byte	.LASF70
 906 03c0 0A       		.byte	0xa
 907 03c1 6B       		.byte	0x6b
 908 03c2 C6030000 		.4byte	0x3c6
 909 03c6 0B       		.uleb128 0xb
ARM GAS  /tmp/ccmLxHDv.s 			page 17


 910 03c7 75040000 		.4byte	.LASF71
 911 03cb 04       		.byte	0x4
 912 03cc 0B       		.byte	0xb
 913 03cd A201     		.2byte	0x1a2
 914 03cf E1030000 		.4byte	0x3e1
 915 03d3 09       		.uleb128 0x9
 916 03d4 9C050000 		.4byte	.LASF72
 917 03d8 0B       		.byte	0xb
 918 03d9 AA01     		.2byte	0x1aa
 919 03db C7060000 		.4byte	0x6c7
 920 03df 00       		.byte	0
 921 03e0 00       		.byte	0
 922 03e1 03       		.uleb128 0x3
 923 03e2 23020000 		.4byte	.LASF73
 924 03e6 0A       		.byte	0xa
 925 03e7 70       		.byte	0x70
 926 03e8 EC030000 		.4byte	0x3ec
 927 03ec 0F       		.uleb128 0xf
 928 03ed 12010000 		.4byte	.LASF74
 929 03f1 D801     		.2byte	0x1d8
 930 03f3 0B       		.byte	0xb
 931 03f4 C201     		.2byte	0x1c2
 932 03f6 48040000 		.4byte	0x448
 933 03fa 09       		.uleb128 0x9
 934 03fb FE050000 		.4byte	.LASF75
 935 03ff 0B       		.byte	0xb
 936 0400 C601     		.2byte	0x1c6
 937 0402 8F020000 		.4byte	0x28f
 938 0406 00       		.byte	0
 939 0407 09       		.uleb128 0x9
 940 0408 F9000000 		.4byte	.LASF76
 941 040c 0B       		.byte	0xb
 942 040d CA01     		.2byte	0x1ca
 943 040f 6E030000 		.4byte	0x36e
 944 0413 1C       		.byte	0x1c
 945 0414 08       		.uleb128 0x8
 946 0415 64626700 		.ascii	"dbg\000"
 947 0419 0B       		.byte	0xb
 948 041a CE01     		.2byte	0x1ce
 949 041c BB030000 		.4byte	0x3bb
 950 0420 2C       		.byte	0x2c
 951 0421 09       		.uleb128 0x9
 952 0422 89000000 		.4byte	.LASF77
 953 0426 0B       		.byte	0xb
 954 0427 D201     		.2byte	0x1d2
 955 0429 32010000 		.4byte	0x132
 956 042d 30       		.byte	0x30
 957 042e 08       		.uleb128 0x8
 958 042f 746D00   		.ascii	"tm\000"
 959 0432 0B       		.byte	0xb
 960 0433 D701     		.2byte	0x1d7
 961 0435 DA050000 		.4byte	0x5da
 962 0439 74       		.byte	0x74
 963 043a 09       		.uleb128 0x9
 964 043b A7010000 		.4byte	.LASF78
 965 043f 0B       		.byte	0xb
 966 0440 E301     		.2byte	0x1e3
ARM GAS  /tmp/ccmLxHDv.s 			page 18


 967 0442 CC060000 		.4byte	0x6cc
 968 0446 78       		.byte	0x78
 969 0447 00       		.byte	0
 970 0448 04       		.uleb128 0x4
 971 0449 04       		.byte	0x4
 972 044a 07       		.byte	0x7
 973 044b 9A020000 		.4byte	.LASF79
 974 044f 03       		.uleb128 0x3
 975 0450 16050000 		.4byte	.LASF80
 976 0454 0C       		.byte	0xc
 977 0455 65       		.byte	0x65
 978 0456 12030000 		.4byte	0x312
 979 045a 03       		.uleb128 0x3
 980 045b 76020000 		.4byte	.LASF81
 981 045f 0C       		.byte	0xc
 982 0460 6D       		.byte	0x6d
 983 0461 BF000000 		.4byte	0xbf
 984 0465 06       		.uleb128 0x6
 985 0466 BE050000 		.4byte	.LASF82
 986 046a 04       		.byte	0x4
 987 046b 0C       		.byte	0xc
 988 046c 89       		.byte	0x89
 989 046d 7E040000 		.4byte	0x47e
 990 0471 10       		.uleb128 0x10
 991 0472 72313300 		.ascii	"r13\000"
 992 0476 0C       		.byte	0xc
 993 0477 8A       		.byte	0x8a
 994 0478 BF050000 		.4byte	0x5bf
 995 047c 00       		.byte	0
 996 047d 00       		.byte	0
 997 047e 06       		.uleb128 0x6
 998 047f 2E000000 		.4byte	.LASF83
 999 0483 64       		.byte	0x64
 1000 0484 01       		.byte	0x1
 1001 0485 F4       		.byte	0xf4
 1002 0486 BF050000 		.4byte	0x5bf
 1003 048a 10       		.uleb128 0x10
 1004 048b 73313600 		.ascii	"s16\000"
 1005 048f 01       		.byte	0x1
 1006 0490 F6       		.byte	0xf6
 1007 0491 4F040000 		.4byte	0x44f
 1008 0495 00       		.byte	0
 1009 0496 10       		.uleb128 0x10
 1010 0497 73313700 		.ascii	"s17\000"
 1011 049b 01       		.byte	0x1
 1012 049c F7       		.byte	0xf7
 1013 049d 4F040000 		.4byte	0x44f
 1014 04a1 04       		.byte	0x4
 1015 04a2 10       		.uleb128 0x10
 1016 04a3 73313800 		.ascii	"s18\000"
 1017 04a7 01       		.byte	0x1
 1018 04a8 F8       		.byte	0xf8
 1019 04a9 4F040000 		.4byte	0x44f
 1020 04ad 08       		.byte	0x8
 1021 04ae 10       		.uleb128 0x10
 1022 04af 73313900 		.ascii	"s19\000"
 1023 04b3 01       		.byte	0x1
ARM GAS  /tmp/ccmLxHDv.s 			page 19


 1024 04b4 F9       		.byte	0xf9
 1025 04b5 4F040000 		.4byte	0x44f
 1026 04b9 0C       		.byte	0xc
 1027 04ba 10       		.uleb128 0x10
 1028 04bb 73323000 		.ascii	"s20\000"
 1029 04bf 01       		.byte	0x1
 1030 04c0 FA       		.byte	0xfa
 1031 04c1 4F040000 		.4byte	0x44f
 1032 04c5 10       		.byte	0x10
 1033 04c6 10       		.uleb128 0x10
 1034 04c7 73323100 		.ascii	"s21\000"
 1035 04cb 01       		.byte	0x1
 1036 04cc FB       		.byte	0xfb
 1037 04cd 4F040000 		.4byte	0x44f
 1038 04d1 14       		.byte	0x14
 1039 04d2 10       		.uleb128 0x10
 1040 04d3 73323200 		.ascii	"s22\000"
 1041 04d7 01       		.byte	0x1
 1042 04d8 FC       		.byte	0xfc
 1043 04d9 4F040000 		.4byte	0x44f
 1044 04dd 18       		.byte	0x18
 1045 04de 10       		.uleb128 0x10
 1046 04df 73323300 		.ascii	"s23\000"
 1047 04e3 01       		.byte	0x1
 1048 04e4 FD       		.byte	0xfd
 1049 04e5 4F040000 		.4byte	0x44f
 1050 04e9 1C       		.byte	0x1c
 1051 04ea 10       		.uleb128 0x10
 1052 04eb 73323400 		.ascii	"s24\000"
 1053 04ef 01       		.byte	0x1
 1054 04f0 FE       		.byte	0xfe
 1055 04f1 4F040000 		.4byte	0x44f
 1056 04f5 20       		.byte	0x20
 1057 04f6 10       		.uleb128 0x10
 1058 04f7 73323500 		.ascii	"s25\000"
 1059 04fb 01       		.byte	0x1
 1060 04fc FF       		.byte	0xff
 1061 04fd 4F040000 		.4byte	0x44f
 1062 0501 24       		.byte	0x24
 1063 0502 08       		.uleb128 0x8
 1064 0503 73323600 		.ascii	"s26\000"
 1065 0507 01       		.byte	0x1
 1066 0508 0001     		.2byte	0x100
 1067 050a 4F040000 		.4byte	0x44f
 1068 050e 28       		.byte	0x28
 1069 050f 08       		.uleb128 0x8
 1070 0510 73323700 		.ascii	"s27\000"
 1071 0514 01       		.byte	0x1
 1072 0515 0101     		.2byte	0x101
 1073 0517 4F040000 		.4byte	0x44f
 1074 051b 2C       		.byte	0x2c
 1075 051c 08       		.uleb128 0x8
 1076 051d 73323800 		.ascii	"s28\000"
 1077 0521 01       		.byte	0x1
 1078 0522 0201     		.2byte	0x102
 1079 0524 4F040000 		.4byte	0x44f
 1080 0528 30       		.byte	0x30
ARM GAS  /tmp/ccmLxHDv.s 			page 20


 1081 0529 08       		.uleb128 0x8
 1082 052a 73323900 		.ascii	"s29\000"
 1083 052e 01       		.byte	0x1
 1084 052f 0301     		.2byte	0x103
 1085 0531 4F040000 		.4byte	0x44f
 1086 0535 34       		.byte	0x34
 1087 0536 08       		.uleb128 0x8
 1088 0537 73333000 		.ascii	"s30\000"
 1089 053b 01       		.byte	0x1
 1090 053c 0401     		.2byte	0x104
 1091 053e 4F040000 		.4byte	0x44f
 1092 0542 38       		.byte	0x38
 1093 0543 08       		.uleb128 0x8
 1094 0544 73333100 		.ascii	"s31\000"
 1095 0548 01       		.byte	0x1
 1096 0549 0501     		.2byte	0x105
 1097 054b 4F040000 		.4byte	0x44f
 1098 054f 3C       		.byte	0x3c
 1099 0550 08       		.uleb128 0x8
 1100 0551 723400   		.ascii	"r4\000"
 1101 0554 01       		.byte	0x1
 1102 0555 0701     		.2byte	0x107
 1103 0557 4F040000 		.4byte	0x44f
 1104 055b 40       		.byte	0x40
 1105 055c 08       		.uleb128 0x8
 1106 055d 723500   		.ascii	"r5\000"
 1107 0560 01       		.byte	0x1
 1108 0561 0801     		.2byte	0x108
 1109 0563 4F040000 		.4byte	0x44f
 1110 0567 44       		.byte	0x44
 1111 0568 08       		.uleb128 0x8
 1112 0569 723600   		.ascii	"r6\000"
 1113 056c 01       		.byte	0x1
 1114 056d 0901     		.2byte	0x109
 1115 056f 4F040000 		.4byte	0x44f
 1116 0573 48       		.byte	0x48
 1117 0574 08       		.uleb128 0x8
 1118 0575 723700   		.ascii	"r7\000"
 1119 0578 01       		.byte	0x1
 1120 0579 0A01     		.2byte	0x10a
 1121 057b 4F040000 		.4byte	0x44f
 1122 057f 4C       		.byte	0x4c
 1123 0580 08       		.uleb128 0x8
 1124 0581 723800   		.ascii	"r8\000"
 1125 0584 01       		.byte	0x1
 1126 0585 0B01     		.2byte	0x10b
 1127 0587 4F040000 		.4byte	0x44f
 1128 058b 50       		.byte	0x50
 1129 058c 08       		.uleb128 0x8
 1130 058d 723900   		.ascii	"r9\000"
 1131 0590 01       		.byte	0x1
 1132 0591 0C01     		.2byte	0x10c
 1133 0593 4F040000 		.4byte	0x44f
 1134 0597 54       		.byte	0x54
 1135 0598 08       		.uleb128 0x8
 1136 0599 72313000 		.ascii	"r10\000"
 1137 059d 01       		.byte	0x1
ARM GAS  /tmp/ccmLxHDv.s 			page 21


 1138 059e 0D01     		.2byte	0x10d
 1139 05a0 4F040000 		.4byte	0x44f
 1140 05a4 58       		.byte	0x58
 1141 05a5 08       		.uleb128 0x8
 1142 05a6 72313100 		.ascii	"r11\000"
 1143 05aa 01       		.byte	0x1
 1144 05ab 0E01     		.2byte	0x10e
 1145 05ad 4F040000 		.4byte	0x44f
 1146 05b1 5C       		.byte	0x5c
 1147 05b2 08       		.uleb128 0x8
 1148 05b3 6C7200   		.ascii	"lr\000"
 1149 05b6 01       		.byte	0x1
 1150 05b7 0F01     		.2byte	0x10f
 1151 05b9 4F040000 		.4byte	0x44f
 1152 05bd 60       		.byte	0x60
 1153 05be 00       		.byte	0
 1154 05bf 0A       		.uleb128 0xa
 1155 05c0 04       		.byte	0x4
 1156 05c1 7E040000 		.4byte	0x47e
 1157 05c5 11       		.uleb128 0x11
 1158 05c6 04       		.byte	0x4
 1159 05c7 0D       		.byte	0xd
 1160 05c8 38       		.byte	0x38
 1161 05c9 DA050000 		.4byte	0x5da
 1162 05cd 07       		.uleb128 0x7
 1163 05ce A6050000 		.4byte	.LASF84
 1164 05d2 0D       		.byte	0xd
 1165 05d3 3C       		.byte	0x3c
 1166 05d4 CF000000 		.4byte	0xcf
 1167 05d8 00       		.byte	0
 1168 05d9 00       		.byte	0
 1169 05da 03       		.uleb128 0x3
 1170 05db 18040000 		.4byte	.LASF85
 1171 05df 0D       		.byte	0xd
 1172 05e0 3D       		.byte	0x3d
 1173 05e1 C5050000 		.4byte	0x5c5
 1174 05e5 12       		.uleb128 0x12
 1175 05e6 04       		.byte	0x4
 1176 05e7 0B       		.byte	0xb
 1177 05e8 FA       		.byte	0xfa
 1178 05e9 42060000 		.4byte	0x642
 1179 05ed 13       		.uleb128 0x13
 1180 05ee 14000000 		.4byte	.LASF86
 1181 05f2 0B       		.byte	0xb
 1182 05f3 0101     		.2byte	0x101
 1183 05f5 06010000 		.4byte	0x106
 1184 05f9 13       		.uleb128 0x13
 1185 05fa 80000000 		.4byte	.LASF87
 1186 05fe 0B       		.byte	0xb
 1187 05ff 0801     		.2byte	0x108
 1188 0601 06010000 		.4byte	0x106
 1189 0605 13       		.uleb128 0x13
 1190 0606 23060000 		.4byte	.LASF88
 1191 060a 0B       		.byte	0xb
 1192 060b 0F01     		.2byte	0x10f
 1193 060d 12030000 		.4byte	0x312
 1194 0611 13       		.uleb128 0x13
ARM GAS  /tmp/ccmLxHDv.s 			page 22


 1195 0612 0C010000 		.4byte	.LASF89
 1196 0616 0B       		.byte	0xb
 1197 0617 1601     		.2byte	0x116
 1198 0619 42060000 		.4byte	0x642
 1199 061d 13       		.uleb128 0x13
 1200 061e D1010000 		.4byte	.LASF90
 1201 0622 0B       		.byte	0xb
 1202 0623 1E01     		.2byte	0x11e
 1203 0625 6D060000 		.4byte	0x66d
 1204 0629 13       		.uleb128 0x13
 1205 062a 4E050000 		.4byte	.LASF91
 1206 062e 0B       		.byte	0xb
 1207 062f 2701     		.2byte	0x127
 1208 0631 A4060000 		.4byte	0x6a4
 1209 0635 13       		.uleb128 0x13
 1210 0636 BE040000 		.4byte	.LASF92
 1211 063a 0B       		.byte	0xb
 1212 063b 2F01     		.2byte	0x12f
 1213 063d 11010000 		.4byte	0x111
 1214 0641 00       		.byte	0
 1215 0642 0A       		.uleb128 0xa
 1216 0643 04       		.byte	0x4
 1217 0644 2A020000 		.4byte	0x22a
 1218 0648 06       		.uleb128 0x6
 1219 0649 F5040000 		.4byte	.LASF93
 1220 064d 0C       		.byte	0xc
 1221 064e 0E       		.byte	0xe
 1222 064f 34       		.byte	0x34
 1223 0650 6D060000 		.4byte	0x66d
 1224 0654 07       		.uleb128 0x7
 1225 0655 36010000 		.4byte	.LASF94
 1226 0659 0E       		.byte	0xe
 1227 065a 35       		.byte	0x35
 1228 065b 5F020000 		.4byte	0x25f
 1229 065f 00       		.byte	0
 1230 0660 07       		.uleb128 0x7
 1231 0661 FA010000 		.4byte	.LASF95
 1232 0665 0E       		.byte	0xe
 1233 0666 37       		.byte	0x37
 1234 0667 1C010000 		.4byte	0x11c
 1235 066b 08       		.byte	0x8
 1236 066c 00       		.byte	0
 1237 066d 0A       		.uleb128 0xa
 1238 066e 04       		.byte	0x4
 1239 066f 48060000 		.4byte	0x648
 1240 0673 06       		.uleb128 0x6
 1241 0674 AD050000 		.4byte	.LASF96
 1242 0678 10       		.byte	0x10
 1243 0679 0F       		.byte	0xf
 1244 067a 39       		.byte	0x39
 1245 067b A4060000 		.4byte	0x6a4
 1246 067f 07       		.uleb128 0x7
 1247 0680 F1000000 		.4byte	.LASF97
 1248 0684 0F       		.byte	0xf
 1249 0685 3A       		.byte	0x3a
 1250 0686 5F020000 		.4byte	0x25f
 1251 068a 00       		.byte	0
ARM GAS  /tmp/ccmLxHDv.s 			page 23


 1252 068b 07       		.uleb128 0x7
 1253 068c 65060000 		.4byte	.LASF98
 1254 0690 0F       		.byte	0xf
 1255 0691 3C       		.byte	0x3c
 1256 0692 35020000 		.4byte	0x235
 1257 0696 08       		.byte	0x8
 1258 0697 07       		.uleb128 0x7
 1259 0698 5E050000 		.4byte	.LASF99
 1260 069c 0F       		.byte	0xf
 1261 069d 3E       		.byte	0x3e
 1262 069e E7060000 		.4byte	0x6e7
 1263 06a2 0C       		.byte	0xc
 1264 06a3 00       		.byte	0
 1265 06a4 0A       		.uleb128 0xa
 1266 06a5 04       		.byte	0x4
 1267 06a6 73060000 		.4byte	0x673
 1268 06aa 0A       		.uleb128 0xa
 1269 06ab 04       		.byte	0x4
 1270 06ac B0060000 		.4byte	0x6b0
 1271 06b0 14       		.uleb128 0x14
 1272 06b1 B5060000 		.4byte	0x6b5
 1273 06b5 04       		.uleb128 0x4
 1274 06b6 01       		.byte	0x1
 1275 06b7 08       		.byte	0x8
 1276 06b8 49050000 		.4byte	.LASF100
 1277 06bc 0A       		.uleb128 0xa
 1278 06bd 04       		.byte	0x4
 1279 06be 14030000 		.4byte	0x314
 1280 06c2 05       		.uleb128 0x5
 1281 06c3 27010000 		.4byte	0x127
 1282 06c7 05       		.uleb128 0x5
 1283 06c8 AA060000 		.4byte	0x6aa
 1284 06cc 15       		.uleb128 0x15
 1285 06cd 5A040000 		.4byte	0x45a
 1286 06d1 DC060000 		.4byte	0x6dc
 1287 06d5 16       		.uleb128 0x16
 1288 06d6 48040000 		.4byte	0x448
 1289 06da 2B       		.byte	0x2b
 1290 06db 00       		.byte	0
 1291 06dc 03       		.uleb128 0x3
 1292 06dd 99010000 		.4byte	.LASF101
 1293 06e1 0F       		.byte	0xf
 1294 06e2 34       		.byte	0x34
 1295 06e3 73060000 		.4byte	0x673
 1296 06e7 0A       		.uleb128 0xa
 1297 06e8 04       		.byte	0x4
 1298 06e9 DC060000 		.4byte	0x6dc
 1299 06ed 03       		.uleb128 0x3
 1300 06ee 5C000000 		.4byte	.LASF102
 1301 06f2 10       		.byte	0x10
 1302 06f3 36       		.byte	0x36
 1303 06f4 F8060000 		.4byte	0x6f8
 1304 06f8 0A       		.uleb128 0xa
 1305 06f9 04       		.byte	0x4
 1306 06fa FE060000 		.4byte	0x6fe
 1307 06fe 17       		.uleb128 0x17
 1308 06ff 12030000 		.4byte	0x312
ARM GAS  /tmp/ccmLxHDv.s 			page 24


 1309 0703 0D070000 		.4byte	0x70d
 1310 0707 0D       		.uleb128 0xd
 1311 0708 28000000 		.4byte	0x28
 1312 070c 00       		.byte	0
 1313 070d 06       		.uleb128 0x6
 1314 070e EB050000 		.4byte	.LASF103
 1315 0712 04       		.byte	0x4
 1316 0713 04       		.byte	0x4
 1317 0714 38       		.byte	0x38
 1318 0715 26070000 		.4byte	0x726
 1319 0719 07       		.uleb128 0x7
 1320 071a 46040000 		.4byte	.LASF104
 1321 071e 04       		.byte	0x4
 1322 071f 39       		.byte	0x39
 1323 0720 26070000 		.4byte	0x726
 1324 0724 00       		.byte	0
 1325 0725 00       		.byte	0
 1326 0726 0A       		.uleb128 0xa
 1327 0727 04       		.byte	0x4
 1328 0728 0D070000 		.4byte	0x70d
 1329 072c 11       		.uleb128 0x11
 1330 072d 0C       		.byte	0xc
 1331 072e 04       		.byte	0x4
 1332 072f 40       		.byte	0x40
 1333 0730 59070000 		.4byte	0x759
 1334 0734 07       		.uleb128 0x7
 1335 0735 B6050000 		.4byte	.LASF105
 1336 0739 04       		.byte	0x4
 1337 073a 41       		.byte	0x41
 1338 073b 26070000 		.4byte	0x726
 1339 073f 00       		.byte	0
 1340 0740 07       		.uleb128 0x7
 1341 0741 09040000 		.4byte	.LASF106
 1342 0745 04       		.byte	0x4
 1343 0746 42       		.byte	0x42
 1344 0747 28000000 		.4byte	0x28
 1345 074b 04       		.byte	0x4
 1346 074c 07       		.uleb128 0x7
 1347 074d 46010000 		.4byte	.LASF107
 1348 0751 04       		.byte	0x4
 1349 0752 44       		.byte	0x44
 1350 0753 ED060000 		.4byte	0x6ed
 1351 0757 08       		.byte	0x8
 1352 0758 00       		.byte	0
 1353 0759 03       		.uleb128 0x3
 1354 075a EC010000 		.4byte	.LASF108
 1355 075e 04       		.byte	0x4
 1356 075f 46       		.byte	0x46
 1357 0760 2C070000 		.4byte	0x72c
 1358 0764 18       		.uleb128 0x18
 1359 0765 8E050000 		.4byte	.LASF126
 1360 0769 02       		.byte	0x2
 1361 076a 2002     		.2byte	0x220
 1362 076c 03       		.byte	0x3
 1363 076d 7E070000 		.4byte	0x77e
 1364 0771 19       		.uleb128 0x19
 1365 0772 A1010000 		.4byte	.LASF127
ARM GAS  /tmp/ccmLxHDv.s 			page 25


 1366 0776 02       		.byte	0x2
 1367 0777 2002     		.2byte	0x220
 1368 0779 B4000000 		.4byte	0xb4
 1369 077d 00       		.byte	0
 1370 077e 1A       		.uleb128 0x1a
 1371 077f 52000000 		.4byte	.LASF109
 1372 0783 01       		.byte	0x1
 1373 0784 BC01     		.2byte	0x1bc
 1374 0786 00000000 		.4byte	.LFB116
 1375 078a 10000000 		.4byte	.LFE116-.LFB116
 1376 078e 01       		.uleb128 0x1
 1377 078f 9C       		.byte	0x9c
 1378 0790 AE070000 		.4byte	0x7ae
 1379 0794 1B       		.uleb128 0x1b
 1380 0795 64070000 		.4byte	0x764
 1381 0799 06000000 		.4byte	.LBB6
 1382 079d 06000000 		.4byte	.LBE6-.LBB6
 1383 07a1 01       		.byte	0x1
 1384 07a2 BF01     		.2byte	0x1bf
 1385 07a4 1C       		.uleb128 0x1c
 1386 07a5 71070000 		.4byte	0x771
 1387 07a9 02       		.uleb128 0x2
 1388 07aa 91       		.byte	0x91
 1389 07ab 7C       		.sleb128 -4
 1390 07ac 00       		.byte	0
 1391 07ad 00       		.byte	0
 1392 07ae 1A       		.uleb128 0x1a
 1393 07af 00010000 		.4byte	.LASF110
 1394 07b3 01       		.byte	0x1
 1395 07b4 CA01     		.2byte	0x1ca
 1396 07b6 00000000 		.4byte	.LFB117
 1397 07ba 10000000 		.4byte	.LFE117-.LFB117
 1398 07be 01       		.uleb128 0x1
 1399 07bf 9C       		.byte	0x9c
 1400 07c0 DE070000 		.4byte	0x7de
 1401 07c4 1B       		.uleb128 0x1b
 1402 07c5 64070000 		.4byte	0x764
 1403 07c9 06000000 		.4byte	.LBB8
 1404 07cd 06000000 		.4byte	.LBE8-.LBB8
 1405 07d1 01       		.byte	0x1
 1406 07d2 CD01     		.2byte	0x1cd
 1407 07d4 1C       		.uleb128 0x1c
 1408 07d5 71070000 		.4byte	0x771
 1409 07d9 02       		.uleb128 0x2
 1410 07da 91       		.byte	0x91
 1411 07db 7C       		.sleb128 -4
 1412 07dc 00       		.byte	0
 1413 07dd 00       		.byte	0
 1414 07de 1D       		.uleb128 0x1d
 1415 07df D5040000 		.4byte	.LASF128
 1416 07e3 03       		.byte	0x3
 1417 07e4 5A01     		.2byte	0x15a
 1418 07e6 00000000 		.4byte	.LFB145
 1419 07ea 08000000 		.4byte	.LFE145-.LFB145
 1420 07ee 01       		.uleb128 0x1
 1421 07ef 9C       		.byte	0x9c
 1422 07f0 1E       		.uleb128 0x1e
ARM GAS  /tmp/ccmLxHDv.s 			page 26


 1423 07f1 49060000 		.4byte	.LASF111
 1424 07f5 03       		.byte	0x3
 1425 07f6 6601     		.2byte	0x166
 1426 07f8 00000000 		.4byte	.LFB146
 1427 07fc 08000000 		.4byte	.LFE146-.LFB146
 1428 0800 01       		.uleb128 0x1
 1429 0801 9C       		.byte	0x9c
 1430 0802 10080000 		.4byte	0x810
 1431 0806 1F       		.uleb128 0x1f
 1432 0807 CC040000 		.4byte	.LASF116
 1433 080b 20080000 		.4byte	0x820
 1434 080f 00       		.byte	0
 1435 0810 15       		.uleb128 0x15
 1436 0811 B5060000 		.4byte	0x6b5
 1437 0815 20080000 		.4byte	0x820
 1438 0819 16       		.uleb128 0x16
 1439 081a 48040000 		.4byte	0x448
 1440 081e 0B       		.byte	0xb
 1441 081f 00       		.byte	0
 1442 0820 14       		.uleb128 0x14
 1443 0821 10080000 		.4byte	0x810
 1444 0825 20       		.uleb128 0x20
 1445 0826 2F020000 		.4byte	.LASF112
 1446 082a 04       		.byte	0x4
 1447 082b 89       		.byte	0x89
 1448 082c 00000000 		.4byte	.LFB204
 1449 0830 16000000 		.4byte	.LFE204-.LFB204
 1450 0834 01       		.uleb128 0x1
 1451 0835 9C       		.byte	0x9c
 1452 0836 56080000 		.4byte	0x856
 1453 083a 21       		.uleb128 0x21
 1454 083b 6D7000   		.ascii	"mp\000"
 1455 083e 04       		.byte	0x4
 1456 083f 89       		.byte	0x89
 1457 0840 56080000 		.4byte	0x856
 1458 0844 02       		.uleb128 0x2
 1459 0845 91       		.byte	0x91
 1460 0846 74       		.sleb128 -12
 1461 0847 22       		.uleb128 0x22
 1462 0848 DF040000 		.4byte	.LASF113
 1463 084c 04       		.byte	0x4
 1464 084d 89       		.byte	0x89
 1465 084e 12030000 		.4byte	0x312
 1466 0852 02       		.uleb128 0x2
 1467 0853 91       		.byte	0x91
 1468 0854 70       		.sleb128 -16
 1469 0855 00       		.byte	0
 1470 0856 0A       		.uleb128 0xa
 1471 0857 04       		.byte	0x4
 1472 0858 59070000 		.4byte	0x759
 1473 085c 23       		.uleb128 0x23
 1474 085d 41020000 		.4byte	.LASF117
 1475 0861 05       		.byte	0x5
 1476 0862 4B       		.byte	0x4b
 1477 0863 00000000 		.4byte	.LFB216
 1478 0867 1E000000 		.4byte	.LFE216-.LFB216
 1479 086b 01       		.uleb128 0x1
ARM GAS  /tmp/ccmLxHDv.s 			page 27


 1480 086c 9C       		.byte	0x9c
 1481 086d A4080000 		.4byte	0x8a4
 1482 0871 21       		.uleb128 0x21
 1483 0872 6D7000   		.ascii	"mp\000"
 1484 0875 05       		.byte	0x5
 1485 0876 4B       		.byte	0x4b
 1486 0877 56080000 		.4byte	0x856
 1487 087b 02       		.uleb128 0x2
 1488 087c 91       		.byte	0x91
 1489 087d 7C       		.sleb128 -4
 1490 087e 22       		.uleb128 0x22
 1491 087f 31060000 		.4byte	.LASF114
 1492 0883 05       		.byte	0x5
 1493 0884 4B       		.byte	0x4b
 1494 0885 28000000 		.4byte	0x28
 1495 0889 02       		.uleb128 0x2
 1496 088a 91       		.byte	0x91
 1497 088b 78       		.sleb128 -8
 1498 088c 22       		.uleb128 0x22
 1499 088d 49000000 		.4byte	.LASF115
 1500 0891 05       		.byte	0x5
 1501 0892 4B       		.byte	0x4b
 1502 0893 ED060000 		.4byte	0x6ed
 1503 0897 02       		.uleb128 0x2
 1504 0898 91       		.byte	0x91
 1505 0899 74       		.sleb128 -12
 1506 089a 1F       		.uleb128 0x1f
 1507 089b CC040000 		.4byte	.LASF116
 1508 089f B4080000 		.4byte	0x8b4
 1509 08a3 00       		.byte	0
 1510 08a4 15       		.uleb128 0x15
 1511 08a5 B5060000 		.4byte	0x6b5
 1512 08a9 B4080000 		.4byte	0x8b4
 1513 08ad 16       		.uleb128 0x16
 1514 08ae 48040000 		.4byte	0x448
 1515 08b2 10       		.byte	0x10
 1516 08b3 00       		.byte	0
 1517 08b4 14       		.uleb128 0x14
 1518 08b5 A4080000 		.4byte	0x8a4
 1519 08b9 24       		.uleb128 0x24
 1520 08ba 55060000 		.4byte	.LASF118
 1521 08be 05       		.byte	0x5
 1522 08bf 61       		.byte	0x61
 1523 08c0 00000000 		.4byte	.LFB217
 1524 08c4 30000000 		.4byte	.LFE217-.LFB217
 1525 08c8 01       		.uleb128 0x1
 1526 08c9 9C       		.byte	0x9c
 1527 08ca FD080000 		.4byte	0x8fd
 1528 08ce 21       		.uleb128 0x21
 1529 08cf 6D7000   		.ascii	"mp\000"
 1530 08d2 05       		.byte	0x5
 1531 08d3 61       		.byte	0x61
 1532 08d4 56080000 		.4byte	0x856
 1533 08d8 02       		.uleb128 0x2
 1534 08d9 91       		.byte	0x91
 1535 08da 74       		.sleb128 -12
 1536 08db 21       		.uleb128 0x21
ARM GAS  /tmp/ccmLxHDv.s 			page 28


 1537 08dc 7000     		.ascii	"p\000"
 1538 08de 05       		.byte	0x5
 1539 08df 61       		.byte	0x61
 1540 08e0 12030000 		.4byte	0x312
 1541 08e4 02       		.uleb128 0x2
 1542 08e5 91       		.byte	0x91
 1543 08e6 70       		.sleb128 -16
 1544 08e7 21       		.uleb128 0x21
 1545 08e8 6E00     		.ascii	"n\000"
 1546 08ea 05       		.byte	0x5
 1547 08eb 61       		.byte	0x61
 1548 08ec 28000000 		.4byte	0x28
 1549 08f0 02       		.uleb128 0x2
 1550 08f1 91       		.byte	0x91
 1551 08f2 6C       		.sleb128 -20
 1552 08f3 1F       		.uleb128 0x1f
 1553 08f4 CC040000 		.4byte	.LASF116
 1554 08f8 0D090000 		.4byte	0x90d
 1555 08fc 00       		.byte	0
 1556 08fd 15       		.uleb128 0x15
 1557 08fe B5060000 		.4byte	0x6b5
 1558 0902 0D090000 		.4byte	0x90d
 1559 0906 16       		.uleb128 0x16
 1560 0907 48040000 		.4byte	0x448
 1561 090b 0F       		.byte	0xf
 1562 090c 00       		.byte	0
 1563 090d 14       		.uleb128 0x14
 1564 090e FD080000 		.4byte	0x8fd
 1565 0912 25       		.uleb128 0x25
 1566 0913 E2030000 		.4byte	.LASF119
 1567 0917 05       		.byte	0x5
 1568 0918 78       		.byte	0x78
 1569 0919 12030000 		.4byte	0x312
 1570 091d 00000000 		.4byte	.LFB218
 1571 0921 3E000000 		.4byte	.LFE218-.LFB218
 1572 0925 01       		.uleb128 0x1
 1573 0926 9C       		.byte	0x9c
 1574 0927 50090000 		.4byte	0x950
 1575 092b 21       		.uleb128 0x21
 1576 092c 6D7000   		.ascii	"mp\000"
 1577 092f 05       		.byte	0x5
 1578 0930 78       		.byte	0x78
 1579 0931 56080000 		.4byte	0x856
 1580 0935 02       		.uleb128 0x2
 1581 0936 91       		.byte	0x91
 1582 0937 6C       		.sleb128 -20
 1583 0938 26       		.uleb128 0x26
 1584 0939 DF040000 		.4byte	.LASF113
 1585 093d 05       		.byte	0x5
 1586 093e 79       		.byte	0x79
 1587 093f 12030000 		.4byte	0x312
 1588 0943 02       		.uleb128 0x2
 1589 0944 91       		.byte	0x91
 1590 0945 74       		.sleb128 -12
 1591 0946 1F       		.uleb128 0x1f
 1592 0947 CC040000 		.4byte	.LASF116
 1593 094b 60090000 		.4byte	0x960
ARM GAS  /tmp/ccmLxHDv.s 			page 29


 1594 094f 00       		.byte	0
 1595 0950 15       		.uleb128 0x15
 1596 0951 B5060000 		.4byte	0x6b5
 1597 0955 60090000 		.4byte	0x960
 1598 0959 16       		.uleb128 0x16
 1599 095a 48040000 		.4byte	0x448
 1600 095e 0C       		.byte	0xc
 1601 095f 00       		.byte	0
 1602 0960 14       		.uleb128 0x14
 1603 0961 50090000 		.4byte	0x950
 1604 0965 25       		.uleb128 0x25
 1605 0966 0C060000 		.4byte	.LASF120
 1606 096a 05       		.byte	0x5
 1607 096b 95       		.byte	0x95
 1608 096c 12030000 		.4byte	0x312
 1609 0970 00000000 		.4byte	.LFB219
 1610 0974 20000000 		.4byte	.LFE219-.LFB219
 1611 0978 01       		.uleb128 0x1
 1612 0979 9C       		.byte	0x9c
 1613 097a 9A090000 		.4byte	0x99a
 1614 097e 21       		.uleb128 0x21
 1615 097f 6D7000   		.ascii	"mp\000"
 1616 0982 05       		.byte	0x5
 1617 0983 95       		.byte	0x95
 1618 0984 56080000 		.4byte	0x856
 1619 0988 02       		.uleb128 0x2
 1620 0989 91       		.byte	0x91
 1621 098a 6C       		.sleb128 -20
 1622 098b 26       		.uleb128 0x26
 1623 098c DF040000 		.4byte	.LASF113
 1624 0990 05       		.byte	0x5
 1625 0991 96       		.byte	0x96
 1626 0992 12030000 		.4byte	0x312
 1627 0996 02       		.uleb128 0x2
 1628 0997 91       		.byte	0x91
 1629 0998 74       		.sleb128 -12
 1630 0999 00       		.byte	0
 1631 099a 23       		.uleb128 0x23
 1632 099b EF030000 		.4byte	.LASF121
 1633 099f 05       		.byte	0x5
 1634 09a0 AB       		.byte	0xab
 1635 09a1 00000000 		.4byte	.LFB220
 1636 09a5 1C000000 		.4byte	.LFE220-.LFB220
 1637 09a9 01       		.uleb128 0x1
 1638 09aa 9C       		.byte	0x9c
 1639 09ab E2090000 		.4byte	0x9e2
 1640 09af 21       		.uleb128 0x21
 1641 09b0 6D7000   		.ascii	"mp\000"
 1642 09b3 05       		.byte	0x5
 1643 09b4 AB       		.byte	0xab
 1644 09b5 56080000 		.4byte	0x856
 1645 09b9 02       		.uleb128 0x2
 1646 09ba 91       		.byte	0x91
 1647 09bb 74       		.sleb128 -12
 1648 09bc 22       		.uleb128 0x22
 1649 09bd DF040000 		.4byte	.LASF113
 1650 09c1 05       		.byte	0x5
ARM GAS  /tmp/ccmLxHDv.s 			page 30


 1651 09c2 AB       		.byte	0xab
 1652 09c3 12030000 		.4byte	0x312
 1653 09c7 02       		.uleb128 0x2
 1654 09c8 91       		.byte	0x91
 1655 09c9 70       		.sleb128 -16
 1656 09ca 27       		.uleb128 0x27
 1657 09cb 70687000 		.ascii	"php\000"
 1658 09cf 05       		.byte	0x5
 1659 09d0 AC       		.byte	0xac
 1660 09d1 26070000 		.4byte	0x726
 1661 09d5 02       		.uleb128 0x2
 1662 09d6 91       		.byte	0x91
 1663 09d7 7C       		.sleb128 -4
 1664 09d8 1F       		.uleb128 0x1f
 1665 09d9 CC040000 		.4byte	.LASF116
 1666 09dd E2090000 		.4byte	0x9e2
 1667 09e1 00       		.byte	0
 1668 09e2 14       		.uleb128 0x14
 1669 09e3 10080000 		.4byte	0x810
 1670 09e7 24       		.uleb128 0x24
 1671 09e8 18060000 		.4byte	.LASF122
 1672 09ec 05       		.byte	0x5
 1673 09ed C1       		.byte	0xc1
 1674 09ee 00000000 		.4byte	.LFB221
 1675 09f2 1E000000 		.4byte	.LFE221-.LFB221
 1676 09f6 01       		.uleb128 0x1
 1677 09f7 9C       		.byte	0x9c
 1678 09f8 180A0000 		.4byte	0xa18
 1679 09fc 21       		.uleb128 0x21
 1680 09fd 6D7000   		.ascii	"mp\000"
 1681 0a00 05       		.byte	0x5
 1682 0a01 C1       		.byte	0xc1
 1683 0a02 56080000 		.4byte	0x856
 1684 0a06 02       		.uleb128 0x2
 1685 0a07 91       		.byte	0x91
 1686 0a08 74       		.sleb128 -12
 1687 0a09 22       		.uleb128 0x22
 1688 0a0a DF040000 		.4byte	.LASF113
 1689 0a0e 05       		.byte	0x5
 1690 0a0f C1       		.byte	0xc1
 1691 0a10 12030000 		.4byte	0x312
 1692 0a14 02       		.uleb128 0x2
 1693 0a15 91       		.byte	0x91
 1694 0a16 70       		.sleb128 -16
 1695 0a17 00       		.byte	0
 1696 0a18 28       		.uleb128 0x28
 1697 0a19 AA000000 		.4byte	.LASF123
 1698 0a1d 11       		.byte	0x11
 1699 0a1e A706     		.2byte	0x6a7
 1700 0a20 CA000000 		.4byte	0xca
 1701 0a24 29       		.uleb128 0x29
 1702 0a25 636800   		.ascii	"ch\000"
 1703 0a28 0B       		.byte	0xb
 1704 0a29 0902     		.2byte	0x209
 1705 0a2b E1030000 		.4byte	0x3e1
 1706 0a2f 00       		.byte	0
 1707              		.section	.debug_abbrev,"",%progbits
ARM GAS  /tmp/ccmLxHDv.s 			page 31


 1708              	.Ldebug_abbrev0:
 1709 0000 01       		.uleb128 0x1
 1710 0001 11       		.uleb128 0x11
 1711 0002 01       		.byte	0x1
 1712 0003 25       		.uleb128 0x25
 1713 0004 0E       		.uleb128 0xe
 1714 0005 13       		.uleb128 0x13
 1715 0006 0B       		.uleb128 0xb
 1716 0007 03       		.uleb128 0x3
 1717 0008 0E       		.uleb128 0xe
 1718 0009 55       		.uleb128 0x55
 1719 000a 17       		.uleb128 0x17
 1720 000b 11       		.uleb128 0x11
 1721 000c 01       		.uleb128 0x1
 1722 000d 10       		.uleb128 0x10
 1723 000e 17       		.uleb128 0x17
 1724 000f 00       		.byte	0
 1725 0010 00       		.byte	0
 1726 0011 02       		.uleb128 0x2
 1727 0012 24       		.uleb128 0x24
 1728 0013 00       		.byte	0
 1729 0014 0B       		.uleb128 0xb
 1730 0015 0B       		.uleb128 0xb
 1731 0016 3E       		.uleb128 0x3e
 1732 0017 0B       		.uleb128 0xb
 1733 0018 03       		.uleb128 0x3
 1734 0019 08       		.uleb128 0x8
 1735 001a 00       		.byte	0
 1736 001b 00       		.byte	0
 1737 001c 03       		.uleb128 0x3
 1738 001d 16       		.uleb128 0x16
 1739 001e 00       		.byte	0
 1740 001f 03       		.uleb128 0x3
 1741 0020 0E       		.uleb128 0xe
 1742 0021 3A       		.uleb128 0x3a
 1743 0022 0B       		.uleb128 0xb
 1744 0023 3B       		.uleb128 0x3b
 1745 0024 0B       		.uleb128 0xb
 1746 0025 49       		.uleb128 0x49
 1747 0026 13       		.uleb128 0x13
 1748 0027 00       		.byte	0
 1749 0028 00       		.byte	0
 1750 0029 04       		.uleb128 0x4
 1751 002a 24       		.uleb128 0x24
 1752 002b 00       		.byte	0
 1753 002c 0B       		.uleb128 0xb
 1754 002d 0B       		.uleb128 0xb
 1755 002e 3E       		.uleb128 0x3e
 1756 002f 0B       		.uleb128 0xb
 1757 0030 03       		.uleb128 0x3
 1758 0031 0E       		.uleb128 0xe
 1759 0032 00       		.byte	0
 1760 0033 00       		.byte	0
 1761 0034 05       		.uleb128 0x5
 1762 0035 35       		.uleb128 0x35
 1763 0036 00       		.byte	0
 1764 0037 49       		.uleb128 0x49
ARM GAS  /tmp/ccmLxHDv.s 			page 32


 1765 0038 13       		.uleb128 0x13
 1766 0039 00       		.byte	0
 1767 003a 00       		.byte	0
 1768 003b 06       		.uleb128 0x6
 1769 003c 13       		.uleb128 0x13
 1770 003d 01       		.byte	0x1
 1771 003e 03       		.uleb128 0x3
 1772 003f 0E       		.uleb128 0xe
 1773 0040 0B       		.uleb128 0xb
 1774 0041 0B       		.uleb128 0xb
 1775 0042 3A       		.uleb128 0x3a
 1776 0043 0B       		.uleb128 0xb
 1777 0044 3B       		.uleb128 0x3b
 1778 0045 0B       		.uleb128 0xb
 1779 0046 01       		.uleb128 0x1
 1780 0047 13       		.uleb128 0x13
 1781 0048 00       		.byte	0
 1782 0049 00       		.byte	0
 1783 004a 07       		.uleb128 0x7
 1784 004b 0D       		.uleb128 0xd
 1785 004c 00       		.byte	0
 1786 004d 03       		.uleb128 0x3
 1787 004e 0E       		.uleb128 0xe
 1788 004f 3A       		.uleb128 0x3a
 1789 0050 0B       		.uleb128 0xb
 1790 0051 3B       		.uleb128 0x3b
 1791 0052 0B       		.uleb128 0xb
 1792 0053 49       		.uleb128 0x49
 1793 0054 13       		.uleb128 0x13
 1794 0055 38       		.uleb128 0x38
 1795 0056 0B       		.uleb128 0xb
 1796 0057 00       		.byte	0
 1797 0058 00       		.byte	0
 1798 0059 08       		.uleb128 0x8
 1799 005a 0D       		.uleb128 0xd
 1800 005b 00       		.byte	0
 1801 005c 03       		.uleb128 0x3
 1802 005d 08       		.uleb128 0x8
 1803 005e 3A       		.uleb128 0x3a
 1804 005f 0B       		.uleb128 0xb
 1805 0060 3B       		.uleb128 0x3b
 1806 0061 05       		.uleb128 0x5
 1807 0062 49       		.uleb128 0x49
 1808 0063 13       		.uleb128 0x13
 1809 0064 38       		.uleb128 0x38
 1810 0065 0B       		.uleb128 0xb
 1811 0066 00       		.byte	0
 1812 0067 00       		.byte	0
 1813 0068 09       		.uleb128 0x9
 1814 0069 0D       		.uleb128 0xd
 1815 006a 00       		.byte	0
 1816 006b 03       		.uleb128 0x3
 1817 006c 0E       		.uleb128 0xe
 1818 006d 3A       		.uleb128 0x3a
 1819 006e 0B       		.uleb128 0xb
 1820 006f 3B       		.uleb128 0x3b
 1821 0070 05       		.uleb128 0x5
ARM GAS  /tmp/ccmLxHDv.s 			page 33


 1822 0071 49       		.uleb128 0x49
 1823 0072 13       		.uleb128 0x13
 1824 0073 38       		.uleb128 0x38
 1825 0074 0B       		.uleb128 0xb
 1826 0075 00       		.byte	0
 1827 0076 00       		.byte	0
 1828 0077 0A       		.uleb128 0xa
 1829 0078 0F       		.uleb128 0xf
 1830 0079 00       		.byte	0
 1831 007a 0B       		.uleb128 0xb
 1832 007b 0B       		.uleb128 0xb
 1833 007c 49       		.uleb128 0x49
 1834 007d 13       		.uleb128 0x13
 1835 007e 00       		.byte	0
 1836 007f 00       		.byte	0
 1837 0080 0B       		.uleb128 0xb
 1838 0081 13       		.uleb128 0x13
 1839 0082 01       		.byte	0x1
 1840 0083 03       		.uleb128 0x3
 1841 0084 0E       		.uleb128 0xe
 1842 0085 0B       		.uleb128 0xb
 1843 0086 0B       		.uleb128 0xb
 1844 0087 3A       		.uleb128 0x3a
 1845 0088 0B       		.uleb128 0xb
 1846 0089 3B       		.uleb128 0x3b
 1847 008a 05       		.uleb128 0x5
 1848 008b 01       		.uleb128 0x1
 1849 008c 13       		.uleb128 0x13
 1850 008d 00       		.byte	0
 1851 008e 00       		.byte	0
 1852 008f 0C       		.uleb128 0xc
 1853 0090 15       		.uleb128 0x15
 1854 0091 01       		.byte	0x1
 1855 0092 27       		.uleb128 0x27
 1856 0093 19       		.uleb128 0x19
 1857 0094 01       		.uleb128 0x1
 1858 0095 13       		.uleb128 0x13
 1859 0096 00       		.byte	0
 1860 0097 00       		.byte	0
 1861 0098 0D       		.uleb128 0xd
 1862 0099 05       		.uleb128 0x5
 1863 009a 00       		.byte	0
 1864 009b 49       		.uleb128 0x49
 1865 009c 13       		.uleb128 0x13
 1866 009d 00       		.byte	0
 1867 009e 00       		.byte	0
 1868 009f 0E       		.uleb128 0xe
 1869 00a0 0F       		.uleb128 0xf
 1870 00a1 00       		.byte	0
 1871 00a2 0B       		.uleb128 0xb
 1872 00a3 0B       		.uleb128 0xb
 1873 00a4 00       		.byte	0
 1874 00a5 00       		.byte	0
 1875 00a6 0F       		.uleb128 0xf
 1876 00a7 13       		.uleb128 0x13
 1877 00a8 01       		.byte	0x1
 1878 00a9 03       		.uleb128 0x3
ARM GAS  /tmp/ccmLxHDv.s 			page 34


 1879 00aa 0E       		.uleb128 0xe
 1880 00ab 0B       		.uleb128 0xb
 1881 00ac 05       		.uleb128 0x5
 1882 00ad 3A       		.uleb128 0x3a
 1883 00ae 0B       		.uleb128 0xb
 1884 00af 3B       		.uleb128 0x3b
 1885 00b0 05       		.uleb128 0x5
 1886 00b1 01       		.uleb128 0x1
 1887 00b2 13       		.uleb128 0x13
 1888 00b3 00       		.byte	0
 1889 00b4 00       		.byte	0
 1890 00b5 10       		.uleb128 0x10
 1891 00b6 0D       		.uleb128 0xd
 1892 00b7 00       		.byte	0
 1893 00b8 03       		.uleb128 0x3
 1894 00b9 08       		.uleb128 0x8
 1895 00ba 3A       		.uleb128 0x3a
 1896 00bb 0B       		.uleb128 0xb
 1897 00bc 3B       		.uleb128 0x3b
 1898 00bd 0B       		.uleb128 0xb
 1899 00be 49       		.uleb128 0x49
 1900 00bf 13       		.uleb128 0x13
 1901 00c0 38       		.uleb128 0x38
 1902 00c1 0B       		.uleb128 0xb
 1903 00c2 00       		.byte	0
 1904 00c3 00       		.byte	0
 1905 00c4 11       		.uleb128 0x11
 1906 00c5 13       		.uleb128 0x13
 1907 00c6 01       		.byte	0x1
 1908 00c7 0B       		.uleb128 0xb
 1909 00c8 0B       		.uleb128 0xb
 1910 00c9 3A       		.uleb128 0x3a
 1911 00ca 0B       		.uleb128 0xb
 1912 00cb 3B       		.uleb128 0x3b
 1913 00cc 0B       		.uleb128 0xb
 1914 00cd 01       		.uleb128 0x1
 1915 00ce 13       		.uleb128 0x13
 1916 00cf 00       		.byte	0
 1917 00d0 00       		.byte	0
 1918 00d1 12       		.uleb128 0x12
 1919 00d2 17       		.uleb128 0x17
 1920 00d3 01       		.byte	0x1
 1921 00d4 0B       		.uleb128 0xb
 1922 00d5 0B       		.uleb128 0xb
 1923 00d6 3A       		.uleb128 0x3a
 1924 00d7 0B       		.uleb128 0xb
 1925 00d8 3B       		.uleb128 0x3b
 1926 00d9 0B       		.uleb128 0xb
 1927 00da 01       		.uleb128 0x1
 1928 00db 13       		.uleb128 0x13
 1929 00dc 00       		.byte	0
 1930 00dd 00       		.byte	0
 1931 00de 13       		.uleb128 0x13
 1932 00df 0D       		.uleb128 0xd
 1933 00e0 00       		.byte	0
 1934 00e1 03       		.uleb128 0x3
 1935 00e2 0E       		.uleb128 0xe
ARM GAS  /tmp/ccmLxHDv.s 			page 35


 1936 00e3 3A       		.uleb128 0x3a
 1937 00e4 0B       		.uleb128 0xb
 1938 00e5 3B       		.uleb128 0x3b
 1939 00e6 05       		.uleb128 0x5
 1940 00e7 49       		.uleb128 0x49
 1941 00e8 13       		.uleb128 0x13
 1942 00e9 00       		.byte	0
 1943 00ea 00       		.byte	0
 1944 00eb 14       		.uleb128 0x14
 1945 00ec 26       		.uleb128 0x26
 1946 00ed 00       		.byte	0
 1947 00ee 49       		.uleb128 0x49
 1948 00ef 13       		.uleb128 0x13
 1949 00f0 00       		.byte	0
 1950 00f1 00       		.byte	0
 1951 00f2 15       		.uleb128 0x15
 1952 00f3 01       		.uleb128 0x1
 1953 00f4 01       		.byte	0x1
 1954 00f5 49       		.uleb128 0x49
 1955 00f6 13       		.uleb128 0x13
 1956 00f7 01       		.uleb128 0x1
 1957 00f8 13       		.uleb128 0x13
 1958 00f9 00       		.byte	0
 1959 00fa 00       		.byte	0
 1960 00fb 16       		.uleb128 0x16
 1961 00fc 21       		.uleb128 0x21
 1962 00fd 00       		.byte	0
 1963 00fe 49       		.uleb128 0x49
 1964 00ff 13       		.uleb128 0x13
 1965 0100 2F       		.uleb128 0x2f
 1966 0101 0B       		.uleb128 0xb
 1967 0102 00       		.byte	0
 1968 0103 00       		.byte	0
 1969 0104 17       		.uleb128 0x17
 1970 0105 15       		.uleb128 0x15
 1971 0106 01       		.byte	0x1
 1972 0107 27       		.uleb128 0x27
 1973 0108 19       		.uleb128 0x19
 1974 0109 49       		.uleb128 0x49
 1975 010a 13       		.uleb128 0x13
 1976 010b 01       		.uleb128 0x1
 1977 010c 13       		.uleb128 0x13
 1978 010d 00       		.byte	0
 1979 010e 00       		.byte	0
 1980 010f 18       		.uleb128 0x18
 1981 0110 2E       		.uleb128 0x2e
 1982 0111 01       		.byte	0x1
 1983 0112 03       		.uleb128 0x3
 1984 0113 0E       		.uleb128 0xe
 1985 0114 3A       		.uleb128 0x3a
 1986 0115 0B       		.uleb128 0xb
 1987 0116 3B       		.uleb128 0x3b
 1988 0117 05       		.uleb128 0x5
 1989 0118 27       		.uleb128 0x27
 1990 0119 19       		.uleb128 0x19
 1991 011a 20       		.uleb128 0x20
 1992 011b 0B       		.uleb128 0xb
ARM GAS  /tmp/ccmLxHDv.s 			page 36


 1993 011c 01       		.uleb128 0x1
 1994 011d 13       		.uleb128 0x13
 1995 011e 00       		.byte	0
 1996 011f 00       		.byte	0
 1997 0120 19       		.uleb128 0x19
 1998 0121 05       		.uleb128 0x5
 1999 0122 00       		.byte	0
 2000 0123 03       		.uleb128 0x3
 2001 0124 0E       		.uleb128 0xe
 2002 0125 3A       		.uleb128 0x3a
 2003 0126 0B       		.uleb128 0xb
 2004 0127 3B       		.uleb128 0x3b
 2005 0128 05       		.uleb128 0x5
 2006 0129 49       		.uleb128 0x49
 2007 012a 13       		.uleb128 0x13
 2008 012b 00       		.byte	0
 2009 012c 00       		.byte	0
 2010 012d 1A       		.uleb128 0x1a
 2011 012e 2E       		.uleb128 0x2e
 2012 012f 01       		.byte	0x1
 2013 0130 03       		.uleb128 0x3
 2014 0131 0E       		.uleb128 0xe
 2015 0132 3A       		.uleb128 0x3a
 2016 0133 0B       		.uleb128 0xb
 2017 0134 3B       		.uleb128 0x3b
 2018 0135 05       		.uleb128 0x5
 2019 0136 27       		.uleb128 0x27
 2020 0137 19       		.uleb128 0x19
 2021 0138 11       		.uleb128 0x11
 2022 0139 01       		.uleb128 0x1
 2023 013a 12       		.uleb128 0x12
 2024 013b 06       		.uleb128 0x6
 2025 013c 40       		.uleb128 0x40
 2026 013d 18       		.uleb128 0x18
 2027 013e 9742     		.uleb128 0x2117
 2028 0140 19       		.uleb128 0x19
 2029 0141 01       		.uleb128 0x1
 2030 0142 13       		.uleb128 0x13
 2031 0143 00       		.byte	0
 2032 0144 00       		.byte	0
 2033 0145 1B       		.uleb128 0x1b
 2034 0146 1D       		.uleb128 0x1d
 2035 0147 01       		.byte	0x1
 2036 0148 31       		.uleb128 0x31
 2037 0149 13       		.uleb128 0x13
 2038 014a 11       		.uleb128 0x11
 2039 014b 01       		.uleb128 0x1
 2040 014c 12       		.uleb128 0x12
 2041 014d 06       		.uleb128 0x6
 2042 014e 58       		.uleb128 0x58
 2043 014f 0B       		.uleb128 0xb
 2044 0150 59       		.uleb128 0x59
 2045 0151 05       		.uleb128 0x5
 2046 0152 00       		.byte	0
 2047 0153 00       		.byte	0
 2048 0154 1C       		.uleb128 0x1c
 2049 0155 05       		.uleb128 0x5
ARM GAS  /tmp/ccmLxHDv.s 			page 37


 2050 0156 00       		.byte	0
 2051 0157 31       		.uleb128 0x31
 2052 0158 13       		.uleb128 0x13
 2053 0159 02       		.uleb128 0x2
 2054 015a 18       		.uleb128 0x18
 2055 015b 00       		.byte	0
 2056 015c 00       		.byte	0
 2057 015d 1D       		.uleb128 0x1d
 2058 015e 2E       		.uleb128 0x2e
 2059 015f 00       		.byte	0
 2060 0160 03       		.uleb128 0x3
 2061 0161 0E       		.uleb128 0xe
 2062 0162 3A       		.uleb128 0x3a
 2063 0163 0B       		.uleb128 0xb
 2064 0164 3B       		.uleb128 0x3b
 2065 0165 05       		.uleb128 0x5
 2066 0166 27       		.uleb128 0x27
 2067 0167 19       		.uleb128 0x19
 2068 0168 11       		.uleb128 0x11
 2069 0169 01       		.uleb128 0x1
 2070 016a 12       		.uleb128 0x12
 2071 016b 06       		.uleb128 0x6
 2072 016c 40       		.uleb128 0x40
 2073 016d 18       		.uleb128 0x18
 2074 016e 9642     		.uleb128 0x2116
 2075 0170 19       		.uleb128 0x19
 2076 0171 00       		.byte	0
 2077 0172 00       		.byte	0
 2078 0173 1E       		.uleb128 0x1e
 2079 0174 2E       		.uleb128 0x2e
 2080 0175 01       		.byte	0x1
 2081 0176 03       		.uleb128 0x3
 2082 0177 0E       		.uleb128 0xe
 2083 0178 3A       		.uleb128 0x3a
 2084 0179 0B       		.uleb128 0xb
 2085 017a 3B       		.uleb128 0x3b
 2086 017b 05       		.uleb128 0x5
 2087 017c 27       		.uleb128 0x27
 2088 017d 19       		.uleb128 0x19
 2089 017e 11       		.uleb128 0x11
 2090 017f 01       		.uleb128 0x1
 2091 0180 12       		.uleb128 0x12
 2092 0181 06       		.uleb128 0x6
 2093 0182 40       		.uleb128 0x40
 2094 0183 18       		.uleb128 0x18
 2095 0184 9642     		.uleb128 0x2116
 2096 0186 19       		.uleb128 0x19
 2097 0187 01       		.uleb128 0x1
 2098 0188 13       		.uleb128 0x13
 2099 0189 00       		.byte	0
 2100 018a 00       		.byte	0
 2101 018b 1F       		.uleb128 0x1f
 2102 018c 34       		.uleb128 0x34
 2103 018d 00       		.byte	0
 2104 018e 03       		.uleb128 0x3
 2105 018f 0E       		.uleb128 0xe
 2106 0190 49       		.uleb128 0x49
ARM GAS  /tmp/ccmLxHDv.s 			page 38


 2107 0191 13       		.uleb128 0x13
 2108 0192 34       		.uleb128 0x34
 2109 0193 19       		.uleb128 0x19
 2110 0194 00       		.byte	0
 2111 0195 00       		.byte	0
 2112 0196 20       		.uleb128 0x20
 2113 0197 2E       		.uleb128 0x2e
 2114 0198 01       		.byte	0x1
 2115 0199 03       		.uleb128 0x3
 2116 019a 0E       		.uleb128 0xe
 2117 019b 3A       		.uleb128 0x3a
 2118 019c 0B       		.uleb128 0xb
 2119 019d 3B       		.uleb128 0x3b
 2120 019e 0B       		.uleb128 0xb
 2121 019f 27       		.uleb128 0x27
 2122 01a0 19       		.uleb128 0x19
 2123 01a1 11       		.uleb128 0x11
 2124 01a2 01       		.uleb128 0x1
 2125 01a3 12       		.uleb128 0x12
 2126 01a4 06       		.uleb128 0x6
 2127 01a5 40       		.uleb128 0x40
 2128 01a6 18       		.uleb128 0x18
 2129 01a7 9642     		.uleb128 0x2116
 2130 01a9 19       		.uleb128 0x19
 2131 01aa 01       		.uleb128 0x1
 2132 01ab 13       		.uleb128 0x13
 2133 01ac 00       		.byte	0
 2134 01ad 00       		.byte	0
 2135 01ae 21       		.uleb128 0x21
 2136 01af 05       		.uleb128 0x5
 2137 01b0 00       		.byte	0
 2138 01b1 03       		.uleb128 0x3
 2139 01b2 08       		.uleb128 0x8
 2140 01b3 3A       		.uleb128 0x3a
 2141 01b4 0B       		.uleb128 0xb
 2142 01b5 3B       		.uleb128 0x3b
 2143 01b6 0B       		.uleb128 0xb
 2144 01b7 49       		.uleb128 0x49
 2145 01b8 13       		.uleb128 0x13
 2146 01b9 02       		.uleb128 0x2
 2147 01ba 18       		.uleb128 0x18
 2148 01bb 00       		.byte	0
 2149 01bc 00       		.byte	0
 2150 01bd 22       		.uleb128 0x22
 2151 01be 05       		.uleb128 0x5
 2152 01bf 00       		.byte	0
 2153 01c0 03       		.uleb128 0x3
 2154 01c1 0E       		.uleb128 0xe
 2155 01c2 3A       		.uleb128 0x3a
 2156 01c3 0B       		.uleb128 0xb
 2157 01c4 3B       		.uleb128 0x3b
 2158 01c5 0B       		.uleb128 0xb
 2159 01c6 49       		.uleb128 0x49
 2160 01c7 13       		.uleb128 0x13
 2161 01c8 02       		.uleb128 0x2
 2162 01c9 18       		.uleb128 0x18
 2163 01ca 00       		.byte	0
ARM GAS  /tmp/ccmLxHDv.s 			page 39


 2164 01cb 00       		.byte	0
 2165 01cc 23       		.uleb128 0x23
 2166 01cd 2E       		.uleb128 0x2e
 2167 01ce 01       		.byte	0x1
 2168 01cf 3F       		.uleb128 0x3f
 2169 01d0 19       		.uleb128 0x19
 2170 01d1 03       		.uleb128 0x3
 2171 01d2 0E       		.uleb128 0xe
 2172 01d3 3A       		.uleb128 0x3a
 2173 01d4 0B       		.uleb128 0xb
 2174 01d5 3B       		.uleb128 0x3b
 2175 01d6 0B       		.uleb128 0xb
 2176 01d7 27       		.uleb128 0x27
 2177 01d8 19       		.uleb128 0x19
 2178 01d9 11       		.uleb128 0x11
 2179 01da 01       		.uleb128 0x1
 2180 01db 12       		.uleb128 0x12
 2181 01dc 06       		.uleb128 0x6
 2182 01dd 40       		.uleb128 0x40
 2183 01de 18       		.uleb128 0x18
 2184 01df 9742     		.uleb128 0x2117
 2185 01e1 19       		.uleb128 0x19
 2186 01e2 01       		.uleb128 0x1
 2187 01e3 13       		.uleb128 0x13
 2188 01e4 00       		.byte	0
 2189 01e5 00       		.byte	0
 2190 01e6 24       		.uleb128 0x24
 2191 01e7 2E       		.uleb128 0x2e
 2192 01e8 01       		.byte	0x1
 2193 01e9 3F       		.uleb128 0x3f
 2194 01ea 19       		.uleb128 0x19
 2195 01eb 03       		.uleb128 0x3
 2196 01ec 0E       		.uleb128 0xe
 2197 01ed 3A       		.uleb128 0x3a
 2198 01ee 0B       		.uleb128 0xb
 2199 01ef 3B       		.uleb128 0x3b
 2200 01f0 0B       		.uleb128 0xb
 2201 01f1 27       		.uleb128 0x27
 2202 01f2 19       		.uleb128 0x19
 2203 01f3 11       		.uleb128 0x11
 2204 01f4 01       		.uleb128 0x1
 2205 01f5 12       		.uleb128 0x12
 2206 01f6 06       		.uleb128 0x6
 2207 01f7 40       		.uleb128 0x40
 2208 01f8 18       		.uleb128 0x18
 2209 01f9 9642     		.uleb128 0x2116
 2210 01fb 19       		.uleb128 0x19
 2211 01fc 01       		.uleb128 0x1
 2212 01fd 13       		.uleb128 0x13
 2213 01fe 00       		.byte	0
 2214 01ff 00       		.byte	0
 2215 0200 25       		.uleb128 0x25
 2216 0201 2E       		.uleb128 0x2e
 2217 0202 01       		.byte	0x1
 2218 0203 3F       		.uleb128 0x3f
 2219 0204 19       		.uleb128 0x19
 2220 0205 03       		.uleb128 0x3
ARM GAS  /tmp/ccmLxHDv.s 			page 40


 2221 0206 0E       		.uleb128 0xe
 2222 0207 3A       		.uleb128 0x3a
 2223 0208 0B       		.uleb128 0xb
 2224 0209 3B       		.uleb128 0x3b
 2225 020a 0B       		.uleb128 0xb
 2226 020b 27       		.uleb128 0x27
 2227 020c 19       		.uleb128 0x19
 2228 020d 49       		.uleb128 0x49
 2229 020e 13       		.uleb128 0x13
 2230 020f 11       		.uleb128 0x11
 2231 0210 01       		.uleb128 0x1
 2232 0211 12       		.uleb128 0x12
 2233 0212 06       		.uleb128 0x6
 2234 0213 40       		.uleb128 0x40
 2235 0214 18       		.uleb128 0x18
 2236 0215 9642     		.uleb128 0x2116
 2237 0217 19       		.uleb128 0x19
 2238 0218 01       		.uleb128 0x1
 2239 0219 13       		.uleb128 0x13
 2240 021a 00       		.byte	0
 2241 021b 00       		.byte	0
 2242 021c 26       		.uleb128 0x26
 2243 021d 34       		.uleb128 0x34
 2244 021e 00       		.byte	0
 2245 021f 03       		.uleb128 0x3
 2246 0220 0E       		.uleb128 0xe
 2247 0221 3A       		.uleb128 0x3a
 2248 0222 0B       		.uleb128 0xb
 2249 0223 3B       		.uleb128 0x3b
 2250 0224 0B       		.uleb128 0xb
 2251 0225 49       		.uleb128 0x49
 2252 0226 13       		.uleb128 0x13
 2253 0227 02       		.uleb128 0x2
 2254 0228 18       		.uleb128 0x18
 2255 0229 00       		.byte	0
 2256 022a 00       		.byte	0
 2257 022b 27       		.uleb128 0x27
 2258 022c 34       		.uleb128 0x34
 2259 022d 00       		.byte	0
 2260 022e 03       		.uleb128 0x3
 2261 022f 08       		.uleb128 0x8
 2262 0230 3A       		.uleb128 0x3a
 2263 0231 0B       		.uleb128 0xb
 2264 0232 3B       		.uleb128 0x3b
 2265 0233 0B       		.uleb128 0xb
 2266 0234 49       		.uleb128 0x49
 2267 0235 13       		.uleb128 0x13
 2268 0236 02       		.uleb128 0x2
 2269 0237 18       		.uleb128 0x18
 2270 0238 00       		.byte	0
 2271 0239 00       		.byte	0
 2272 023a 28       		.uleb128 0x28
 2273 023b 34       		.uleb128 0x34
 2274 023c 00       		.byte	0
 2275 023d 03       		.uleb128 0x3
 2276 023e 0E       		.uleb128 0xe
 2277 023f 3A       		.uleb128 0x3a
ARM GAS  /tmp/ccmLxHDv.s 			page 41


 2278 0240 0B       		.uleb128 0xb
 2279 0241 3B       		.uleb128 0x3b
 2280 0242 05       		.uleb128 0x5
 2281 0243 49       		.uleb128 0x49
 2282 0244 13       		.uleb128 0x13
 2283 0245 3F       		.uleb128 0x3f
 2284 0246 19       		.uleb128 0x19
 2285 0247 3C       		.uleb128 0x3c
 2286 0248 19       		.uleb128 0x19
 2287 0249 00       		.byte	0
 2288 024a 00       		.byte	0
 2289 024b 29       		.uleb128 0x29
 2290 024c 34       		.uleb128 0x34
 2291 024d 00       		.byte	0
 2292 024e 03       		.uleb128 0x3
 2293 024f 08       		.uleb128 0x8
 2294 0250 3A       		.uleb128 0x3a
 2295 0251 0B       		.uleb128 0xb
 2296 0252 3B       		.uleb128 0x3b
 2297 0253 05       		.uleb128 0x5
 2298 0254 49       		.uleb128 0x49
 2299 0255 13       		.uleb128 0x13
 2300 0256 3F       		.uleb128 0x3f
 2301 0257 19       		.uleb128 0x19
 2302 0258 3C       		.uleb128 0x3c
 2303 0259 19       		.uleb128 0x19
 2304 025a 00       		.byte	0
 2305 025b 00       		.byte	0
 2306 025c 00       		.byte	0
 2307              		.section	.debug_aranges,"",%progbits
 2308 0000 6C000000 		.4byte	0x6c
 2309 0004 0200     		.2byte	0x2
 2310 0006 00000000 		.4byte	.Ldebug_info0
 2311 000a 04       		.byte	0x4
 2312 000b 00       		.byte	0
 2313 000c 0000     		.2byte	0
 2314 000e 0000     		.2byte	0
 2315 0010 00000000 		.4byte	.LFB116
 2316 0014 10000000 		.4byte	.LFE116-.LFB116
 2317 0018 00000000 		.4byte	.LFB117
 2318 001c 10000000 		.4byte	.LFE117-.LFB117
 2319 0020 00000000 		.4byte	.LFB145
 2320 0024 08000000 		.4byte	.LFE145-.LFB145
 2321 0028 00000000 		.4byte	.LFB146
 2322 002c 08000000 		.4byte	.LFE146-.LFB146
 2323 0030 00000000 		.4byte	.LFB204
 2324 0034 16000000 		.4byte	.LFE204-.LFB204
 2325 0038 00000000 		.4byte	.LFB216
 2326 003c 1E000000 		.4byte	.LFE216-.LFB216
 2327 0040 00000000 		.4byte	.LFB217
 2328 0044 30000000 		.4byte	.LFE217-.LFB217
 2329 0048 00000000 		.4byte	.LFB218
 2330 004c 3E000000 		.4byte	.LFE218-.LFB218
 2331 0050 00000000 		.4byte	.LFB219
 2332 0054 20000000 		.4byte	.LFE219-.LFB219
 2333 0058 00000000 		.4byte	.LFB220
 2334 005c 1C000000 		.4byte	.LFE220-.LFB220
ARM GAS  /tmp/ccmLxHDv.s 			page 42


 2335 0060 00000000 		.4byte	.LFB221
 2336 0064 1E000000 		.4byte	.LFE221-.LFB221
 2337 0068 00000000 		.4byte	0
 2338 006c 00000000 		.4byte	0
 2339              		.section	.debug_ranges,"",%progbits
 2340              	.Ldebug_ranges0:
 2341 0000 00000000 		.4byte	.LFB116
 2342 0004 10000000 		.4byte	.LFE116
 2343 0008 00000000 		.4byte	.LFB117
 2344 000c 10000000 		.4byte	.LFE117
 2345 0010 00000000 		.4byte	.LFB145
 2346 0014 08000000 		.4byte	.LFE145
 2347 0018 00000000 		.4byte	.LFB146
 2348 001c 08000000 		.4byte	.LFE146
 2349 0020 00000000 		.4byte	.LFB204
 2350 0024 16000000 		.4byte	.LFE204
 2351 0028 00000000 		.4byte	.LFB216
 2352 002c 1E000000 		.4byte	.LFE216
 2353 0030 00000000 		.4byte	.LFB217
 2354 0034 30000000 		.4byte	.LFE217
 2355 0038 00000000 		.4byte	.LFB218
 2356 003c 3E000000 		.4byte	.LFE218
 2357 0040 00000000 		.4byte	.LFB219
 2358 0044 20000000 		.4byte	.LFE219
 2359 0048 00000000 		.4byte	.LFB220
 2360 004c 1C000000 		.4byte	.LFE220
 2361 0050 00000000 		.4byte	.LFB221
 2362 0054 1E000000 		.4byte	.LFE221
 2363 0058 00000000 		.4byte	0
 2364 005c 00000000 		.4byte	0
 2365              		.section	.debug_line,"",%progbits
 2366              	.Ldebug_line0:
 2367 0000 C9030000 		.section	.debug_str,"MS",%progbits,1
 2367      0200C302 
 2367      00000201 
 2367      FB0E0D00 
 2367      01010101 
 2368              	.LASF51:
 2369 0000 72656164 		.ascii	"ready_list_t\000"
 2369      795F6C69 
 2369      73745F74 
 2369      00
 2370              	.LASF2:
 2371 000d 73697A65 		.ascii	"size_t\000"
 2371      5F7400
 2372              	.LASF86:
 2373 0014 7264796D 		.ascii	"rdymsg\000"
 2373      736700
 2374              	.LASF17:
 2375 001b 75696E74 		.ascii	"uint64_t\000"
 2375      36345F74 
 2375      00
 2376              	.LASF3:
 2377 0024 5F5F7569 		.ascii	"__uint8_t\000"
 2377      6E74385F 
 2377      7400
 2378              	.LASF83:
ARM GAS  /tmp/ccmLxHDv.s 			page 43


 2379 002e 706F7274 		.ascii	"port_intctx\000"
 2379      5F696E74 
 2379      63747800 
 2380              	.LASF70:
 2381 003a 73797374 		.ascii	"system_debug_t\000"
 2381      656D5F64 
 2381      65627567 
 2381      5F7400
 2382              	.LASF115:
 2383 0049 70726F76 		.ascii	"provider\000"
 2383      69646572 
 2383      00
 2384              	.LASF109:
 2385 0052 706F7274 		.ascii	"port_lock\000"
 2385      5F6C6F63 
 2385      6B00
 2386              	.LASF102:
 2387 005c 6D656D67 		.ascii	"memgetfunc_t\000"
 2387      65746675 
 2387      6E635F74 
 2387      00
 2388              	.LASF13:
 2389 0069 6C6F6E67 		.ascii	"long long unsigned int\000"
 2389      206C6F6E 
 2389      6720756E 
 2389      7369676E 
 2389      65642069 
 2390              	.LASF87:
 2391 0080 65786974 		.ascii	"exitcode\000"
 2391      636F6465 
 2391      00
 2392              	.LASF77:
 2393 0089 6D61696E 		.ascii	"mainthread\000"
 2393      74687265 
 2393      616400
 2394              	.LASF67:
 2395 0094 76697274 		.ascii	"virtual_timers_list_t\000"
 2395      75616C5F 
 2395      74696D65 
 2395      72735F6C 
 2395      6973745F 
 2396              	.LASF123:
 2397 00aa 49544D5F 		.ascii	"ITM_RxBuffer\000"
 2397      52784275 
 2397      66666572 
 2397      00
 2398              	.LASF50:
 2399 00b7 63685F74 		.ascii	"ch_threads_queue\000"
 2399      68726561 
 2399      64735F71 
 2399      75657565 
 2399      00
 2400              	.LASF30:
 2401 00c8 705F7072 		.ascii	"p_prio\000"
 2401      696F00
 2402              	.LASF11:
 2403 00cf 6C6F6E67 		.ascii	"long long int\000"
ARM GAS  /tmp/ccmLxHDv.s 			page 44


 2403      206C6F6E 
 2403      6720696E 
 2403      7400
 2404              	.LASF1:
 2405 00dd 7369676E 		.ascii	"signed char\000"
 2405      65642063 
 2405      68617200 
 2406              	.LASF44:
 2407 00e9 705F6D70 		.ascii	"p_mpool\000"
 2407      6F6F6C00 
 2408              	.LASF97:
 2409 00f1 6D5F7175 		.ascii	"m_queue\000"
 2409      65756500 
 2410              	.LASF76:
 2411 00f9 76746C69 		.ascii	"vtlist\000"
 2411      737400
 2412              	.LASF110:
 2413 0100 706F7274 		.ascii	"port_unlock\000"
 2413      5F756E6C 
 2413      6F636B00 
 2414              	.LASF89:
 2415 010c 77747472 		.ascii	"wttrp\000"
 2415      7000
 2416              	.LASF74:
 2417 0112 63685F73 		.ascii	"ch_system\000"
 2417      79737465 
 2417      6D00
 2418              	.LASF8:
 2419 011c 6C6F6E67 		.ascii	"long int\000"
 2419      20696E74 
 2419      00
 2420              	.LASF20:
 2421 0125 74737461 		.ascii	"tstate_t\000"
 2421      74655F74 
 2421      00
 2422              	.LASF32:
 2423 012e 705F6E65 		.ascii	"p_newer\000"
 2423      77657200 
 2424              	.LASF94:
 2425 0136 735F7175 		.ascii	"s_queue\000"
 2425      65756500 
 2426              	.LASF56:
 2427 013e 725F6E65 		.ascii	"r_newer\000"
 2427      77657200 
 2428              	.LASF107:
 2429 0146 6D705F70 		.ascii	"mp_provider\000"
 2429      726F7669 
 2429      64657200 
 2430              	.LASF125:
 2431 0152 2F686F6D 		.ascii	"/home/makkmarci/workspace/CLEAN/ChibiOS/os/rt/src/c"
 2431      652F6D61 
 2431      6B6B6D61 
 2431      7263692F 
 2431      776F726B 
 2432 0185 686D656D 		.ascii	"hmempools.c\000"
 2432      706F6F6C 
 2432      732E6300 
ARM GAS  /tmp/ccmLxHDv.s 			page 45


 2433              	.LASF63:
 2434 0191 76745F70 		.ascii	"vt_prev\000"
 2434      72657600 
 2435              	.LASF101:
 2436 0199 6D757465 		.ascii	"mutex_t\000"
 2436      785F7400 
 2437              	.LASF127:
 2438 01a1 76616C75 		.ascii	"value\000"
 2438      6500
 2439              	.LASF78:
 2440 01a7 69646C65 		.ascii	"idle_thread_wa\000"
 2440      5F746872 
 2440      6561645F 
 2440      776100
 2441              	.LASF25:
 2442 01b6 636E745F 		.ascii	"cnt_t\000"
 2442      7400
 2443              	.LASF0:
 2444 01bc 756E7369 		.ascii	"unsigned int\000"
 2444      676E6564 
 2444      20696E74 
 2444      00
 2445              	.LASF62:
 2446 01c9 76745F6E 		.ascii	"vt_next\000"
 2446      65787400 
 2447              	.LASF90:
 2448 01d1 77747365 		.ascii	"wtsemp\000"
 2448      6D7000
 2449              	.LASF64:
 2450 01d8 76745F64 		.ascii	"vt_delta\000"
 2450      656C7461 
 2450      00
 2451              	.LASF39:
 2452 01e1 705F6D73 		.ascii	"p_msgqueue\000"
 2452      67717565 
 2452      756500
 2453              	.LASF108:
 2454 01ec 6D656D6F 		.ascii	"memory_pool_t\000"
 2454      72795F70 
 2454      6F6F6C5F 
 2454      7400
 2455              	.LASF95:
 2456 01fa 735F636E 		.ascii	"s_cnt\000"
 2456      7400
 2457              	.LASF6:
 2458 0200 73686F72 		.ascii	"short unsigned int\000"
 2458      7420756E 
 2458      7369676E 
 2458      65642069 
 2458      6E7400
 2459              	.LASF47:
 2460 0213 63685F74 		.ascii	"ch_thread\000"
 2460      68726561 
 2460      6400
 2461              	.LASF23:
 2462 021d 6D73675F 		.ascii	"msg_t\000"
 2462      7400
ARM GAS  /tmp/ccmLxHDv.s 			page 46


 2463              	.LASF73:
 2464 0223 63685F73 		.ascii	"ch_system_t\000"
 2464      79737465 
 2464      6D5F7400 
 2465              	.LASF112:
 2466 022f 6368506F 		.ascii	"chPoolAdd\000"
 2466      6F6C4164 
 2466      6400
 2467              	.LASF19:
 2468 0239 746D6F64 		.ascii	"tmode_t\000"
 2468      655F7400 
 2469              	.LASF117:
 2470 0241 6368506F 		.ascii	"chPoolObjectInit\000"
 2470      6F6C4F62 
 2470      6A656374 
 2470      496E6974 
 2470      00
 2471              	.LASF52:
 2472 0252 63685F72 		.ascii	"ch_ready_list\000"
 2472      65616479 
 2472      5F6C6973 
 2472      7400
 2473              	.LASF24:
 2474 0260 6576656E 		.ascii	"eventmask_t\000"
 2474      746D6173 
 2474      6B5F7400 
 2475              	.LASF7:
 2476 026c 5F5F696E 		.ascii	"__int32_t\000"
 2476      7433325F 
 2476      7400
 2477              	.LASF81:
 2478 0276 73746B61 		.ascii	"stkalign_t\000"
 2478      6C69676E 
 2478      5F7400
 2479              	.LASF46:
 2480 0281 74687265 		.ascii	"threads_list_t\000"
 2480      6164735F 
 2480      6C697374 
 2480      5F7400
 2481              	.LASF38:
 2482 0290 705F7761 		.ascii	"p_waiting\000"
 2482      6974696E 
 2482      6700
 2483              	.LASF79:
 2484 029a 73697A65 		.ascii	"sizetype\000"
 2484      74797065 
 2484      00
 2485              	.LASF45:
 2486 02a3 74687265 		.ascii	"thread_reference_t\000"
 2486      61645F72 
 2486      65666572 
 2486      656E6365 
 2486      5F7400
 2487              	.LASF68:
 2488 02b6 63685F76 		.ascii	"ch_virtual_timers_list\000"
 2488      69727475 
 2488      616C5F74 
ARM GAS  /tmp/ccmLxHDv.s 			page 47


 2488      696D6572 
 2488      735F6C69 
 2489              	.LASF124:
 2490 02cd 474E5520 		.ascii	"GNU C 4.9.3 20150303 (release) [ARM/embedded-4_9-br"
 2490      4320342E 
 2490      392E3320 
 2490      32303135 
 2490      30333033 
 2491 0300 616E6368 		.ascii	"anch revision 221220] -mcpu=cortex-m4 -mfloat-abi=h"
 2491      20726576 
 2491      6973696F 
 2491      6E203232 
 2491      31323230 
 2492 0333 61726420 		.ascii	"ard -mfpu=fpv4-sp-d16 -mno-thumb-interwork -mthumb "
 2492      2D6D6670 
 2492      753D6670 
 2492      76342D73 
 2492      702D6431 
 2493 0366 2D676764 		.ascii	"-ggdb -fomit-frame-pointer -falign-functions=16 -ff"
 2493      62202D66 
 2493      6F6D6974 
 2493      2D667261 
 2493      6D652D70 
 2494 0399 756E6374 		.ascii	"unction-sections -fdata-sections -fno-common -fsing"
 2494      696F6E2D 
 2494      73656374 
 2494      696F6E73 
 2494      202D6664 
 2495 03cc 6C652D70 		.ascii	"le-precision-constant\000"
 2495      72656369 
 2495      73696F6E 
 2495      2D636F6E 
 2495      7374616E 
 2496              	.LASF119:
 2497 03e2 6368506F 		.ascii	"chPoolAllocI\000"
 2497      6F6C416C 
 2497      6C6F6349 
 2497      00
 2498              	.LASF121:
 2499 03ef 6368506F 		.ascii	"chPoolFreeI\000"
 2499      6F6C4672 
 2499      65654900 
 2500              	.LASF33:
 2501 03fb 705F6F6C 		.ascii	"p_older\000"
 2501      64657200 
 2502              	.LASF55:
 2503 0403 725F6374 		.ascii	"r_ctx\000"
 2503      7800
 2504              	.LASF106:
 2505 0409 6D705F6F 		.ascii	"mp_object_size\000"
 2505      626A6563 
 2505      745F7369 
 2505      7A6500
 2506              	.LASF85:
 2507 0418 746D5F63 		.ascii	"tm_calibration_t\000"
 2507      616C6962 
 2507      72617469 
ARM GAS  /tmp/ccmLxHDv.s 			page 48


 2507      6F6E5F74 
 2507      00
 2508              	.LASF58:
 2509 0429 725F6375 		.ascii	"r_current\000"
 2509      7272656E 
 2509      7400
 2510              	.LASF57:
 2511 0433 725F6F6C 		.ascii	"r_older\000"
 2511      64657200 
 2512              	.LASF12:
 2513 043b 5F5F7569 		.ascii	"__uint64_t\000"
 2513      6E743634 
 2513      5F7400
 2514              	.LASF104:
 2515 0446 70685F6E 		.ascii	"ph_next\000"
 2515      65787400 
 2516              	.LASF21:
 2517 044e 74726566 		.ascii	"trefs_t\000"
 2517      735F7400 
 2518              	.LASF60:
 2519 0456 76697274 		.ascii	"virtual_timer_t\000"
 2519      75616C5F 
 2519      74696D65 
 2519      725F7400 
 2520              	.LASF29:
 2521 0466 705F7072 		.ascii	"p_prev\000"
 2521      657600
 2522              	.LASF22:
 2523 046d 74707269 		.ascii	"tprio_t\000"
 2523      6F5F7400 
 2524              	.LASF71:
 2525 0475 63685F73 		.ascii	"ch_system_debug\000"
 2525      79737465 
 2525      6D5F6465 
 2525      62756700 
 2526              	.LASF15:
 2527 0485 696E7433 		.ascii	"int32_t\000"
 2527      325F7400 
 2528              	.LASF4:
 2529 048d 756E7369 		.ascii	"unsigned char\000"
 2529      676E6564 
 2529      20636861 
 2529      7200
 2530              	.LASF42:
 2531 049b 705F6D74 		.ascii	"p_mtxlist\000"
 2531      786C6973 
 2531      7400
 2532              	.LASF5:
 2533 04a5 73686F72 		.ascii	"short int\000"
 2533      7420696E 
 2533      7400
 2534              	.LASF35:
 2535 04af 705F7374 		.ascii	"p_state\000"
 2535      61746500 
 2536              	.LASF54:
 2537 04b7 725F7072 		.ascii	"r_prio\000"
 2537      696F00
ARM GAS  /tmp/ccmLxHDv.s 			page 49


 2538              	.LASF92:
 2539 04be 65776D61 		.ascii	"ewmask\000"
 2539      736B00
 2540              	.LASF28:
 2541 04c5 705F6E65 		.ascii	"p_next\000"
 2541      787400
 2542              	.LASF116:
 2543 04cc 5F5F6675 		.ascii	"__func__\000"
 2543      6E635F5F 
 2543      00
 2544              	.LASF128:
 2545 04d5 63685379 		.ascii	"chSysLock\000"
 2545      734C6F63 
 2545      6B00
 2546              	.LASF113:
 2547 04df 6F626A70 		.ascii	"objp\000"
 2547      00
 2548              	.LASF61:
 2549 04e4 63685F76 		.ascii	"ch_virtual_timer\000"
 2549      69727475 
 2549      616C5F74 
 2549      696D6572 
 2549      00
 2550              	.LASF93:
 2551 04f5 63685F73 		.ascii	"ch_semaphore\000"
 2551      656D6170 
 2551      686F7265 
 2551      00
 2552              	.LASF41:
 2553 0502 705F6570 		.ascii	"p_epending\000"
 2553      656E6469 
 2553      6E6700
 2554              	.LASF16:
 2555 050d 75696E74 		.ascii	"uint32_t\000"
 2555      33325F74 
 2555      00
 2556              	.LASF80:
 2557 0516 72656761 		.ascii	"regarm_t\000"
 2557      726D5F74 
 2557      00
 2558              	.LASF53:
 2559 051f 725F7175 		.ascii	"r_queue\000"
 2559      65756500 
 2560              	.LASF48:
 2561 0527 63685F74 		.ascii	"ch_threads_list\000"
 2561      68726561 
 2561      64735F6C 
 2561      69737400 
 2562              	.LASF10:
 2563 0537 6C6F6E67 		.ascii	"long unsigned int\000"
 2563      20756E73 
 2563      69676E65 
 2563      6420696E 
 2563      7400
 2564              	.LASF100:
 2565 0549 63686172 		.ascii	"char\000"
 2565      00
ARM GAS  /tmp/ccmLxHDv.s 			page 50


 2566              	.LASF91:
 2567 054e 77746D74 		.ascii	"wtmtxp\000"
 2567      787000
 2568              	.LASF27:
 2569 0555 74687265 		.ascii	"thread_t\000"
 2569      61645F74 
 2569      00
 2570              	.LASF99:
 2571 055e 6D5F6E65 		.ascii	"m_next\000"
 2571      787400
 2572              	.LASF26:
 2573 0565 73797374 		.ascii	"systime_t\000"
 2573      696D655F 
 2573      7400
 2574              	.LASF43:
 2575 056f 705F7265 		.ascii	"p_realprio\000"
 2575      616C7072 
 2575      696F00
 2576              	.LASF59:
 2577 057a 76746675 		.ascii	"vtfunc_t\000"
 2577      6E635F74 
 2577      00
 2578              	.LASF9:
 2579 0583 5F5F7569 		.ascii	"__uint32_t\000"
 2579      6E743332 
 2579      5F7400
 2580              	.LASF126:
 2581 058e 5F5F7365 		.ascii	"__set_BASEPRI\000"
 2581      745F4241 
 2581      53455052 
 2581      4900
 2582              	.LASF72:
 2583 059c 70616E69 		.ascii	"panic_msg\000"
 2583      635F6D73 
 2583      6700
 2584              	.LASF84:
 2585 05a6 6F666673 		.ascii	"offset\000"
 2585      657400
 2586              	.LASF96:
 2587 05ad 63685F6D 		.ascii	"ch_mutex\000"
 2587      75746578 
 2587      00
 2588              	.LASF105:
 2589 05b6 6D705F6E 		.ascii	"mp_next\000"
 2589      65787400 
 2590              	.LASF82:
 2591 05be 636F6E74 		.ascii	"context\000"
 2591      65787400 
 2592              	.LASF40:
 2593 05c6 705F6D73 		.ascii	"p_msg\000"
 2593      6700
 2594              	.LASF18:
 2595 05cc 7274636E 		.ascii	"rtcnt_t\000"
 2595      745F7400 
 2596              	.LASF66:
 2597 05d4 76745F70 		.ascii	"vt_par\000"
 2597      617200
ARM GAS  /tmp/ccmLxHDv.s 			page 51


 2598              	.LASF49:
 2599 05db 74687265 		.ascii	"threads_queue_t\000"
 2599      6164735F 
 2599      71756575 
 2599      655F7400 
 2600              	.LASF103:
 2601 05eb 706F6F6C 		.ascii	"pool_header\000"
 2601      5F686561 
 2601      64657200 
 2602              	.LASF37:
 2603 05f7 705F7265 		.ascii	"p_refs\000"
 2603      667300
 2604              	.LASF75:
 2605 05fe 726C6973 		.ascii	"rlist\000"
 2605      7400
 2606              	.LASF14:
 2607 0604 75696E74 		.ascii	"uint8_t\000"
 2607      385F7400 
 2608              	.LASF120:
 2609 060c 6368506F 		.ascii	"chPoolAlloc\000"
 2609      6F6C416C 
 2609      6C6F6300 
 2610              	.LASF122:
 2611 0618 6368506F 		.ascii	"chPoolFree\000"
 2611      6F6C4672 
 2611      656500
 2612              	.LASF88:
 2613 0623 77746F62 		.ascii	"wtobjp\000"
 2613      6A7000
 2614              	.LASF34:
 2615 062a 705F6E61 		.ascii	"p_name\000"
 2615      6D6500
 2616              	.LASF114:
 2617 0631 73697A65 		.ascii	"size\000"
 2617      00
 2618              	.LASF69:
 2619 0636 76745F73 		.ascii	"vt_systime\000"
 2619      79737469 
 2619      6D6500
 2620              	.LASF36:
 2621 0641 705F666C 		.ascii	"p_flags\000"
 2621      61677300 
 2622              	.LASF111:
 2623 0649 63685379 		.ascii	"chSysUnlock\000"
 2623      73556E6C 
 2623      6F636B00 
 2624              	.LASF118:
 2625 0655 6368506F 		.ascii	"chPoolLoadArray\000"
 2625      6F6C4C6F 
 2625      61644172 
 2625      72617900 
 2626              	.LASF98:
 2627 0665 6D5F6F77 		.ascii	"m_owner\000"
 2627      6E657200 
 2628              	.LASF31:
 2629 066d 705F6374 		.ascii	"p_ctx\000"
 2629      7800
ARM GAS  /tmp/ccmLxHDv.s 			page 52


 2630              	.LASF65:
 2631 0673 76745F66 		.ascii	"vt_func\000"
 2631      756E6300 
 2632              		.ident	"GCC: (GNU Tools for ARM Embedded Processors) 4.9.3 20150303 (release) [ARM/embedded-4_9-br
ARM GAS  /tmp/ccmLxHDv.s 			page 53


DEFINED SYMBOLS
                            *ABS*:00000000 chmempools.c
     /tmp/ccmLxHDv.s:21     .text.port_lock:00000000 $t
     /tmp/ccmLxHDv.s:26     .text.port_lock:00000000 port_lock
     /tmp/ccmLxHDv.s:58     .text.port_unlock:00000000 $t
     /tmp/ccmLxHDv.s:63     .text.port_unlock:00000000 port_unlock
     /tmp/ccmLxHDv.s:93     .text.chSysLock:00000000 $t
     /tmp/ccmLxHDv.s:98     .text.chSysLock:00000000 chSysLock
     /tmp/ccmLxHDv.s:117    .text.chSysUnlock:00000000 $t
     /tmp/ccmLxHDv.s:122    .text.chSysUnlock:00000000 chSysUnlock
     /tmp/ccmLxHDv.s:140    .text.chPoolAdd:00000000 $t
     /tmp/ccmLxHDv.s:145    .text.chPoolAdd:00000000 chPoolAdd
     /tmp/ccmLxHDv.s:405    .text.chPoolFree:00000000 chPoolFree
     /tmp/ccmLxHDv.s:172    .text.chPoolObjectInit:00000000 $t
     /tmp/ccmLxHDv.s:178    .text.chPoolObjectInit:00000000 chPoolObjectInit
     /tmp/ccmLxHDv.s:212    .text.chPoolLoadArray:00000000 $t
     /tmp/ccmLxHDv.s:218    .text.chPoolLoadArray:00000000 chPoolLoadArray
     /tmp/ccmLxHDv.s:263    .text.chPoolAllocI:00000000 $t
     /tmp/ccmLxHDv.s:269    .text.chPoolAllocI:00000000 chPoolAllocI
     /tmp/ccmLxHDv.s:323    .text.chPoolAlloc:00000000 $t
     /tmp/ccmLxHDv.s:329    .text.chPoolAlloc:00000000 chPoolAlloc
     /tmp/ccmLxHDv.s:361    .text.chPoolFreeI:00000000 $t
     /tmp/ccmLxHDv.s:367    .text.chPoolFreeI:00000000 chPoolFreeI
     /tmp/ccmLxHDv.s:399    .text.chPoolFree:00000000 $t
                     .debug_frame:00000010 $d

NO UNDEFINED SYMBOLS
