ARM GAS  /tmp/cc9uTB0f.s 			page 1


   1              		.syntax unified
   2              		.cpu cortex-m4
   3              		.eabi_attribute 27, 1
   4              		.eabi_attribute 28, 1
   5              		.fpu fpv4-sp-d16
   6              		.eabi_attribute 20, 1
   7              		.eabi_attribute 21, 1
   8              		.eabi_attribute 23, 3
   9              		.eabi_attribute 24, 1
  10              		.eabi_attribute 25, 1
  11              		.eabi_attribute 26, 1
  12              		.eabi_attribute 30, 6
  13              		.eabi_attribute 34, 1
  14              		.eabi_attribute 18, 4
  15              		.thumb
  16              		.file	"chmsg.c"
  17              		.text
  18              	.Ltext0:
  19              		.cfi_sections	.debug_frame
  20              		.section	.text.port_lock,"ax",%progbits
  21              		.align	2
  22              		.p2align 4,,15
  23              		.thumb
  24              		.thumb_func
  25              		.type	port_lock, %function
  26              	port_lock:
  27              	.LFB116:
  28              		.file 1 "/home/makkmarci/workspace/CLEAN/ChibiOS/os/rt/ports/ARMCMx/chcore_v7m.h"
  29              		.loc 1 444 0
  30              		.cfi_startproc
  31              		@ args = 0, pretend = 0, frame = 8
  32              		@ frame_needed = 0, uses_anonymous_args = 0
  33              		@ link register save eliminated.
  34 0000 82B0     		sub	sp, sp, #8
  35              		.cfi_def_cfa_offset 8
  36 0002 2023     		movs	r3, #32
  37 0004 0193     		str	r3, [sp, #4]
  38              	.LBB6:
  39              	.LBB7:
  40              		.file 2 "/home/makkmarci/workspace/CLEAN/ChibiOS/os/ext/CMSIS/include/core_cmFunc.h"
  41              		.loc 2 546 0
  42 0006 019B     		ldr	r3, [sp, #4]
  43              	@ 546 "/home/makkmarci/workspace/CLEAN/ChibiOS/os/ext/CMSIS/include/core_cmFunc.h" 1
  44 0008 83F31188 		MSR basepri, r3
  45              	@ 0 "" 2
  46              		.thumb
  47              	.LBE7:
  48              	.LBE6:
  49              		.loc 1 451 0
  50 000c 02B0     		add	sp, sp, #8
  51              		.cfi_def_cfa_offset 0
  52              		@ sp needed
  53 000e 7047     		bx	lr
  54              		.cfi_endproc
  55              	.LFE116:
  56              		.size	port_lock, .-port_lock
  57              		.section	.text.port_unlock,"ax",%progbits
ARM GAS  /tmp/cc9uTB0f.s 			page 2


  58              		.align	2
  59              		.p2align 4,,15
  60              		.thumb
  61              		.thumb_func
  62              		.type	port_unlock, %function
  63              	port_unlock:
  64              	.LFB117:
  65              		.loc 1 458 0
  66              		.cfi_startproc
  67              		@ args = 0, pretend = 0, frame = 8
  68              		@ frame_needed = 0, uses_anonymous_args = 0
  69              		@ link register save eliminated.
  70 0000 82B0     		sub	sp, sp, #8
  71              		.cfi_def_cfa_offset 8
  72 0002 0023     		movs	r3, #0
  73 0004 0193     		str	r3, [sp, #4]
  74              	.LBB8:
  75              	.LBB9:
  76              		.loc 2 546 0
  77 0006 019B     		ldr	r3, [sp, #4]
  78              	@ 546 "/home/makkmarci/workspace/CLEAN/ChibiOS/os/ext/CMSIS/include/core_cmFunc.h" 1
  79 0008 83F31188 		MSR basepri, r3
  80              	@ 0 "" 2
  81              		.thumb
  82              	.LBE9:
  83              	.LBE8:
  84              		.loc 1 465 0
  85 000c 02B0     		add	sp, sp, #8
  86              		.cfi_def_cfa_offset 0
  87              		@ sp needed
  88 000e 7047     		bx	lr
  89              		.cfi_endproc
  90              	.LFE117:
  91              		.size	port_unlock, .-port_unlock
  92              		.section	.text.queue_insert,"ax",%progbits
  93              		.align	2
  94              		.p2align 4,,15
  95              		.thumb
  96              		.thumb_func
  97              		.type	queue_insert, %function
  98              	queue_insert:
  99              	.LFB134:
 100              		.file 3 "/home/makkmarci/workspace/CLEAN/ChibiOS/os/rt/include/chschd.h"
 101              		.loc 3 663 0
 102              		.cfi_startproc
 103              		@ args = 0, pretend = 0, frame = 8
 104              		@ frame_needed = 0, uses_anonymous_args = 0
 105              		@ link register save eliminated.
 106 0000 82B0     		sub	sp, sp, #8
 107              		.cfi_def_cfa_offset 8
 108 0002 0190     		str	r0, [sp, #4]
 109 0004 0091     		str	r1, [sp]
 110              		.loc 3 665 0
 111 0006 019B     		ldr	r3, [sp, #4]
 112 0008 009A     		ldr	r2, [sp]
 113 000a 1A60     		str	r2, [r3]
 114              		.loc 3 666 0
ARM GAS  /tmp/cc9uTB0f.s 			page 3


 115 000c 009B     		ldr	r3, [sp]
 116 000e 5A68     		ldr	r2, [r3, #4]
 117 0010 019B     		ldr	r3, [sp, #4]
 118 0012 5A60     		str	r2, [r3, #4]
 119              		.loc 3 667 0
 120 0014 019B     		ldr	r3, [sp, #4]
 121 0016 5B68     		ldr	r3, [r3, #4]
 122 0018 019A     		ldr	r2, [sp, #4]
 123 001a 1A60     		str	r2, [r3]
 124              		.loc 3 668 0
 125 001c 009B     		ldr	r3, [sp]
 126 001e 019A     		ldr	r2, [sp, #4]
 127 0020 5A60     		str	r2, [r3, #4]
 128              		.loc 3 669 0
 129 0022 02B0     		add	sp, sp, #8
 130              		.cfi_def_cfa_offset 0
 131              		@ sp needed
 132 0024 7047     		bx	lr
 133              		.cfi_endproc
 134              	.LFE134:
 135              		.size	queue_insert, .-queue_insert
 136 0026 00BFAFF3 		.section	.text.queue_fifo_remove,"ax",%progbits
 136      0080AFF3 
 136      0080
 137              		.align	2
 138              		.p2align 4,,15
 139              		.thumb
 140              		.thumb_func
 141              		.type	queue_fifo_remove, %function
 142              	queue_fifo_remove:
 143              	.LFB135:
 144              		.loc 3 671 0
 145              		.cfi_startproc
 146              		@ args = 0, pretend = 0, frame = 16
 147              		@ frame_needed = 0, uses_anonymous_args = 0
 148              		@ link register save eliminated.
 149 0000 84B0     		sub	sp, sp, #16
 150              		.cfi_def_cfa_offset 16
 151 0002 0190     		str	r0, [sp, #4]
 152              		.loc 3 672 0
 153 0004 019B     		ldr	r3, [sp, #4]
 154 0006 1B68     		ldr	r3, [r3]
 155 0008 0393     		str	r3, [sp, #12]
 156              		.loc 3 674 0
 157 000a 039B     		ldr	r3, [sp, #12]
 158 000c 1A68     		ldr	r2, [r3]
 159 000e 019B     		ldr	r3, [sp, #4]
 160 0010 1A60     		str	r2, [r3]
 161              		.loc 3 675 0
 162 0012 019B     		ldr	r3, [sp, #4]
 163 0014 1B68     		ldr	r3, [r3]
 164 0016 019A     		ldr	r2, [sp, #4]
 165 0018 5A60     		str	r2, [r3, #4]
 166              		.loc 3 677 0
 167 001a 039B     		ldr	r3, [sp, #12]
 168              		.loc 3 678 0
 169 001c 1846     		mov	r0, r3
ARM GAS  /tmp/cc9uTB0f.s 			page 4


 170 001e 04B0     		add	sp, sp, #16
 171              		.cfi_def_cfa_offset 0
 172              		@ sp needed
 173 0020 7047     		bx	lr
 174              		.cfi_endproc
 175              	.LFE135:
 176              		.size	queue_fifo_remove, .-queue_fifo_remove
 177 0022 00BFAFF3 		.section	.text.chSysLock,"ax",%progbits
 177      0080AFF3 
 177      0080AFF3 
 177      0080
 178              		.align	2
 179              		.p2align 4,,15
 180              		.thumb
 181              		.thumb_func
 182              		.type	chSysLock, %function
 183              	chSysLock:
 184              	.LFB145:
 185              		.file 4 "/home/makkmarci/workspace/CLEAN/ChibiOS/os/rt/include/chsys.h"
 186              		.loc 4 346 0
 187              		.cfi_startproc
 188              		@ args = 0, pretend = 0, frame = 0
 189              		@ frame_needed = 0, uses_anonymous_args = 0
 190 0000 08B5     		push	{r3, lr}
 191              		.cfi_def_cfa_offset 8
 192              		.cfi_offset 3, -8
 193              		.cfi_offset 14, -4
 194              		.loc 4 348 0
 195 0002 FFF7FEFF 		bl	port_lock
 196              		.loc 4 351 0
 197 0006 08BD     		pop	{r3, pc}
 198              		.cfi_endproc
 199              	.LFE145:
 200              		.size	chSysLock, .-chSysLock
 201              		.section	.text.chSysUnlock,"ax",%progbits
 202              		.align	2
 203              		.p2align 4,,15
 204              		.thumb
 205              		.thumb_func
 206              		.type	chSysUnlock, %function
 207              	chSysUnlock:
 208              	.LFB146:
 209              		.loc 4 358 0
 210              		.cfi_startproc
 211              		@ args = 0, pretend = 0, frame = 0
 212              		@ frame_needed = 0, uses_anonymous_args = 0
 213 0000 08B5     		push	{r3, lr}
 214              		.cfi_def_cfa_offset 8
 215              		.cfi_offset 3, -8
 216              		.cfi_offset 14, -4
 217              		.loc 4 371 0
 218 0002 FFF7FEFF 		bl	port_unlock
 219              		.loc 4 372 0
 220 0006 08BD     		pop	{r3, pc}
 221              		.cfi_endproc
 222              	.LFE146:
 223              		.size	chSysUnlock, .-chSysUnlock
ARM GAS  /tmp/cc9uTB0f.s 			page 5


 224 0008 AFF30080 		.section	.text.chMsgIsPendingI,"ax",%progbits
 224      AFF30080 
 225              		.align	2
 226              		.p2align 4,,15
 227              		.thumb
 228              		.thumb_func
 229              		.type	chMsgIsPendingI, %function
 230              	chMsgIsPendingI:
 231              	.LFB197:
 232              		.file 5 "/home/makkmarci/workspace/CLEAN/ChibiOS/os/rt/include/chmsg.h"
 233              		.loc 5 79 0
 234              		.cfi_startproc
 235              		@ args = 0, pretend = 0, frame = 8
 236              		@ frame_needed = 0, uses_anonymous_args = 0
 237              		@ link register save eliminated.
 238 0000 82B0     		sub	sp, sp, #8
 239              		.cfi_def_cfa_offset 8
 240 0002 0190     		str	r0, [sp, #4]
 241              		.loc 5 83 0
 242 0004 019B     		ldr	r3, [sp, #4]
 243 0006 9A6A     		ldr	r2, [r3, #40]
 244 0008 019B     		ldr	r3, [sp, #4]
 245 000a 2833     		adds	r3, r3, #40
 246 000c 9A42     		cmp	r2, r3
 247 000e 14BF     		ite	ne
 248 0010 0123     		movne	r3, #1
 249 0012 0023     		moveq	r3, #0
 250 0014 DBB2     		uxtb	r3, r3
 251              		.loc 5 84 0
 252 0016 1846     		mov	r0, r3
 253 0018 02B0     		add	sp, sp, #8
 254              		.cfi_def_cfa_offset 0
 255              		@ sp needed
 256 001a 7047     		bx	lr
 257              		.cfi_endproc
 258              	.LFE197:
 259              		.size	chMsgIsPendingI, .-chMsgIsPendingI
 260 001c AFF30080 		.section	.text.chMsgReleaseS,"ax",%progbits
 261              		.align	2
 262              		.p2align 4,,15
 263              		.thumb
 264              		.thumb_func
 265              		.type	chMsgReleaseS, %function
 266              	chMsgReleaseS:
 267              	.LFB199:
 268              		.loc 5 111 0
 269              		.cfi_startproc
 270              		@ args = 0, pretend = 0, frame = 8
 271              		@ frame_needed = 0, uses_anonymous_args = 0
 272 0000 00B5     		push	{lr}
 273              		.cfi_def_cfa_offset 4
 274              		.cfi_offset 14, -4
 275 0002 83B0     		sub	sp, sp, #12
 276              		.cfi_def_cfa_offset 16
 277 0004 0190     		str	r0, [sp, #4]
 278 0006 0091     		str	r1, [sp]
 279              		.loc 5 115 0
ARM GAS  /tmp/cc9uTB0f.s 			page 6


 280 0008 0198     		ldr	r0, [sp, #4]
 281 000a 0099     		ldr	r1, [sp]
 282 000c FFF7FEFF 		bl	chSchWakeupS
 283              		.loc 5 116 0
 284 0010 03B0     		add	sp, sp, #12
 285              		.cfi_def_cfa_offset 4
 286              		@ sp needed
 287 0012 5DF804FB 		ldr	pc, [sp], #4
 288              		.cfi_endproc
 289              	.LFE199:
 290              		.size	chMsgReleaseS, .-chMsgReleaseS
 291 0016 00BFAFF3 		.section	.text.chMsgSend,"ax",%progbits
 291      0080AFF3 
 291      0080
 292              		.align	2
 293              		.p2align 4,,15
 294              		.global	chMsgSend
 295              		.thumb
 296              		.thumb_func
 297              		.type	chMsgSend, %function
 298              	chMsgSend:
 299              	.LFB216:
 300              		.file 6 "/home/makkmarci/workspace/CLEAN/ChibiOS/os/rt/src/chmsg.c"
 301              		.loc 6 87 0
 302              		.cfi_startproc
 303              		@ args = 0, pretend = 0, frame = 16
 304              		@ frame_needed = 0, uses_anonymous_args = 0
 305 0000 00B5     		push	{lr}
 306              		.cfi_def_cfa_offset 4
 307              		.cfi_offset 14, -4
 308 0002 85B0     		sub	sp, sp, #20
 309              		.cfi_def_cfa_offset 24
 310 0004 0190     		str	r0, [sp, #4]
 311 0006 0091     		str	r1, [sp]
 312              		.loc 6 88 0
 313 0008 134B     		ldr	r3, .L14
 314 000a 9B69     		ldr	r3, [r3, #24]
 315 000c 0393     		str	r3, [sp, #12]
 316              		.loc 6 92 0
 317 000e FFF7FEFF 		bl	chSysLock
 318              		.loc 6 93 0
 319 0012 039B     		ldr	r3, [sp, #12]
 320 0014 009A     		ldr	r2, [sp]
 321 0016 1A63     		str	r2, [r3, #48]
 322              		.loc 6 94 0
 323 0018 019B     		ldr	r3, [sp, #4]
 324 001a 03F12802 		add	r2, r3, #40
 325 001e 039B     		ldr	r3, [sp, #12]
 326 0020 1A62     		str	r2, [r3, #32]
 327              		.loc 6 95 0
 328 0022 019B     		ldr	r3, [sp, #4]
 329 0024 2833     		adds	r3, r3, #40
 330 0026 0398     		ldr	r0, [sp, #12]
 331 0028 1946     		mov	r1, r3
 332 002a FFF7FEFF 		bl	queue_insert
 333              		.loc 6 96 0
 334 002e 019B     		ldr	r3, [sp, #4]
ARM GAS  /tmp/cc9uTB0f.s 			page 7


 335 0030 1B7F     		ldrb	r3, [r3, #28]	@ zero_extendqisi2
 336 0032 0E2B     		cmp	r3, #14
 337 0034 02D1     		bne	.L12
 338              		.loc 6 97 0
 339 0036 0198     		ldr	r0, [sp, #4]
 340 0038 FFF7FEFF 		bl	chSchReadyI
 341              	.L12:
 342              		.loc 6 99 0
 343 003c 0C20     		movs	r0, #12
 344 003e FFF7FEFF 		bl	chSchGoSleepS
 345              		.loc 6 100 0
 346 0042 039B     		ldr	r3, [sp, #12]
 347 0044 1B6A     		ldr	r3, [r3, #32]
 348 0046 0093     		str	r3, [sp]
 349              		.loc 6 101 0
 350 0048 FFF7FEFF 		bl	chSysUnlock
 351              		.loc 6 103 0
 352 004c 009B     		ldr	r3, [sp]
 353              		.loc 6 104 0
 354 004e 1846     		mov	r0, r3
 355 0050 05B0     		add	sp, sp, #20
 356              		.cfi_def_cfa_offset 4
 357              		@ sp needed
 358 0052 5DF804FB 		ldr	pc, [sp], #4
 359              	.L15:
 360 0056 00BF     		.align	2
 361              	.L14:
 362 0058 00000000 		.word	ch
 363              		.cfi_endproc
 364              	.LFE216:
 365              		.size	chMsgSend, .-chMsgSend
 366 005c AFF30080 		.section	.text.chMsgWait,"ax",%progbits
 367              		.align	2
 368              		.p2align 4,,15
 369              		.global	chMsgWait
 370              		.thumb
 371              		.thumb_func
 372              		.type	chMsgWait, %function
 373              	chMsgWait:
 374              	.LFB217:
 375              		.loc 6 120 0
 376              		.cfi_startproc
 377              		@ args = 0, pretend = 0, frame = 8
 378              		@ frame_needed = 0, uses_anonymous_args = 0
 379 0000 00B5     		push	{lr}
 380              		.cfi_def_cfa_offset 4
 381              		.cfi_offset 14, -4
 382 0002 83B0     		sub	sp, sp, #12
 383              		.cfi_def_cfa_offset 16
 384              		.loc 6 123 0
 385 0004 FFF7FEFF 		bl	chSysLock
 386              		.loc 6 124 0
 387 0008 0F4B     		ldr	r3, .L19
 388 000a 9B69     		ldr	r3, [r3, #24]
 389 000c 1846     		mov	r0, r3
 390 000e FFF7FEFF 		bl	chMsgIsPendingI
 391 0012 0346     		mov	r3, r0
ARM GAS  /tmp/cc9uTB0f.s 			page 8


 392 0014 83F00103 		eor	r3, r3, #1
 393 0018 DBB2     		uxtb	r3, r3
 394 001a 002B     		cmp	r3, #0
 395 001c 02D0     		beq	.L17
 396              		.loc 6 125 0
 397 001e 0E20     		movs	r0, #14
 398 0020 FFF7FEFF 		bl	chSchGoSleepS
 399              	.L17:
 400              		.loc 6 127 0
 401 0024 084B     		ldr	r3, .L19
 402 0026 9B69     		ldr	r3, [r3, #24]
 403 0028 2833     		adds	r3, r3, #40
 404 002a 1846     		mov	r0, r3
 405 002c FFF7FEFF 		bl	queue_fifo_remove
 406 0030 0190     		str	r0, [sp, #4]
 407              		.loc 6 128 0
 408 0032 019B     		ldr	r3, [sp, #4]
 409 0034 0D22     		movs	r2, #13
 410 0036 1A77     		strb	r2, [r3, #28]
 411              		.loc 6 129 0
 412 0038 FFF7FEFF 		bl	chSysUnlock
 413              		.loc 6 131 0
 414 003c 019B     		ldr	r3, [sp, #4]
 415              		.loc 6 132 0
 416 003e 1846     		mov	r0, r3
 417 0040 03B0     		add	sp, sp, #12
 418              		.cfi_def_cfa_offset 4
 419              		@ sp needed
 420 0042 5DF804FB 		ldr	pc, [sp], #4
 421              	.L20:
 422 0046 00BF     		.align	2
 423              	.L19:
 424 0048 00000000 		.word	ch
 425              		.cfi_endproc
 426              	.LFE217:
 427              		.size	chMsgWait, .-chMsgWait
 428 004c AFF30080 		.section	.text.chMsgRelease,"ax",%progbits
 429              		.align	2
 430              		.p2align 4,,15
 431              		.global	chMsgRelease
 432              		.thumb
 433              		.thumb_func
 434              		.type	chMsgRelease, %function
 435              	chMsgRelease:
 436              	.LFB218:
 437              		.loc 6 144 0
 438              		.cfi_startproc
 439              		@ args = 0, pretend = 0, frame = 8
 440              		@ frame_needed = 0, uses_anonymous_args = 0
 441 0000 00B5     		push	{lr}
 442              		.cfi_def_cfa_offset 4
 443              		.cfi_offset 14, -4
 444 0002 83B0     		sub	sp, sp, #12
 445              		.cfi_def_cfa_offset 16
 446 0004 0190     		str	r0, [sp, #4]
 447 0006 0091     		str	r1, [sp]
 448              		.loc 6 146 0
ARM GAS  /tmp/cc9uTB0f.s 			page 9


 449 0008 FFF7FEFF 		bl	chSysLock
 450              		.loc 6 148 0
 451 000c 0198     		ldr	r0, [sp, #4]
 452 000e 0099     		ldr	r1, [sp]
 453 0010 FFF7FEFF 		bl	chMsgReleaseS
 454              		.loc 6 149 0
 455 0014 FFF7FEFF 		bl	chSysUnlock
 456              		.loc 6 150 0
 457 0018 03B0     		add	sp, sp, #12
 458              		.cfi_def_cfa_offset 4
 459              		@ sp needed
 460 001a 5DF804FB 		ldr	pc, [sp], #4
 461              		.cfi_endproc
 462              	.LFE218:
 463              		.size	chMsgRelease, .-chMsgRelease
 464 001e 00BF     		.text
 465              	.Letext0:
 466              		.file 7 "/opt/gcc-arm-none-eabi/arm-none-eabi/include/machine/_default_types.h"
 467              		.file 8 "/opt/gcc-arm-none-eabi/arm-none-eabi/include/stdint.h"
 468              		.file 9 "/home/makkmarci/workspace/CLEAN/ChibiOS/os/rt/ports/ARMCMx/compilers/GCC/chtypes.h"
 469              		.file 10 "/home/makkmarci/workspace/CLEAN/ChibiOS/os/rt/include/chsystypes.h"
 470              		.file 11 "/home/makkmarci/workspace/CLEAN/ChibiOS/os/rt/ports/ARMCMx/chcore.h"
 471              		.file 12 "/home/makkmarci/workspace/CLEAN/ChibiOS/os/rt/include/chtm.h"
 472              		.file 13 "/home/makkmarci/workspace/CLEAN/ChibiOS/os/rt/include/chsem.h"
 473              		.file 14 "/home/makkmarci/workspace/CLEAN/ChibiOS/os/rt/include/chmtx.h"
 474              		.file 15 "/home/makkmarci/workspace/CLEAN/ChibiOS/os/ext/CMSIS/include/core_cm4.h"