ARM GAS  /tmp/ccuv292g.s 			page 1


   1              		.syntax unified
   2              		.cpu cortex-m4
   3              		.eabi_attribute 27, 1
   4              		.eabi_attribute 28, 1
   5              		.fpu fpv4-sp-d16
   6              		.eabi_attribute 20, 1
   7              		.eabi_attribute 21, 1
   8              		.eabi_attribute 23, 3
   9              		.eabi_attribute 24, 1
  10              		.eabi_attribute 25, 1
  11              		.eabi_attribute 26, 1
  12              		.eabi_attribute 30, 6
  13              		.eabi_attribute 34, 1
  14              		.eabi_attribute 18, 4
  15              		.thumb
  16              		.file	"chmtx.c"
  17              		.text
  18              	.Ltext0:
  19              		.cfi_sections	.debug_frame
  20              		.section	.text.port_lock,"ax",%progbits
  21              		.align	2
  22              		.p2align 4,,15
  23              		.thumb
  24              		.thumb_func
  25              		.type	port_lock, %function
  26              	port_lock:
  27              	.LFB116:
  28              		.file 1 "/home/makkmarci/workspace/CLEAN/ChibiOS/os/rt/ports/ARMCMx/chcore_v7m.h"
  29              		.loc 1 444 0
  30              		.cfi_startproc
  31              		@ args = 0, pretend = 0, frame = 8
  32              		@ frame_needed = 0, uses_anonymous_args = 0
  33              		@ link register save eliminated.
  34 0000 82B0     		sub	sp, sp, #8
  35              		.cfi_def_cfa_offset 8
  36 0002 2023     		movs	r3, #32
  37 0004 0193     		str	r3, [sp, #4]
  38              	.LBB6:
  39              	.LBB7:
  40              		.file 2 "/home/makkmarci/workspace/CLEAN/ChibiOS/os/ext/CMSIS/include/core_cmFunc.h"
  41              		.loc 2 546 0
  42 0006 019B     		ldr	r3, [sp, #4]
  43              	@ 546 "/home/makkmarci/workspace/CLEAN/ChibiOS/os/ext/CMSIS/include/core_cmFunc.h" 1
  44 0008 83F31188 		MSR basepri, r3
  45              	@ 0 "" 2
  46              		.thumb
  47              	.LBE7:
  48              	.LBE6:
  49              		.loc 1 451 0
  50 000c 02B0     		add	sp, sp, #8
  51              		.cfi_def_cfa_offset 0
  52              		@ sp needed
  53 000e 7047     		bx	lr
  54              		.cfi_endproc
  55              	.LFE116:
  56              		.size	port_lock, .-port_lock
  57              		.section	.text.port_unlock,"ax",%progbits
ARM GAS  /tmp/ccuv292g.s 			page 2


  58              		.align	2
  59              		.p2align 4,,15
  60              		.thumb
  61              		.thumb_func
  62              		.type	port_unlock, %function
  63              	port_unlock:
  64              	.LFB117:
  65              		.loc 1 458 0
  66              		.cfi_startproc
  67              		@ args = 0, pretend = 0, frame = 8
  68              		@ frame_needed = 0, uses_anonymous_args = 0
  69              		@ link register save eliminated.
  70 0000 82B0     		sub	sp, sp, #8
  71              		.cfi_def_cfa_offset 8
  72 0002 0023     		movs	r3, #0
  73 0004 0193     		str	r3, [sp, #4]
  74              	.LBB8:
  75              	.LBB9:
  76              		.loc 2 546 0
  77 0006 019B     		ldr	r3, [sp, #4]
  78              	@ 546 "/home/makkmarci/workspace/CLEAN/ChibiOS/os/ext/CMSIS/include/core_cmFunc.h" 1
  79 0008 83F31188 		MSR basepri, r3
  80              	@ 0 "" 2
  81              		.thumb
  82              	.LBE9:
  83              	.LBE8:
  84              		.loc 1 465 0
  85 000c 02B0     		add	sp, sp, #8
  86              		.cfi_def_cfa_offset 0
  87              		@ sp needed
  88 000e 7047     		bx	lr
  89              		.cfi_endproc
  90              	.LFE117:
  91              		.size	port_unlock, .-port_unlock
  92              		.section	.text.queue_init,"ax",%progbits
  93              		.align	2
  94              		.p2align 4,,15
  95              		.thumb
  96              		.thumb_func
  97              		.type	queue_init, %function
  98              	queue_init:
  99              	.LFB128:
 100              		.file 3 "/home/makkmarci/workspace/CLEAN/ChibiOS/os/rt/include/chschd.h"
 101              		.loc 3 602 0
 102              		.cfi_startproc
 103              		@ args = 0, pretend = 0, frame = 8
 104              		@ frame_needed = 0, uses_anonymous_args = 0
 105              		@ link register save eliminated.
 106 0000 82B0     		sub	sp, sp, #8
 107              		.cfi_def_cfa_offset 8
 108 0002 0190     		str	r0, [sp, #4]
 109              		.loc 3 604 0
 110 0004 019B     		ldr	r3, [sp, #4]
 111 0006 019A     		ldr	r2, [sp, #4]
 112 0008 1A60     		str	r2, [r3]
 113              		.loc 3 605 0
 114 000a 019B     		ldr	r3, [sp, #4]
ARM GAS  /tmp/ccuv292g.s 			page 3


 115 000c 019A     		ldr	r2, [sp, #4]
 116 000e 5A60     		str	r2, [r3, #4]
 117              		.loc 3 606 0
 118 0010 02B0     		add	sp, sp, #8
 119              		.cfi_def_cfa_offset 0
 120              		@ sp needed
 121 0012 7047     		bx	lr
 122              		.cfi_endproc
 123              	.LFE128:
 124              		.size	queue_init, .-queue_init
 125 0014 AFF30080 		.section	.text.queue_notempty,"ax",%progbits
 125      AFF30080 
 125      AFF30080 
 126              		.align	2
 127              		.p2align 4,,15
 128              		.thumb
 129              		.thumb_func
 130              		.type	queue_notempty, %function
 131              	queue_notempty:
 132              	.LFB130:
 133              		.loc 3 629 0
 134              		.cfi_startproc
 135              		@ args = 0, pretend = 0, frame = 8
 136              		@ frame_needed = 0, uses_anonymous_args = 0
 137              		@ link register save eliminated.
 138 0000 82B0     		sub	sp, sp, #8
 139              		.cfi_def_cfa_offset 8
 140 0002 0190     		str	r0, [sp, #4]
 141              		.loc 3 631 0
 142 0004 019B     		ldr	r3, [sp, #4]
 143 0006 1A68     		ldr	r2, [r3]
 144 0008 019B     		ldr	r3, [sp, #4]
 145 000a 9A42     		cmp	r2, r3
 146 000c 14BF     		ite	ne
 147 000e 0123     		movne	r3, #1
 148 0010 0023     		moveq	r3, #0
 149 0012 DBB2     		uxtb	r3, r3
 150              		.loc 3 632 0
 151 0014 1846     		mov	r0, r3
 152 0016 02B0     		add	sp, sp, #8
 153              		.cfi_def_cfa_offset 0
 154              		@ sp needed
 155 0018 7047     		bx	lr
 156              		.cfi_endproc
 157              	.LFE130:
 158              		.size	queue_notempty, .-queue_notempty
 159 001a 00BFAFF3 		.section	.text.queue_prio_insert,"ax",%progbits
 159      0080
 160              		.align	2
 161              		.p2align 4,,15
 162              		.thumb
 163              		.thumb_func
 164              		.type	queue_prio_insert, %function
 165              	queue_prio_insert:
 166              	.LFB133:
 167              		.loc 3 651 0
 168              		.cfi_startproc
ARM GAS  /tmp/ccuv292g.s 			page 4


 169              		@ args = 0, pretend = 0, frame = 16
 170              		@ frame_needed = 0, uses_anonymous_args = 0
 171              		@ link register save eliminated.
 172 0000 84B0     		sub	sp, sp, #16
 173              		.cfi_def_cfa_offset 16
 174 0002 0190     		str	r0, [sp, #4]
 175 0004 0091     		str	r1, [sp]
 176              		.loc 3 653 0
 177 0006 009B     		ldr	r3, [sp]
 178 0008 0393     		str	r3, [sp, #12]
 179              	.L8:
 180              		.loc 3 655 0 discriminator 2
 181 000a 039B     		ldr	r3, [sp, #12]
 182 000c 1B68     		ldr	r3, [r3]
 183 000e 0393     		str	r3, [sp, #12]
 184              		.loc 3 656 0 discriminator 2
 185 0010 039A     		ldr	r2, [sp, #12]
 186 0012 009B     		ldr	r3, [sp]
 187 0014 9A42     		cmp	r2, r3
 188 0016 05D0     		beq	.L7
 189              		.loc 3 656 0 is_stmt 0 discriminator 1
 190 0018 039B     		ldr	r3, [sp, #12]
 191 001a 9A68     		ldr	r2, [r3, #8]
 192 001c 019B     		ldr	r3, [sp, #4]
 193 001e 9B68     		ldr	r3, [r3, #8]
 194 0020 9A42     		cmp	r2, r3
 195 0022 F2D2     		bcs	.L8
 196              	.L7:
 197              		.loc 3 657 0 is_stmt 1
 198 0024 019B     		ldr	r3, [sp, #4]
 199 0026 039A     		ldr	r2, [sp, #12]
 200 0028 1A60     		str	r2, [r3]
 201              		.loc 3 658 0
 202 002a 039B     		ldr	r3, [sp, #12]
 203 002c 5A68     		ldr	r2, [r3, #4]
 204 002e 019B     		ldr	r3, [sp, #4]
 205 0030 5A60     		str	r2, [r3, #4]
 206              		.loc 3 659 0
 207 0032 019B     		ldr	r3, [sp, #4]
 208 0034 5B68     		ldr	r3, [r3, #4]
 209 0036 019A     		ldr	r2, [sp, #4]
 210 0038 1A60     		str	r2, [r3]
 211              		.loc 3 660 0
 212 003a 039B     		ldr	r3, [sp, #12]
 213 003c 019A     		ldr	r2, [sp, #4]
 214 003e 5A60     		str	r2, [r3, #4]
 215              		.loc 3 661 0
 216 0040 04B0     		add	sp, sp, #16
 217              		.cfi_def_cfa_offset 0
 218              		@ sp needed
 219 0042 7047     		bx	lr
 220              		.cfi_endproc
 221              	.LFE133:
 222              		.size	queue_prio_insert, .-queue_prio_insert
 223 0044 AFF30080 		.section	.text.queue_fifo_remove,"ax",%progbits
 223      AFF30080 
 223      AFF30080 
ARM GAS  /tmp/ccuv292g.s 			page 5


 224              		.align	2
 225              		.p2align 4,,15
 226              		.thumb
 227              		.thumb_func
 228              		.type	queue_fifo_remove, %function
 229              	queue_fifo_remove:
 230              	.LFB135:
 231              		.loc 3 671 0
 232              		.cfi_startproc
 233              		@ args = 0, pretend = 0, frame = 16
 234              		@ frame_needed = 0, uses_anonymous_args = 0
 235              		@ link register save eliminated.
 236 0000 84B0     		sub	sp, sp, #16
 237              		.cfi_def_cfa_offset 16
 238 0002 0190     		str	r0, [sp, #4]
 239              		.loc 3 672 0
 240 0004 019B     		ldr	r3, [sp, #4]
 241 0006 1B68     		ldr	r3, [r3]
 242 0008 0393     		str	r3, [sp, #12]
 243              		.loc 3 674 0
 244 000a 039B     		ldr	r3, [sp, #12]
 245 000c 1A68     		ldr	r2, [r3]
 246 000e 019B     		ldr	r3, [sp, #4]
 247 0010 1A60     		str	r2, [r3]
 248              		.loc 3 675 0
 249 0012 019B     		ldr	r3, [sp, #4]
 250 0014 1B68     		ldr	r3, [r3]
 251 0016 019A     		ldr	r2, [sp, #4]
 252 0018 5A60     		str	r2, [r3, #4]
 253              		.loc 3 677 0
 254 001a 039B     		ldr	r3, [sp, #12]
 255              		.loc 3 678 0
 256 001c 1846     		mov	r0, r3
 257 001e 04B0     		add	sp, sp, #16
 258              		.cfi_def_cfa_offset 0
 259              		@ sp needed
 260 0020 7047     		bx	lr
 261              		.cfi_endproc
 262              	.LFE135:
 263              		.size	queue_fifo_remove, .-queue_fifo_remove
 264 0022 00BFAFF3 		.section	.text.queue_dequeue,"ax",%progbits
 264      0080AFF3 
 264      0080AFF3 
 264      0080
 265              		.align	2
 266              		.p2align 4,,15
 267              		.thumb
 268              		.thumb_func
 269              		.type	queue_dequeue, %function
 270              	queue_dequeue:
 271              	.LFB137:
 272              		.loc 3 689 0
 273              		.cfi_startproc
 274              		@ args = 0, pretend = 0, frame = 8
 275              		@ frame_needed = 0, uses_anonymous_args = 0
 276              		@ link register save eliminated.
 277 0000 82B0     		sub	sp, sp, #8
ARM GAS  /tmp/ccuv292g.s 			page 6


 278              		.cfi_def_cfa_offset 8
 279 0002 0190     		str	r0, [sp, #4]
 280              		.loc 3 691 0
 281 0004 019B     		ldr	r3, [sp, #4]
 282 0006 5B68     		ldr	r3, [r3, #4]
 283 0008 019A     		ldr	r2, [sp, #4]
 284 000a 1268     		ldr	r2, [r2]
 285 000c 1A60     		str	r2, [r3]
 286              		.loc 3 692 0
 287 000e 019B     		ldr	r3, [sp, #4]
 288 0010 1B68     		ldr	r3, [r3]
 289 0012 019A     		ldr	r2, [sp, #4]
 290 0014 5268     		ldr	r2, [r2, #4]
 291 0016 5A60     		str	r2, [r3, #4]
 292              		.loc 3 694 0
 293 0018 019B     		ldr	r3, [sp, #4]
 294              		.loc 3 695 0
 295 001a 1846     		mov	r0, r3
 296 001c 02B0     		add	sp, sp, #8
 297              		.cfi_def_cfa_offset 0
 298              		@ sp needed
 299 001e 7047     		bx	lr
 300              		.cfi_endproc
 301              	.LFE137:
 302              		.size	queue_dequeue, .-queue_dequeue
 303              		.section	.text.chSysLock,"ax",%progbits
 304              		.align	2
 305              		.p2align 4,,15
 306              		.thumb
 307              		.thumb_func
 308              		.type	chSysLock, %function
 309              	chSysLock:
 310              	.LFB145:
 311              		.file 4 "/home/makkmarci/workspace/CLEAN/ChibiOS/os/rt/include/chsys.h"
 312              		.loc 4 346 0
 313              		.cfi_startproc
 314              		@ args = 0, pretend = 0, frame = 0
 315              		@ frame_needed = 0, uses_anonymous_args = 0
 316 0000 08B5     		push	{r3, lr}
 317              		.cfi_def_cfa_offset 8
 318              		.cfi_offset 3, -8
 319              		.cfi_offset 14, -4
 320              		.loc 4 348 0
 321 0002 FFF7FEFF 		bl	port_lock
 322              		.loc 4 351 0
 323 0006 08BD     		pop	{r3, pc}
 324              		.cfi_endproc
 325              	.LFE145:
 326              		.size	chSysLock, .-chSysLock
 327              		.section	.text.chSysUnlock,"ax",%progbits
 328              		.align	2
 329              		.p2align 4,,15
 330              		.thumb
 331              		.thumb_func
 332              		.type	chSysUnlock, %function
 333              	chSysUnlock:
 334              	.LFB146:
ARM GAS  /tmp/ccuv292g.s 			page 7


 335              		.loc 4 358 0
 336              		.cfi_startproc
 337              		@ args = 0, pretend = 0, frame = 0
 338              		@ frame_needed = 0, uses_anonymous_args = 0
 339 0000 08B5     		push	{r3, lr}
 340              		.cfi_def_cfa_offset 8
 341              		.cfi_offset 3, -8
 342              		.cfi_offset 14, -4
 343              		.loc 4 371 0
 344 0002 FFF7FEFF 		bl	port_unlock
 345              		.loc 4 372 0
 346 0006 08BD     		pop	{r3, pc}
 347              		.cfi_endproc
 348              	.LFE146:
 349              		.size	chSysUnlock, .-chSysUnlock
 350 0008 AFF30080 		.section	.text.chMtxQueueNotEmptyS,"ax",%progbits
 350      AFF30080 
 351              		.align	2
 352              		.p2align 4,,15
 353              		.thumb
 354              		.thumb_func
 355              		.type	chMtxQueueNotEmptyS, %function
 356              	chMtxQueueNotEmptyS:
 357              	.LFB189:
 358              		.file 5 "/home/makkmarci/workspace/CLEAN/ChibiOS/os/rt/include/chmtx.h"
 359              		.loc 5 129 0
 360              		.cfi_startproc
 361              		@ args = 0, pretend = 0, frame = 8
 362              		@ frame_needed = 0, uses_anonymous_args = 0
 363 0000 00B5     		push	{lr}
 364              		.cfi_def_cfa_offset 4
 365              		.cfi_offset 14, -4
 366 0002 83B0     		sub	sp, sp, #12
 367              		.cfi_def_cfa_offset 16
 368 0004 0190     		str	r0, [sp, #4]
 369              		.loc 5 133 0
 370 0006 019B     		ldr	r3, [sp, #4]
 371 0008 1846     		mov	r0, r3
 372 000a FFF7FEFF 		bl	queue_notempty
 373 000e 0346     		mov	r3, r0
 374              		.loc 5 134 0
 375 0010 1846     		mov	r0, r3
 376 0012 03B0     		add	sp, sp, #12
 377              		.cfi_def_cfa_offset 4
 378              		@ sp needed
 379 0014 5DF804FB 		ldr	pc, [sp], #4
 380              		.cfi_endproc
 381              	.LFE189:
 382              		.size	chMtxQueueNotEmptyS, .-chMtxQueueNotEmptyS
 383 0018 AFF30080 		.section	.text.chMtxObjectInit,"ax",%progbits
 383      AFF30080 
 384              		.align	2
 385              		.p2align 4,,15
 386              		.global	chMtxObjectInit
 387              		.thumb
 388              		.thumb_func
 389              		.type	chMtxObjectInit, %function
ARM GAS  /tmp/ccuv292g.s 			page 8


 390              	chMtxObjectInit:
 391              	.LFB216:
 392              		.file 6 "/home/makkmarci/workspace/CLEAN/ChibiOS/os/rt/src/chmtx.c"
 393              		.loc 6 103 0
 394              		.cfi_startproc
 395              		@ args = 0, pretend = 0, frame = 8
 396              		@ frame_needed = 0, uses_anonymous_args = 0
 397 0000 00B5     		push	{lr}
 398              		.cfi_def_cfa_offset 4
 399              		.cfi_offset 14, -4
 400 0002 83B0     		sub	sp, sp, #12
 401              		.cfi_def_cfa_offset 16
 402 0004 0190     		str	r0, [sp, #4]
 403              		.loc 6 107 0
 404 0006 019B     		ldr	r3, [sp, #4]
 405 0008 1846     		mov	r0, r3
 406 000a FFF7FEFF 		bl	queue_init
 407              		.loc 6 108 0
 408 000e 019B     		ldr	r3, [sp, #4]
 409 0010 0022     		movs	r2, #0
 410 0012 9A60     		str	r2, [r3, #8]
 411              		.loc 6 112 0
 412 0014 03B0     		add	sp, sp, #12
 413              		.cfi_def_cfa_offset 4
 414              		@ sp needed
 415 0016 5DF804FB 		ldr	pc, [sp], #4
 416              		.cfi_endproc
 417              	.LFE216:
 418              		.size	chMtxObjectInit, .-chMtxObjectInit
 419 001a 00BFAFF3 		.section	.text.chMtxLock,"ax",%progbits
 419      0080
 420              		.align	2
 421              		.p2align 4,,15
 422              		.global	chMtxLock
 423              		.thumb
 424              		.thumb_func
 425              		.type	chMtxLock, %function
 426              	chMtxLock:
 427              	.LFB217:
 428              		.loc 6 123 0
 429              		.cfi_startproc
 430              		@ args = 0, pretend = 0, frame = 8
 431              		@ frame_needed = 0, uses_anonymous_args = 0
 432 0000 00B5     		push	{lr}
 433              		.cfi_def_cfa_offset 4
 434              		.cfi_offset 14, -4
 435 0002 83B0     		sub	sp, sp, #12
 436              		.cfi_def_cfa_offset 16
 437 0004 0190     		str	r0, [sp, #4]
 438              		.loc 6 125 0
 439 0006 FFF7FEFF 		bl	chSysLock
 440              		.loc 6 126 0
 441 000a 0198     		ldr	r0, [sp, #4]
 442 000c FFF7FEFF 		bl	chMtxLockS
 443              		.loc 6 127 0
 444 0010 FFF7FEFF 		bl	chSysUnlock
 445              		.loc 6 128 0
ARM GAS  /tmp/ccuv292g.s 			page 9


 446 0014 03B0     		add	sp, sp, #12
 447              		.cfi_def_cfa_offset 4
 448              		@ sp needed
 449 0016 5DF804FB 		ldr	pc, [sp], #4
 450              		.cfi_endproc
 451              	.LFE217:
 452              		.size	chMtxLock, .-chMtxLock
 453 001a 00BFAFF3 		.section	.text.chMtxLockS,"ax",%progbits
 453      0080
 454              		.align	2
 455              		.p2align 4,,15
 456              		.global	chMtxLockS
 457              		.thumb
 458              		.thumb_func
 459              		.type	chMtxLockS, %function
 460              	chMtxLockS:
 461              	.LFB218:
 462              		.loc 6 139 0
 463              		.cfi_startproc
 464              		@ args = 0, pretend = 0, frame = 16
 465              		@ frame_needed = 0, uses_anonymous_args = 0
 466 0000 00B5     		push	{lr}
 467              		.cfi_def_cfa_offset 4
 468              		.cfi_offset 14, -4
 469 0002 85B0     		sub	sp, sp, #20
 470              		.cfi_def_cfa_offset 24
 471 0004 0190     		str	r0, [sp, #4]
 472              		.loc 6 140 0
 473 0006 2D4B     		ldr	r3, .L30
 474 0008 9B69     		ldr	r3, [r3, #24]
 475 000a 0293     		str	r3, [sp, #8]
 476              		.loc 6 146 0
 477 000c 019B     		ldr	r3, [sp, #4]
 478 000e 9B68     		ldr	r3, [r3, #8]
 479 0010 002B     		cmp	r3, #0
 480 0012 45D0     		beq	.L20
 481              	.LBB10:
 482              		.loc 6 161 0
 483 0014 019B     		ldr	r3, [sp, #4]
 484 0016 9B68     		ldr	r3, [r3, #8]
 485 0018 0393     		str	r3, [sp, #12]
 486              		.loc 6 165 0
 487 001a 2FE0     		b	.L21
 488              	.L28:
 489              		.loc 6 167 0
 490 001c 029B     		ldr	r3, [sp, #8]
 491 001e 9A68     		ldr	r2, [r3, #8]
 492 0020 039B     		ldr	r3, [sp, #12]
 493 0022 9A60     		str	r2, [r3, #8]
 494              		.loc 6 170 0
 495 0024 039B     		ldr	r3, [sp, #12]
 496 0026 1B7F     		ldrb	r3, [r3, #28]	@ zero_extendqisi2
 497 0028 062B     		cmp	r3, #6
 498 002a 04D0     		beq	.L23
 499 002c 072B     		cmp	r3, #7
 500 002e 11D0     		beq	.L24
 501 0030 002B     		cmp	r3, #0
ARM GAS  /tmp/ccuv292g.s 			page 10


 502 0032 1AD0     		beq	.L25
 503              		.loc 6 206 0
 504 0034 21E0     		b	.L26
 505              	.L23:
 506              		.loc 6 173 0
 507 0036 0398     		ldr	r0, [sp, #12]
 508 0038 FFF7FEFF 		bl	queue_dequeue
 509 003c 0246     		mov	r2, r0
 510 003e 039B     		ldr	r3, [sp, #12]
 511 0040 1B6A     		ldr	r3, [r3, #32]
 512 0042 1046     		mov	r0, r2
 513 0044 1946     		mov	r1, r3
 514 0046 FFF7FEFF 		bl	queue_prio_insert
 515              		.loc 6 174 0
 516 004a 039B     		ldr	r3, [sp, #12]
 517 004c 1B6A     		ldr	r3, [r3, #32]
 518 004e 9B68     		ldr	r3, [r3, #8]
 519 0050 0393     		str	r3, [sp, #12]
 520              		.loc 6 176 0
 521 0052 13E0     		b	.L21
 522              	.L24:
 523              		.loc 6 193 0
 524 0054 0398     		ldr	r0, [sp, #12]
 525 0056 FFF7FEFF 		bl	queue_dequeue
 526 005a 0246     		mov	r2, r0
 527 005c 039B     		ldr	r3, [sp, #12]
 528 005e 1B6A     		ldr	r3, [r3, #32]
 529 0060 1046     		mov	r0, r2
 530 0062 1946     		mov	r1, r3
 531 0064 FFF7FEFF 		bl	queue_prio_insert
 532              		.loc 6 194 0
 533 0068 07E0     		b	.L26
 534              	.L25:
 535              		.loc 6 202 0
 536 006a 0398     		ldr	r0, [sp, #12]
 537 006c FFF7FEFF 		bl	queue_dequeue
 538 0070 0346     		mov	r3, r0
 539 0072 1846     		mov	r0, r3
 540 0074 FFF7FEFF 		bl	chSchReadyI
 541              		.loc 6 203 0
 542 0078 00BF     		nop
 543              	.L26:
 544              		.loc 6 208 0 discriminator 1
 545 007a 05E0     		b	.L27
 546              	.L21:
 547              		.loc 6 165 0
 548 007c 039B     		ldr	r3, [sp, #12]
 549 007e 9A68     		ldr	r2, [r3, #8]
 550 0080 029B     		ldr	r3, [sp, #8]
 551 0082 9B68     		ldr	r3, [r3, #8]
 552 0084 9A42     		cmp	r2, r3
 553 0086 C9D3     		bcc	.L28
 554              	.L27:
 555              		.loc 6 212 0
 556 0088 019B     		ldr	r3, [sp, #4]
 557 008a 0298     		ldr	r0, [sp, #8]
 558 008c 1946     		mov	r1, r3
ARM GAS  /tmp/ccuv292g.s 			page 11


 559 008e FFF7FEFF 		bl	queue_prio_insert
 560              		.loc 6 213 0
 561 0092 029B     		ldr	r3, [sp, #8]
 562 0094 019A     		ldr	r2, [sp, #4]
 563 0096 1A62     		str	r2, [r3, #32]
 564              		.loc 6 214 0
 565 0098 0620     		movs	r0, #6
 566 009a FFF7FEFF 		bl	chSchGoSleepS
 567 009e 09E0     		b	.L19
 568              	.L20:
 569              	.LBE10:
 570              		.loc 6 232 0
 571 00a0 019B     		ldr	r3, [sp, #4]
 572 00a2 029A     		ldr	r2, [sp, #8]
 573 00a4 9A60     		str	r2, [r3, #8]
 574              		.loc 6 233 0
 575 00a6 029B     		ldr	r3, [sp, #8]
 576 00a8 9A6B     		ldr	r2, [r3, #56]
 577 00aa 019B     		ldr	r3, [sp, #4]
 578 00ac DA60     		str	r2, [r3, #12]
 579              		.loc 6 234 0
 580 00ae 029B     		ldr	r3, [sp, #8]
 581 00b0 019A     		ldr	r2, [sp, #4]
 582 00b2 9A63     		str	r2, [r3, #56]
 583              	.L19:
 584              		.loc 6 236 0
 585 00b4 05B0     		add	sp, sp, #20
 586              		.cfi_def_cfa_offset 4
 587              		@ sp needed
 588 00b6 5DF804FB 		ldr	pc, [sp], #4
 589              	.L31:
 590 00ba 00BF     		.align	2
 591              	.L30:
 592 00bc 00000000 		.word	ch
 593              		.cfi_endproc
 594              	.LFE218:
 595              		.size	chMtxLockS, .-chMtxLockS
 596              		.section	.text.chMtxTryLock,"ax",%progbits
 597              		.align	2
 598              		.p2align 4,,15
 599              		.global	chMtxTryLock
 600              		.thumb
 601              		.thumb_func
 602              		.type	chMtxTryLock, %function
 603              	chMtxTryLock:
 604              	.LFB219:
 605              		.loc 6 255 0
 606              		.cfi_startproc
 607              		@ args = 0, pretend = 0, frame = 16
 608              		@ frame_needed = 0, uses_anonymous_args = 0
 609 0000 00B5     		push	{lr}
 610              		.cfi_def_cfa_offset 4
 611              		.cfi_offset 14, -4
 612 0002 85B0     		sub	sp, sp, #20
 613              		.cfi_def_cfa_offset 24
 614 0004 0190     		str	r0, [sp, #4]
 615              		.loc 6 258 0
ARM GAS  /tmp/ccuv292g.s 			page 12


 616 0006 FFF7FEFF 		bl	chSysLock
 617              		.loc 6 259 0
 618 000a 0198     		ldr	r0, [sp, #4]
 619 000c FFF7FEFF 		bl	chMtxTryLockS
 620 0010 0346     		mov	r3, r0
 621 0012 8DF80F30 		strb	r3, [sp, #15]
 622              		.loc 6 260 0
 623 0016 FFF7FEFF 		bl	chSysUnlock
 624              		.loc 6 262 0
 625 001a 9DF80F30 		ldrb	r3, [sp, #15]	@ zero_extendqisi2
 626              		.loc 6 263 0
 627 001e 1846     		mov	r0, r3
 628 0020 05B0     		add	sp, sp, #20
 629              		.cfi_def_cfa_offset 4
 630              		@ sp needed
 631 0022 5DF804FB 		ldr	pc, [sp], #4
 632              		.cfi_endproc
 633              	.LFE219:
 634              		.size	chMtxTryLock, .-chMtxTryLock
 635 0026 00BFAFF3 		.section	.text.chMtxTryLockS,"ax",%progbits
 635      0080AFF3 
 635      0080
 636              		.align	2
 637              		.p2align 4,,15
 638              		.global	chMtxTryLockS
 639              		.thumb
 640              		.thumb_func
 641              		.type	chMtxTryLockS, %function
 642              	chMtxTryLockS:
 643              	.LFB220:
 644              		.loc 6 282 0
 645              		.cfi_startproc
 646              		@ args = 0, pretend = 0, frame = 8
 647              		@ frame_needed = 0, uses_anonymous_args = 0
 648              		@ link register save eliminated.
 649 0000 82B0     		sub	sp, sp, #8
 650              		.cfi_def_cfa_offset 8
 651 0002 0190     		str	r0, [sp, #4]
 652              		.loc 6 287 0
 653 0004 019B     		ldr	r3, [sp, #4]
 654 0006 9B68     		ldr	r3, [r3, #8]
 655 0008 002B     		cmp	r3, #0
 656 000a 01D0     		beq	.L35
 657              		.loc 6 297 0
 658 000c 0023     		movs	r3, #0
 659 000e 0DE0     		b	.L36
 660              	.L35:
 661              		.loc 6 305 0
 662 0010 084B     		ldr	r3, .L37
 663 0012 9A69     		ldr	r2, [r3, #24]
 664 0014 019B     		ldr	r3, [sp, #4]
 665 0016 9A60     		str	r2, [r3, #8]
 666              		.loc 6 306 0
 667 0018 064B     		ldr	r3, .L37
 668 001a 9B69     		ldr	r3, [r3, #24]
 669 001c 9A6B     		ldr	r2, [r3, #56]
 670 001e 019B     		ldr	r3, [sp, #4]
ARM GAS  /tmp/ccuv292g.s 			page 13


 671 0020 DA60     		str	r2, [r3, #12]
 672              		.loc 6 307 0
 673 0022 044B     		ldr	r3, .L37
 674 0024 9B69     		ldr	r3, [r3, #24]
 675 0026 019A     		ldr	r2, [sp, #4]
 676 0028 9A63     		str	r2, [r3, #56]
 677              		.loc 6 308 0
 678 002a 0123     		movs	r3, #1
 679              	.L36:
 680              		.loc 6 309 0
 681 002c 1846     		mov	r0, r3
 682 002e 02B0     		add	sp, sp, #8
 683              		.cfi_def_cfa_offset 0
 684              		@ sp needed
 685 0030 7047     		bx	lr
 686              	.L38:
 687 0032 00BF     		.align	2
 688              	.L37:
 689 0034 00000000 		.word	ch
 690              		.cfi_endproc
 691              	.LFE220:
 692              		.size	chMtxTryLockS, .-chMtxTryLockS
 693 0038 AFF30080 		.section	.text.chMtxUnlock,"ax",%progbits
 693      AFF30080 
 694              		.align	2
 695              		.p2align 4,,15
 696              		.global	chMtxUnlock
 697              		.thumb
 698              		.thumb_func
 699              		.type	chMtxUnlock, %function
 700              	chMtxUnlock:
 701              	.LFB221:
 702              		.loc 6 323 0
 703              		.cfi_startproc
 704              		@ args = 0, pretend = 0, frame = 24
 705              		@ frame_needed = 0, uses_anonymous_args = 0
 706 0000 00B5     		push	{lr}
 707              		.cfi_def_cfa_offset 4
 708              		.cfi_offset 14, -4
 709 0002 87B0     		sub	sp, sp, #28
 710              		.cfi_def_cfa_offset 32
 711 0004 0190     		str	r0, [sp, #4]
 712              		.loc 6 324 0
 713 0006 254B     		ldr	r3, .L45
 714 0008 9B69     		ldr	r3, [r3, #24]
 715 000a 0393     		str	r3, [sp, #12]
 716              		.loc 6 329 0
 717 000c FFF7FEFF 		bl	chSysLock
 718              		.loc 6 344 0
 719 0010 019B     		ldr	r3, [sp, #4]
 720 0012 DA68     		ldr	r2, [r3, #12]
 721 0014 039B     		ldr	r3, [sp, #12]
 722 0016 9A63     		str	r2, [r3, #56]
 723              		.loc 6 347 0
 724 0018 0198     		ldr	r0, [sp, #4]
 725 001a FFF7FEFF 		bl	chMtxQueueNotEmptyS
 726 001e 0346     		mov	r3, r0
ARM GAS  /tmp/ccuv292g.s 			page 14


 727 0020 002B     		cmp	r3, #0
 728 0022 33D0     		beq	.L40
 729              	.LBB11:
 730              		.loc 6 352 0
 731 0024 039B     		ldr	r3, [sp, #12]
 732 0026 DB6B     		ldr	r3, [r3, #60]
 733 0028 0493     		str	r3, [sp, #16]
 734              		.loc 6 353 0
 735 002a 039B     		ldr	r3, [sp, #12]
 736 002c 9B6B     		ldr	r3, [r3, #56]
 737 002e 0593     		str	r3, [sp, #20]
 738              		.loc 6 354 0
 739 0030 12E0     		b	.L41
 740              	.L43:
 741              		.loc 6 358 0
 742 0032 0598     		ldr	r0, [sp, #20]
 743 0034 FFF7FEFF 		bl	chMtxQueueNotEmptyS
 744 0038 0346     		mov	r3, r0
 745 003a 002B     		cmp	r3, #0
 746 003c 09D0     		beq	.L42
 747              		.loc 6 359 0 discriminator 1
 748 003e 059B     		ldr	r3, [sp, #20]
 749 0040 1B68     		ldr	r3, [r3]
 750 0042 9A68     		ldr	r2, [r3, #8]
 751              		.loc 6 358 0 discriminator 1
 752 0044 049B     		ldr	r3, [sp, #16]
 753 0046 9A42     		cmp	r2, r3
 754 0048 03D9     		bls	.L42
 755              		.loc 6 360 0
 756 004a 059B     		ldr	r3, [sp, #20]
 757 004c 1B68     		ldr	r3, [r3]
 758 004e 9B68     		ldr	r3, [r3, #8]
 759 0050 0493     		str	r3, [sp, #16]
 760              	.L42:
 761              		.loc 6 362 0
 762 0052 059B     		ldr	r3, [sp, #20]
 763 0054 DB68     		ldr	r3, [r3, #12]
 764 0056 0593     		str	r3, [sp, #20]
 765              	.L41:
 766              		.loc 6 354 0
 767 0058 059B     		ldr	r3, [sp, #20]
 768 005a 002B     		cmp	r3, #0
 769 005c E9D1     		bne	.L43
 770              		.loc 6 367 0
 771 005e 039B     		ldr	r3, [sp, #12]
 772 0060 049A     		ldr	r2, [sp, #16]
 773 0062 9A60     		str	r2, [r3, #8]
 774              		.loc 6 374 0
 775 0064 019B     		ldr	r3, [sp, #4]
 776 0066 1846     		mov	r0, r3
 777 0068 FFF7FEFF 		bl	queue_fifo_remove
 778 006c 0290     		str	r0, [sp, #8]
 779              		.loc 6 375 0
 780 006e 019B     		ldr	r3, [sp, #4]
 781 0070 029A     		ldr	r2, [sp, #8]
 782 0072 9A60     		str	r2, [r3, #8]
 783              		.loc 6 376 0
ARM GAS  /tmp/ccuv292g.s 			page 15


 784 0074 029B     		ldr	r3, [sp, #8]
 785 0076 9A6B     		ldr	r2, [r3, #56]
 786 0078 019B     		ldr	r3, [sp, #4]
 787 007a DA60     		str	r2, [r3, #12]
 788              		.loc 6 377 0
 789 007c 029B     		ldr	r3, [sp, #8]
 790 007e 019A     		ldr	r2, [sp, #4]
 791 0080 9A63     		str	r2, [r3, #56]
 792              		.loc 6 378 0
 793 0082 0298     		ldr	r0, [sp, #8]
 794 0084 0021     		movs	r1, #0
 795 0086 FFF7FEFF 		bl	chSchWakeupS
 796              	.LBE11:
 797 008a 02E0     		b	.L44
 798              	.L40:
 799              		.loc 6 381 0
 800 008c 019B     		ldr	r3, [sp, #4]
 801 008e 0022     		movs	r2, #0
 802 0090 9A60     		str	r2, [r3, #8]
 803              	.L44:
 804              		.loc 6 387 0
 805 0092 FFF7FEFF 		bl	chSysUnlock
 806              		.loc 6 388 0
 807 0096 07B0     		add	sp, sp, #28
 808              		.cfi_def_cfa_offset 4
 809              		@ sp needed
 810 0098 5DF804FB 		ldr	pc, [sp], #4
 811              	.L46:
 812              		.align	2
 813              	.L45:
 814 009c 00000000 		.word	ch
 815              		.cfi_endproc
 816              	.LFE221:
 817              		.size	chMtxUnlock, .-chMtxUnlock
 818              		.section	.text.chMtxUnlockS,"ax",%progbits
 819              		.align	2
 820              		.p2align 4,,15
 821              		.global	chMtxUnlockS
 822              		.thumb
 823              		.thumb_func
 824              		.type	chMtxUnlockS, %function
 825              	chMtxUnlockS:
 826              	.LFB222:
 827              		.loc 6 404 0
 828              		.cfi_startproc
 829              		@ args = 0, pretend = 0, frame = 24
 830              		@ frame_needed = 0, uses_anonymous_args = 0
 831 0000 00B5     		push	{lr}
 832              		.cfi_def_cfa_offset 4
 833              		.cfi_offset 14, -4
 834 0002 87B0     		sub	sp, sp, #28
 835              		.cfi_def_cfa_offset 32
 836 0004 0190     		str	r0, [sp, #4]
 837              		.loc 6 405 0
 838 0006 234B     		ldr	r3, .L53
 839 0008 9B69     		ldr	r3, [r3, #24]
 840 000a 0393     		str	r3, [sp, #12]
ARM GAS  /tmp/ccuv292g.s 			page 16


 841              		.loc 6 424 0
 842 000c 019B     		ldr	r3, [sp, #4]
 843 000e DA68     		ldr	r2, [r3, #12]
 844 0010 039B     		ldr	r3, [sp, #12]
 845 0012 9A63     		str	r2, [r3, #56]
 846              		.loc 6 427 0
 847 0014 0198     		ldr	r0, [sp, #4]
 848 0016 FFF7FEFF 		bl	chMtxQueueNotEmptyS
 849 001a 0346     		mov	r3, r0
 850 001c 002B     		cmp	r3, #0
 851 001e 32D0     		beq	.L48
 852              	.LBB12:
 853              		.loc 6 432 0
 854 0020 039B     		ldr	r3, [sp, #12]
 855 0022 DB6B     		ldr	r3, [r3, #60]
 856 0024 0493     		str	r3, [sp, #16]
 857              		.loc 6 433 0
 858 0026 039B     		ldr	r3, [sp, #12]
 859 0028 9B6B     		ldr	r3, [r3, #56]
 860 002a 0593     		str	r3, [sp, #20]
 861              		.loc 6 434 0
 862 002c 12E0     		b	.L49
 863              	.L51:
 864              		.loc 6 438 0
 865 002e 0598     		ldr	r0, [sp, #20]
 866 0030 FFF7FEFF 		bl	chMtxQueueNotEmptyS
 867 0034 0346     		mov	r3, r0
 868 0036 002B     		cmp	r3, #0
 869 0038 09D0     		beq	.L50
 870              		.loc 6 439 0 discriminator 1
 871 003a 059B     		ldr	r3, [sp, #20]
 872 003c 1B68     		ldr	r3, [r3]
 873 003e 9A68     		ldr	r2, [r3, #8]
 874              		.loc 6 438 0 discriminator 1
 875 0040 049B     		ldr	r3, [sp, #16]
 876 0042 9A42     		cmp	r2, r3
 877 0044 03D9     		bls	.L50
 878              		.loc 6 440 0
 879 0046 059B     		ldr	r3, [sp, #20]
 880 0048 1B68     		ldr	r3, [r3]
 881 004a 9B68     		ldr	r3, [r3, #8]
 882 004c 0493     		str	r3, [sp, #16]
 883              	.L50:
 884              		.loc 6 442 0
 885 004e 059B     		ldr	r3, [sp, #20]
 886 0050 DB68     		ldr	r3, [r3, #12]
 887 0052 0593     		str	r3, [sp, #20]
 888              	.L49:
 889              		.loc 6 434 0
 890 0054 059B     		ldr	r3, [sp, #20]
 891 0056 002B     		cmp	r3, #0
 892 0058 E9D1     		bne	.L51
 893              		.loc 6 447 0
 894 005a 039B     		ldr	r3, [sp, #12]
 895 005c 049A     		ldr	r2, [sp, #16]
 896 005e 9A60     		str	r2, [r3, #8]
 897              		.loc 6 454 0
ARM GAS  /tmp/ccuv292g.s 			page 17


 898 0060 019B     		ldr	r3, [sp, #4]
 899 0062 1846     		mov	r0, r3
 900 0064 FFF7FEFF 		bl	queue_fifo_remove
 901 0068 0290     		str	r0, [sp, #8]
 902              		.loc 6 455 0
 903 006a 019B     		ldr	r3, [sp, #4]
 904 006c 029A     		ldr	r2, [sp, #8]
 905 006e 9A60     		str	r2, [r3, #8]
 906              		.loc 6 456 0
 907 0070 029B     		ldr	r3, [sp, #8]
 908 0072 9A6B     		ldr	r2, [r3, #56]
 909 0074 019B     		ldr	r3, [sp, #4]
 910 0076 DA60     		str	r2, [r3, #12]
 911              		.loc 6 457 0
 912 0078 029B     		ldr	r3, [sp, #8]
 913 007a 019A     		ldr	r2, [sp, #4]
 914 007c 9A63     		str	r2, [r3, #56]
 915              		.loc 6 458 0
 916 007e 0298     		ldr	r0, [sp, #8]
 917 0080 FFF7FEFF 		bl	chSchReadyI
 918              	.LBE12:
 919 0084 02E0     		b	.L47
 920              	.L48:
 921              		.loc 6 461 0
 922 0086 019B     		ldr	r3, [sp, #4]
 923 0088 0022     		movs	r2, #0
 924 008a 9A60     		str	r2, [r3, #8]
 925              	.L47:
 926              		.loc 6 466 0
 927 008c 07B0     		add	sp, sp, #28
 928              		.cfi_def_cfa_offset 4
 929              		@ sp needed
 930 008e 5DF804FB 		ldr	pc, [sp], #4
 931              	.L54:
 932 0092 00BF     		.align	2
 933              	.L53:
 934 0094 00000000 		.word	ch
 935              		.cfi_endproc
 936              	.LFE222:
 937              		.size	chMtxUnlockS, .-chMtxUnlockS
 938 0098 AFF30080 		.section	.text.chMtxUnlockAll,"ax",%progbits
 938      AFF30080 
 939              		.align	2
 940              		.p2align 4,,15
 941              		.global	chMtxUnlockAll
 942              		.thumb
 943              		.thumb_func
 944              		.type	chMtxUnlockAll, %function
 945              	chMtxUnlockAll:
 946              	.LFB223:
 947              		.loc 6 479 0
 948              		.cfi_startproc
 949              		@ args = 0, pretend = 0, frame = 16
 950              		@ frame_needed = 0, uses_anonymous_args = 0
 951 0000 00B5     		push	{lr}
 952              		.cfi_def_cfa_offset 4
 953              		.cfi_offset 14, -4
ARM GAS  /tmp/ccuv292g.s 			page 18


 954 0002 85B0     		sub	sp, sp, #20
 955              		.cfi_def_cfa_offset 24
 956              		.loc 6 480 0
 957 0004 1D4B     		ldr	r3, .L60
 958 0006 9B69     		ldr	r3, [r3, #24]
 959 0008 0393     		str	r3, [sp, #12]
 960              		.loc 6 482 0
 961 000a FFF7FEFF 		bl	chSysLock
 962              		.loc 6 483 0
 963 000e 039B     		ldr	r3, [sp, #12]
 964 0010 9B6B     		ldr	r3, [r3, #56]
 965 0012 002B     		cmp	r3, #0
 966 0014 2CD0     		beq	.L56
 967              	.L59:
 968              	.LBB13:
 969              		.loc 6 485 0
 970 0016 039B     		ldr	r3, [sp, #12]
 971 0018 9B6B     		ldr	r3, [r3, #56]
 972 001a 0293     		str	r3, [sp, #8]
 973              		.loc 6 486 0
 974 001c 029B     		ldr	r3, [sp, #8]
 975 001e DA68     		ldr	r2, [r3, #12]
 976 0020 039B     		ldr	r3, [sp, #12]
 977 0022 9A63     		str	r2, [r3, #56]
 978              		.loc 6 487 0
 979 0024 0298     		ldr	r0, [sp, #8]
 980 0026 FFF7FEFF 		bl	chMtxQueueNotEmptyS
 981 002a 0346     		mov	r3, r0
 982 002c 002B     		cmp	r3, #0
 983 002e 12D0     		beq	.L57
 984              	.LBB14:
 985              		.loc 6 491 0
 986 0030 029B     		ldr	r3, [sp, #8]
 987 0032 1846     		mov	r0, r3
 988 0034 FFF7FEFF 		bl	queue_fifo_remove
 989 0038 0190     		str	r0, [sp, #4]
 990              		.loc 6 492 0
 991 003a 029B     		ldr	r3, [sp, #8]
 992 003c 019A     		ldr	r2, [sp, #4]
 993 003e 9A60     		str	r2, [r3, #8]
 994              		.loc 6 493 0
 995 0040 019B     		ldr	r3, [sp, #4]
 996 0042 9A6B     		ldr	r2, [r3, #56]
 997 0044 029B     		ldr	r3, [sp, #8]
 998 0046 DA60     		str	r2, [r3, #12]
 999              		.loc 6 494 0
 1000 0048 019B     		ldr	r3, [sp, #4]
 1001 004a 029A     		ldr	r2, [sp, #8]
 1002 004c 9A63     		str	r2, [r3, #56]
 1003              		.loc 6 495 0
 1004 004e 0198     		ldr	r0, [sp, #4]
 1005 0050 FFF7FEFF 		bl	chSchReadyI
 1006              	.LBE14:
 1007 0054 02E0     		b	.L58
 1008              	.L57:
 1009              		.loc 6 501 0
 1010 0056 029B     		ldr	r3, [sp, #8]
ARM GAS  /tmp/ccuv292g.s 			page 19


 1011 0058 0022     		movs	r2, #0
 1012 005a 9A60     		str	r2, [r3, #8]
 1013              	.L58:
 1014              	.LBE13:
 1015              		.loc 6 503 0
 1016 005c 039B     		ldr	r3, [sp, #12]
 1017 005e 9B6B     		ldr	r3, [r3, #56]
 1018 0060 002B     		cmp	r3, #0
 1019 0062 D8D1     		bne	.L59
 1020              		.loc 6 504 0
 1021 0064 039B     		ldr	r3, [sp, #12]
 1022 0066 DA6B     		ldr	r2, [r3, #60]
 1023 0068 039B     		ldr	r3, [sp, #12]
 1024 006a 9A60     		str	r2, [r3, #8]
 1025              		.loc 6 505 0
 1026 006c FFF7FEFF 		bl	chSchRescheduleS
 1027              	.L56:
 1028              		.loc 6 507 0
 1029 0070 FFF7FEFF 		bl	chSysUnlock
 1030              		.loc 6 508 0
 1031 0074 05B0     		add	sp, sp, #20
 1032              		.cfi_def_cfa_offset 4
 1033              		@ sp needed
 1034 0076 5DF804FB 		ldr	pc, [sp], #4
 1035              	.L61:
 1036 007a 00BF     		.align	2
 1037              	.L60:
 1038 007c 00000000 		.word	ch
 1039              		.cfi_endproc
 1040              	.LFE223:
 1041              		.size	chMtxUnlockAll, .-chMtxUnlockAll
 1042              		.text
 1043              	.Letext0:
 1044              		.file 7 "/opt/gcc-arm-none-eabi/arm-none-eabi/include/machine/_default_types.h"
 1045              		.file 8 "/opt/gcc-arm-none-eabi/arm-none-eabi/include/stdint.h"
 1046              		.file 9 "/home/makkmarci/workspace/CLEAN/ChibiOS/os/rt/ports/ARMCMx/compilers/GCC/chtypes.h"
 1047              		.file 10 "/home/makkmarci/workspace/CLEAN/ChibiOS/os/rt/include/chsystypes.h"
 1048              		.file 11 "/home/makkmarci/workspace/CLEAN/ChibiOS/os/rt/ports/ARMCMx/chcore.h"
 1049              		.file 12 "/home/makkmarci/workspace/CLEAN/ChibiOS/os/rt/include/chtm.h"
 1050              		.file 13 "/home/makkmarci/workspace/CLEAN/ChibiOS/os/rt/include/chsem.h"
 1051              		.file 14 "/home/makkmarci/workspace/CLEAN/ChibiOS/os/ext/CMSIS/include/core_cm4.h"