ARM GAS  /tmp/ccwFI35l.s 			page 1


   1              		.syntax unified
   2              		.cpu cortex-m4
   3              		.eabi_attribute 27, 1
   4              		.eabi_attribute 28, 1
   5              		.fpu fpv4-sp-d16
   6              		.eabi_attribute 20, 1
   7              		.eabi_attribute 21, 1
   8              		.eabi_attribute 23, 3
   9              		.eabi_attribute 24, 1
  10              		.eabi_attribute 25, 1
  11              		.eabi_attribute 26, 1
  12              		.eabi_attribute 30, 6
  13              		.eabi_attribute 34, 1
  14              		.eabi_attribute 18, 4
  15              		.thumb
  16              		.file	"chqueues.c"
  17              		.text
  18              	.Ltext0:
  19              		.cfi_sections	.debug_frame
  20              		.section	.text.port_lock,"ax",%progbits
  21              		.align	2
  22              		.p2align 4,,15
  23              		.thumb
  24              		.thumb_func
  25              		.type	port_lock, %function
  26              	port_lock:
  27              	.LFB116:
  28              		.file 1 "/home/makkmarci/workspace/CLEAN/ChibiOS/os/rt/ports/ARMCMx/chcore_v7m.h"
  29              		.loc 1 444 0
  30              		.cfi_startproc
  31              		@ args = 0, pretend = 0, frame = 8
  32              		@ frame_needed = 0, uses_anonymous_args = 0
  33              		@ link register save eliminated.
  34 0000 82B0     		sub	sp, sp, #8
  35              		.cfi_def_cfa_offset 8
  36 0002 2023     		movs	r3, #32
  37 0004 0193     		str	r3, [sp, #4]
  38              	.LBB6:
  39              	.LBB7:
  40              		.file 2 "/home/makkmarci/workspace/CLEAN/ChibiOS/os/ext/CMSIS/include/core_cmFunc.h"
  41              		.loc 2 546 0
  42 0006 019B     		ldr	r3, [sp, #4]
  43              	@ 546 "/home/makkmarci/workspace/CLEAN/ChibiOS/os/ext/CMSIS/include/core_cmFunc.h" 1
  44 0008 83F31188 		MSR basepri, r3
  45              	@ 0 "" 2
  46              		.thumb
  47              	.LBE7:
  48              	.LBE6:
  49              		.loc 1 451 0
  50 000c 02B0     		add	sp, sp, #8
  51              		.cfi_def_cfa_offset 0
  52              		@ sp needed
  53 000e 7047     		bx	lr
  54              		.cfi_endproc
  55              	.LFE116:
  56              		.size	port_lock, .-port_lock
  57              		.section	.text.port_unlock,"ax",%progbits
ARM GAS  /tmp/ccwFI35l.s 			page 2


  58              		.align	2
  59              		.p2align 4,,15
  60              		.thumb
  61              		.thumb_func
  62              		.type	port_unlock, %function
  63              	port_unlock:
  64              	.LFB117:
  65              		.loc 1 458 0
  66              		.cfi_startproc
  67              		@ args = 0, pretend = 0, frame = 8
  68              		@ frame_needed = 0, uses_anonymous_args = 0
  69              		@ link register save eliminated.
  70 0000 82B0     		sub	sp, sp, #8
  71              		.cfi_def_cfa_offset 8
  72 0002 0023     		movs	r3, #0
  73 0004 0193     		str	r3, [sp, #4]
  74              	.LBB8:
  75              	.LBB9:
  76              		.loc 2 546 0
  77 0006 019B     		ldr	r3, [sp, #4]
  78              	@ 546 "/home/makkmarci/workspace/CLEAN/ChibiOS/os/ext/CMSIS/include/core_cmFunc.h" 1
  79 0008 83F31188 		MSR basepri, r3
  80              	@ 0 "" 2
  81              		.thumb
  82              	.LBE9:
  83              	.LBE8:
  84              		.loc 1 465 0
  85 000c 02B0     		add	sp, sp, #8
  86              		.cfi_def_cfa_offset 0
  87              		@ sp needed
  88 000e 7047     		bx	lr
  89              		.cfi_endproc
  90              	.LFE117:
  91              		.size	port_unlock, .-port_unlock
  92              		.section	.text.queue_init,"ax",%progbits
  93              		.align	2
  94              		.p2align 4,,15
  95              		.thumb
  96              		.thumb_func
  97              		.type	queue_init, %function
  98              	queue_init:
  99              	.LFB128:
 100              		.file 3 "/home/makkmarci/workspace/CLEAN/ChibiOS/os/rt/include/chschd.h"
 101              		.loc 3 602 0
 102              		.cfi_startproc
 103              		@ args = 0, pretend = 0, frame = 8
 104              		@ frame_needed = 0, uses_anonymous_args = 0
 105              		@ link register save eliminated.
 106 0000 82B0     		sub	sp, sp, #8
 107              		.cfi_def_cfa_offset 8
 108 0002 0190     		str	r0, [sp, #4]
 109              		.loc 3 604 0
 110 0004 019B     		ldr	r3, [sp, #4]
 111 0006 019A     		ldr	r2, [sp, #4]
 112 0008 1A60     		str	r2, [r3]
 113              		.loc 3 605 0
 114 000a 019B     		ldr	r3, [sp, #4]
ARM GAS  /tmp/ccwFI35l.s 			page 3


 115 000c 019A     		ldr	r2, [sp, #4]
 116 000e 5A60     		str	r2, [r3, #4]
 117              		.loc 3 606 0
 118 0010 02B0     		add	sp, sp, #8
 119              		.cfi_def_cfa_offset 0
 120              		@ sp needed
 121 0012 7047     		bx	lr
 122              		.cfi_endproc
 123              	.LFE128:
 124              		.size	queue_init, .-queue_init
 125 0014 AFF30080 		.section	.text.chSysLock,"ax",%progbits
 125      AFF30080 
 125      AFF30080 
 126              		.align	2
 127              		.p2align 4,,15
 128              		.thumb
 129              		.thumb_func
 130              		.type	chSysLock, %function
 131              	chSysLock:
 132              	.LFB145:
 133              		.file 4 "/home/makkmarci/workspace/CLEAN/ChibiOS/os/rt/include/chsys.h"
 134              		.loc 4 346 0
 135              		.cfi_startproc
 136              		@ args = 0, pretend = 0, frame = 0
 137              		@ frame_needed = 0, uses_anonymous_args = 0
 138 0000 08B5     		push	{r3, lr}
 139              		.cfi_def_cfa_offset 8
 140              		.cfi_offset 3, -8
 141              		.cfi_offset 14, -4
 142              		.loc 4 348 0
 143 0002 FFF7FEFF 		bl	port_lock
 144              		.loc 4 351 0
 145 0006 08BD     		pop	{r3, pc}
 146              		.cfi_endproc
 147              	.LFE145:
 148              		.size	chSysLock, .-chSysLock
 149              		.section	.text.chSysUnlock,"ax",%progbits
 150              		.align	2
 151              		.p2align 4,,15
 152              		.thumb
 153              		.thumb_func
 154              		.type	chSysUnlock, %function
 155              	chSysUnlock:
 156              	.LFB146:
 157              		.loc 4 358 0
 158              		.cfi_startproc
 159              		@ args = 0, pretend = 0, frame = 0
 160              		@ frame_needed = 0, uses_anonymous_args = 0
 161 0000 08B5     		push	{r3, lr}
 162              		.cfi_def_cfa_offset 8
 163              		.cfi_offset 3, -8
 164              		.cfi_offset 14, -4
 165              		.loc 4 371 0
 166 0002 FFF7FEFF 		bl	port_unlock
 167              		.loc 4 372 0
 168 0006 08BD     		pop	{r3, pc}
 169              		.cfi_endproc
ARM GAS  /tmp/ccwFI35l.s 			page 4


 170              	.LFE146:
 171              		.size	chSysUnlock, .-chSysUnlock
 172 0008 AFF30080 		.section	.text.chThdQueueObjectInit,"ax",%progbits
 172      AFF30080 
 173              		.align	2
 174              		.p2align 4,,15
 175              		.thumb
 176              		.thumb_func
 177              		.type	chThdQueueObjectInit, %function
 178              	chThdQueueObjectInit:
 179              	.LFB172:
 180              		.file 5 "/home/makkmarci/workspace/CLEAN/ChibiOS/os/rt/include/chthreads.h"
 181              		.loc 5 278 0
 182              		.cfi_startproc
 183              		@ args = 0, pretend = 0, frame = 8
 184              		@ frame_needed = 0, uses_anonymous_args = 0
 185 0000 00B5     		push	{lr}
 186              		.cfi_def_cfa_offset 4
 187              		.cfi_offset 14, -4
 188 0002 83B0     		sub	sp, sp, #12
 189              		.cfi_def_cfa_offset 16
 190 0004 0190     		str	r0, [sp, #4]
 191              		.loc 5 280 0
 192 0006 0198     		ldr	r0, [sp, #4]
 193 0008 FFF7FEFF 		bl	queue_init
 194              		.loc 5 281 0
 195 000c 03B0     		add	sp, sp, #12
 196              		.cfi_def_cfa_offset 4
 197              		@ sp needed
 198 000e 5DF804FB 		ldr	pc, [sp], #4
 199              		.cfi_endproc
 200              	.LFE172:
 201              		.size	chThdQueueObjectInit, .-chThdQueueObjectInit
 202 0012 00BFAFF3 		.section	.text.chIQIsEmptyI,"ax",%progbits
 202      0080AFF3 
 202      0080AFF3 
 202      0080
 203              		.align	2
 204              		.p2align 4,,15
 205              		.thumb
 206              		.thumb_func
 207              		.type	chIQIsEmptyI, %function
 208              	chIQIsEmptyI:
 209              	.LFB208:
 210              		.file 6 "/home/makkmarci/workspace/CLEAN/ChibiOS/os/rt/include/chqueues.h"
 211              		.loc 6 303 0
 212              		.cfi_startproc
 213              		@ args = 0, pretend = 0, frame = 8
 214              		@ frame_needed = 0, uses_anonymous_args = 0
 215              		@ link register save eliminated.
 216 0000 82B0     		sub	sp, sp, #8
 217              		.cfi_def_cfa_offset 8
 218 0002 0190     		str	r0, [sp, #4]
 219              		.loc 6 307 0
 220 0004 019B     		ldr	r3, [sp, #4]
 221 0006 9B68     		ldr	r3, [r3, #8]
 222 0008 002B     		cmp	r3, #0
ARM GAS  /tmp/ccwFI35l.s 			page 5


 223 000a 0CBF     		ite	eq
 224 000c 0123     		moveq	r3, #1
 225 000e 0023     		movne	r3, #0
 226 0010 DBB2     		uxtb	r3, r3
 227              		.loc 6 308 0
 228 0012 1846     		mov	r0, r3
 229 0014 02B0     		add	sp, sp, #8
 230              		.cfi_def_cfa_offset 0
 231              		@ sp needed
 232 0016 7047     		bx	lr
 233              		.cfi_endproc
 234              	.LFE208:
 235              		.size	chIQIsEmptyI, .-chIQIsEmptyI
 236 0018 AFF30080 		.section	.text.chIQIsFullI,"ax",%progbits
 236      AFF30080 
 237              		.align	2
 238              		.p2align 4,,15
 239              		.thumb
 240              		.thumb_func
 241              		.type	chIQIsFullI, %function
 242              	chIQIsFullI:
 243              	.LFB209:
 244              		.loc 6 320 0
 245              		.cfi_startproc
 246              		@ args = 0, pretend = 0, frame = 8
 247              		@ frame_needed = 0, uses_anonymous_args = 0
 248              		@ link register save eliminated.
 249 0000 82B0     		sub	sp, sp, #8
 250              		.cfi_def_cfa_offset 8
 251 0002 0190     		str	r0, [sp, #4]
 252              		.loc 6 324 0
 253 0004 019B     		ldr	r3, [sp, #4]
 254 0006 5A69     		ldr	r2, [r3, #20]
 255 0008 019B     		ldr	r3, [sp, #4]
 256 000a 9B69     		ldr	r3, [r3, #24]
 257 000c 9A42     		cmp	r2, r3
 258 000e 05D1     		bne	.L10
 259              		.loc 6 324 0 is_stmt 0 discriminator 1
 260 0010 019B     		ldr	r3, [sp, #4]
 261 0012 9B68     		ldr	r3, [r3, #8]
 262 0014 002B     		cmp	r3, #0
 263 0016 01D0     		beq	.L10
 264              		.loc 6 324 0 discriminator 3
 265 0018 0123     		movs	r3, #1
 266 001a 00E0     		b	.L11
 267              	.L10:
 268              		.loc 6 324 0 discriminator 4
 269 001c 0023     		movs	r3, #0
 270              	.L11:
 271              		.loc 6 324 0 discriminator 6
 272 001e 03F00103 		and	r3, r3, #1
 273 0022 DBB2     		uxtb	r3, r3
 274              		.loc 6 325 0 is_stmt 1 discriminator 6
 275 0024 1846     		mov	r0, r3
 276 0026 02B0     		add	sp, sp, #8
 277              		.cfi_def_cfa_offset 0
 278              		@ sp needed
ARM GAS  /tmp/ccwFI35l.s 			page 6


 279 0028 7047     		bx	lr
 280              		.cfi_endproc
 281              	.LFE209:
 282              		.size	chIQIsFullI, .-chIQIsFullI
 283 002a 00BFAFF3 		.section	.text.chOQIsEmptyI,"ax",%progbits
 283      0080
 284              		.align	2
 285              		.p2align 4,,15
 286              		.thumb
 287              		.thumb_func
 288              		.type	chOQIsEmptyI, %function
 289              	chOQIsEmptyI:
 290              	.LFB213:
 291              		.loc 6 386 0
 292              		.cfi_startproc
 293              		@ args = 0, pretend = 0, frame = 8
 294              		@ frame_needed = 0, uses_anonymous_args = 0
 295              		@ link register save eliminated.
 296 0000 82B0     		sub	sp, sp, #8
 297              		.cfi_def_cfa_offset 8
 298 0002 0190     		str	r0, [sp, #4]
 299              		.loc 6 390 0
 300 0004 019B     		ldr	r3, [sp, #4]
 301 0006 5A69     		ldr	r2, [r3, #20]
 302 0008 019B     		ldr	r3, [sp, #4]
 303 000a 9B69     		ldr	r3, [r3, #24]
 304 000c 9A42     		cmp	r2, r3
 305 000e 05D1     		bne	.L14
 306              		.loc 6 390 0 is_stmt 0 discriminator 1
 307 0010 019B     		ldr	r3, [sp, #4]
 308 0012 9B68     		ldr	r3, [r3, #8]
 309 0014 002B     		cmp	r3, #0
 310 0016 01D0     		beq	.L14
 311              		.loc 6 390 0 discriminator 3
 312 0018 0123     		movs	r3, #1
 313 001a 00E0     		b	.L15
 314              	.L14:
 315              		.loc 6 390 0 discriminator 4
 316 001c 0023     		movs	r3, #0
 317              	.L15:
 318              		.loc 6 390 0 discriminator 6
 319 001e 03F00103 		and	r3, r3, #1
 320 0022 DBB2     		uxtb	r3, r3
 321              		.loc 6 391 0 is_stmt 1 discriminator 6
 322 0024 1846     		mov	r0, r3
 323 0026 02B0     		add	sp, sp, #8
 324              		.cfi_def_cfa_offset 0
 325              		@ sp needed
 326 0028 7047     		bx	lr
 327              		.cfi_endproc
 328              	.LFE213:
 329              		.size	chOQIsEmptyI, .-chOQIsEmptyI
 330 002a 00BFAFF3 		.section	.text.chOQIsFullI,"ax",%progbits
 330      0080
 331              		.align	2
 332              		.p2align 4,,15
 333              		.thumb
ARM GAS  /tmp/ccwFI35l.s 			page 7


 334              		.thumb_func
 335              		.type	chOQIsFullI, %function
 336              	chOQIsFullI:
 337              	.LFB214:
 338              		.loc 6 403 0
 339              		.cfi_startproc
 340              		@ args = 0, pretend = 0, frame = 8
 341              		@ frame_needed = 0, uses_anonymous_args = 0
 342              		@ link register save eliminated.
 343 0000 82B0     		sub	sp, sp, #8
 344              		.cfi_def_cfa_offset 8
 345 0002 0190     		str	r0, [sp, #4]
 346              		.loc 6 407 0
 347 0004 019B     		ldr	r3, [sp, #4]
 348 0006 9B68     		ldr	r3, [r3, #8]
 349 0008 002B     		cmp	r3, #0
 350 000a 0CBF     		ite	eq
 351 000c 0123     		moveq	r3, #1
 352 000e 0023     		movne	r3, #0
 353 0010 DBB2     		uxtb	r3, r3
 354              		.loc 6 408 0
 355 0012 1846     		mov	r0, r3
 356 0014 02B0     		add	sp, sp, #8
 357              		.cfi_def_cfa_offset 0
 358              		@ sp needed
 359 0016 7047     		bx	lr
 360              		.cfi_endproc
 361              	.LFE214:
 362              		.size	chOQIsFullI, .-chOQIsFullI
 363 0018 AFF30080 		.section	.text.chIQObjectInit,"ax",%progbits
 363      AFF30080 
 364              		.align	2
 365              		.p2align 4,,15
 366              		.global	chIQObjectInit
 367              		.thumb
 368              		.thumb_func
 369              		.type	chIQObjectInit, %function
 370              	chIQObjectInit:
 371              	.LFB216:
 372              		.file 7 "/home/makkmarci/workspace/CLEAN/ChibiOS/os/rt/src/chqueues.c"
 373              		.loc 7 88 0
 374              		.cfi_startproc
 375              		@ args = 4, pretend = 0, frame = 16
 376              		@ frame_needed = 0, uses_anonymous_args = 0
 377 0000 00B5     		push	{lr}
 378              		.cfi_def_cfa_offset 4
 379              		.cfi_offset 14, -4
 380 0002 85B0     		sub	sp, sp, #20
 381              		.cfi_def_cfa_offset 24
 382 0004 0390     		str	r0, [sp, #12]
 383 0006 0291     		str	r1, [sp, #8]
 384 0008 0192     		str	r2, [sp, #4]
 385 000a 0093     		str	r3, [sp]
 386              		.loc 7 90 0
 387 000c 039B     		ldr	r3, [sp, #12]
 388 000e 1846     		mov	r0, r3
 389 0010 FFF7FEFF 		bl	chThdQueueObjectInit
ARM GAS  /tmp/ccwFI35l.s 			page 8


 390              		.loc 7 91 0
 391 0014 039B     		ldr	r3, [sp, #12]
 392 0016 0022     		movs	r2, #0
 393 0018 9A60     		str	r2, [r3, #8]
 394              		.loc 7 92 0
 395 001a 039B     		ldr	r3, [sp, #12]
 396 001c 029A     		ldr	r2, [sp, #8]
 397 001e DA60     		str	r2, [r3, #12]
 398              		.loc 7 93 0
 399 0020 039B     		ldr	r3, [sp, #12]
 400 0022 029A     		ldr	r2, [sp, #8]
 401 0024 9A61     		str	r2, [r3, #24]
 402              		.loc 7 94 0
 403 0026 039B     		ldr	r3, [sp, #12]
 404 0028 029A     		ldr	r2, [sp, #8]
 405 002a 5A61     		str	r2, [r3, #20]
 406              		.loc 7 95 0
 407 002c 029A     		ldr	r2, [sp, #8]
 408 002e 019B     		ldr	r3, [sp, #4]
 409 0030 1A44     		add	r2, r2, r3
 410 0032 039B     		ldr	r3, [sp, #12]
 411 0034 1A61     		str	r2, [r3, #16]
 412              		.loc 7 96 0
 413 0036 039B     		ldr	r3, [sp, #12]
 414 0038 009A     		ldr	r2, [sp]
 415 003a DA61     		str	r2, [r3, #28]
 416              		.loc 7 97 0
 417 003c 039B     		ldr	r3, [sp, #12]
 418 003e 069A     		ldr	r2, [sp, #24]
 419 0040 1A62     		str	r2, [r3, #32]
 420              		.loc 7 98 0
 421 0042 05B0     		add	sp, sp, #20
 422              		.cfi_def_cfa_offset 4
 423              		@ sp needed
 424 0044 5DF804FB 		ldr	pc, [sp], #4
 425              		.cfi_endproc
 426              	.LFE216:
 427              		.size	chIQObjectInit, .-chIQObjectInit
 428 0048 AFF30080 		.section	.text.chIQResetI,"ax",%progbits
 428      AFF30080 
 429              		.align	2
 430              		.p2align 4,,15
 431              		.global	chIQResetI
 432              		.thumb
 433              		.thumb_func
 434              		.type	chIQResetI, %function
 435              	chIQResetI:
 436              	.LFB217:
 437              		.loc 7 111 0
 438              		.cfi_startproc
 439              		@ args = 0, pretend = 0, frame = 8
 440              		@ frame_needed = 0, uses_anonymous_args = 0
 441 0000 00B5     		push	{lr}
 442              		.cfi_def_cfa_offset 4
 443              		.cfi_offset 14, -4
 444 0002 83B0     		sub	sp, sp, #12
 445              		.cfi_def_cfa_offset 16
ARM GAS  /tmp/ccwFI35l.s 			page 9


 446 0004 0190     		str	r0, [sp, #4]
 447              		.loc 7 115 0
 448 0006 019B     		ldr	r3, [sp, #4]
 449 0008 DA68     		ldr	r2, [r3, #12]
 450 000a 019B     		ldr	r3, [sp, #4]
 451 000c 9A61     		str	r2, [r3, #24]
 452              		.loc 7 116 0
 453 000e 019B     		ldr	r3, [sp, #4]
 454 0010 DA68     		ldr	r2, [r3, #12]
 455 0012 019B     		ldr	r3, [sp, #4]
 456 0014 5A61     		str	r2, [r3, #20]
 457              		.loc 7 117 0
 458 0016 019B     		ldr	r3, [sp, #4]
 459 0018 0022     		movs	r2, #0
 460 001a 9A60     		str	r2, [r3, #8]
 461              		.loc 7 118 0
 462 001c 019B     		ldr	r3, [sp, #4]
 463 001e 1846     		mov	r0, r3
 464 0020 6FF00101 		mvn	r1, #1
 465 0024 FFF7FEFF 		bl	chThdDequeueAllI
 466              		.loc 7 119 0
 467 0028 03B0     		add	sp, sp, #12
 468              		.cfi_def_cfa_offset 4
 469              		@ sp needed
 470 002a 5DF804FB 		ldr	pc, [sp], #4
 471              		.cfi_endproc
 472              	.LFE217:
 473              		.size	chIQResetI, .-chIQResetI
 474 002e 00BF     		.section	.text.chIQPutI,"ax",%progbits
 475              		.align	2
 476              		.p2align 4,,15
 477              		.global	chIQPutI
 478              		.thumb
 479              		.thumb_func
 480              		.type	chIQPutI, %function
 481              	chIQPutI:
 482              	.LFB218:
 483              		.loc 7 134 0
 484              		.cfi_startproc
 485              		@ args = 0, pretend = 0, frame = 8
 486              		@ frame_needed = 0, uses_anonymous_args = 0
 487 0000 00B5     		push	{lr}
 488              		.cfi_def_cfa_offset 4
 489              		.cfi_offset 14, -4
 490 0002 83B0     		sub	sp, sp, #12
 491              		.cfi_def_cfa_offset 16
 492 0004 0190     		str	r0, [sp, #4]
 493 0006 0B46     		mov	r3, r1
 494 0008 8DF80330 		strb	r3, [sp, #3]
 495              		.loc 7 138 0
 496 000c 0198     		ldr	r0, [sp, #4]
 497 000e FFF7FEFF 		bl	chIQIsFullI
 498 0012 0346     		mov	r3, r0
 499 0014 002B     		cmp	r3, #0
 500 0016 02D0     		beq	.L22
 501              		.loc 7 139 0
 502 0018 6FF00303 		mvn	r3, #3
ARM GAS  /tmp/ccwFI35l.s 			page 10


 503 001c 1CE0     		b	.L23
 504              	.L22:
 505              		.loc 7 142 0
 506 001e 019B     		ldr	r3, [sp, #4]
 507 0020 9B68     		ldr	r3, [r3, #8]
 508 0022 5A1C     		adds	r2, r3, #1
 509 0024 019B     		ldr	r3, [sp, #4]
 510 0026 9A60     		str	r2, [r3, #8]
 511              		.loc 7 143 0
 512 0028 019B     		ldr	r3, [sp, #4]
 513 002a 5B69     		ldr	r3, [r3, #20]
 514 002c 591C     		adds	r1, r3, #1
 515 002e 019A     		ldr	r2, [sp, #4]
 516 0030 5161     		str	r1, [r2, #20]
 517 0032 9DF80320 		ldrb	r2, [sp, #3]
 518 0036 1A70     		strb	r2, [r3]
 519              		.loc 7 144 0
 520 0038 019B     		ldr	r3, [sp, #4]
 521 003a 5A69     		ldr	r2, [r3, #20]
 522 003c 019B     		ldr	r3, [sp, #4]
 523 003e 1B69     		ldr	r3, [r3, #16]
 524 0040 9A42     		cmp	r2, r3
 525 0042 03D3     		bcc	.L24
 526              		.loc 7 145 0
 527 0044 019B     		ldr	r3, [sp, #4]
 528 0046 DA68     		ldr	r2, [r3, #12]
 529 0048 019B     		ldr	r3, [sp, #4]
 530 004a 5A61     		str	r2, [r3, #20]
 531              	.L24:
 532              		.loc 7 148 0
 533 004c 019B     		ldr	r3, [sp, #4]
 534 004e 1846     		mov	r0, r3
 535 0050 0021     		movs	r1, #0
 536 0052 FFF7FEFF 		bl	chThdDequeueNextI
 537              		.loc 7 150 0
 538 0056 0023     		movs	r3, #0
 539              	.L23:
 540              		.loc 7 151 0
 541 0058 1846     		mov	r0, r3
 542 005a 03B0     		add	sp, sp, #12
 543              		.cfi_def_cfa_offset 4
 544              		@ sp needed
 545 005c 5DF804FB 		ldr	pc, [sp], #4
 546              		.cfi_endproc
 547              	.LFE218:
 548              		.size	chIQPutI, .-chIQPutI
 549              		.section	.text.chIQGetTimeout,"ax",%progbits
 550              		.align	2
 551              		.p2align 4,,15
 552              		.global	chIQGetTimeout
 553              		.thumb
 554              		.thumb_func
 555              		.type	chIQGetTimeout, %function
 556              	chIQGetTimeout:
 557              	.LFB219:
 558              		.loc 7 173 0
 559              		.cfi_startproc
ARM GAS  /tmp/ccwFI35l.s 			page 11


 560              		@ args = 0, pretend = 0, frame = 16
 561              		@ frame_needed = 0, uses_anonymous_args = 0
 562 0000 00B5     		push	{lr}
 563              		.cfi_def_cfa_offset 4
 564              		.cfi_offset 14, -4
 565 0002 85B0     		sub	sp, sp, #20
 566              		.cfi_def_cfa_offset 24
 567 0004 0190     		str	r0, [sp, #4]
 568 0006 0091     		str	r1, [sp]
 569              		.loc 7 176 0
 570 0008 FFF7FEFF 		bl	chSysLock
 571              		.loc 7 177 0
 572 000c 019B     		ldr	r3, [sp, #4]
 573 000e DB69     		ldr	r3, [r3, #28]
 574 0010 002B     		cmp	r3, #0
 575 0012 03D0     		beq	.L26
 576              		.loc 7 178 0
 577 0014 019B     		ldr	r3, [sp, #4]
 578 0016 DB69     		ldr	r3, [r3, #28]
 579 0018 0198     		ldr	r0, [sp, #4]
 580 001a 9847     		blx	r3
 581              	.L26:
 582              		.loc 7 181 0
 583 001c 0CE0     		b	.L27
 584              	.L29:
 585              	.LBB10:
 586              		.loc 7 182 0
 587 001e 019B     		ldr	r3, [sp, #4]
 588 0020 1846     		mov	r0, r3
 589 0022 0099     		ldr	r1, [sp]
 590 0024 FFF7FEFF 		bl	chThdEnqueueTimeoutS
 591 0028 0390     		str	r0, [sp, #12]
 592              		.loc 7 183 0
 593 002a 039B     		ldr	r3, [sp, #12]
 594 002c 002B     		cmp	r3, #0
 595 002e 03DA     		bge	.L27
 596              		.loc 7 184 0
 597 0030 FFF7FEFF 		bl	chSysUnlock
 598              		.loc 7 185 0
 599 0034 039B     		ldr	r3, [sp, #12]
 600 0036 20E0     		b	.L28
 601              	.L27:
 602              	.LBE10:
 603              		.loc 7 181 0
 604 0038 0198     		ldr	r0, [sp, #4]
 605 003a FFF7FEFF 		bl	chIQIsEmptyI
 606 003e 0346     		mov	r3, r0
 607 0040 002B     		cmp	r3, #0
 608 0042 ECD1     		bne	.L29
 609              		.loc 7 189 0
 610 0044 019B     		ldr	r3, [sp, #4]
 611 0046 9B68     		ldr	r3, [r3, #8]
 612 0048 5A1E     		subs	r2, r3, #1
 613 004a 019B     		ldr	r3, [sp, #4]
 614 004c 9A60     		str	r2, [r3, #8]
 615              		.loc 7 190 0
 616 004e 019B     		ldr	r3, [sp, #4]
ARM GAS  /tmp/ccwFI35l.s 			page 12


 617 0050 9B69     		ldr	r3, [r3, #24]
 618 0052 591C     		adds	r1, r3, #1
 619 0054 019A     		ldr	r2, [sp, #4]
 620 0056 9161     		str	r1, [r2, #24]
 621 0058 1B78     		ldrb	r3, [r3]
 622 005a 8DF80B30 		strb	r3, [sp, #11]
 623              		.loc 7 191 0
 624 005e 019B     		ldr	r3, [sp, #4]
 625 0060 9A69     		ldr	r2, [r3, #24]
 626 0062 019B     		ldr	r3, [sp, #4]
 627 0064 1B69     		ldr	r3, [r3, #16]
 628 0066 9A42     		cmp	r2, r3
 629 0068 03D3     		bcc	.L30
 630              		.loc 7 192 0
 631 006a 019B     		ldr	r3, [sp, #4]
 632 006c DA68     		ldr	r2, [r3, #12]
 633 006e 019B     		ldr	r3, [sp, #4]
 634 0070 9A61     		str	r2, [r3, #24]
 635              	.L30:
 636              		.loc 7 194 0
 637 0072 FFF7FEFF 		bl	chSysUnlock
 638              		.loc 7 196 0
 639 0076 9DF80B30 		ldrb	r3, [sp, #11]	@ zero_extendqisi2
 640              	.L28:
 641              		.loc 7 197 0
 642 007a 1846     		mov	r0, r3
 643 007c 05B0     		add	sp, sp, #20
 644              		.cfi_def_cfa_offset 4
 645              		@ sp needed
 646 007e 5DF804FB 		ldr	pc, [sp], #4
 647              		.cfi_endproc
 648              	.LFE219:
 649              		.size	chIQGetTimeout, .-chIQGetTimeout
 650 0082 00BFAFF3 		.section	.text.chIQReadTimeout,"ax",%progbits
 650      0080AFF3 
 650      0080AFF3 
 650      0080
 651              		.align	2
 652              		.p2align 4,,15
 653              		.global	chIQReadTimeout
 654              		.thumb
 655              		.thumb_func
 656              		.type	chIQReadTimeout, %function
 657              	chIQReadTimeout:
 658              	.LFB220:
 659              		.loc 7 224 0
 660              		.cfi_startproc
 661              		@ args = 0, pretend = 0, frame = 24
 662              		@ frame_needed = 0, uses_anonymous_args = 0
 663 0000 00B5     		push	{lr}
 664              		.cfi_def_cfa_offset 4
 665              		.cfi_offset 14, -4
 666 0002 87B0     		sub	sp, sp, #28
 667              		.cfi_def_cfa_offset 32
 668 0004 0390     		str	r0, [sp, #12]
 669 0006 0291     		str	r1, [sp, #8]
 670 0008 0192     		str	r2, [sp, #4]
ARM GAS  /tmp/ccwFI35l.s 			page 13


 671 000a 0093     		str	r3, [sp]
 672              		.loc 7 225 0
 673 000c 039B     		ldr	r3, [sp, #12]
 674 000e DB69     		ldr	r3, [r3, #28]
 675 0010 0493     		str	r3, [sp, #16]
 676              		.loc 7 226 0
 677 0012 0023     		movs	r3, #0
 678 0014 0593     		str	r3, [sp, #20]
 679              		.loc 7 230 0
 680 0016 FFF7FEFF 		bl	chSysLock
 681              	.L38:
 682              		.loc 7 232 0
 683 001a 049B     		ldr	r3, [sp, #16]
 684 001c 002B     		cmp	r3, #0
 685 001e 02D0     		beq	.L32
 686              		.loc 7 233 0
 687 0020 049B     		ldr	r3, [sp, #16]
 688 0022 0398     		ldr	r0, [sp, #12]
 689 0024 9847     		blx	r3
 690              	.L32:
 691              		.loc 7 236 0
 692 0026 0BE0     		b	.L33
 693              	.L35:
 694              		.loc 7 237 0
 695 0028 039B     		ldr	r3, [sp, #12]
 696 002a 1846     		mov	r0, r3
 697 002c 0099     		ldr	r1, [sp]
 698 002e FFF7FEFF 		bl	chThdEnqueueTimeoutS
 699 0032 0346     		mov	r3, r0
 700 0034 002B     		cmp	r3, #0
 701 0036 03D0     		beq	.L33
 702              		.loc 7 238 0
 703 0038 FFF7FEFF 		bl	chSysUnlock
 704              		.loc 7 239 0
 705 003c 059B     		ldr	r3, [sp, #20]
 706 003e 2EE0     		b	.L34
 707              	.L33:
 708              		.loc 7 236 0
 709 0040 0398     		ldr	r0, [sp, #12]
 710 0042 FFF7FEFF 		bl	chIQIsEmptyI
 711 0046 0346     		mov	r3, r0
 712 0048 002B     		cmp	r3, #0
 713 004a EDD1     		bne	.L35
 714              		.loc 7 243 0
 715 004c 039B     		ldr	r3, [sp, #12]
 716 004e 9B68     		ldr	r3, [r3, #8]
 717 0050 5A1E     		subs	r2, r3, #1
 718 0052 039B     		ldr	r3, [sp, #12]
 719 0054 9A60     		str	r2, [r3, #8]
 720              		.loc 7 244 0
 721 0056 029B     		ldr	r3, [sp, #8]
 722 0058 5A1C     		adds	r2, r3, #1
 723 005a 0292     		str	r2, [sp, #8]
 724 005c 039A     		ldr	r2, [sp, #12]
 725 005e 9269     		ldr	r2, [r2, #24]
 726 0060 501C     		adds	r0, r2, #1
 727 0062 0399     		ldr	r1, [sp, #12]
ARM GAS  /tmp/ccwFI35l.s 			page 14


 728 0064 8861     		str	r0, [r1, #24]
 729 0066 1278     		ldrb	r2, [r2]	@ zero_extendqisi2
 730 0068 1A70     		strb	r2, [r3]
 731              		.loc 7 245 0
 732 006a 039B     		ldr	r3, [sp, #12]
 733 006c 9A69     		ldr	r2, [r3, #24]
 734 006e 039B     		ldr	r3, [sp, #12]
 735 0070 1B69     		ldr	r3, [r3, #16]
 736 0072 9A42     		cmp	r2, r3
 737 0074 03D3     		bcc	.L36
 738              		.loc 7 246 0
 739 0076 039B     		ldr	r3, [sp, #12]
 740 0078 DA68     		ldr	r2, [r3, #12]
 741 007a 039B     		ldr	r3, [sp, #12]
 742 007c 9A61     		str	r2, [r3, #24]
 743              	.L36:
 744              		.loc 7 248 0
 745 007e FFF7FEFF 		bl	chSysUnlock
 746              		.loc 7 250 0
 747 0082 059B     		ldr	r3, [sp, #20]
 748 0084 0133     		adds	r3, r3, #1
 749 0086 0593     		str	r3, [sp, #20]
 750              		.loc 7 251 0
 751 0088 019B     		ldr	r3, [sp, #4]
 752 008a 013B     		subs	r3, r3, #1
 753 008c 0193     		str	r3, [sp, #4]
 754 008e 019B     		ldr	r3, [sp, #4]
 755 0090 002B     		cmp	r3, #0
 756 0092 01D1     		bne	.L37
 757              		.loc 7 252 0
 758 0094 059B     		ldr	r3, [sp, #20]
 759 0096 02E0     		b	.L34
 760              	.L37:
 761              		.loc 7 255 0
 762 0098 FFF7FEFF 		bl	chSysLock
 763              		.loc 7 256 0
 764 009c BDE7     		b	.L38
 765              	.L34:
 766              		.loc 7 257 0
 767 009e 1846     		mov	r0, r3
 768 00a0 07B0     		add	sp, sp, #28
 769              		.cfi_def_cfa_offset 4
 770              		@ sp needed
 771 00a2 5DF804FB 		ldr	pc, [sp], #4
 772              		.cfi_endproc
 773              	.LFE220:
 774              		.size	chIQReadTimeout, .-chIQReadTimeout
 775 00a6 00BFAFF3 		.section	.text.chOQObjectInit,"ax",%progbits
 775      0080AFF3 
 775      0080
 776              		.align	2
 777              		.p2align 4,,15
 778              		.global	chOQObjectInit
 779              		.thumb
 780              		.thumb_func
 781              		.type	chOQObjectInit, %function
 782              	chOQObjectInit:
ARM GAS  /tmp/ccwFI35l.s 			page 15


 783              	.LFB221:
 784              		.loc 7 276 0
 785              		.cfi_startproc
 786              		@ args = 4, pretend = 0, frame = 16
 787              		@ frame_needed = 0, uses_anonymous_args = 0
 788 0000 00B5     		push	{lr}
 789              		.cfi_def_cfa_offset 4
 790              		.cfi_offset 14, -4
 791 0002 85B0     		sub	sp, sp, #20
 792              		.cfi_def_cfa_offset 24
 793 0004 0390     		str	r0, [sp, #12]
 794 0006 0291     		str	r1, [sp, #8]
 795 0008 0192     		str	r2, [sp, #4]
 796 000a 0093     		str	r3, [sp]
 797              		.loc 7 278 0
 798 000c 039B     		ldr	r3, [sp, #12]
 799 000e 1846     		mov	r0, r3
 800 0010 FFF7FEFF 		bl	chThdQueueObjectInit
 801              		.loc 7 279 0
 802 0014 039B     		ldr	r3, [sp, #12]
 803 0016 019A     		ldr	r2, [sp, #4]
 804 0018 9A60     		str	r2, [r3, #8]
 805              		.loc 7 280 0
 806 001a 039B     		ldr	r3, [sp, #12]
 807 001c 029A     		ldr	r2, [sp, #8]
 808 001e DA60     		str	r2, [r3, #12]
 809              		.loc 7 281 0
 810 0020 039B     		ldr	r3, [sp, #12]
 811 0022 029A     		ldr	r2, [sp, #8]
 812 0024 9A61     		str	r2, [r3, #24]
 813              		.loc 7 282 0
 814 0026 039B     		ldr	r3, [sp, #12]
 815 0028 029A     		ldr	r2, [sp, #8]
 816 002a 5A61     		str	r2, [r3, #20]
 817              		.loc 7 283 0
 818 002c 029A     		ldr	r2, [sp, #8]
 819 002e 019B     		ldr	r3, [sp, #4]
 820 0030 1A44     		add	r2, r2, r3
 821 0032 039B     		ldr	r3, [sp, #12]
 822 0034 1A61     		str	r2, [r3, #16]
 823              		.loc 7 284 0
 824 0036 039B     		ldr	r3, [sp, #12]
 825 0038 009A     		ldr	r2, [sp]
 826 003a DA61     		str	r2, [r3, #28]
 827              		.loc 7 285 0
 828 003c 039B     		ldr	r3, [sp, #12]
 829 003e 069A     		ldr	r2, [sp, #24]
 830 0040 1A62     		str	r2, [r3, #32]
 831              		.loc 7 286 0
 832 0042 05B0     		add	sp, sp, #20
 833              		.cfi_def_cfa_offset 4
 834              		@ sp needed
 835 0044 5DF804FB 		ldr	pc, [sp], #4
 836              		.cfi_endproc
 837              	.LFE221:
 838              		.size	chOQObjectInit, .-chOQObjectInit
 839 0048 AFF30080 		.section	.text.chOQResetI,"ax",%progbits
ARM GAS  /tmp/ccwFI35l.s 			page 16


 839      AFF30080 
 840              		.align	2
 841              		.p2align 4,,15
 842              		.global	chOQResetI
 843              		.thumb
 844              		.thumb_func
 845              		.type	chOQResetI, %function
 846              	chOQResetI:
 847              	.LFB222:
 848              		.loc 7 299 0
 849              		.cfi_startproc
 850              		@ args = 0, pretend = 0, frame = 8
 851              		@ frame_needed = 0, uses_anonymous_args = 0
 852 0000 00B5     		push	{lr}
 853              		.cfi_def_cfa_offset 4
 854              		.cfi_offset 14, -4
 855 0002 83B0     		sub	sp, sp, #12
 856              		.cfi_def_cfa_offset 16
 857 0004 0190     		str	r0, [sp, #4]
 858              		.loc 7 303 0
 859 0006 019B     		ldr	r3, [sp, #4]
 860 0008 DA68     		ldr	r2, [r3, #12]
 861 000a 019B     		ldr	r3, [sp, #4]
 862 000c 9A61     		str	r2, [r3, #24]
 863              		.loc 7 304 0
 864 000e 019B     		ldr	r3, [sp, #4]
 865 0010 DA68     		ldr	r2, [r3, #12]
 866 0012 019B     		ldr	r3, [sp, #4]
 867 0014 5A61     		str	r2, [r3, #20]
 868              		.loc 7 305 0
 869 0016 019B     		ldr	r3, [sp, #4]
 870 0018 1B69     		ldr	r3, [r3, #16]
 871 001a 1A46     		mov	r2, r3
 872 001c 019B     		ldr	r3, [sp, #4]
 873 001e DB68     		ldr	r3, [r3, #12]
 874 0020 D31A     		subs	r3, r2, r3
 875 0022 1A46     		mov	r2, r3
 876 0024 019B     		ldr	r3, [sp, #4]
 877 0026 9A60     		str	r2, [r3, #8]
 878              		.loc 7 306 0
 879 0028 019B     		ldr	r3, [sp, #4]
 880 002a 1846     		mov	r0, r3
 881 002c 6FF00101 		mvn	r1, #1
 882 0030 FFF7FEFF 		bl	chThdDequeueAllI
 883              		.loc 7 307 0
 884 0034 03B0     		add	sp, sp, #12
 885              		.cfi_def_cfa_offset 4
 886              		@ sp needed
 887 0036 5DF804FB 		ldr	pc, [sp], #4
 888              		.cfi_endproc
 889              	.LFE222:
 890              		.size	chOQResetI, .-chOQResetI
 891 003a 00BFAFF3 		.section	.text.chOQPutTimeout,"ax",%progbits
 891      0080
 892              		.align	2
 893              		.p2align 4,,15
 894              		.global	chOQPutTimeout
ARM GAS  /tmp/ccwFI35l.s 			page 17


 895              		.thumb
 896              		.thumb_func
 897              		.type	chOQPutTimeout, %function
 898              	chOQPutTimeout:
 899              	.LFB223:
 900              		.loc 7 331 0
 901              		.cfi_startproc
 902              		@ args = 0, pretend = 0, frame = 24
 903              		@ frame_needed = 0, uses_anonymous_args = 0
 904 0000 00B5     		push	{lr}
 905              		.cfi_def_cfa_offset 4
 906              		.cfi_offset 14, -4
 907 0002 87B0     		sub	sp, sp, #28
 908              		.cfi_def_cfa_offset 32
 909 0004 0390     		str	r0, [sp, #12]
 910 0006 0B46     		mov	r3, r1
 911 0008 0192     		str	r2, [sp, #4]
 912 000a 8DF80B30 		strb	r3, [sp, #11]
 913              		.loc 7 333 0
 914 000e FFF7FEFF 		bl	chSysLock
 915              		.loc 7 334 0
 916 0012 0CE0     		b	.L42
 917              	.L44:
 918              	.LBB11:
 919              		.loc 7 335 0
 920 0014 039B     		ldr	r3, [sp, #12]
 921 0016 1846     		mov	r0, r3
 922 0018 0199     		ldr	r1, [sp, #4]
 923 001a FFF7FEFF 		bl	chThdEnqueueTimeoutS
 924 001e 0590     		str	r0, [sp, #20]
 925              		.loc 7 336 0
 926 0020 059B     		ldr	r3, [sp, #20]
 927 0022 002B     		cmp	r3, #0
 928 0024 03DA     		bge	.L42
 929              		.loc 7 337 0
 930 0026 FFF7FEFF 		bl	chSysUnlock
 931              		.loc 7 338 0
 932 002a 059B     		ldr	r3, [sp, #20]
 933 002c 27E0     		b	.L43
 934              	.L42:
 935              	.LBE11:
 936              		.loc 7 334 0
 937 002e 0398     		ldr	r0, [sp, #12]
 938 0030 FFF7FEFF 		bl	chOQIsFullI
 939 0034 0346     		mov	r3, r0
 940 0036 002B     		cmp	r3, #0
 941 0038 ECD1     		bne	.L44
 942              		.loc 7 342 0
 943 003a 039B     		ldr	r3, [sp, #12]
 944 003c 9B68     		ldr	r3, [r3, #8]
 945 003e 5A1E     		subs	r2, r3, #1
 946 0040 039B     		ldr	r3, [sp, #12]
 947 0042 9A60     		str	r2, [r3, #8]
 948              		.loc 7 343 0
 949 0044 039B     		ldr	r3, [sp, #12]
 950 0046 5B69     		ldr	r3, [r3, #20]
 951 0048 591C     		adds	r1, r3, #1
ARM GAS  /tmp/ccwFI35l.s 			page 18


 952 004a 039A     		ldr	r2, [sp, #12]
 953 004c 5161     		str	r1, [r2, #20]
 954 004e 9DF80B20 		ldrb	r2, [sp, #11]
 955 0052 1A70     		strb	r2, [r3]
 956              		.loc 7 344 0
 957 0054 039B     		ldr	r3, [sp, #12]
 958 0056 5A69     		ldr	r2, [r3, #20]
 959 0058 039B     		ldr	r3, [sp, #12]
 960 005a 1B69     		ldr	r3, [r3, #16]
 961 005c 9A42     		cmp	r2, r3
 962 005e 03D3     		bcc	.L45
 963              		.loc 7 345 0
 964 0060 039B     		ldr	r3, [sp, #12]
 965 0062 DA68     		ldr	r2, [r3, #12]
 966 0064 039B     		ldr	r3, [sp, #12]
 967 0066 5A61     		str	r2, [r3, #20]
 968              	.L45:
 969              		.loc 7 348 0
 970 0068 039B     		ldr	r3, [sp, #12]
 971 006a DB69     		ldr	r3, [r3, #28]
 972 006c 002B     		cmp	r3, #0
 973 006e 03D0     		beq	.L46
 974              		.loc 7 349 0
 975 0070 039B     		ldr	r3, [sp, #12]
 976 0072 DB69     		ldr	r3, [r3, #28]
 977 0074 0398     		ldr	r0, [sp, #12]
 978 0076 9847     		blx	r3
 979              	.L46:
 980              		.loc 7 351 0
 981 0078 FFF7FEFF 		bl	chSysUnlock
 982              		.loc 7 353 0
 983 007c 0023     		movs	r3, #0
 984              	.L43:
 985              		.loc 7 354 0
 986 007e 1846     		mov	r0, r3
 987 0080 07B0     		add	sp, sp, #28
 988              		.cfi_def_cfa_offset 4
 989              		@ sp needed
 990 0082 5DF804FB 		ldr	pc, [sp], #4
 991              		.cfi_endproc
 992              	.LFE223:
 993              		.size	chOQPutTimeout, .-chOQPutTimeout
 994 0086 00BFAFF3 		.section	.text.chOQGetI,"ax",%progbits
 994      0080AFF3 
 994      0080
 995              		.align	2
 996              		.p2align 4,,15
 997              		.global	chOQGetI
 998              		.thumb
 999              		.thumb_func
 1000              		.type	chOQGetI, %function
 1001              	chOQGetI:
 1002              	.LFB224:
 1003              		.loc 7 366 0
 1004              		.cfi_startproc
 1005              		@ args = 0, pretend = 0, frame = 16
 1006              		@ frame_needed = 0, uses_anonymous_args = 0
ARM GAS  /tmp/ccwFI35l.s 			page 19


 1007 0000 00B5     		push	{lr}
 1008              		.cfi_def_cfa_offset 4
 1009              		.cfi_offset 14, -4
 1010 0002 85B0     		sub	sp, sp, #20
 1011              		.cfi_def_cfa_offset 24
 1012 0004 0190     		str	r0, [sp, #4]
 1013              		.loc 7 371 0
 1014 0006 0198     		ldr	r0, [sp, #4]
 1015 0008 FFF7FEFF 		bl	chOQIsEmptyI
 1016 000c 0346     		mov	r3, r0
 1017 000e 002B     		cmp	r3, #0
 1018 0010 02D0     		beq	.L48
 1019              		.loc 7 372 0
 1020 0012 6FF00203 		mvn	r3, #2
 1021 0016 1DE0     		b	.L49
 1022              	.L48:
 1023              		.loc 7 375 0
 1024 0018 019B     		ldr	r3, [sp, #4]
 1025 001a 9B68     		ldr	r3, [r3, #8]
 1026 001c 5A1C     		adds	r2, r3, #1
 1027 001e 019B     		ldr	r3, [sp, #4]
 1028 0020 9A60     		str	r2, [r3, #8]
 1029              		.loc 7 376 0
 1030 0022 019B     		ldr	r3, [sp, #4]
 1031 0024 9B69     		ldr	r3, [r3, #24]
 1032 0026 591C     		adds	r1, r3, #1
 1033 0028 019A     		ldr	r2, [sp, #4]
 1034 002a 9161     		str	r1, [r2, #24]
 1035 002c 1B78     		ldrb	r3, [r3]
 1036 002e 8DF80F30 		strb	r3, [sp, #15]
 1037              		.loc 7 377 0
 1038 0032 019B     		ldr	r3, [sp, #4]
 1039 0034 9A69     		ldr	r2, [r3, #24]
 1040 0036 019B     		ldr	r3, [sp, #4]
 1041 0038 1B69     		ldr	r3, [r3, #16]
 1042 003a 9A42     		cmp	r2, r3
 1043 003c 03D3     		bcc	.L50
 1044              		.loc 7 378 0
 1045 003e 019B     		ldr	r3, [sp, #4]
 1046 0040 DA68     		ldr	r2, [r3, #12]
 1047 0042 019B     		ldr	r3, [sp, #4]
 1048 0044 9A61     		str	r2, [r3, #24]
 1049              	.L50:
 1050              		.loc 7 381 0
 1051 0046 019B     		ldr	r3, [sp, #4]
 1052 0048 1846     		mov	r0, r3
 1053 004a 0021     		movs	r1, #0
 1054 004c FFF7FEFF 		bl	chThdDequeueNextI
 1055              		.loc 7 383 0
 1056 0050 9DF80F30 		ldrb	r3, [sp, #15]	@ zero_extendqisi2
 1057              	.L49:
 1058              		.loc 7 384 0
 1059 0054 1846     		mov	r0, r3
 1060 0056 05B0     		add	sp, sp, #20
 1061              		.cfi_def_cfa_offset 4
 1062              		@ sp needed
 1063 0058 5DF804FB 		ldr	pc, [sp], #4
ARM GAS  /tmp/ccwFI35l.s 			page 20


 1064              		.cfi_endproc
 1065              	.LFE224:
 1066              		.size	chOQGetI, .-chOQGetI
 1067 005c AFF30080 		.section	.text.chOQWriteTimeout,"ax",%progbits
 1068              		.align	2
 1069              		.p2align 4,,15
 1070              		.global	chOQWriteTimeout
 1071              		.thumb
 1072              		.thumb_func
 1073              		.type	chOQWriteTimeout, %function
 1074              	chOQWriteTimeout:
 1075              	.LFB225:
 1076              		.loc 7 411 0
 1077              		.cfi_startproc
 1078              		@ args = 0, pretend = 0, frame = 24
 1079              		@ frame_needed = 0, uses_anonymous_args = 0
 1080 0000 00B5     		push	{lr}
 1081              		.cfi_def_cfa_offset 4
 1082              		.cfi_offset 14, -4
 1083 0002 87B0     		sub	sp, sp, #28
 1084              		.cfi_def_cfa_offset 32
 1085 0004 0390     		str	r0, [sp, #12]
 1086 0006 0291     		str	r1, [sp, #8]
 1087 0008 0192     		str	r2, [sp, #4]
 1088 000a 0093     		str	r3, [sp]
 1089              		.loc 7 412 0
 1090 000c 039B     		ldr	r3, [sp, #12]
 1091 000e DB69     		ldr	r3, [r3, #28]
 1092 0010 0493     		str	r3, [sp, #16]
 1093              		.loc 7 413 0
 1094 0012 0023     		movs	r3, #0
 1095 0014 0593     		str	r3, [sp, #20]
 1096              		.loc 7 417 0
 1097 0016 FFF7FEFF 		bl	chSysLock
 1098              	.L58:
 1099              		.loc 7 419 0
 1100 001a 0BE0     		b	.L52
 1101              	.L54:
 1102              		.loc 7 420 0
 1103 001c 039B     		ldr	r3, [sp, #12]
 1104 001e 1846     		mov	r0, r3
 1105 0020 0099     		ldr	r1, [sp]
 1106 0022 FFF7FEFF 		bl	chThdEnqueueTimeoutS
 1107 0026 0346     		mov	r3, r0
 1108 0028 002B     		cmp	r3, #0
 1109 002a 03D0     		beq	.L52
 1110              		.loc 7 421 0
 1111 002c FFF7FEFF 		bl	chSysUnlock
 1112              		.loc 7 422 0
 1113 0030 059B     		ldr	r3, [sp, #20]
 1114 0032 34E0     		b	.L53
 1115              	.L52:
 1116              		.loc 7 419 0
 1117 0034 0398     		ldr	r0, [sp, #12]
 1118 0036 FFF7FEFF 		bl	chOQIsFullI
 1119 003a 0346     		mov	r3, r0
 1120 003c 002B     		cmp	r3, #0
ARM GAS  /tmp/ccwFI35l.s 			page 21


 1121 003e EDD1     		bne	.L54
 1122              		.loc 7 426 0
 1123 0040 039B     		ldr	r3, [sp, #12]
 1124 0042 9B68     		ldr	r3, [r3, #8]
 1125 0044 5A1E     		subs	r2, r3, #1
 1126 0046 039B     		ldr	r3, [sp, #12]
 1127 0048 9A60     		str	r2, [r3, #8]
 1128              		.loc 7 427 0
 1129 004a 039B     		ldr	r3, [sp, #12]
 1130 004c 5B69     		ldr	r3, [r3, #20]
 1131 004e 591C     		adds	r1, r3, #1
 1132 0050 039A     		ldr	r2, [sp, #12]
 1133 0052 5161     		str	r1, [r2, #20]
 1134 0054 029A     		ldr	r2, [sp, #8]
 1135 0056 511C     		adds	r1, r2, #1
 1136 0058 0291     		str	r1, [sp, #8]
 1137 005a 1278     		ldrb	r2, [r2]	@ zero_extendqisi2
 1138 005c 1A70     		strb	r2, [r3]
 1139              		.loc 7 428 0
 1140 005e 039B     		ldr	r3, [sp, #12]
 1141 0060 5A69     		ldr	r2, [r3, #20]
 1142 0062 039B     		ldr	r3, [sp, #12]
 1143 0064 1B69     		ldr	r3, [r3, #16]
 1144 0066 9A42     		cmp	r2, r3
 1145 0068 03D3     		bcc	.L55
 1146              		.loc 7 429 0
 1147 006a 039B     		ldr	r3, [sp, #12]
 1148 006c DA68     		ldr	r2, [r3, #12]
 1149 006e 039B     		ldr	r3, [sp, #12]
 1150 0070 5A61     		str	r2, [r3, #20]
 1151              	.L55:
 1152              		.loc 7 432 0
 1153 0072 049B     		ldr	r3, [sp, #16]
 1154 0074 002B     		cmp	r3, #0
 1155 0076 02D0     		beq	.L56
 1156              		.loc 7 433 0
 1157 0078 049B     		ldr	r3, [sp, #16]
 1158 007a 0398     		ldr	r0, [sp, #12]
 1159 007c 9847     		blx	r3
 1160              	.L56:
 1161              		.loc 7 435 0
 1162 007e FFF7FEFF 		bl	chSysUnlock
 1163              		.loc 7 437 0
 1164 0082 059B     		ldr	r3, [sp, #20]
 1165 0084 0133     		adds	r3, r3, #1
 1166 0086 0593     		str	r3, [sp, #20]
 1167              		.loc 7 438 0
 1168 0088 019B     		ldr	r3, [sp, #4]
 1169 008a 013B     		subs	r3, r3, #1
 1170 008c 0193     		str	r3, [sp, #4]
 1171 008e 019B     		ldr	r3, [sp, #4]
 1172 0090 002B     		cmp	r3, #0
 1173 0092 01D1     		bne	.L57
 1174              		.loc 7 439 0
 1175 0094 059B     		ldr	r3, [sp, #20]
 1176 0096 02E0     		b	.L53
 1177              	.L57:
ARM GAS  /tmp/ccwFI35l.s 			page 22


 1178              		.loc 7 441 0
 1179 0098 FFF7FEFF 		bl	chSysLock
 1180              		.loc 7 442 0
 1181 009c BDE7     		b	.L58
 1182              	.L53:
 1183              		.loc 7 443 0
 1184 009e 1846     		mov	r0, r3
 1185 00a0 07B0     		add	sp, sp, #28
 1186              		.cfi_def_cfa_offset 4
 1187              		@ sp needed
 1188 00a2 5DF804FB 		ldr	pc, [sp], #4
 1189              		.cfi_endproc
 1190              	.LFE225:
 1191              		.size	chOQWriteTimeout, .-chOQWriteTimeout
 1192 00a6 00BFAFF3 		.text
 1192      0080AFF3 
 1192      0080
 1193              	.Letext0:
 1194              		.file 8 "/opt/gcc-arm-none-eabi/lib/gcc/arm-none-eabi/4.9.3/include/stddef.h"
 1195              		.file 9 "/opt/gcc-arm-none-eabi/arm-none-eabi/include/machine/_default_types.h"
 1196              		.file 10 "/opt/gcc-arm-none-eabi/arm-none-eabi/include/stdint.h"
 1197              		.file 11 "/home/makkmarci/workspace/CLEAN/ChibiOS/os/rt/ports/ARMCMx/compilers/GCC/chtypes.h"
 1198              		.file 12 "/home/makkmarci/workspace/CLEAN/ChibiOS/os/rt/include/chsystypes.h"
 1199              		.file 13 "/home/makkmarci/workspace/CLEAN/ChibiOS/os/rt/ports/ARMCMx/chcore.h"
 1200              		.file 14 "/home/makkmarci/workspace/CLEAN/ChibiOS/os/rt/include/chtm.h"
 1201              		.file 15 "/home/makkmarci/workspace/CLEAN/ChibiOS/os/rt/include/chsem.h"
 1202              		.file 16 "/home/makkmarci/workspace/CLEAN/ChibiOS/os/rt/include/chmtx.h"
 1203              		.file 17 "/home/makkmarci/workspace/CLEAN/ChibiOS/os/ext/CMSIS/include/core_cm4.h"