ARM GAS  /tmp/cctotIA8.s 			page 1


   1              		.syntax unified
   2              		.cpu cortex-m4
   3              		.eabi_attribute 27, 1
   4              		.eabi_attribute 28, 1
   5              		.fpu fpv4-sp-d16
   6              		.eabi_attribute 20, 1
   7              		.eabi_attribute 21, 1
   8              		.eabi_attribute 23, 3
   9              		.eabi_attribute 24, 1
  10              		.eabi_attribute 25, 1
  11              		.eabi_attribute 26, 1
  12              		.eabi_attribute 30, 6
  13              		.eabi_attribute 34, 1
  14              		.eabi_attribute 18, 4
  15              		.thumb
  16              		.file	"chschd.c"
  17              		.text
  18              	.Ltext0:
  19              		.cfi_sections	.debug_frame
  20              		.section	.text.port_lock,"ax",%progbits
  21              		.align	2
  22              		.p2align 4,,15
  23              		.thumb
  24              		.thumb_func
  25              		.type	port_lock, %function
  26              	port_lock:
  27              	.LFB116:
  28              		.file 1 "/home/makkmarci/workspace/CLEAN/ChibiOS/os/rt/ports/ARMCMx/chcore_v7m.h"
  29              		.loc 1 444 0
  30              		.cfi_startproc
  31              		@ args = 0, pretend = 0, frame = 8
  32              		@ frame_needed = 0, uses_anonymous_args = 0
  33              		@ link register save eliminated.
  34 0000 82B0     		sub	sp, sp, #8
  35              		.cfi_def_cfa_offset 8
  36 0002 2023     		movs	r3, #32
  37 0004 0193     		str	r3, [sp, #4]
  38              	.LBB6:
  39              	.LBB7:
  40              		.file 2 "/home/makkmarci/workspace/CLEAN/ChibiOS/os/ext/CMSIS/include/core_cmFunc.h"
  41              		.loc 2 546 0
  42 0006 019B     		ldr	r3, [sp, #4]
  43              	@ 546 "/home/makkmarci/workspace/CLEAN/ChibiOS/os/ext/CMSIS/include/core_cmFunc.h" 1
  44 0008 83F31188 		MSR basepri, r3
  45              	@ 0 "" 2
  46              		.thumb
  47              	.LBE7:
  48              	.LBE6:
  49              		.loc 1 451 0
  50 000c 02B0     		add	sp, sp, #8
  51              		.cfi_def_cfa_offset 0
  52              		@ sp needed
  53 000e 7047     		bx	lr
  54              		.cfi_endproc
  55              	.LFE116:
  56              		.size	port_lock, .-port_lock
  57              		.section	.text.port_unlock,"ax",%progbits
ARM GAS  /tmp/cctotIA8.s 			page 2


  58              		.align	2
  59              		.p2align 4,,15
  60              		.thumb
  61              		.thumb_func
  62              		.type	port_unlock, %function
  63              	port_unlock:
  64              	.LFB117:
  65              		.loc 1 458 0
  66              		.cfi_startproc
  67              		@ args = 0, pretend = 0, frame = 8
  68              		@ frame_needed = 0, uses_anonymous_args = 0
  69              		@ link register save eliminated.
  70 0000 82B0     		sub	sp, sp, #8
  71              		.cfi_def_cfa_offset 8
  72 0002 0023     		movs	r3, #0
  73 0004 0193     		str	r3, [sp, #4]
  74              	.LBB8:
  75              	.LBB9:
  76              		.loc 2 546 0
  77 0006 019B     		ldr	r3, [sp, #4]
  78              	@ 546 "/home/makkmarci/workspace/CLEAN/ChibiOS/os/ext/CMSIS/include/core_cmFunc.h" 1
  79 0008 83F31188 		MSR basepri, r3
  80              	@ 0 "" 2
  81              		.thumb
  82              	.LBE9:
  83              	.LBE8:
  84              		.loc 1 465 0
  85 000c 02B0     		add	sp, sp, #8
  86              		.cfi_def_cfa_offset 0
  87              		@ sp needed
  88 000e 7047     		bx	lr
  89              		.cfi_endproc
  90              	.LFE117:
  91              		.size	port_unlock, .-port_unlock
  92              		.section	.text.port_lock_from_isr,"ax",%progbits
  93              		.align	2
  94              		.p2align 4,,15
  95              		.thumb
  96              		.thumb_func
  97              		.type	port_lock_from_isr, %function
  98              	port_lock_from_isr:
  99              	.LFB118:
 100              		.loc 1 473 0
 101              		.cfi_startproc
 102              		@ args = 0, pretend = 0, frame = 0
 103              		@ frame_needed = 0, uses_anonymous_args = 0
 104 0000 08B5     		push	{r3, lr}
 105              		.cfi_def_cfa_offset 8
 106              		.cfi_offset 3, -8
 107              		.cfi_offset 14, -4
 108              		.loc 1 475 0
 109 0002 FFF7FEFF 		bl	port_lock
 110              		.loc 1 476 0
 111 0006 08BD     		pop	{r3, pc}
 112              		.cfi_endproc
 113              	.LFE118:
 114              		.size	port_lock_from_isr, .-port_lock_from_isr
ARM GAS  /tmp/cctotIA8.s 			page 3


 115 0008 AFF30080 		.section	.text.port_unlock_from_isr,"ax",%progbits
 115      AFF30080 
 116              		.align	2
 117              		.p2align 4,,15
 118              		.thumb
 119              		.thumb_func
 120              		.type	port_unlock_from_isr, %function
 121              	port_unlock_from_isr:
 122              	.LFB119:
 123              		.loc 1 484 0
 124              		.cfi_startproc
 125              		@ args = 0, pretend = 0, frame = 0
 126              		@ frame_needed = 0, uses_anonymous_args = 0
 127 0000 08B5     		push	{r3, lr}
 128              		.cfi_def_cfa_offset 8
 129              		.cfi_offset 3, -8
 130              		.cfi_offset 14, -4
 131              		.loc 1 486 0
 132 0002 FFF7FEFF 		bl	port_unlock
 133              		.loc 1 487 0
 134 0006 08BD     		pop	{r3, pc}
 135              		.cfi_endproc
 136              	.LFE119:
 137              		.size	port_unlock_from_isr, .-port_unlock_from_isr
 138 0008 AFF30080 		.section	.text.queue_init,"ax",%progbits
 138      AFF30080 
 139              		.align	2
 140              		.p2align 4,,15
 141              		.thumb
 142              		.thumb_func
 143              		.type	queue_init, %function
 144              	queue_init:
 145              	.LFB128:
 146              		.file 3 "/home/makkmarci/workspace/CLEAN/ChibiOS/os/rt/include/chschd.h"
 147              		.loc 3 602 0
 148              		.cfi_startproc
 149              		@ args = 0, pretend = 0, frame = 8
 150              		@ frame_needed = 0, uses_anonymous_args = 0
 151              		@ link register save eliminated.
 152 0000 82B0     		sub	sp, sp, #8
 153              		.cfi_def_cfa_offset 8
 154 0002 0190     		str	r0, [sp, #4]
 155              		.loc 3 604 0
 156 0004 019B     		ldr	r3, [sp, #4]
 157 0006 019A     		ldr	r2, [sp, #4]
 158 0008 1A60     		str	r2, [r3]
 159              		.loc 3 605 0
 160 000a 019B     		ldr	r3, [sp, #4]
 161 000c 019A     		ldr	r2, [sp, #4]
 162 000e 5A60     		str	r2, [r3, #4]
 163              		.loc 3 606 0
 164 0010 02B0     		add	sp, sp, #8
 165              		.cfi_def_cfa_offset 0
 166              		@ sp needed
 167 0012 7047     		bx	lr
 168              		.cfi_endproc
 169              	.LFE128:
ARM GAS  /tmp/cctotIA8.s 			page 4


 170              		.size	queue_init, .-queue_init
 171 0014 AFF30080 		.section	.text.queue_fifo_remove,"ax",%progbits
 171      AFF30080 
 171      AFF30080 
 172              		.align	2
 173              		.p2align 4,,15
 174              		.thumb
 175              		.thumb_func
 176              		.type	queue_fifo_remove, %function
 177              	queue_fifo_remove:
 178              	.LFB135:
 179              		.loc 3 671 0
 180              		.cfi_startproc
 181              		@ args = 0, pretend = 0, frame = 16
 182              		@ frame_needed = 0, uses_anonymous_args = 0
 183              		@ link register save eliminated.
 184 0000 84B0     		sub	sp, sp, #16
 185              		.cfi_def_cfa_offset 16
 186 0002 0190     		str	r0, [sp, #4]
 187              		.loc 3 672 0
 188 0004 019B     		ldr	r3, [sp, #4]
 189 0006 1B68     		ldr	r3, [r3]
 190 0008 0393     		str	r3, [sp, #12]
 191              		.loc 3 674 0
 192 000a 039B     		ldr	r3, [sp, #12]
 193 000c 1A68     		ldr	r2, [r3]
 194 000e 019B     		ldr	r3, [sp, #4]
 195 0010 1A60     		str	r2, [r3]
 196              		.loc 3 675 0
 197 0012 019B     		ldr	r3, [sp, #4]
 198 0014 1B68     		ldr	r3, [r3]
 199 0016 019A     		ldr	r2, [sp, #4]
 200 0018 5A60     		str	r2, [r3, #4]
 201              		.loc 3 677 0
 202 001a 039B     		ldr	r3, [sp, #12]
 203              		.loc 3 678 0
 204 001c 1846     		mov	r0, r3
 205 001e 04B0     		add	sp, sp, #16
 206              		.cfi_def_cfa_offset 0
 207              		@ sp needed
 208 0020 7047     		bx	lr
 209              		.cfi_endproc
 210              	.LFE135:
 211              		.size	queue_fifo_remove, .-queue_fifo_remove
 212 0022 00BFAFF3 		.section	.text.queue_dequeue,"ax",%progbits
 212      0080AFF3 
 212      0080AFF3 
 212      0080
 213              		.align	2
 214              		.p2align 4,,15
 215              		.thumb
 216              		.thumb_func
 217              		.type	queue_dequeue, %function
 218              	queue_dequeue:
 219              	.LFB137:
 220              		.loc 3 689 0
 221              		.cfi_startproc
ARM GAS  /tmp/cctotIA8.s 			page 5


 222              		@ args = 0, pretend = 0, frame = 8
 223              		@ frame_needed = 0, uses_anonymous_args = 0
 224              		@ link register save eliminated.
 225 0000 82B0     		sub	sp, sp, #8
 226              		.cfi_def_cfa_offset 8
 227 0002 0190     		str	r0, [sp, #4]
 228              		.loc 3 691 0
 229 0004 019B     		ldr	r3, [sp, #4]
 230 0006 5B68     		ldr	r3, [r3, #4]
 231 0008 019A     		ldr	r2, [sp, #4]
 232 000a 1268     		ldr	r2, [r2]
 233 000c 1A60     		str	r2, [r3]
 234              		.loc 3 692 0
 235 000e 019B     		ldr	r3, [sp, #4]
 236 0010 1B68     		ldr	r3, [r3]
 237 0012 019A     		ldr	r2, [sp, #4]
 238 0014 5268     		ldr	r2, [r2, #4]
 239 0016 5A60     		str	r2, [r3, #4]
 240              		.loc 3 694 0
 241 0018 019B     		ldr	r3, [sp, #4]
 242              		.loc 3 695 0
 243 001a 1846     		mov	r0, r3
 244 001c 02B0     		add	sp, sp, #8
 245              		.cfi_def_cfa_offset 0
 246              		@ sp needed
 247 001e 7047     		bx	lr
 248              		.cfi_endproc
 249              	.LFE137:
 250              		.size	queue_dequeue, .-queue_dequeue
 251              		.section	.text.chSchIsRescRequiredI,"ax",%progbits
 252              		.align	2
 253              		.p2align 4,,15
 254              		.thumb
 255              		.thumb_func
 256              		.type	chSchIsRescRequiredI, %function
 257              	chSchIsRescRequiredI:
 258              	.LFB138:
 259              		.loc 3 709 0
 260              		.cfi_startproc
 261              		@ args = 0, pretend = 0, frame = 0
 262              		@ frame_needed = 0, uses_anonymous_args = 0
 263              		@ link register save eliminated.
 264              		.loc 3 713 0
 265 0000 064B     		ldr	r3, .L12
 266 0002 1B68     		ldr	r3, [r3]
 267 0004 9A68     		ldr	r2, [r3, #8]
 268 0006 054B     		ldr	r3, .L12
 269 0008 9B69     		ldr	r3, [r3, #24]
 270 000a 9B68     		ldr	r3, [r3, #8]
 271 000c 9A42     		cmp	r2, r3
 272 000e 8CBF     		ite	hi
 273 0010 0123     		movhi	r3, #1
 274 0012 0023     		movls	r3, #0
 275 0014 DBB2     		uxtb	r3, r3
 276              		.loc 3 714 0
 277 0016 1846     		mov	r0, r3
 278 0018 7047     		bx	lr
ARM GAS  /tmp/cctotIA8.s 			page 6


 279              	.L13:
 280 001a 00BF     		.align	2
 281              	.L12:
 282 001c 00000000 		.word	ch
 283              		.cfi_endproc
 284              	.LFE138:
 285              		.size	chSchIsRescRequiredI, .-chSchIsRescRequiredI
 286              		.section	.text.chSysLockFromISR,"ax",%progbits
 287              		.align	2
 288              		.p2align 4,,15
 289              		.thumb
 290              		.thumb_func
 291              		.type	chSysLockFromISR, %function
 292              	chSysLockFromISR:
 293              	.LFB147:
 294              		.file 4 "/home/makkmarci/workspace/CLEAN/ChibiOS/os/rt/include/chsys.h"
 295              		.loc 4 386 0
 296              		.cfi_startproc
 297              		@ args = 0, pretend = 0, frame = 0
 298              		@ frame_needed = 0, uses_anonymous_args = 0
 299 0000 08B5     		push	{r3, lr}
 300              		.cfi_def_cfa_offset 8
 301              		.cfi_offset 3, -8
 302              		.cfi_offset 14, -4
 303              		.loc 4 388 0
 304 0002 FFF7FEFF 		bl	port_lock_from_isr
 305              		.loc 4 391 0
 306 0006 08BD     		pop	{r3, pc}
 307              		.cfi_endproc
 308              	.LFE147:
 309              		.size	chSysLockFromISR, .-chSysLockFromISR
 310              		.section	.text.chSysUnlockFromISR,"ax",%progbits
 311              		.align	2
 312              		.p2align 4,,15
 313              		.thumb
 314              		.thumb_func
 315              		.type	chSysUnlockFromISR, %function
 316              	chSysUnlockFromISR:
 317              	.LFB148:
 318              		.loc 4 406 0
 319              		.cfi_startproc
 320              		@ args = 0, pretend = 0, frame = 0
 321              		@ frame_needed = 0, uses_anonymous_args = 0
 322 0000 08B5     		push	{r3, lr}
 323              		.cfi_def_cfa_offset 8
 324              		.cfi_offset 3, -8
 325              		.cfi_offset 14, -4
 326              		.loc 4 410 0
 327 0002 FFF7FEFF 		bl	port_unlock_from_isr
 328              		.loc 4 411 0
 329 0006 08BD     		pop	{r3, pc}
 330              		.cfi_endproc
 331              	.LFE148:
 332              		.size	chSysUnlockFromISR, .-chSysUnlockFromISR
 333 0008 AFF30080 		.section	.text.chVTIsArmedI,"ax",%progbits
 333      AFF30080 
 334              		.align	2
ARM GAS  /tmp/cctotIA8.s 			page 7


 335              		.p2align 4,,15
 336              		.thumb
 337              		.thumb_func
 338              		.type	chVTIsArmedI, %function
 339              	chVTIsArmedI:
 340              	.LFB159:
 341              		.file 5 "/home/makkmarci/workspace/CLEAN/ChibiOS/os/rt/include/chvt.h"
 342              		.loc 5 337 0
 343              		.cfi_startproc
 344              		@ args = 0, pretend = 0, frame = 8
 345              		@ frame_needed = 0, uses_anonymous_args = 0
 346              		@ link register save eliminated.
 347 0000 82B0     		sub	sp, sp, #8
 348              		.cfi_def_cfa_offset 8
 349 0002 0190     		str	r0, [sp, #4]
 350              		.loc 5 341 0
 351 0004 019B     		ldr	r3, [sp, #4]
 352 0006 DB68     		ldr	r3, [r3, #12]
 353 0008 002B     		cmp	r3, #0
 354 000a 14BF     		ite	ne
 355 000c 0123     		movne	r3, #1
 356 000e 0023     		moveq	r3, #0
 357 0010 DBB2     		uxtb	r3, r3
 358              		.loc 5 342 0
 359 0012 1846     		mov	r0, r3
 360 0014 02B0     		add	sp, sp, #8
 361              		.cfi_def_cfa_offset 0
 362              		@ sp needed
 363 0016 7047     		bx	lr
 364              		.cfi_endproc
 365              	.LFE159:
 366              		.size	chVTIsArmedI, .-chVTIsArmedI
 367 0018 AFF30080 		.section	.text.chSemFastSignalI,"ax",%progbits
 367      AFF30080 
 368              		.align	2
 369              		.p2align 4,,15
 370              		.thumb
 371              		.thumb_func
 372              		.type	chSemFastSignalI, %function
 373              	chSemFastSignalI:
 374              	.LFB177:
 375              		.file 6 "/home/makkmarci/workspace/CLEAN/ChibiOS/os/rt/include/chsem.h"
 376              		.loc 6 134 0
 377              		.cfi_startproc
 378              		@ args = 0, pretend = 0, frame = 8
 379              		@ frame_needed = 0, uses_anonymous_args = 0
 380              		@ link register save eliminated.
 381 0000 82B0     		sub	sp, sp, #8
 382              		.cfi_def_cfa_offset 8
 383 0002 0190     		str	r0, [sp, #4]
 384              		.loc 6 138 0
 385 0004 019B     		ldr	r3, [sp, #4]
 386 0006 9B68     		ldr	r3, [r3, #8]
 387 0008 5A1C     		adds	r2, r3, #1
 388 000a 019B     		ldr	r3, [sp, #4]
 389 000c 9A60     		str	r2, [r3, #8]
 390              		.loc 6 139 0
ARM GAS  /tmp/cctotIA8.s 			page 8


 391 000e 02B0     		add	sp, sp, #8
 392              		.cfi_def_cfa_offset 0
 393              		@ sp needed
 394 0010 7047     		bx	lr
 395              		.cfi_endproc
 396              	.LFE177:
 397              		.size	chSemFastSignalI, .-chSemFastSignalI
 398              		.global	ch
 399 0012 00BFAFF3 		.section	.bss.ch,"aw",%nobits
 399      0080AFF3 
 399      0080AFF3 
 399      0080
 400              		.align	3
 401              		.type	ch, %object
 402              		.size	ch, 472
 403              	ch:
 404 0000 00000000 		.space	472
 404      00000000 
 404      00000000 
 404      00000000 
 404      00000000 
 405              		.section	.text._scheduler_init,"ax",%progbits
 406              		.align	2
 407              		.p2align 4,,15
 408              		.global	_scheduler_init
 409              		.thumb
 410              		.thumb_func
 411              		.type	_scheduler_init, %function
 412              	_scheduler_init:
 413              	.LFB216:
 414              		.file 7 "/home/makkmarci/workspace/CLEAN/ChibiOS/os/rt/src/chschd.c"
 415              		.loc 7 65 0
 416              		.cfi_startproc
 417              		@ args = 0, pretend = 0, frame = 0
 418              		@ frame_needed = 0, uses_anonymous_args = 0
 419 0000 08B5     		push	{r3, lr}
 420              		.cfi_def_cfa_offset 8
 421              		.cfi_offset 3, -8
 422              		.cfi_offset 14, -4
 423              		.loc 7 67 0
 424 0002 0648     		ldr	r0, .L20
 425 0004 FFF7FEFF 		bl	queue_init
 426              		.loc 7 68 0
 427 0008 044B     		ldr	r3, .L20
 428 000a 0022     		movs	r2, #0
 429 000c 9A60     		str	r2, [r3, #8]
 430              		.loc 7 70 0
 431 000e 034B     		ldr	r3, .L20
 432 0010 024A     		ldr	r2, .L20
 433 0012 1A61     		str	r2, [r3, #16]
 434              		.loc 7 71 0
 435 0014 014B     		ldr	r3, .L20
 436 0016 014A     		ldr	r2, .L20
 437 0018 5A61     		str	r2, [r3, #20]
 438              		.loc 7 73 0
 439 001a 08BD     		pop	{r3, pc}
 440              	.L21:
ARM GAS  /tmp/cctotIA8.s 			page 9


 441              		.align	2
 442              	.L20:
 443 001c 00000000 		.word	ch
 444              		.cfi_endproc
 445              	.LFE216:
 446              		.size	_scheduler_init, .-_scheduler_init
 447              		.section	.text.chSchReadyI,"ax",%progbits
 448              		.align	2
 449              		.p2align 4,,15
 450              		.global	chSchReadyI
 451              		.thumb
 452              		.thumb_func
 453              		.type	chSchReadyI, %function
 454              	chSchReadyI:
 455              	.LFB217:
 456              		.loc 7 218 0
 457              		.cfi_startproc
 458              		@ args = 0, pretend = 0, frame = 16
 459              		@ frame_needed = 0, uses_anonymous_args = 0
 460              		@ link register save eliminated.
 461 0000 84B0     		sub	sp, sp, #16
 462              		.cfi_def_cfa_offset 16
 463 0002 0190     		str	r0, [sp, #4]
 464              		.loc 7 227 0
 465 0004 019B     		ldr	r3, [sp, #4]
 466 0006 0022     		movs	r2, #0
 467 0008 1A77     		strb	r2, [r3, #28]
 468              		.loc 7 228 0
 469 000a 0E4B     		ldr	r3, .L25
 470 000c 0393     		str	r3, [sp, #12]
 471              	.L23:
 472              		.loc 7 230 0 discriminator 1
 473 000e 039B     		ldr	r3, [sp, #12]
 474 0010 1B68     		ldr	r3, [r3]
 475 0012 0393     		str	r3, [sp, #12]
 476              		.loc 7 231 0 discriminator 1
 477 0014 039B     		ldr	r3, [sp, #12]
 478 0016 9A68     		ldr	r2, [r3, #8]
 479 0018 019B     		ldr	r3, [sp, #4]
 480 001a 9B68     		ldr	r3, [r3, #8]
 481 001c 9A42     		cmp	r2, r3
 482 001e F6D2     		bcs	.L23
 483              		.loc 7 233 0
 484 0020 019B     		ldr	r3, [sp, #4]
 485 0022 039A     		ldr	r2, [sp, #12]
 486 0024 1A60     		str	r2, [r3]
 487              		.loc 7 234 0
 488 0026 039B     		ldr	r3, [sp, #12]
 489 0028 5A68     		ldr	r2, [r3, #4]
 490 002a 019B     		ldr	r3, [sp, #4]
 491 002c 5A60     		str	r2, [r3, #4]
 492              		.loc 7 235 0
 493 002e 019B     		ldr	r3, [sp, #4]
 494 0030 5B68     		ldr	r3, [r3, #4]
 495 0032 019A     		ldr	r2, [sp, #4]
 496 0034 1A60     		str	r2, [r3]
 497              		.loc 7 236 0
ARM GAS  /tmp/cctotIA8.s 			page 10


 498 0036 039B     		ldr	r3, [sp, #12]
 499 0038 019A     		ldr	r2, [sp, #4]
 500 003a 5A60     		str	r2, [r3, #4]
 501              		.loc 7 238 0
 502 003c 019B     		ldr	r3, [sp, #4]
 503              		.loc 7 239 0
 504 003e 1846     		mov	r0, r3
 505 0040 04B0     		add	sp, sp, #16
 506              		.cfi_def_cfa_offset 0
 507              		@ sp needed
 508 0042 7047     		bx	lr
 509              	.L26:
 510              		.align	2
 511              	.L25:
 512 0044 00000000 		.word	ch
 513              		.cfi_endproc
 514              	.LFE217:
 515              		.size	chSchReadyI, .-chSchReadyI
 516 0048 AFF30080 		.section	.text.chSchGoSleepS,"ax",%progbits
 516      AFF30080 
 517              		.align	2
 518              		.p2align 4,,15
 519              		.global	chSchGoSleepS
 520              		.thumb
 521              		.thumb_func
 522              		.type	chSchGoSleepS, %function
 523              	chSchGoSleepS:
 524              	.LFB218:
 525              		.loc 7 250 0
 526              		.cfi_startproc
 527              		@ args = 0, pretend = 0, frame = 16
 528              		@ frame_needed = 0, uses_anonymous_args = 0
 529 0000 00B5     		push	{lr}
 530              		.cfi_def_cfa_offset 4
 531              		.cfi_offset 14, -4
 532 0002 85B0     		sub	sp, sp, #20
 533              		.cfi_def_cfa_offset 24
 534 0004 0346     		mov	r3, r0
 535 0006 8DF80730 		strb	r3, [sp, #7]
 536              		.loc 7 255 0
 537 000a 0D4B     		ldr	r3, .L28
 538 000c 9B69     		ldr	r3, [r3, #24]
 539 000e 0393     		str	r3, [sp, #12]
 540              		.loc 7 256 0
 541 0010 039B     		ldr	r3, [sp, #12]
 542 0012 9DF80720 		ldrb	r2, [sp, #7]
 543 0016 1A77     		strb	r2, [r3, #28]
 544              		.loc 7 262 0
 545 0018 0948     		ldr	r0, .L28
 546 001a FFF7FEFF 		bl	queue_fifo_remove
 547 001e 0246     		mov	r2, r0
 548 0020 074B     		ldr	r3, .L28
 549 0022 9A61     		str	r2, [r3, #24]
 550              		.loc 7 268 0
 551 0024 064B     		ldr	r3, .L28
 552 0026 9B69     		ldr	r3, [r3, #24]
 553 0028 0122     		movs	r2, #1
ARM GAS  /tmp/cctotIA8.s 			page 11


 554 002a 1A77     		strb	r2, [r3, #28]
 555              		.loc 7 269 0
 556 002c 044B     		ldr	r3, .L28
 557 002e 9B69     		ldr	r3, [r3, #24]
 558 0030 1846     		mov	r0, r3
 559 0032 0399     		ldr	r1, [sp, #12]
 560 0034 FFF7FEFF 		bl	_port_switch
 561              		.loc 7 270 0
 562 0038 05B0     		add	sp, sp, #20
 563              		.cfi_def_cfa_offset 4
 564              		@ sp needed
 565 003a 5DF804FB 		ldr	pc, [sp], #4
 566              	.L29:
 567 003e 00BF     		.align	2
 568              	.L28:
 569 0040 00000000 		.word	ch
 570              		.cfi_endproc
 571              	.LFE218:
 572              		.size	chSchGoSleepS, .-chSchGoSleepS
 573 0044 AFF30080 		.section	.text.wakeup,"ax",%progbits
 573      AFF30080 
 573      AFF30080 
 574              		.align	2
 575              		.p2align 4,,15
 576              		.thumb
 577              		.thumb_func
 578              		.type	wakeup, %function
 579              	wakeup:
 580              	.LFB219:
 581              		.loc 7 275 0
 582              		.cfi_startproc
 583              		@ args = 0, pretend = 0, frame = 16
 584              		@ frame_needed = 0, uses_anonymous_args = 0
 585 0000 00B5     		push	{lr}
 586              		.cfi_def_cfa_offset 4
 587              		.cfi_offset 14, -4
 588 0002 85B0     		sub	sp, sp, #20
 589              		.cfi_def_cfa_offset 24
 590 0004 0190     		str	r0, [sp, #4]
 591              		.loc 7 276 0
 592 0006 019B     		ldr	r3, [sp, #4]
 593 0008 0393     		str	r3, [sp, #12]
 594              		.loc 7 278 0
 595 000a FFF7FEFF 		bl	chSysLockFromISR
 596              		.loc 7 279 0
 597 000e 039B     		ldr	r3, [sp, #12]
 598 0010 1B7F     		ldrb	r3, [r3, #28]	@ zero_extendqisi2
 599 0012 072B     		cmp	r3, #7
 600 0014 23D8     		bhi	.L39
 601 0016 01A2     		adr	r2, .L33
 602 0018 52F823F0 		ldr	pc, [r2, r3, lsl #2]
 603              		.p2align 2
 604              	.L33:
 605 001c 3D000000 		.word	.L32+1
 606 0020 5F000000 		.word	.L39+1
 607 0024 5F000000 		.word	.L39+1
 608 0028 43000000 		.word	.L34+1
ARM GAS  /tmp/cctotIA8.s 			page 12


 609 002c 57000000 		.word	.L35+1
 610 0030 4D000000 		.word	.L36+1
 611 0034 5F000000 		.word	.L39+1
 612 0038 57000000 		.word	.L35+1
 613              		.p2align 1
 614              	.L32:
 615              		.loc 7 283 0
 616 003c FFF7FEFF 		bl	chSysUnlockFromISR
 617              		.loc 7 284 0
 618 0040 17E0     		b	.L30
 619              	.L34:
 620              		.loc 7 286 0
 621 0042 039B     		ldr	r3, [sp, #12]
 622 0044 1B6A     		ldr	r3, [r3, #32]
 623 0046 0022     		movs	r2, #0
 624 0048 1A60     		str	r2, [r3]
 625              		.loc 7 287 0
 626 004a 09E0     		b	.L38
 627              	.L36:
 628              		.loc 7 290 0
 629 004c 039B     		ldr	r3, [sp, #12]
 630 004e 1B6A     		ldr	r3, [r3, #32]
 631 0050 1846     		mov	r0, r3
 632 0052 FFF7FEFF 		bl	chSemFastSignalI
 633              	.L35:
 634              		.loc 7 298 0
 635 0056 0398     		ldr	r0, [sp, #12]
 636 0058 FFF7FEFF 		bl	queue_dequeue
 637              		.loc 7 299 0
 638 005c 00E0     		b	.L38
 639              	.L39:
 640              		.loc 7 302 0
 641 005e 00BF     		nop
 642              	.L38:
 643              		.loc 7 304 0
 644 0060 039B     		ldr	r3, [sp, #12]
 645 0062 4FF0FF32 		mov	r2, #-1
 646 0066 1A62     		str	r2, [r3, #32]
 647              		.loc 7 305 0
 648 0068 0398     		ldr	r0, [sp, #12]
 649 006a FFF7FEFF 		bl	chSchReadyI
 650              		.loc 7 306 0
 651 006e FFF7FEFF 		bl	chSysUnlockFromISR
 652              	.L30:
 653              		.loc 7 307 0
 654 0072 05B0     		add	sp, sp, #20
 655              		.cfi_def_cfa_offset 4
 656              		@ sp needed
 657 0074 5DF804FB 		ldr	pc, [sp], #4
 658              		.cfi_endproc
 659              	.LFE219:
 660              		.size	wakeup, .-wakeup
 661 0078 AFF30080 		.section	.text.chSchGoSleepTimeoutS,"ax",%progbits
 661      AFF30080 
 662              		.align	2
 663              		.p2align 4,,15
 664              		.global	chSchGoSleepTimeoutS
ARM GAS  /tmp/cctotIA8.s 			page 13


 665              		.thumb
 666              		.thumb_func
 667              		.type	chSchGoSleepTimeoutS, %function
 668              	chSchGoSleepTimeoutS:
 669              	.LFB220:
 670              		.loc 7 330 0
 671              		.cfi_startproc
 672              		@ args = 0, pretend = 0, frame = 32
 673              		@ frame_needed = 0, uses_anonymous_args = 0
 674 0000 00B5     		push	{lr}
 675              		.cfi_def_cfa_offset 4
 676              		.cfi_offset 14, -4
 677 0002 89B0     		sub	sp, sp, #36
 678              		.cfi_def_cfa_offset 40
 679 0004 0346     		mov	r3, r0
 680 0006 0091     		str	r1, [sp]
 681 0008 8DF80730 		strb	r3, [sp, #7]
 682              		.loc 7 334 0
 683 000c 009B     		ldr	r3, [sp]
 684 000e B3F1FF3F 		cmp	r3, #-1
 685 0012 19D0     		beq	.L41
 686              	.LBB10:
 687              		.loc 7 337 0
 688 0014 124B     		ldr	r3, .L45
 689 0016 9B69     		ldr	r3, [r3, #24]
 690 0018 03AA     		add	r2, sp, #12
 691 001a 1046     		mov	r0, r2
 692 001c 0099     		ldr	r1, [sp]
 693 001e 114A     		ldr	r2, .L45+4
 694 0020 FFF7FEFF 		bl	chVTDoSetI
 695              		.loc 7 338 0
 696 0024 9DF80730 		ldrb	r3, [sp, #7]	@ zero_extendqisi2
 697 0028 1846     		mov	r0, r3
 698 002a FFF7FEFF 		bl	chSchGoSleepS
 699              		.loc 7 339 0
 700 002e 03AB     		add	r3, sp, #12
 701 0030 1846     		mov	r0, r3
 702 0032 FFF7FEFF 		bl	chVTIsArmedI
 703 0036 0346     		mov	r3, r0
 704 0038 002B     		cmp	r3, #0
 705 003a 04D0     		beq	.L42
 706              		.loc 7 340 0
 707 003c 03AB     		add	r3, sp, #12
 708 003e 1846     		mov	r0, r3
 709 0040 FFF7FEFF 		bl	chVTDoResetI
 710              	.LBE10:
 711 0044 05E0     		b	.L43
 712              	.L42:
 713 0046 04E0     		b	.L43
 714              	.L41:
 715              		.loc 7 344 0
 716 0048 9DF80730 		ldrb	r3, [sp, #7]	@ zero_extendqisi2
 717 004c 1846     		mov	r0, r3
 718 004e FFF7FEFF 		bl	chSchGoSleepS
 719              	.L43:
 720              		.loc 7 347 0
 721 0052 034B     		ldr	r3, .L45
ARM GAS  /tmp/cctotIA8.s 			page 14


 722 0054 9B69     		ldr	r3, [r3, #24]
 723 0056 1B6A     		ldr	r3, [r3, #32]
 724              		.loc 7 348 0
 725 0058 1846     		mov	r0, r3
 726 005a 09B0     		add	sp, sp, #36
 727              		.cfi_def_cfa_offset 4
 728              		@ sp needed
 729 005c 5DF804FB 		ldr	pc, [sp], #4
 730              	.L46:
 731              		.align	2
 732              	.L45:
 733 0060 00000000 		.word	ch
 734 0064 00000000 		.word	wakeup
 735              		.cfi_endproc
 736              	.LFE220:
 737              		.size	chSchGoSleepTimeoutS, .-chSchGoSleepTimeoutS
 738 0068 AFF30080 		.section	.text.chSchWakeupS,"ax",%progbits
 738      AFF30080 
 739              		.align	2
 740              		.p2align 4,,15
 741              		.global	chSchWakeupS
 742              		.thumb
 743              		.thumb_func
 744              		.type	chSchWakeupS, %function
 745              	chSchWakeupS:
 746              	.LFB221:
 747              		.loc 7 367 0
 748              		.cfi_startproc
 749              		@ args = 0, pretend = 0, frame = 16
 750              		@ frame_needed = 0, uses_anonymous_args = 0
 751 0000 00B5     		push	{lr}
 752              		.cfi_def_cfa_offset 4
 753              		.cfi_offset 14, -4
 754 0002 85B0     		sub	sp, sp, #20
 755              		.cfi_def_cfa_offset 24
 756 0004 0190     		str	r0, [sp, #4]
 757 0006 0091     		str	r1, [sp]
 758              		.loc 7 373 0
 759 0008 019B     		ldr	r3, [sp, #4]
 760 000a 009A     		ldr	r2, [sp]
 761 000c 1A62     		str	r2, [r3, #32]
 762              		.loc 7 379 0
 763 000e 019B     		ldr	r3, [sp, #4]
 764 0010 9A68     		ldr	r2, [r3, #8]
 765 0012 0E4B     		ldr	r3, .L50
 766 0014 9B69     		ldr	r3, [r3, #24]
 767 0016 9B68     		ldr	r3, [r3, #8]
 768 0018 9A42     		cmp	r2, r3
 769 001a 03D8     		bhi	.L48
 770              		.loc 7 380 0
 771 001c 0198     		ldr	r0, [sp, #4]
 772 001e FFF7FEFF 		bl	chSchReadyI
 773 0022 0FE0     		b	.L47
 774              	.L48:
 775              	.LBB11:
 776              		.loc 7 383 0
 777 0024 094B     		ldr	r3, .L50
ARM GAS  /tmp/cctotIA8.s 			page 15


 778 0026 9B69     		ldr	r3, [r3, #24]
 779 0028 1846     		mov	r0, r3
 780 002a FFF7FEFF 		bl	chSchReadyI
 781 002e 0390     		str	r0, [sp, #12]
 782              		.loc 7 384 0
 783 0030 064A     		ldr	r2, .L50
 784 0032 019B     		ldr	r3, [sp, #4]
 785 0034 9361     		str	r3, [r2, #24]
 786              		.loc 7 390 0
 787 0036 019B     		ldr	r3, [sp, #4]
 788 0038 0122     		movs	r2, #1
 789 003a 1A77     		strb	r2, [r3, #28]
 790              		.loc 7 391 0
 791 003c 0198     		ldr	r0, [sp, #4]
 792 003e 0399     		ldr	r1, [sp, #12]
 793 0040 FFF7FEFF 		bl	_port_switch
 794              	.L47:
 795              	.LBE11:
 796              		.loc 7 393 0
 797 0044 05B0     		add	sp, sp, #20
 798              		.cfi_def_cfa_offset 4
 799              		@ sp needed
 800 0046 5DF804FB 		ldr	pc, [sp], #4
 801              	.L51:
 802 004a 00BF     		.align	2
 803              	.L50:
 804 004c 00000000 		.word	ch
 805              		.cfi_endproc
 806              	.LFE221:
 807              		.size	chSchWakeupS, .-chSchWakeupS
 808              		.section	.text.chSchRescheduleS,"ax",%progbits
 809              		.align	2
 810              		.p2align 4,,15
 811              		.global	chSchRescheduleS
 812              		.thumb
 813              		.thumb_func
 814              		.type	chSchRescheduleS, %function
 815              	chSchRescheduleS:
 816              	.LFB222:
 817              		.loc 7 402 0
 818              		.cfi_startproc
 819              		@ args = 0, pretend = 0, frame = 0
 820              		@ frame_needed = 0, uses_anonymous_args = 0
 821 0000 08B5     		push	{r3, lr}
 822              		.cfi_def_cfa_offset 8
 823              		.cfi_offset 3, -8
 824              		.cfi_offset 14, -4
 825              		.loc 7 406 0
 826 0002 FFF7FEFF 		bl	chSchIsRescRequiredI
 827 0006 0346     		mov	r3, r0
 828 0008 002B     		cmp	r3, #0
 829 000a 01D0     		beq	.L52
 830              		.loc 7 407 0
 831 000c FFF7FEFF 		bl	chSchDoRescheduleAhead
 832              	.L52:
 833              		.loc 7 409 0
 834 0010 08BD     		pop	{r3, pc}
ARM GAS  /tmp/cctotIA8.s 			page 16


 835              		.cfi_endproc
 836              	.LFE222:
 837              		.size	chSchRescheduleS, .-chSchRescheduleS
 838 0012 00BFAFF3 		.section	.text.chSchIsPreemptionRequired,"ax",%progbits
 838      0080AFF3 
 838      0080AFF3 
 838      0080
 839              		.align	2
 840              		.p2align 4,,15
 841              		.global	chSchIsPreemptionRequired
 842              		.thumb
 843              		.thumb_func
 844              		.type	chSchIsPreemptionRequired, %function
 845              	chSchIsPreemptionRequired:
 846              	.LFB223:
 847              		.loc 7 424 0
 848              		.cfi_startproc
 849              		@ args = 0, pretend = 0, frame = 8
 850              		@ frame_needed = 0, uses_anonymous_args = 0
 851              		@ link register save eliminated.
 852 0000 82B0     		sub	sp, sp, #8
 853              		.cfi_def_cfa_offset 8
 854              		.loc 7 425 0
 855 0002 094B     		ldr	r3, .L56
 856 0004 1B68     		ldr	r3, [r3]
 857 0006 9B68     		ldr	r3, [r3, #8]
 858 0008 0193     		str	r3, [sp, #4]
 859              		.loc 7 426 0
 860 000a 074B     		ldr	r3, .L56
 861 000c 9B69     		ldr	r3, [r3, #24]
 862 000e 9B68     		ldr	r3, [r3, #8]
 863 0010 0093     		str	r3, [sp]
 864              		.loc 7 437 0
 865 0012 019A     		ldr	r2, [sp, #4]
 866 0014 009B     		ldr	r3, [sp]
 867 0016 9A42     		cmp	r2, r3
 868 0018 8CBF     		ite	hi
 869 001a 0123     		movhi	r3, #1
 870 001c 0023     		movls	r3, #0
 871 001e DBB2     		uxtb	r3, r3
 872              		.loc 7 439 0
 873 0020 1846     		mov	r0, r3
 874 0022 02B0     		add	sp, sp, #8
 875              		.cfi_def_cfa_offset 0
 876              		@ sp needed
 877 0024 7047     		bx	lr
 878              	.L57:
 879 0026 00BF     		.align	2
 880              	.L56:
 881 0028 00000000 		.word	ch
 882              		.cfi_endproc
 883              	.LFE223:
 884              		.size	chSchIsPreemptionRequired, .-chSchIsPreemptionRequired
 885 002c AFF30080 		.section	.text.chSchDoRescheduleBehind,"ax",%progbits
 886              		.align	2
 887              		.p2align 4,,15
 888              		.global	chSchDoRescheduleBehind
ARM GAS  /tmp/cctotIA8.s 			page 17


 889              		.thumb
 890              		.thumb_func
 891              		.type	chSchDoRescheduleBehind, %function
 892              	chSchDoRescheduleBehind:
 893              	.LFB224:
 894              		.loc 7 451 0
 895              		.cfi_startproc
 896              		@ args = 0, pretend = 0, frame = 8
 897              		@ frame_needed = 0, uses_anonymous_args = 0
 898 0000 00B5     		push	{lr}
 899              		.cfi_def_cfa_offset 4
 900              		.cfi_offset 14, -4
 901 0002 83B0     		sub	sp, sp, #12
 902              		.cfi_def_cfa_offset 16
 903              		.loc 7 454 0
 904 0004 0C4B     		ldr	r3, .L59
 905 0006 9B69     		ldr	r3, [r3, #24]
 906 0008 0193     		str	r3, [sp, #4]
 907              		.loc 7 456 0
 908 000a 0B48     		ldr	r0, .L59
 909 000c FFF7FEFF 		bl	queue_fifo_remove
 910 0010 0246     		mov	r2, r0
 911 0012 094B     		ldr	r3, .L59
 912 0014 9A61     		str	r2, [r3, #24]
 913              		.loc 7 462 0
 914 0016 084B     		ldr	r3, .L59
 915 0018 9B69     		ldr	r3, [r3, #24]
 916 001a 0122     		movs	r2, #1
 917 001c 1A77     		strb	r2, [r3, #28]
 918              		.loc 7 466 0
 919 001e 0198     		ldr	r0, [sp, #4]
 920 0020 FFF7FEFF 		bl	chSchReadyI
 921              		.loc 7 467 0
 922 0024 044B     		ldr	r3, .L59
 923 0026 9B69     		ldr	r3, [r3, #24]
 924 0028 1846     		mov	r0, r3
 925 002a 0199     		ldr	r1, [sp, #4]
 926 002c FFF7FEFF 		bl	_port_switch
 927              		.loc 7 468 0
 928 0030 03B0     		add	sp, sp, #12
 929              		.cfi_def_cfa_offset 4
 930              		@ sp needed
 931 0032 5DF804FB 		ldr	pc, [sp], #4
 932              	.L60:
 933 0036 00BF     		.align	2
 934              	.L59:
 935 0038 00000000 		.word	ch
 936              		.cfi_endproc
 937              	.LFE224:
 938              		.size	chSchDoRescheduleBehind, .-chSchDoRescheduleBehind
 939 003c AFF30080 		.section	.text.chSchDoRescheduleAhead,"ax",%progbits
 940              		.align	2
 941              		.p2align 4,,15
 942              		.global	chSchDoRescheduleAhead
 943              		.thumb
 944              		.thumb_func
 945              		.type	chSchDoRescheduleAhead, %function
ARM GAS  /tmp/cctotIA8.s 			page 18


 946              	chSchDoRescheduleAhead:
 947              	.LFB225:
 948              		.loc 7 479 0
 949              		.cfi_startproc
 950              		@ args = 0, pretend = 0, frame = 8
 951              		@ frame_needed = 0, uses_anonymous_args = 0
 952 0000 00B5     		push	{lr}
 953              		.cfi_def_cfa_offset 4
 954              		.cfi_offset 14, -4
 955 0002 83B0     		sub	sp, sp, #12
 956              		.cfi_def_cfa_offset 16
 957              		.loc 7 482 0
 958 0004 184B     		ldr	r3, .L63
 959 0006 9B69     		ldr	r3, [r3, #24]
 960 0008 0093     		str	r3, [sp]
 961              		.loc 7 484 0
 962 000a 1748     		ldr	r0, .L63
 963 000c FFF7FEFF 		bl	queue_fifo_remove
 964 0010 0246     		mov	r2, r0
 965 0012 154B     		ldr	r3, .L63
 966 0014 9A61     		str	r2, [r3, #24]
 967              		.loc 7 490 0
 968 0016 144B     		ldr	r3, .L63
 969 0018 9B69     		ldr	r3, [r3, #24]
 970 001a 0122     		movs	r2, #1
 971 001c 1A77     		strb	r2, [r3, #28]
 972              		.loc 7 492 0
 973 001e 009B     		ldr	r3, [sp]
 974 0020 0022     		movs	r2, #0
 975 0022 1A77     		strb	r2, [r3, #28]
 976              		.loc 7 493 0
 977 0024 104B     		ldr	r3, .L63
 978 0026 0193     		str	r3, [sp, #4]
 979              	.L62:
 980              		.loc 7 495 0 discriminator 1
 981 0028 019B     		ldr	r3, [sp, #4]
 982 002a 1B68     		ldr	r3, [r3]
 983 002c 0193     		str	r3, [sp, #4]
 984              		.loc 7 496 0 discriminator 1
 985 002e 019B     		ldr	r3, [sp, #4]
 986 0030 9A68     		ldr	r2, [r3, #8]
 987 0032 009B     		ldr	r3, [sp]
 988 0034 9B68     		ldr	r3, [r3, #8]
 989 0036 9A42     		cmp	r2, r3
 990 0038 F6D8     		bhi	.L62
 991              		.loc 7 498 0
 992 003a 009B     		ldr	r3, [sp]
 993 003c 019A     		ldr	r2, [sp, #4]
 994 003e 1A60     		str	r2, [r3]
 995              		.loc 7 499 0
 996 0040 019B     		ldr	r3, [sp, #4]
 997 0042 5A68     		ldr	r2, [r3, #4]
 998 0044 009B     		ldr	r3, [sp]
 999 0046 5A60     		str	r2, [r3, #4]
 1000              		.loc 7 500 0
 1001 0048 009B     		ldr	r3, [sp]
 1002 004a 5B68     		ldr	r3, [r3, #4]
ARM GAS  /tmp/cctotIA8.s 			page 19


 1003 004c 009A     		ldr	r2, [sp]
 1004 004e 1A60     		str	r2, [r3]
 1005              		.loc 7 501 0
 1006 0050 019B     		ldr	r3, [sp, #4]
 1007 0052 009A     		ldr	r2, [sp]
 1008 0054 5A60     		str	r2, [r3, #4]
 1009              		.loc 7 503 0
 1010 0056 044B     		ldr	r3, .L63
 1011 0058 9B69     		ldr	r3, [r3, #24]
 1012 005a 1846     		mov	r0, r3
 1013 005c 0099     		ldr	r1, [sp]
 1014 005e FFF7FEFF 		bl	_port_switch
 1015              		.loc 7 504 0
 1016 0062 03B0     		add	sp, sp, #12
 1017              		.cfi_def_cfa_offset 4
 1018              		@ sp needed
 1019 0064 5DF804FB 		ldr	pc, [sp], #4
 1020              	.L64:
 1021              		.align	2
 1022              	.L63:
 1023 0068 00000000 		.word	ch
 1024              		.cfi_endproc
 1025              	.LFE225:
 1026              		.size	chSchDoRescheduleAhead, .-chSchDoRescheduleAhead
 1027 006c AFF30080 		.section	.text.chSchDoReschedule,"ax",%progbits
 1028              		.align	2
 1029              		.p2align 4,,15
 1030              		.global	chSchDoReschedule
 1031              		.thumb
 1032              		.thumb_func
 1033              		.type	chSchDoReschedule, %function
 1034              	chSchDoReschedule:
 1035              	.LFB226:
 1036              		.loc 7 516 0
 1037              		.cfi_startproc
 1038              		@ args = 0, pretend = 0, frame = 0
 1039              		@ frame_needed = 0, uses_anonymous_args = 0
 1040 0000 08B5     		push	{r3, lr}
 1041              		.cfi_def_cfa_offset 8
 1042              		.cfi_offset 3, -8
 1043              		.cfi_offset 14, -4
 1044              		.loc 7 534 0
 1045 0002 FFF7FEFF 		bl	chSchDoRescheduleAhead
 1046              		.loc 7 536 0
 1047 0006 08BD     		pop	{r3, pc}
 1048              		.cfi_endproc
 1049              	.LFE226:
 1050              		.size	chSchDoReschedule, .-chSchDoReschedule
 1051              		.text
 1052              	.Letext0:
 1053              		.file 8 "/opt/gcc-arm-none-eabi/lib/gcc/arm-none-eabi/4.9.3/include/stddef.h"
 1054              		.file 9 "/opt/gcc-arm-none-eabi/arm-none-eabi/include/machine/_default_types.h"
 1055              		.file 10 "/opt/gcc-arm-none-eabi/arm-none-eabi/include/stdint.h"
 1056              		.file 11 "/home/makkmarci/workspace/CLEAN/ChibiOS/os/rt/ports/ARMCMx/compilers/GCC/chtypes.h"
 1057              		.file 12 "/home/makkmarci/workspace/CLEAN/ChibiOS/os/rt/include/chsystypes.h"
 1058              		.file 13 "/home/makkmarci/workspace/CLEAN/ChibiOS/os/rt/ports/ARMCMx/chcore.h"
 1059              		.file 14 "/home/makkmarci/workspace/CLEAN/ChibiOS/os/rt/include/chtm.h"
ARM GAS  /tmp/cctotIA8.s 			page 20


 1060              		.file 15 "/home/makkmarci/workspace/CLEAN/ChibiOS/os/rt/include/chmtx.h"
 1061              		.file 16 "/home/makkmarci/workspace/CLEAN/ChibiOS/os/ext/CMSIS/include/core_cm4.h"