ARM GAS  /tmp/cczVTum7.s 			page 1


   1              		.syntax unified
   2              		.cpu cortex-m4
   3              		.eabi_attribute 27, 1
   4              		.eabi_attribute 28, 1
   5              		.fpu fpv4-sp-d16
   6              		.eabi_attribute 20, 1
   7              		.eabi_attribute 21, 1
   8              		.eabi_attribute 23, 3
   9              		.eabi_attribute 24, 1
  10              		.eabi_attribute 25, 1
  11              		.eabi_attribute 26, 1
  12              		.eabi_attribute 30, 6
  13              		.eabi_attribute 34, 1
  14              		.eabi_attribute 18, 4
  15              		.thumb
  16              		.file	"chthreads.c"
  17              		.text
  18              	.Ltext0:
  19              		.cfi_sections	.debug_frame
  20              		.section	.text.port_lock,"ax",%progbits
  21              		.align	2
  22              		.p2align 4,,15
  23              		.thumb
  24              		.thumb_func
  25              		.type	port_lock, %function
  26              	port_lock:
  27              	.LFB116:
  28              		.file 1 "/home/makkmarci/workspace/CLEAN/ChibiOS/os/rt/ports/ARMCMx/chcore_v7m.h"
  29              		.loc 1 444 0
  30              		.cfi_startproc
  31              		@ args = 0, pretend = 0, frame = 8
  32              		@ frame_needed = 0, uses_anonymous_args = 0
  33              		@ link register save eliminated.
  34 0000 82B0     		sub	sp, sp, #8
  35              		.cfi_def_cfa_offset 8
  36 0002 2023     		movs	r3, #32
  37 0004 0193     		str	r3, [sp, #4]
  38              	.LBB6:
  39              	.LBB7:
  40              		.file 2 "/home/makkmarci/workspace/CLEAN/ChibiOS/os/ext/CMSIS/include/core_cmFunc.h"
  41              		.loc 2 546 0
  42 0006 019B     		ldr	r3, [sp, #4]
  43              	@ 546 "/home/makkmarci/workspace/CLEAN/ChibiOS/os/ext/CMSIS/include/core_cmFunc.h" 1
  44 0008 83F31188 		MSR basepri, r3
  45              	@ 0 "" 2
  46              		.thumb
  47              	.LBE7:
  48              	.LBE6:
  49              		.loc 1 451 0
  50 000c 02B0     		add	sp, sp, #8
  51              		.cfi_def_cfa_offset 0
  52              		@ sp needed
  53 000e 7047     		bx	lr
  54              		.cfi_endproc
  55              	.LFE116:
  56              		.size	port_lock, .-port_lock
  57              		.section	.text.port_unlock,"ax",%progbits
ARM GAS  /tmp/cczVTum7.s 			page 2


  58              		.align	2
  59              		.p2align 4,,15
  60              		.thumb
  61              		.thumb_func
  62              		.type	port_unlock, %function
  63              	port_unlock:
  64              	.LFB117:
  65              		.loc 1 458 0
  66              		.cfi_startproc
  67              		@ args = 0, pretend = 0, frame = 8
  68              		@ frame_needed = 0, uses_anonymous_args = 0
  69              		@ link register save eliminated.
  70 0000 82B0     		sub	sp, sp, #8
  71              		.cfi_def_cfa_offset 8
  72 0002 0023     		movs	r3, #0
  73 0004 0193     		str	r3, [sp, #4]
  74              	.LBB8:
  75              	.LBB9:
  76              		.loc 2 546 0
  77 0006 019B     		ldr	r3, [sp, #4]
  78              	@ 546 "/home/makkmarci/workspace/CLEAN/ChibiOS/os/ext/CMSIS/include/core_cmFunc.h" 1
  79 0008 83F31188 		MSR basepri, r3
  80              	@ 0 "" 2
  81              		.thumb
  82              	.LBE9:
  83              	.LBE8:
  84              		.loc 1 465 0
  85 000c 02B0     		add	sp, sp, #8
  86              		.cfi_def_cfa_offset 0
  87              		@ sp needed
  88 000e 7047     		bx	lr
  89              		.cfi_endproc
  90              	.LFE117:
  91              		.size	port_unlock, .-port_unlock
  92              		.section	.text.list_init,"ax",%progbits
  93              		.align	2
  94              		.p2align 4,,15
  95              		.thumb
  96              		.thumb_func
  97              		.type	list_init, %function
  98              	list_init:
  99              	.LFB125:
 100              		.file 3 "/home/makkmarci/workspace/CLEAN/ChibiOS/os/rt/include/chschd.h"
 101              		.loc 3 564 0
 102              		.cfi_startproc
 103              		@ args = 0, pretend = 0, frame = 8
 104              		@ frame_needed = 0, uses_anonymous_args = 0
 105              		@ link register save eliminated.
 106 0000 82B0     		sub	sp, sp, #8
 107              		.cfi_def_cfa_offset 8
 108 0002 0190     		str	r0, [sp, #4]
 109              		.loc 3 566 0
 110 0004 019B     		ldr	r3, [sp, #4]
 111 0006 019A     		ldr	r2, [sp, #4]
 112 0008 1A60     		str	r2, [r3]
 113              		.loc 3 567 0
 114 000a 02B0     		add	sp, sp, #8
ARM GAS  /tmp/cczVTum7.s 			page 3


 115              		.cfi_def_cfa_offset 0
 116              		@ sp needed
 117 000c 7047     		bx	lr
 118              		.cfi_endproc
 119              	.LFE125:
 120              		.size	list_init, .-list_init
 121 000e 00BF     		.section	.text.list_notempty,"ax",%progbits
 122              		.align	2
 123              		.p2align 4,,15
 124              		.thumb
 125              		.thumb_func
 126              		.type	list_notempty, %function
 127              	list_notempty:
 128              	.LFB127:
 129              		.loc 3 590 0
 130              		.cfi_startproc
 131              		@ args = 0, pretend = 0, frame = 8
 132              		@ frame_needed = 0, uses_anonymous_args = 0
 133              		@ link register save eliminated.
 134 0000 82B0     		sub	sp, sp, #8
 135              		.cfi_def_cfa_offset 8
 136 0002 0190     		str	r0, [sp, #4]
 137              		.loc 3 592 0
 138 0004 019B     		ldr	r3, [sp, #4]
 139 0006 1A68     		ldr	r2, [r3]
 140 0008 019B     		ldr	r3, [sp, #4]
 141 000a 9A42     		cmp	r2, r3
 142 000c 14BF     		ite	ne
 143 000e 0123     		movne	r3, #1
 144 0010 0023     		moveq	r3, #0
 145 0012 DBB2     		uxtb	r3, r3
 146              		.loc 3 593 0
 147 0014 1846     		mov	r0, r3
 148 0016 02B0     		add	sp, sp, #8
 149              		.cfi_def_cfa_offset 0
 150              		@ sp needed
 151 0018 7047     		bx	lr
 152              		.cfi_endproc
 153              	.LFE127:
 154              		.size	list_notempty, .-list_notempty
 155 001a 00BFAFF3 		.section	.text.queue_init,"ax",%progbits
 155      0080
 156              		.align	2
 157              		.p2align 4,,15
 158              		.thumb
 159              		.thumb_func
 160              		.type	queue_init, %function
 161              	queue_init:
 162              	.LFB128:
 163              		.loc 3 602 0
 164              		.cfi_startproc
 165              		@ args = 0, pretend = 0, frame = 8
 166              		@ frame_needed = 0, uses_anonymous_args = 0
 167              		@ link register save eliminated.
 168 0000 82B0     		sub	sp, sp, #8
 169              		.cfi_def_cfa_offset 8
 170 0002 0190     		str	r0, [sp, #4]
ARM GAS  /tmp/cczVTum7.s 			page 4


 171              		.loc 3 604 0
 172 0004 019B     		ldr	r3, [sp, #4]
 173 0006 019A     		ldr	r2, [sp, #4]
 174 0008 1A60     		str	r2, [r3]
 175              		.loc 3 605 0
 176 000a 019B     		ldr	r3, [sp, #4]
 177 000c 019A     		ldr	r2, [sp, #4]
 178 000e 5A60     		str	r2, [r3, #4]
 179              		.loc 3 606 0
 180 0010 02B0     		add	sp, sp, #8
 181              		.cfi_def_cfa_offset 0
 182              		@ sp needed
 183 0012 7047     		bx	lr
 184              		.cfi_endproc
 185              	.LFE128:
 186              		.size	queue_init, .-queue_init
 187 0014 AFF30080 		.section	.text.queue_notempty,"ax",%progbits
 187      AFF30080 
 187      AFF30080 
 188              		.align	2
 189              		.p2align 4,,15
 190              		.thumb
 191              		.thumb_func
 192              		.type	queue_notempty, %function
 193              	queue_notempty:
 194              	.LFB130:
 195              		.loc 3 629 0
 196              		.cfi_startproc
 197              		@ args = 0, pretend = 0, frame = 8
 198              		@ frame_needed = 0, uses_anonymous_args = 0
 199              		@ link register save eliminated.
 200 0000 82B0     		sub	sp, sp, #8
 201              		.cfi_def_cfa_offset 8
 202 0002 0190     		str	r0, [sp, #4]
 203              		.loc 3 631 0
 204 0004 019B     		ldr	r3, [sp, #4]
 205 0006 1A68     		ldr	r2, [r3]
 206 0008 019B     		ldr	r3, [sp, #4]
 207 000a 9A42     		cmp	r2, r3
 208 000c 14BF     		ite	ne
 209 000e 0123     		movne	r3, #1
 210 0010 0023     		moveq	r3, #0
 211 0012 DBB2     		uxtb	r3, r3
 212              		.loc 3 632 0
 213 0014 1846     		mov	r0, r3
 214 0016 02B0     		add	sp, sp, #8
 215              		.cfi_def_cfa_offset 0
 216              		@ sp needed
 217 0018 7047     		bx	lr
 218              		.cfi_endproc
 219              	.LFE130:
 220              		.size	queue_notempty, .-queue_notempty
 221 001a 00BFAFF3 		.section	.text.list_insert,"ax",%progbits
 221      0080
 222              		.align	2
 223              		.p2align 4,,15
 224              		.thumb
ARM GAS  /tmp/cczVTum7.s 			page 5


 225              		.thumb_func
 226              		.type	list_insert, %function
 227              	list_insert:
 228              	.LFB131:
 229              		.loc 3 637 0
 230              		.cfi_startproc
 231              		@ args = 0, pretend = 0, frame = 8
 232              		@ frame_needed = 0, uses_anonymous_args = 0
 233              		@ link register save eliminated.
 234 0000 82B0     		sub	sp, sp, #8
 235              		.cfi_def_cfa_offset 8
 236 0002 0190     		str	r0, [sp, #4]
 237 0004 0091     		str	r1, [sp]
 238              		.loc 3 639 0
 239 0006 009B     		ldr	r3, [sp]
 240 0008 1A68     		ldr	r2, [r3]
 241 000a 019B     		ldr	r3, [sp, #4]
 242 000c 1A60     		str	r2, [r3]
 243              		.loc 3 640 0
 244 000e 009B     		ldr	r3, [sp]
 245 0010 019A     		ldr	r2, [sp, #4]
 246 0012 1A60     		str	r2, [r3]
 247              		.loc 3 641 0
 248 0014 02B0     		add	sp, sp, #8
 249              		.cfi_def_cfa_offset 0
 250              		@ sp needed
 251 0016 7047     		bx	lr
 252              		.cfi_endproc
 253              	.LFE131:
 254              		.size	list_insert, .-list_insert
 255 0018 AFF30080 		.section	.text.list_remove,"ax",%progbits
 255      AFF30080 
 256              		.align	2
 257              		.p2align 4,,15
 258              		.thumb
 259              		.thumb_func
 260              		.type	list_remove, %function
 261              	list_remove:
 262              	.LFB132:
 263              		.loc 3 643 0
 264              		.cfi_startproc
 265              		@ args = 0, pretend = 0, frame = 16
 266              		@ frame_needed = 0, uses_anonymous_args = 0
 267              		@ link register save eliminated.
 268 0000 84B0     		sub	sp, sp, #16
 269              		.cfi_def_cfa_offset 16
 270 0002 0190     		str	r0, [sp, #4]
 271              		.loc 3 645 0
 272 0004 019B     		ldr	r3, [sp, #4]
 273 0006 1B68     		ldr	r3, [r3]
 274 0008 0393     		str	r3, [sp, #12]
 275              		.loc 3 646 0
 276 000a 039B     		ldr	r3, [sp, #12]
 277 000c 1A68     		ldr	r2, [r3]
 278 000e 019B     		ldr	r3, [sp, #4]
 279 0010 1A60     		str	r2, [r3]
 280              		.loc 3 648 0
ARM GAS  /tmp/cczVTum7.s 			page 6


 281 0012 039B     		ldr	r3, [sp, #12]
 282              		.loc 3 649 0
 283 0014 1846     		mov	r0, r3
 284 0016 04B0     		add	sp, sp, #16
 285              		.cfi_def_cfa_offset 0
 286              		@ sp needed
 287 0018 7047     		bx	lr
 288              		.cfi_endproc
 289              	.LFE132:
 290              		.size	list_remove, .-list_remove
 291 001a 00BFAFF3 		.section	.text.queue_insert,"ax",%progbits
 291      0080
 292              		.align	2
 293              		.p2align 4,,15
 294              		.thumb
 295              		.thumb_func
 296              		.type	queue_insert, %function
 297              	queue_insert:
 298              	.LFB134:
 299              		.loc 3 663 0
 300              		.cfi_startproc
 301              		@ args = 0, pretend = 0, frame = 8
 302              		@ frame_needed = 0, uses_anonymous_args = 0
 303              		@ link register save eliminated.
 304 0000 82B0     		sub	sp, sp, #8
 305              		.cfi_def_cfa_offset 8
 306 0002 0190     		str	r0, [sp, #4]
 307 0004 0091     		str	r1, [sp]
 308              		.loc 3 665 0
 309 0006 019B     		ldr	r3, [sp, #4]
 310 0008 009A     		ldr	r2, [sp]
 311 000a 1A60     		str	r2, [r3]
 312              		.loc 3 666 0
 313 000c 009B     		ldr	r3, [sp]
 314 000e 5A68     		ldr	r2, [r3, #4]
 315 0010 019B     		ldr	r3, [sp, #4]
 316 0012 5A60     		str	r2, [r3, #4]
 317              		.loc 3 667 0
 318 0014 019B     		ldr	r3, [sp, #4]
 319 0016 5B68     		ldr	r3, [r3, #4]
 320 0018 019A     		ldr	r2, [sp, #4]
 321 001a 1A60     		str	r2, [r3]
 322              		.loc 3 668 0
 323 001c 009B     		ldr	r3, [sp]
 324 001e 019A     		ldr	r2, [sp, #4]
 325 0020 5A60     		str	r2, [r3, #4]
 326              		.loc 3 669 0
 327 0022 02B0     		add	sp, sp, #8
 328              		.cfi_def_cfa_offset 0
 329              		@ sp needed
 330 0024 7047     		bx	lr
 331              		.cfi_endproc
 332              	.LFE134:
 333              		.size	queue_insert, .-queue_insert
 334 0026 00BFAFF3 		.section	.text.queue_fifo_remove,"ax",%progbits
 334      0080AFF3 
 334      0080
ARM GAS  /tmp/cczVTum7.s 			page 7


 335              		.align	2
 336              		.p2align 4,,15
 337              		.thumb
 338              		.thumb_func
 339              		.type	queue_fifo_remove, %function
 340              	queue_fifo_remove:
 341              	.LFB135:
 342              		.loc 3 671 0
 343              		.cfi_startproc
 344              		@ args = 0, pretend = 0, frame = 16
 345              		@ frame_needed = 0, uses_anonymous_args = 0
 346              		@ link register save eliminated.
 347 0000 84B0     		sub	sp, sp, #16
 348              		.cfi_def_cfa_offset 16
 349 0002 0190     		str	r0, [sp, #4]
 350              		.loc 3 672 0
 351 0004 019B     		ldr	r3, [sp, #4]
 352 0006 1B68     		ldr	r3, [r3]
 353 0008 0393     		str	r3, [sp, #12]
 354              		.loc 3 674 0
 355 000a 039B     		ldr	r3, [sp, #12]
 356 000c 1A68     		ldr	r2, [r3]
 357 000e 019B     		ldr	r3, [sp, #4]
 358 0010 1A60     		str	r2, [r3]
 359              		.loc 3 675 0
 360 0012 019B     		ldr	r3, [sp, #4]
 361 0014 1B68     		ldr	r3, [r3]
 362 0016 019A     		ldr	r2, [sp, #4]
 363 0018 5A60     		str	r2, [r3, #4]
 364              		.loc 3 677 0
 365 001a 039B     		ldr	r3, [sp, #12]
 366              		.loc 3 678 0
 367 001c 1846     		mov	r0, r3
 368 001e 04B0     		add	sp, sp, #16
 369              		.cfi_def_cfa_offset 0
 370              		@ sp needed
 371 0020 7047     		bx	lr
 372              		.cfi_endproc
 373              	.LFE135:
 374              		.size	queue_fifo_remove, .-queue_fifo_remove
 375 0022 00BFAFF3 		.section	.text.chSchCanYieldS,"ax",%progbits
 375      0080AFF3 
 375      0080AFF3 
 375      0080
 376              		.align	2
 377              		.p2align 4,,15
 378              		.thumb
 379              		.thumb_func
 380              		.type	chSchCanYieldS, %function
 381              	chSchCanYieldS:
 382              	.LFB139:
 383              		.loc 3 727 0
 384              		.cfi_startproc
 385              		@ args = 0, pretend = 0, frame = 0
 386              		@ frame_needed = 0, uses_anonymous_args = 0
 387              		@ link register save eliminated.
 388              		.loc 3 731 0
ARM GAS  /tmp/cczVTum7.s 			page 8


 389 0000 064B     		ldr	r3, .L17
 390 0002 1B68     		ldr	r3, [r3]
 391 0004 9A68     		ldr	r2, [r3, #8]
 392 0006 054B     		ldr	r3, .L17
 393 0008 9B69     		ldr	r3, [r3, #24]
 394 000a 9B68     		ldr	r3, [r3, #8]
 395 000c 9A42     		cmp	r2, r3
 396 000e 2CBF     		ite	cs
 397 0010 0123     		movcs	r3, #1
 398 0012 0023     		movcc	r3, #0
 399 0014 DBB2     		uxtb	r3, r3
 400              		.loc 3 732 0
 401 0016 1846     		mov	r0, r3
 402 0018 7047     		bx	lr
 403              	.L18:
 404 001a 00BF     		.align	2
 405              	.L17:
 406 001c 00000000 		.word	ch
 407              		.cfi_endproc
 408              	.LFE139:
 409              		.size	chSchCanYieldS, .-chSchCanYieldS
 410              		.section	.text.chSchDoYieldS,"ax",%progbits
 411              		.align	2
 412              		.p2align 4,,15
 413              		.thumb
 414              		.thumb_func
 415              		.type	chSchDoYieldS, %function
 416              	chSchDoYieldS:
 417              	.LFB140:
 418              		.loc 3 741 0
 419              		.cfi_startproc
 420              		@ args = 0, pretend = 0, frame = 0
 421              		@ frame_needed = 0, uses_anonymous_args = 0
 422 0000 08B5     		push	{r3, lr}
 423              		.cfi_def_cfa_offset 8
 424              		.cfi_offset 3, -8
 425              		.cfi_offset 14, -4
 426              		.loc 3 745 0
 427 0002 FFF7FEFF 		bl	chSchCanYieldS
 428 0006 0346     		mov	r3, r0
 429 0008 002B     		cmp	r3, #0
 430 000a 01D0     		beq	.L19
 431              		.loc 3 746 0
 432 000c FFF7FEFF 		bl	chSchDoRescheduleBehind
 433              	.L19:
 434              		.loc 3 748 0
 435 0010 08BD     		pop	{r3, pc}
 436              		.cfi_endproc
 437              	.LFE140:
 438              		.size	chSchDoYieldS, .-chSchDoYieldS
 439 0012 00BFAFF3 		.section	.text.chSysLock,"ax",%progbits
 439      0080AFF3 
 439      0080AFF3 
 439      0080
 440              		.align	2
 441              		.p2align 4,,15
 442              		.thumb
ARM GAS  /tmp/cczVTum7.s 			page 9


 443              		.thumb_func
 444              		.type	chSysLock, %function
 445              	chSysLock:
 446              	.LFB145:
 447              		.file 4 "/home/makkmarci/workspace/CLEAN/ChibiOS/os/rt/include/chsys.h"
 448              		.loc 4 346 0
 449              		.cfi_startproc
 450              		@ args = 0, pretend = 0, frame = 0
 451              		@ frame_needed = 0, uses_anonymous_args = 0
 452 0000 08B5     		push	{r3, lr}
 453              		.cfi_def_cfa_offset 8
 454              		.cfi_offset 3, -8
 455              		.cfi_offset 14, -4
 456              		.loc 4 348 0
 457 0002 FFF7FEFF 		bl	port_lock
 458              		.loc 4 351 0
 459 0006 08BD     		pop	{r3, pc}
 460              		.cfi_endproc
 461              	.LFE145:
 462              		.size	chSysLock, .-chSysLock
 463              		.section	.text.chSysUnlock,"ax",%progbits
 464              		.align	2
 465              		.p2align 4,,15
 466              		.thumb
 467              		.thumb_func
 468              		.type	chSysUnlock, %function
 469              	chSysUnlock:
 470              	.LFB146:
 471              		.loc 4 358 0
 472              		.cfi_startproc
 473              		@ args = 0, pretend = 0, frame = 0
 474              		@ frame_needed = 0, uses_anonymous_args = 0
 475 0000 08B5     		push	{r3, lr}
 476              		.cfi_def_cfa_offset 8
 477              		.cfi_offset 3, -8
 478              		.cfi_offset 14, -4
 479              		.loc 4 371 0
 480 0002 FFF7FEFF 		bl	port_unlock
 481              		.loc 4 372 0
 482 0006 08BD     		pop	{r3, pc}
 483              		.cfi_endproc
 484              	.LFE146:
 485              		.size	chSysUnlock, .-chSysUnlock
 486 0008 AFF30080 		.section	.text.chVTGetSystemTimeX,"ax",%progbits
 486      AFF30080 
 487              		.align	2
 488              		.p2align 4,,15
 489              		.thumb
 490              		.thumb_func
 491              		.type	chVTGetSystemTimeX, %function
 492              	chVTGetSystemTimeX:
 493              	.LFB153:
 494              		.file 5 "/home/makkmarci/workspace/CLEAN/ChibiOS/os/rt/include/chvt.h"
 495              		.loc 5 228 0
 496              		.cfi_startproc
 497              		@ args = 0, pretend = 0, frame = 0
 498              		@ frame_needed = 0, uses_anonymous_args = 0
ARM GAS  /tmp/cczVTum7.s 			page 10


 499              		@ link register save eliminated.
 500              		.loc 5 231 0
 501 0000 014B     		ldr	r3, .L25
 502 0002 9B6A     		ldr	r3, [r3, #40]
 503              		.loc 5 235 0
 504 0004 1846     		mov	r0, r3
 505 0006 7047     		bx	lr
 506              	.L26:
 507              		.align	2
 508              	.L25:
 509 0008 00000000 		.word	ch
 510              		.cfi_endproc
 511              	.LFE153:
 512              		.size	chVTGetSystemTimeX, .-chVTGetSystemTimeX
 513 000c AFF30080 		.section	.text.chVTIsTimeWithinX,"ax",%progbits
 514              		.align	2
 515              		.p2align 4,,15
 516              		.thumb
 517              		.thumb_func
 518              		.type	chVTIsTimeWithinX, %function
 519              	chVTIsTimeWithinX:
 520              	.LFB156:
 521              		.loc 5 286 0
 522              		.cfi_startproc
 523              		@ args = 0, pretend = 0, frame = 16
 524              		@ frame_needed = 0, uses_anonymous_args = 0
 525              		@ link register save eliminated.
 526 0000 84B0     		sub	sp, sp, #16
 527              		.cfi_def_cfa_offset 16
 528 0002 0390     		str	r0, [sp, #12]
 529 0004 0291     		str	r1, [sp, #8]
 530 0006 0192     		str	r2, [sp, #4]
 531              		.loc 5 288 0
 532 0008 039A     		ldr	r2, [sp, #12]
 533 000a 029B     		ldr	r3, [sp, #8]
 534 000c D21A     		subs	r2, r2, r3
 535 000e 0199     		ldr	r1, [sp, #4]
 536 0010 029B     		ldr	r3, [sp, #8]
 537 0012 CB1A     		subs	r3, r1, r3
 538 0014 9A42     		cmp	r2, r3
 539 0016 34BF     		ite	cc
 540 0018 0123     		movcc	r3, #1
 541 001a 0023     		movcs	r3, #0
 542 001c DBB2     		uxtb	r3, r3
 543              		.loc 5 289 0
 544 001e 1846     		mov	r0, r3
 545 0020 04B0     		add	sp, sp, #16
 546              		.cfi_def_cfa_offset 0
 547              		@ sp needed
 548 0022 7047     		bx	lr
 549              		.cfi_endproc
 550              	.LFE156:
 551              		.size	chVTIsTimeWithinX, .-chVTIsTimeWithinX
 552 0024 AFF30080 		.section	.text.chThdGetSelfX,"ax",%progbits
 552      AFF30080 
 552      AFF30080 
 553              		.align	2
ARM GAS  /tmp/cczVTum7.s 			page 11


 554              		.p2align 4,,15
 555              		.thumb
 556              		.thumb_func
 557              		.type	chThdGetSelfX, %function
 558              	chThdGetSelfX:
 559              	.LFB166:
 560              		.file 6 "/home/makkmarci/workspace/CLEAN/ChibiOS/os/rt/include/chthreads.h"
 561              		.loc 6 174 0
 562              		.cfi_startproc
 563              		@ args = 0, pretend = 0, frame = 0
 564              		@ frame_needed = 0, uses_anonymous_args = 0
 565              		@ link register save eliminated.
 566              		.loc 6 176 0
 567 0000 014B     		ldr	r3, .L31
 568 0002 9B69     		ldr	r3, [r3, #24]
 569              		.loc 6 177 0
 570 0004 1846     		mov	r0, r3
 571 0006 7047     		bx	lr
 572              	.L32:
 573              		.align	2
 574              	.L31:
 575 0008 00000000 		.word	ch
 576              		.cfi_endproc
 577              	.LFE166:
 578              		.size	chThdGetSelfX, .-chThdGetSelfX
 579 000c AFF30080 		.section	.text.chThdStartI,"ax",%progbits
 580              		.align	2
 581              		.p2align 4,,15
 582              		.thumb
 583              		.thumb_func
 584              		.type	chThdStartI, %function
 585              	chThdStartI:
 586              	.LFB170:
 587              		.loc 6 245 0
 588              		.cfi_startproc
 589              		@ args = 0, pretend = 0, frame = 8
 590              		@ frame_needed = 0, uses_anonymous_args = 0
 591 0000 00B5     		push	{lr}
 592              		.cfi_def_cfa_offset 4
 593              		.cfi_offset 14, -4
 594 0002 83B0     		sub	sp, sp, #12
 595              		.cfi_def_cfa_offset 16
 596 0004 0190     		str	r0, [sp, #4]
 597              		.loc 6 249 0
 598 0006 0198     		ldr	r0, [sp, #4]
 599 0008 FFF7FEFF 		bl	chSchReadyI
 600 000c 0346     		mov	r3, r0
 601              		.loc 6 250 0
 602 000e 1846     		mov	r0, r3
 603 0010 03B0     		add	sp, sp, #12
 604              		.cfi_def_cfa_offset 4
 605              		@ sp needed
 606 0012 5DF804FB 		ldr	pc, [sp], #4
 607              		.cfi_endproc
 608              	.LFE170:
 609              		.size	chThdStartI, .-chThdStartI
 610 0016 00BFAFF3 		.section	.text.chThdSleepS,"ax",%progbits
ARM GAS  /tmp/cczVTum7.s 			page 12


 610      0080AFF3 
 610      0080
 611              		.align	2
 612              		.p2align 4,,15
 613              		.thumb
 614              		.thumb_func
 615              		.type	chThdSleepS, %function
 616              	chThdSleepS:
 617              	.LFB171:
 618              		.loc 6 264 0
 619              		.cfi_startproc
 620              		@ args = 0, pretend = 0, frame = 8
 621              		@ frame_needed = 0, uses_anonymous_args = 0
 622 0000 00B5     		push	{lr}
 623              		.cfi_def_cfa_offset 4
 624              		.cfi_offset 14, -4
 625 0002 83B0     		sub	sp, sp, #12
 626              		.cfi_def_cfa_offset 16
 627 0004 0190     		str	r0, [sp, #4]
 628              		.loc 6 268 0
 629 0006 0820     		movs	r0, #8
 630 0008 0199     		ldr	r1, [sp, #4]
 631 000a FFF7FEFF 		bl	chSchGoSleepTimeoutS
 632              		.loc 6 269 0
 633 000e 03B0     		add	sp, sp, #12
 634              		.cfi_def_cfa_offset 4
 635              		@ sp needed
 636 0010 5DF804FB 		ldr	pc, [sp], #4
 637              		.cfi_endproc
 638              	.LFE171:
 639              		.size	chThdSleepS, .-chThdSleepS
 640 0014 AFF30080 		.section	.text.chThdDoDequeueNextI,"ax",%progbits
 640      AFF30080 
 640      AFF30080 
 641              		.align	2
 642              		.p2align 4,,15
 643              		.thumb
 644              		.thumb_func
 645              		.type	chThdDoDequeueNextI, %function
 646              	chThdDoDequeueNextI:
 647              	.LFB174:
 648              		.loc 6 312 0
 649              		.cfi_startproc
 650              		@ args = 0, pretend = 0, frame = 16
 651              		@ frame_needed = 0, uses_anonymous_args = 0
 652 0000 00B5     		push	{lr}
 653              		.cfi_def_cfa_offset 4
 654              		.cfi_offset 14, -4
 655 0002 85B0     		sub	sp, sp, #20
 656              		.cfi_def_cfa_offset 24
 657 0004 0190     		str	r0, [sp, #4]
 658 0006 0091     		str	r1, [sp]
 659              		.loc 6 317 0
 660 0008 0198     		ldr	r0, [sp, #4]
 661 000a FFF7FEFF 		bl	queue_fifo_remove
 662 000e 0390     		str	r0, [sp, #12]
 663              		.loc 6 321 0
ARM GAS  /tmp/cczVTum7.s 			page 13


 664 0010 039B     		ldr	r3, [sp, #12]
 665 0012 009A     		ldr	r2, [sp]
 666 0014 1A62     		str	r2, [r3, #32]
 667              		.loc 6 322 0
 668 0016 0398     		ldr	r0, [sp, #12]
 669 0018 FFF7FEFF 		bl	chSchReadyI
 670              		.loc 6 323 0
 671 001c 05B0     		add	sp, sp, #20
 672              		.cfi_def_cfa_offset 4
 673              		@ sp needed
 674 001e 5DF804FB 		ldr	pc, [sp], #4
 675              		.cfi_endproc
 676              	.LFE174:
 677              		.size	chThdDoDequeueNextI, .-chThdDoDequeueNextI
 678 0022 00BFAFF3 		.section	.text._thread_init,"ax",%progbits
 678      0080AFF3 
 678      0080AFF3 
 678      0080
 679              		.align	2
 680              		.p2align 4,,15
 681              		.global	_thread_init
 682              		.thumb
 683              		.thumb_func
 684              		.type	_thread_init, %function
 685              	_thread_init:
 686              	.LFB216:
 687              		.file 7 "/home/makkmarci/workspace/CLEAN/ChibiOS/os/rt/src/chthreads.c"
 688              		.loc 7 91 0
 689              		.cfi_startproc
 690              		@ args = 0, pretend = 0, frame = 8
 691              		@ frame_needed = 0, uses_anonymous_args = 0
 692 0000 00B5     		push	{lr}
 693              		.cfi_def_cfa_offset 4
 694              		.cfi_offset 14, -4
 695 0002 83B0     		sub	sp, sp, #12
 696              		.cfi_def_cfa_offset 16
 697 0004 0190     		str	r0, [sp, #4]
 698 0006 0091     		str	r1, [sp]
 699              		.loc 7 93 0
 700 0008 019B     		ldr	r3, [sp, #4]
 701 000a 009A     		ldr	r2, [sp]
 702 000c 9A60     		str	r2, [r3, #8]
 703              		.loc 7 94 0
 704 000e 019B     		ldr	r3, [sp, #4]
 705 0010 0222     		movs	r2, #2
 706 0012 1A77     		strb	r2, [r3, #28]
 707              		.loc 7 95 0
 708 0014 019B     		ldr	r3, [sp, #4]
 709 0016 0022     		movs	r2, #0
 710 0018 5A77     		strb	r2, [r3, #29]
 711              		.loc 7 100 0
 712 001a 019B     		ldr	r3, [sp, #4]
 713 001c 009A     		ldr	r2, [sp]
 714 001e DA63     		str	r2, [r3, #60]
 715              		.loc 7 101 0
 716 0020 019B     		ldr	r3, [sp, #4]
 717 0022 0022     		movs	r2, #0
ARM GAS  /tmp/cczVTum7.s 			page 14


 718 0024 9A63     		str	r2, [r3, #56]
 719              		.loc 7 104 0
 720 0026 019B     		ldr	r3, [sp, #4]
 721 0028 0022     		movs	r2, #0
 722 002a 5A63     		str	r2, [r3, #52]
 723              		.loc 7 110 0
 724 002c 019B     		ldr	r3, [sp, #4]
 725 002e 0122     		movs	r2, #1
 726 0030 9A77     		strb	r2, [r3, #30]
 727              		.loc 7 113 0
 728 0032 019B     		ldr	r3, [sp, #4]
 729 0034 0022     		movs	r2, #0
 730 0036 9A61     		str	r2, [r3, #24]
 731              		.loc 7 114 0
 732 0038 019B     		ldr	r3, [sp, #4]
 733 003a 0E4A     		ldr	r2, .L39
 734 003c 1A61     		str	r2, [r3, #16]
 735 003e 0D4B     		ldr	r3, .L39
 736 0040 5A69     		ldr	r2, [r3, #20]
 737 0042 019B     		ldr	r3, [sp, #4]
 738 0044 5A61     		str	r2, [r3, #20]
 739 0046 019B     		ldr	r3, [sp, #4]
 740 0048 5B69     		ldr	r3, [r3, #20]
 741 004a 019A     		ldr	r2, [sp, #4]
 742 004c 1A61     		str	r2, [r3, #16]
 743 004e 094A     		ldr	r2, .L39
 744 0050 019B     		ldr	r3, [sp, #4]
 745 0052 5361     		str	r3, [r2, #20]
 746              		.loc 7 117 0
 747 0054 019B     		ldr	r3, [sp, #4]
 748 0056 2433     		adds	r3, r3, #36
 749 0058 1846     		mov	r0, r3
 750 005a FFF7FEFF 		bl	list_init
 751              		.loc 7 120 0
 752 005e 019B     		ldr	r3, [sp, #4]
 753 0060 2833     		adds	r3, r3, #40
 754 0062 1846     		mov	r0, r3
 755 0064 FFF7FEFF 		bl	queue_init
 756              		.loc 7 132 0
 757 0068 019B     		ldr	r3, [sp, #4]
 758              		.loc 7 133 0
 759 006a 1846     		mov	r0, r3
 760 006c 03B0     		add	sp, sp, #12
 761              		.cfi_def_cfa_offset 4
 762              		@ sp needed
 763 006e 5DF804FB 		ldr	pc, [sp], #4
 764              	.L40:
 765 0072 00BF     		.align	2
 766              	.L39:
 767 0074 00000000 		.word	ch
 768              		.cfi_endproc
 769              	.LFE216:
 770              		.size	_thread_init, .-_thread_init
 771 0078 AFF30080 		.section	.text.chThdCreateI,"ax",%progbits
 771      AFF30080 
 772              		.align	2
 773              		.p2align 4,,15
ARM GAS  /tmp/cczVTum7.s 			page 15


 774              		.global	chThdCreateI
 775              		.thumb
 776              		.thumb_func
 777              		.type	chThdCreateI, %function
 778              	chThdCreateI:
 779              	.LFB217:
 780              		.loc 7 178 0
 781              		.cfi_startproc
 782              		@ args = 4, pretend = 0, frame = 24
 783              		@ frame_needed = 0, uses_anonymous_args = 0
 784 0000 00B5     		push	{lr}
 785              		.cfi_def_cfa_offset 4
 786              		.cfi_offset 14, -4
 787 0002 87B0     		sub	sp, sp, #28
 788              		.cfi_def_cfa_offset 32
 789 0004 0390     		str	r0, [sp, #12]
 790 0006 0291     		str	r1, [sp, #8]
 791 0008 0192     		str	r2, [sp, #4]
 792 000a 0093     		str	r3, [sp]
 793              		.loc 7 181 0
 794 000c 039B     		ldr	r3, [sp, #12]
 795 000e 0593     		str	r3, [sp, #20]
 796              		.loc 7 187 0
 797 0010 029B     		ldr	r3, [sp, #8]
 798 0012 643B     		subs	r3, r3, #100
 799 0014 039A     		ldr	r2, [sp, #12]
 800 0016 1A44     		add	r2, r2, r3
 801 0018 059B     		ldr	r3, [sp, #20]
 802 001a DA60     		str	r2, [r3, #12]
 803 001c 059B     		ldr	r3, [sp, #20]
 804 001e DB68     		ldr	r3, [r3, #12]
 805 0020 009A     		ldr	r2, [sp]
 806 0022 1A64     		str	r2, [r3, #64]
 807 0024 059B     		ldr	r3, [sp, #20]
 808 0026 DB68     		ldr	r3, [r3, #12]
 809 0028 089A     		ldr	r2, [sp, #32]
 810 002a 5A64     		str	r2, [r3, #68]
 811 002c 059B     		ldr	r3, [sp, #20]
 812 002e DB68     		ldr	r3, [r3, #12]
 813 0030 054A     		ldr	r2, .L43
 814 0032 1A66     		str	r2, [r3, #96]
 815              		.loc 7 189 0
 816 0034 0598     		ldr	r0, [sp, #20]
 817 0036 0199     		ldr	r1, [sp, #4]
 818 0038 FFF7FEFF 		bl	_thread_init
 819 003c 0346     		mov	r3, r0
 820              		.loc 7 190 0
 821 003e 1846     		mov	r0, r3
 822 0040 07B0     		add	sp, sp, #28
 823              		.cfi_def_cfa_offset 4
 824              		@ sp needed
 825 0042 5DF804FB 		ldr	pc, [sp], #4
 826              	.L44:
 827 0046 00BF     		.align	2
 828              	.L43:
 829 0048 00000000 		.word	_port_thread_start
 830              		.cfi_endproc
ARM GAS  /tmp/cczVTum7.s 			page 16


 831              	.LFE217:
 832              		.size	chThdCreateI, .-chThdCreateI
 833 004c AFF30080 		.section	.text.chThdCreateStatic,"ax",%progbits
 834              		.align	2
 835              		.p2align 4,,15
 836              		.global	chThdCreateStatic
 837              		.thumb
 838              		.thumb_func
 839              		.type	chThdCreateStatic, %function
 840              	chThdCreateStatic:
 841              	.LFB218:
 842              		.loc 7 209 0
 843              		.cfi_startproc
 844              		@ args = 4, pretend = 0, frame = 24
 845              		@ frame_needed = 0, uses_anonymous_args = 0
 846 0000 00B5     		push	{lr}
 847              		.cfi_def_cfa_offset 4
 848              		.cfi_offset 14, -4
 849 0002 89B0     		sub	sp, sp, #36
 850              		.cfi_def_cfa_offset 40
 851 0004 0590     		str	r0, [sp, #20]
 852 0006 0491     		str	r1, [sp, #16]
 853 0008 0392     		str	r2, [sp, #12]
 854 000a 0293     		str	r3, [sp, #8]
 855              		.loc 7 221 0
 856 000c FFF7FEFF 		bl	chSysLock
 857              		.loc 7 222 0
 858 0010 0A9B     		ldr	r3, [sp, #40]
 859 0012 0093     		str	r3, [sp]
 860 0014 0598     		ldr	r0, [sp, #20]
 861 0016 0499     		ldr	r1, [sp, #16]
 862 0018 039A     		ldr	r2, [sp, #12]
 863 001a 029B     		ldr	r3, [sp, #8]
 864 001c FFF7FEFF 		bl	chThdCreateI
 865 0020 0790     		str	r0, [sp, #28]
 866              		.loc 7 223 0
 867 0022 0798     		ldr	r0, [sp, #28]
 868 0024 0021     		movs	r1, #0
 869 0026 FFF7FEFF 		bl	chSchWakeupS
 870              		.loc 7 224 0
 871 002a FFF7FEFF 		bl	chSysUnlock
 872              		.loc 7 226 0
 873 002e 079B     		ldr	r3, [sp, #28]
 874              		.loc 7 227 0
 875 0030 1846     		mov	r0, r3
 876 0032 09B0     		add	sp, sp, #36
 877              		.cfi_def_cfa_offset 4
 878              		@ sp needed
 879 0034 5DF804FB 		ldr	pc, [sp], #4
 880              		.cfi_endproc
 881              	.LFE218:
 882              		.size	chThdCreateStatic, .-chThdCreateStatic
 883 0038 AFF30080 		.section	.text.chThdStart,"ax",%progbits
 883      AFF30080 
 884              		.align	2
 885              		.p2align 4,,15
 886              		.global	chThdStart
ARM GAS  /tmp/cczVTum7.s 			page 17


 887              		.thumb
 888              		.thumb_func
 889              		.type	chThdStart, %function
 890              	chThdStart:
 891              	.LFB219:
 892              		.loc 7 238 0
 893              		.cfi_startproc
 894              		@ args = 0, pretend = 0, frame = 8
 895              		@ frame_needed = 0, uses_anonymous_args = 0
 896 0000 00B5     		push	{lr}
 897              		.cfi_def_cfa_offset 4
 898              		.cfi_offset 14, -4
 899 0002 83B0     		sub	sp, sp, #12
 900              		.cfi_def_cfa_offset 16
 901 0004 0190     		str	r0, [sp, #4]
 902              		.loc 7 240 0
 903 0006 FFF7FEFF 		bl	chSysLock
 904              		.loc 7 241 0
 905 000a 0198     		ldr	r0, [sp, #4]
 906 000c FFF7FEFF 		bl	chThdStartI
 907 0010 0190     		str	r0, [sp, #4]
 908              		.loc 7 242 0
 909 0012 FFF7FEFF 		bl	chSysUnlock
 910              		.loc 7 244 0
 911 0016 019B     		ldr	r3, [sp, #4]
 912              		.loc 7 245 0
 913 0018 1846     		mov	r0, r3
 914 001a 03B0     		add	sp, sp, #12
 915              		.cfi_def_cfa_offset 4
 916              		@ sp needed
 917 001c 5DF804FB 		ldr	pc, [sp], #4
 918              		.cfi_endproc
 919              	.LFE219:
 920              		.size	chThdStart, .-chThdStart
 921              		.section	.text.chThdSetPriority,"ax",%progbits
 922              		.align	2
 923              		.p2align 4,,15
 924              		.global	chThdSetPriority
 925              		.thumb
 926              		.thumb_func
 927              		.type	chThdSetPriority, %function
 928              	chThdSetPriority:
 929              	.LFB220:
 930              		.loc 7 259 0
 931              		.cfi_startproc
 932              		@ args = 0, pretend = 0, frame = 16
 933              		@ frame_needed = 0, uses_anonymous_args = 0
 934 0000 00B5     		push	{lr}
 935              		.cfi_def_cfa_offset 4
 936              		.cfi_offset 14, -4
 937 0002 85B0     		sub	sp, sp, #20
 938              		.cfi_def_cfa_offset 24
 939 0004 0190     		str	r0, [sp, #4]
 940              		.loc 7 264 0
 941 0006 FFF7FEFF 		bl	chSysLock
 942              		.loc 7 266 0
 943 000a 114B     		ldr	r3, .L53
ARM GAS  /tmp/cczVTum7.s 			page 18


 944 000c 9B69     		ldr	r3, [r3, #24]
 945 000e DB6B     		ldr	r3, [r3, #60]
 946 0010 0393     		str	r3, [sp, #12]
 947              		.loc 7 267 0
 948 0012 0F4B     		ldr	r3, .L53
 949 0014 9B69     		ldr	r3, [r3, #24]
 950 0016 9A68     		ldr	r2, [r3, #8]
 951 0018 0D4B     		ldr	r3, .L53
 952 001a 9B69     		ldr	r3, [r3, #24]
 953 001c DB6B     		ldr	r3, [r3, #60]
 954 001e 9A42     		cmp	r2, r3
 955 0020 05D0     		beq	.L50
 956              		.loc 7 267 0 is_stmt 0 discriminator 1
 957 0022 0B4B     		ldr	r3, .L53
 958 0024 9B69     		ldr	r3, [r3, #24]
 959 0026 9A68     		ldr	r2, [r3, #8]
 960 0028 019B     		ldr	r3, [sp, #4]
 961 002a 9A42     		cmp	r2, r3
 962 002c 03D2     		bcs	.L51
 963              	.L50:
 964              		.loc 7 268 0 is_stmt 1
 965 002e 084B     		ldr	r3, .L53
 966 0030 9B69     		ldr	r3, [r3, #24]
 967 0032 019A     		ldr	r2, [sp, #4]
 968 0034 9A60     		str	r2, [r3, #8]
 969              	.L51:
 970              		.loc 7 270 0
 971 0036 064B     		ldr	r3, .L53
 972 0038 9B69     		ldr	r3, [r3, #24]
 973 003a 019A     		ldr	r2, [sp, #4]
 974 003c DA63     		str	r2, [r3, #60]
 975              		.loc 7 275 0
 976 003e FFF7FEFF 		bl	chSchRescheduleS
 977              		.loc 7 276 0
 978 0042 FFF7FEFF 		bl	chSysUnlock
 979              		.loc 7 278 0
 980 0046 039B     		ldr	r3, [sp, #12]
 981              		.loc 7 279 0
 982 0048 1846     		mov	r0, r3
 983 004a 05B0     		add	sp, sp, #20
 984              		.cfi_def_cfa_offset 4
 985              		@ sp needed
 986 004c 5DF804FB 		ldr	pc, [sp], #4
 987              	.L54:
 988              		.align	2
 989              	.L53:
 990 0050 00000000 		.word	ch
 991              		.cfi_endproc
 992              	.LFE220:
 993              		.size	chThdSetPriority, .-chThdSetPriority
 994 0054 AFF30080 		.section	.text.chThdTerminate,"ax",%progbits
 994      AFF30080 
 994      AFF30080 
 995              		.align	2
 996              		.p2align 4,,15
 997              		.global	chThdTerminate
 998              		.thumb
ARM GAS  /tmp/cczVTum7.s 			page 19


 999              		.thumb_func
 1000              		.type	chThdTerminate, %function
 1001              	chThdTerminate:
 1002              	.LFB221:
 1003              		.loc 7 293 0
 1004              		.cfi_startproc
 1005              		@ args = 0, pretend = 0, frame = 8
 1006              		@ frame_needed = 0, uses_anonymous_args = 0
 1007 0000 00B5     		push	{lr}
 1008              		.cfi_def_cfa_offset 4
 1009              		.cfi_offset 14, -4
 1010 0002 83B0     		sub	sp, sp, #12
 1011              		.cfi_def_cfa_offset 16
 1012 0004 0190     		str	r0, [sp, #4]
 1013              		.loc 7 295 0
 1014 0006 FFF7FEFF 		bl	chSysLock
 1015              		.loc 7 296 0
 1016 000a 019B     		ldr	r3, [sp, #4]
 1017 000c 5B7F     		ldrb	r3, [r3, #29]	@ zero_extendqisi2
 1018 000e 43F00403 		orr	r3, r3, #4
 1019 0012 DAB2     		uxtb	r2, r3
 1020 0014 019B     		ldr	r3, [sp, #4]
 1021 0016 5A77     		strb	r2, [r3, #29]
 1022              		.loc 7 297 0
 1023 0018 FFF7FEFF 		bl	chSysUnlock
 1024              		.loc 7 298 0
 1025 001c 03B0     		add	sp, sp, #12
 1026              		.cfi_def_cfa_offset 4
 1027              		@ sp needed
 1028 001e 5DF804FB 		ldr	pc, [sp], #4
 1029              		.cfi_endproc
 1030              	.LFE221:
 1031              		.size	chThdTerminate, .-chThdTerminate
 1032 0022 00BFAFF3 		.section	.text.chThdSleep,"ax",%progbits
 1032      0080AFF3 
 1032      0080AFF3 
 1032      0080
 1033              		.align	2
 1034              		.p2align 4,,15
 1035              		.global	chThdSleep
 1036              		.thumb
 1037              		.thumb_func
 1038              		.type	chThdSleep, %function
 1039              	chThdSleep:
 1040              	.LFB222:
 1041              		.loc 7 312 0
 1042              		.cfi_startproc
 1043              		@ args = 0, pretend = 0, frame = 8
 1044              		@ frame_needed = 0, uses_anonymous_args = 0
 1045 0000 00B5     		push	{lr}
 1046              		.cfi_def_cfa_offset 4
 1047              		.cfi_offset 14, -4
 1048 0002 83B0     		sub	sp, sp, #12
 1049              		.cfi_def_cfa_offset 16
 1050 0004 0190     		str	r0, [sp, #4]
 1051              		.loc 7 314 0
 1052 0006 FFF7FEFF 		bl	chSysLock
ARM GAS  /tmp/cczVTum7.s 			page 20


 1053              		.loc 7 315 0
 1054 000a 0198     		ldr	r0, [sp, #4]
 1055 000c FFF7FEFF 		bl	chThdSleepS
 1056              		.loc 7 316 0
 1057 0010 FFF7FEFF 		bl	chSysUnlock
 1058              		.loc 7 317 0
 1059 0014 03B0     		add	sp, sp, #12
 1060              		.cfi_def_cfa_offset 4
 1061              		@ sp needed
 1062 0016 5DF804FB 		ldr	pc, [sp], #4
 1063              		.cfi_endproc
 1064              	.LFE222:
 1065              		.size	chThdSleep, .-chThdSleep
 1066 001a 00BFAFF3 		.section	.text.chThdSleepUntil,"ax",%progbits
 1066      0080
 1067              		.align	2
 1068              		.p2align 4,,15
 1069              		.global	chThdSleepUntil
 1070              		.thumb
 1071              		.thumb_func
 1072              		.type	chThdSleepUntil, %function
 1073              	chThdSleepUntil:
 1074              	.LFB223:
 1075              		.loc 7 332 0
 1076              		.cfi_startproc
 1077              		@ args = 0, pretend = 0, frame = 8
 1078              		@ frame_needed = 0, uses_anonymous_args = 0
 1079 0000 00B5     		push	{lr}
 1080              		.cfi_def_cfa_offset 4
 1081              		.cfi_offset 14, -4
 1082 0002 83B0     		sub	sp, sp, #12
 1083              		.cfi_def_cfa_offset 16
 1084 0004 0190     		str	r0, [sp, #4]
 1085              		.loc 7 334 0
 1086 0006 FFF7FEFF 		bl	chSysLock
 1087              		.loc 7 335 0
 1088 000a FFF7FEFF 		bl	chVTGetSystemTimeX
 1089 000e 0246     		mov	r2, r0
 1090 0010 019B     		ldr	r3, [sp, #4]
 1091 0012 9B1A     		subs	r3, r3, r2
 1092 0014 0193     		str	r3, [sp, #4]
 1093              		.loc 7 336 0
 1094 0016 019B     		ldr	r3, [sp, #4]
 1095 0018 002B     		cmp	r3, #0
 1096 001a 02D0     		beq	.L58
 1097              		.loc 7 337 0
 1098 001c 0198     		ldr	r0, [sp, #4]
 1099 001e FFF7FEFF 		bl	chThdSleepS
 1100              	.L58:
 1101              		.loc 7 339 0
 1102 0022 FFF7FEFF 		bl	chSysUnlock
 1103              		.loc 7 340 0
 1104 0026 03B0     		add	sp, sp, #12
 1105              		.cfi_def_cfa_offset 4
 1106              		@ sp needed
 1107 0028 5DF804FB 		ldr	pc, [sp], #4
 1108              		.cfi_endproc
ARM GAS  /tmp/cczVTum7.s 			page 21


 1109              	.LFE223:
 1110              		.size	chThdSleepUntil, .-chThdSleepUntil
 1111              		.section	.text.chThdSleepUntilWindowed,"ax",%progbits
 1112              		.align	2
 1113              		.p2align 4,,15
 1114              		.global	chThdSleepUntilWindowed
 1115              		.thumb
 1116              		.thumb_func
 1117              		.type	chThdSleepUntilWindowed, %function
 1118              	chThdSleepUntilWindowed:
 1119              	.LFB224:
 1120              		.loc 7 356 0
 1121              		.cfi_startproc
 1122              		@ args = 0, pretend = 0, frame = 16
 1123              		@ frame_needed = 0, uses_anonymous_args = 0
 1124 0000 00B5     		push	{lr}
 1125              		.cfi_def_cfa_offset 4
 1126              		.cfi_offset 14, -4
 1127 0002 85B0     		sub	sp, sp, #20
 1128              		.cfi_def_cfa_offset 24
 1129 0004 0190     		str	r0, [sp, #4]
 1130 0006 0091     		str	r1, [sp]
 1131              		.loc 7 359 0
 1132 0008 FFF7FEFF 		bl	chSysLock
 1133              		.loc 7 360 0
 1134 000c FFF7FEFF 		bl	chVTGetSystemTimeX
 1135 0010 0390     		str	r0, [sp, #12]
 1136              		.loc 7 361 0
 1137 0012 0398     		ldr	r0, [sp, #12]
 1138 0014 0199     		ldr	r1, [sp, #4]
 1139 0016 009A     		ldr	r2, [sp]
 1140 0018 FFF7FEFF 		bl	chVTIsTimeWithinX
 1141 001c 0346     		mov	r3, r0
 1142 001e 002B     		cmp	r3, #0
 1143 0020 05D0     		beq	.L60
 1144              		.loc 7 362 0
 1145 0022 009A     		ldr	r2, [sp]
 1146 0024 039B     		ldr	r3, [sp, #12]
 1147 0026 D31A     		subs	r3, r2, r3
 1148 0028 1846     		mov	r0, r3
 1149 002a FFF7FEFF 		bl	chThdSleepS
 1150              	.L60:
 1151              		.loc 7 364 0
 1152 002e FFF7FEFF 		bl	chSysUnlock
 1153              		.loc 7 366 0
 1154 0032 009B     		ldr	r3, [sp]
 1155              		.loc 7 367 0
 1156 0034 1846     		mov	r0, r3
 1157 0036 05B0     		add	sp, sp, #20
 1158              		.cfi_def_cfa_offset 4
 1159              		@ sp needed
 1160 0038 5DF804FB 		ldr	pc, [sp], #4
 1161              		.cfi_endproc
 1162              	.LFE224:
 1163              		.size	chThdSleepUntilWindowed, .-chThdSleepUntilWindowed
 1164 003c AFF30080 		.section	.text.chThdYield,"ax",%progbits
 1165              		.align	2
ARM GAS  /tmp/cczVTum7.s 			page 22


 1166              		.p2align 4,,15
 1167              		.global	chThdYield
 1168              		.thumb
 1169              		.thumb_func
 1170              		.type	chThdYield, %function
 1171              	chThdYield:
 1172              	.LFB225:
 1173              		.loc 7 376 0
 1174              		.cfi_startproc
 1175              		@ args = 0, pretend = 0, frame = 0
 1176              		@ frame_needed = 0, uses_anonymous_args = 0
 1177 0000 08B5     		push	{r3, lr}
 1178              		.cfi_def_cfa_offset 8
 1179              		.cfi_offset 3, -8
 1180              		.cfi_offset 14, -4
 1181              		.loc 7 378 0
 1182 0002 FFF7FEFF 		bl	chSysLock
 1183              		.loc 7 379 0
 1184 0006 FFF7FEFF 		bl	chSchDoYieldS
 1185              		.loc 7 380 0
 1186 000a FFF7FEFF 		bl	chSysUnlock
 1187              		.loc 7 381 0
 1188 000e 08BD     		pop	{r3, pc}
 1189              		.cfi_endproc
 1190              	.LFE225:
 1191              		.size	chThdYield, .-chThdYield
 1192              		.section	.text.chThdExit,"ax",%progbits
 1193              		.align	2
 1194              		.p2align 4,,15
 1195              		.global	chThdExit
 1196              		.thumb
 1197              		.thumb_func
 1198              		.type	chThdExit, %function
 1199              	chThdExit:
 1200              	.LFB226:
 1201              		.loc 7 397 0
 1202              		.cfi_startproc
 1203              		@ args = 0, pretend = 0, frame = 8
 1204              		@ frame_needed = 0, uses_anonymous_args = 0
 1205 0000 00B5     		push	{lr}
 1206              		.cfi_def_cfa_offset 4
 1207              		.cfi_offset 14, -4
 1208 0002 83B0     		sub	sp, sp, #12
 1209              		.cfi_def_cfa_offset 16
 1210 0004 0190     		str	r0, [sp, #4]
 1211              		.loc 7 399 0
 1212 0006 FFF7FEFF 		bl	chSysLock
 1213              		.loc 7 400 0
 1214 000a 0198     		ldr	r0, [sp, #4]
 1215 000c FFF7FEFF 		bl	chThdExitS
 1216              		.loc 7 402 0
 1217 0010 03B0     		add	sp, sp, #12
 1218              		.cfi_def_cfa_offset 4
 1219              		@ sp needed
 1220 0012 5DF804FB 		ldr	pc, [sp], #4
 1221              		.cfi_endproc
 1222              	.LFE226:
ARM GAS  /tmp/cczVTum7.s 			page 23


 1223              		.size	chThdExit, .-chThdExit
 1224 0016 00BFAFF3 		.section	.text.chThdExitS,"ax",%progbits
 1224      0080AFF3 
 1224      0080
 1225              		.align	2
 1226              		.p2align 4,,15
 1227              		.global	chThdExitS
 1228              		.thumb
 1229              		.thumb_func
 1230              		.type	chThdExitS, %function
 1231              	chThdExitS:
 1232              	.LFB227:
 1233              		.loc 7 418 0
 1234              		.cfi_startproc
 1235              		@ args = 0, pretend = 0, frame = 16
 1236              		@ frame_needed = 0, uses_anonymous_args = 0
 1237 0000 00B5     		push	{lr}
 1238              		.cfi_def_cfa_offset 4
 1239              		.cfi_offset 14, -4
 1240 0002 85B0     		sub	sp, sp, #20
 1241              		.cfi_def_cfa_offset 24
 1242 0004 0190     		str	r0, [sp, #4]
 1243              		.loc 7 419 0
 1244 0006 174B     		ldr	r3, .L68
 1245 0008 9B69     		ldr	r3, [r3, #24]
 1246 000a 0393     		str	r3, [sp, #12]
 1247              		.loc 7 421 0
 1248 000c 039B     		ldr	r3, [sp, #12]
 1249 000e 019A     		ldr	r2, [sp, #4]
 1250 0010 1A62     		str	r2, [r3, #32]
 1251              		.loc 7 426 0
 1252 0012 08E0     		b	.L65
 1253              	.L66:
 1254              		.loc 7 427 0
 1255 0014 039B     		ldr	r3, [sp, #12]
 1256 0016 2433     		adds	r3, r3, #36
 1257 0018 1846     		mov	r0, r3
 1258 001a FFF7FEFF 		bl	list_remove
 1259 001e 0346     		mov	r3, r0
 1260 0020 1846     		mov	r0, r3
 1261 0022 FFF7FEFF 		bl	chSchReadyI
 1262              	.L65:
 1263              		.loc 7 426 0
 1264 0026 039B     		ldr	r3, [sp, #12]
 1265 0028 2433     		adds	r3, r3, #36
 1266 002a 1846     		mov	r0, r3
 1267 002c FFF7FEFF 		bl	list_notempty
 1268 0030 0346     		mov	r3, r0
 1269 0032 002B     		cmp	r3, #0
 1270 0034 EED1     		bne	.L66
 1271              		.loc 7 433 0
 1272 0036 039B     		ldr	r3, [sp, #12]
 1273 0038 5B7F     		ldrb	r3, [r3, #29]	@ zero_extendqisi2
 1274 003a 03F00303 		and	r3, r3, #3
 1275 003e 002B     		cmp	r3, #0
 1276 0040 09D1     		bne	.L67
 1277              		.loc 7 434 0
ARM GAS  /tmp/cczVTum7.s 			page 24


 1278 0042 039B     		ldr	r3, [sp, #12]
 1279 0044 5B69     		ldr	r3, [r3, #20]
 1280 0046 039A     		ldr	r2, [sp, #12]
 1281 0048 1269     		ldr	r2, [r2, #16]
 1282 004a 1A61     		str	r2, [r3, #16]
 1283 004c 039B     		ldr	r3, [sp, #12]
 1284 004e 1B69     		ldr	r3, [r3, #16]
 1285 0050 039A     		ldr	r2, [sp, #12]
 1286 0052 5269     		ldr	r2, [r2, #20]
 1287 0054 5A61     		str	r2, [r3, #20]
 1288              	.L67:
 1289              		.loc 7 437 0
 1290 0056 0F20     		movs	r0, #15
 1291 0058 FFF7FEFF 		bl	chSchGoSleepS
 1292              		.loc 7 441 0
 1293 005c 05B0     		add	sp, sp, #20
 1294              		.cfi_def_cfa_offset 4
 1295              		@ sp needed
 1296 005e 5DF804FB 		ldr	pc, [sp], #4
 1297              	.L69:
 1298 0062 00BF     		.align	2
 1299              	.L68:
 1300 0064 00000000 		.word	ch
 1301              		.cfi_endproc
 1302              	.LFE227:
 1303              		.size	chThdExitS, .-chThdExitS
 1304 0068 AFF30080 		.section	.text.chThdWait,"ax",%progbits
 1304      AFF30080 
 1305              		.align	2
 1306              		.p2align 4,,15
 1307              		.global	chThdWait
 1308              		.thumb
 1309              		.thumb_func
 1310              		.type	chThdWait, %function
 1311              	chThdWait:
 1312              	.LFB228:
 1313              		.loc 7 475 0
 1314              		.cfi_startproc
 1315              		@ args = 0, pretend = 0, frame = 16
 1316              		@ frame_needed = 0, uses_anonymous_args = 0
 1317 0000 00B5     		push	{lr}
 1318              		.cfi_def_cfa_offset 4
 1319              		.cfi_offset 14, -4
 1320 0002 85B0     		sub	sp, sp, #20
 1321              		.cfi_def_cfa_offset 24
 1322 0004 0190     		str	r0, [sp, #4]
 1323              		.loc 7 480 0
 1324 0006 FFF7FEFF 		bl	chSysLock
 1325              		.loc 7 485 0
 1326 000a 019B     		ldr	r3, [sp, #4]
 1327 000c 1B7F     		ldrb	r3, [r3, #28]	@ zero_extendqisi2
 1328 000e 0F2B     		cmp	r3, #15
 1329 0010 0AD0     		beq	.L71
 1330              		.loc 7 486 0
 1331 0012 0C4B     		ldr	r3, .L73
 1332 0014 9A69     		ldr	r2, [r3, #24]
 1333 0016 019B     		ldr	r3, [sp, #4]
ARM GAS  /tmp/cczVTum7.s 			page 25


 1334 0018 2433     		adds	r3, r3, #36
 1335 001a 1046     		mov	r0, r2
 1336 001c 1946     		mov	r1, r3
 1337 001e FFF7FEFF 		bl	list_insert
 1338              		.loc 7 487 0
 1339 0022 0920     		movs	r0, #9
 1340 0024 FFF7FEFF 		bl	chSchGoSleepS
 1341              	.L71:
 1342              		.loc 7 489 0
 1343 0028 019B     		ldr	r3, [sp, #4]
 1344 002a 1B6A     		ldr	r3, [r3, #32]
 1345 002c 0393     		str	r3, [sp, #12]
 1346              		.loc 7 490 0
 1347 002e FFF7FEFF 		bl	chSysUnlock
 1348              		.loc 7 494 0
 1349 0032 0198     		ldr	r0, [sp, #4]
 1350 0034 FFF7FEFF 		bl	chThdRelease
 1351              		.loc 7 497 0
 1352 0038 039B     		ldr	r3, [sp, #12]
 1353              		.loc 7 498 0
 1354 003a 1846     		mov	r0, r3
 1355 003c 05B0     		add	sp, sp, #20
 1356              		.cfi_def_cfa_offset 4
 1357              		@ sp needed
 1358 003e 5DF804FB 		ldr	pc, [sp], #4
 1359              	.L74:
 1360 0042 00BF     		.align	2
 1361              	.L73:
 1362 0044 00000000 		.word	ch
 1363              		.cfi_endproc
 1364              	.LFE228:
 1365              		.size	chThdWait, .-chThdWait
 1366 0048 AFF30080 		.section	.text.chThdSuspendS,"ax",%progbits
 1366      AFF30080 
 1367              		.align	2
 1368              		.p2align 4,,15
 1369              		.global	chThdSuspendS
 1370              		.thumb
 1371              		.thumb_func
 1372              		.type	chThdSuspendS, %function
 1373              	chThdSuspendS:
 1374              	.LFB229:
 1375              		.loc 7 511 0
 1376              		.cfi_startproc
 1377              		@ args = 0, pretend = 0, frame = 16
 1378              		@ frame_needed = 0, uses_anonymous_args = 0
 1379 0000 00B5     		push	{lr}
 1380              		.cfi_def_cfa_offset 4
 1381              		.cfi_offset 14, -4
 1382 0002 85B0     		sub	sp, sp, #20
 1383              		.cfi_def_cfa_offset 24
 1384 0004 0190     		str	r0, [sp, #4]
 1385              		.loc 7 512 0
 1386 0006 FFF7FEFF 		bl	chThdGetSelfX
 1387 000a 0390     		str	r0, [sp, #12]
 1388              		.loc 7 516 0
 1389 000c 019B     		ldr	r3, [sp, #4]
ARM GAS  /tmp/cczVTum7.s 			page 26


 1390 000e 039A     		ldr	r2, [sp, #12]
 1391 0010 1A60     		str	r2, [r3]
 1392              		.loc 7 517 0
 1393 0012 039B     		ldr	r3, [sp, #12]
 1394 0014 019A     		ldr	r2, [sp, #4]
 1395 0016 1A62     		str	r2, [r3, #32]
 1396              		.loc 7 518 0
 1397 0018 0320     		movs	r0, #3
 1398 001a FFF7FEFF 		bl	chSchGoSleepS
 1399              		.loc 7 520 0
 1400 001e FFF7FEFF 		bl	chThdGetSelfX
 1401 0022 0346     		mov	r3, r0
 1402 0024 1B6A     		ldr	r3, [r3, #32]
 1403              		.loc 7 521 0
 1404 0026 1846     		mov	r0, r3
 1405 0028 05B0     		add	sp, sp, #20
 1406              		.cfi_def_cfa_offset 4
 1407              		@ sp needed
 1408 002a 5DF804FB 		ldr	pc, [sp], #4
 1409              		.cfi_endproc
 1410              	.LFE229:
 1411              		.size	chThdSuspendS, .-chThdSuspendS
 1412 002e 00BF     		.section	.text.chThdSuspendTimeoutS,"ax",%progbits
 1413              		.align	2
 1414              		.p2align 4,,15
 1415              		.global	chThdSuspendTimeoutS
 1416              		.thumb
 1417              		.thumb_func
 1418              		.type	chThdSuspendTimeoutS, %function
 1419              	chThdSuspendTimeoutS:
 1420              	.LFB230:
 1421              		.loc 7 542 0
 1422              		.cfi_startproc
 1423              		@ args = 0, pretend = 0, frame = 16
 1424              		@ frame_needed = 0, uses_anonymous_args = 0
 1425 0000 00B5     		push	{lr}
 1426              		.cfi_def_cfa_offset 4
 1427              		.cfi_offset 14, -4
 1428 0002 85B0     		sub	sp, sp, #20
 1429              		.cfi_def_cfa_offset 24
 1430 0004 0190     		str	r0, [sp, #4]
 1431 0006 0091     		str	r1, [sp]
 1432              		.loc 7 543 0
 1433 0008 FFF7FEFF 		bl	chThdGetSelfX
 1434 000c 0390     		str	r0, [sp, #12]
 1435              		.loc 7 547 0
 1436 000e 009B     		ldr	r3, [sp]
 1437 0010 002B     		cmp	r3, #0
 1438 0012 02D1     		bne	.L78
 1439              		.loc 7 548 0
 1440 0014 4FF0FF33 		mov	r3, #-1
 1441 0018 0AE0     		b	.L79
 1442              	.L78:
 1443              		.loc 7 551 0
 1444 001a 019B     		ldr	r3, [sp, #4]
 1445 001c 039A     		ldr	r2, [sp, #12]
 1446 001e 1A60     		str	r2, [r3]
ARM GAS  /tmp/cczVTum7.s 			page 27


 1447              		.loc 7 552 0
 1448 0020 039B     		ldr	r3, [sp, #12]
 1449 0022 019A     		ldr	r2, [sp, #4]
 1450 0024 1A62     		str	r2, [r3, #32]
 1451              		.loc 7 554 0
 1452 0026 0320     		movs	r0, #3
 1453 0028 0099     		ldr	r1, [sp]
 1454 002a FFF7FEFF 		bl	chSchGoSleepTimeoutS
 1455 002e 0346     		mov	r3, r0
 1456              	.L79:
 1457              		.loc 7 555 0
 1458 0030 1846     		mov	r0, r3
 1459 0032 05B0     		add	sp, sp, #20
 1460              		.cfi_def_cfa_offset 4
 1461              		@ sp needed
 1462 0034 5DF804FB 		ldr	pc, [sp], #4
 1463              		.cfi_endproc
 1464              	.LFE230:
 1465              		.size	chThdSuspendTimeoutS, .-chThdSuspendTimeoutS
 1466 0038 AFF30080 		.section	.text.chThdResumeI,"ax",%progbits
 1466      AFF30080 
 1467              		.align	2
 1468              		.p2align 4,,15
 1469              		.global	chThdResumeI
 1470              		.thumb
 1471              		.thumb_func
 1472              		.type	chThdResumeI, %function
 1473              	chThdResumeI:
 1474              	.LFB231:
 1475              		.loc 7 567 0
 1476              		.cfi_startproc
 1477              		@ args = 0, pretend = 0, frame = 16
 1478              		@ frame_needed = 0, uses_anonymous_args = 0
 1479 0000 00B5     		push	{lr}
 1480              		.cfi_def_cfa_offset 4
 1481              		.cfi_offset 14, -4
 1482 0002 85B0     		sub	sp, sp, #20
 1483              		.cfi_def_cfa_offset 24
 1484 0004 0190     		str	r0, [sp, #4]
 1485 0006 0091     		str	r1, [sp]
 1486              		.loc 7 569 0
 1487 0008 019B     		ldr	r3, [sp, #4]
 1488 000a 1B68     		ldr	r3, [r3]
 1489 000c 002B     		cmp	r3, #0
 1490 000e 0BD0     		beq	.L80
 1491              	.LBB10:
 1492              		.loc 7 570 0
 1493 0010 019B     		ldr	r3, [sp, #4]
 1494 0012 1B68     		ldr	r3, [r3]
 1495 0014 0393     		str	r3, [sp, #12]
 1496              		.loc 7 575 0
 1497 0016 019B     		ldr	r3, [sp, #4]
 1498 0018 0022     		movs	r2, #0
 1499 001a 1A60     		str	r2, [r3]
 1500              		.loc 7 576 0
 1501 001c 039B     		ldr	r3, [sp, #12]
 1502 001e 009A     		ldr	r2, [sp]
ARM GAS  /tmp/cczVTum7.s 			page 28


 1503 0020 1A62     		str	r2, [r3, #32]
 1504              		.loc 7 577 0
 1505 0022 0398     		ldr	r0, [sp, #12]
 1506 0024 FFF7FEFF 		bl	chSchReadyI
 1507              	.L80:
 1508              	.LBE10:
 1509              		.loc 7 579 0
 1510 0028 05B0     		add	sp, sp, #20
 1511              		.cfi_def_cfa_offset 4
 1512              		@ sp needed
 1513 002a 5DF804FB 		ldr	pc, [sp], #4
 1514              		.cfi_endproc
 1515              	.LFE231:
 1516              		.size	chThdResumeI, .-chThdResumeI
 1517 002e 00BF     		.section	.text.chThdResumeS,"ax",%progbits
 1518              		.align	2
 1519              		.p2align 4,,15
 1520              		.global	chThdResumeS
 1521              		.thumb
 1522              		.thumb_func
 1523              		.type	chThdResumeS, %function
 1524              	chThdResumeS:
 1525              	.LFB232:
 1526              		.loc 7 591 0
 1527              		.cfi_startproc
 1528              		@ args = 0, pretend = 0, frame = 16
 1529              		@ frame_needed = 0, uses_anonymous_args = 0
 1530 0000 00B5     		push	{lr}
 1531              		.cfi_def_cfa_offset 4
 1532              		.cfi_offset 14, -4
 1533 0002 85B0     		sub	sp, sp, #20
 1534              		.cfi_def_cfa_offset 24
 1535 0004 0190     		str	r0, [sp, #4]
 1536 0006 0091     		str	r1, [sp]
 1537              		.loc 7 593 0
 1538 0008 019B     		ldr	r3, [sp, #4]
 1539 000a 1B68     		ldr	r3, [r3]
 1540 000c 002B     		cmp	r3, #0
 1541 000e 09D0     		beq	.L82
 1542              	.LBB11:
 1543              		.loc 7 594 0
 1544 0010 019B     		ldr	r3, [sp, #4]
 1545 0012 1B68     		ldr	r3, [r3]
 1546 0014 0393     		str	r3, [sp, #12]
 1547              		.loc 7 599 0
 1548 0016 019B     		ldr	r3, [sp, #4]
 1549 0018 0022     		movs	r2, #0
 1550 001a 1A60     		str	r2, [r3]
 1551              		.loc 7 600 0
 1552 001c 0398     		ldr	r0, [sp, #12]
 1553 001e 0099     		ldr	r1, [sp]
 1554 0020 FFF7FEFF 		bl	chSchWakeupS
 1555              	.L82:
 1556              	.LBE11:
 1557              		.loc 7 602 0
 1558 0024 05B0     		add	sp, sp, #20
 1559              		.cfi_def_cfa_offset 4
ARM GAS  /tmp/cczVTum7.s 			page 29


 1560              		@ sp needed
 1561 0026 5DF804FB 		ldr	pc, [sp], #4
 1562              		.cfi_endproc
 1563              	.LFE232:
 1564              		.size	chThdResumeS, .-chThdResumeS
 1565 002a 00BFAFF3 		.section	.text.chThdResume,"ax",%progbits
 1565      0080
 1566              		.align	2
 1567              		.p2align 4,,15
 1568              		.global	chThdResume
 1569              		.thumb
 1570              		.thumb_func
 1571              		.type	chThdResume, %function
 1572              	chThdResume:
 1573              	.LFB233:
 1574              		.loc 7 614 0
 1575              		.cfi_startproc
 1576              		@ args = 0, pretend = 0, frame = 8
 1577              		@ frame_needed = 0, uses_anonymous_args = 0
 1578 0000 00B5     		push	{lr}
 1579              		.cfi_def_cfa_offset 4
 1580              		.cfi_offset 14, -4
 1581 0002 83B0     		sub	sp, sp, #12
 1582              		.cfi_def_cfa_offset 16
 1583 0004 0190     		str	r0, [sp, #4]
 1584 0006 0091     		str	r1, [sp]
 1585              		.loc 7 616 0
 1586 0008 FFF7FEFF 		bl	chSysLock
 1587              		.loc 7 617 0
 1588 000c 0198     		ldr	r0, [sp, #4]
 1589 000e 0099     		ldr	r1, [sp]
 1590 0010 FFF7FEFF 		bl	chThdResumeS
 1591              		.loc 7 618 0
 1592 0014 FFF7FEFF 		bl	chSysUnlock
 1593              		.loc 7 619 0
 1594 0018 03B0     		add	sp, sp, #12
 1595              		.cfi_def_cfa_offset 4
 1596              		@ sp needed
 1597 001a 5DF804FB 		ldr	pc, [sp], #4
 1598              		.cfi_endproc
 1599              	.LFE233:
 1600              		.size	chThdResume, .-chThdResume
 1601 001e 00BF     		.section	.text.chThdEnqueueTimeoutS,"ax",%progbits
 1602              		.align	2
 1603              		.p2align 4,,15
 1604              		.global	chThdEnqueueTimeoutS
 1605              		.thumb
 1606              		.thumb_func
 1607              		.type	chThdEnqueueTimeoutS, %function
 1608              	chThdEnqueueTimeoutS:
 1609              	.LFB234:
 1610              		.loc 7 644 0
 1611              		.cfi_startproc
 1612              		@ args = 0, pretend = 0, frame = 8
 1613              		@ frame_needed = 0, uses_anonymous_args = 0
 1614 0000 00B5     		push	{lr}
 1615              		.cfi_def_cfa_offset 4
ARM GAS  /tmp/cczVTum7.s 			page 30


 1616              		.cfi_offset 14, -4
 1617 0002 83B0     		sub	sp, sp, #12
 1618              		.cfi_def_cfa_offset 16
 1619 0004 0190     		str	r0, [sp, #4]
 1620 0006 0091     		str	r1, [sp]
 1621              		.loc 7 646 0
 1622 0008 009B     		ldr	r3, [sp]
 1623 000a 002B     		cmp	r3, #0
 1624 000c 02D1     		bne	.L86
 1625              		.loc 7 647 0
 1626 000e 4FF0FF33 		mov	r3, #-1
 1627 0012 0AE0     		b	.L87
 1628              	.L86:
 1629              		.loc 7 650 0
 1630 0014 074B     		ldr	r3, .L88
 1631 0016 9B69     		ldr	r3, [r3, #24]
 1632 0018 1846     		mov	r0, r3
 1633 001a 0199     		ldr	r1, [sp, #4]
 1634 001c FFF7FEFF 		bl	queue_insert
 1635              		.loc 7 652 0
 1636 0020 0420     		movs	r0, #4
 1637 0022 0099     		ldr	r1, [sp]
 1638 0024 FFF7FEFF 		bl	chSchGoSleepTimeoutS
 1639 0028 0346     		mov	r3, r0
 1640              	.L87:
 1641              		.loc 7 653 0
 1642 002a 1846     		mov	r0, r3
 1643 002c 03B0     		add	sp, sp, #12
 1644              		.cfi_def_cfa_offset 4
 1645              		@ sp needed
 1646 002e 5DF804FB 		ldr	pc, [sp], #4
 1647              	.L89:
 1648 0032 00BF     		.align	2
 1649              	.L88:
 1650 0034 00000000 		.word	ch
 1651              		.cfi_endproc
 1652              	.LFE234:
 1653              		.size	chThdEnqueueTimeoutS, .-chThdEnqueueTimeoutS
 1654 0038 AFF30080 		.section	.text.chThdDequeueNextI,"ax",%progbits
 1654      AFF30080 
 1655              		.align	2
 1656              		.p2align 4,,15
 1657              		.global	chThdDequeueNextI
 1658              		.thumb
 1659              		.thumb_func
 1660              		.type	chThdDequeueNextI, %function
 1661              	chThdDequeueNextI:
 1662              	.LFB235:
 1663              		.loc 7 664 0
 1664              		.cfi_startproc
 1665              		@ args = 0, pretend = 0, frame = 8
 1666              		@ frame_needed = 0, uses_anonymous_args = 0
 1667 0000 00B5     		push	{lr}
 1668              		.cfi_def_cfa_offset 4
 1669              		.cfi_offset 14, -4
 1670 0002 83B0     		sub	sp, sp, #12
 1671              		.cfi_def_cfa_offset 16
ARM GAS  /tmp/cczVTum7.s 			page 31


 1672 0004 0190     		str	r0, [sp, #4]
 1673 0006 0091     		str	r1, [sp]
 1674              		.loc 7 666 0
 1675 0008 0198     		ldr	r0, [sp, #4]
 1676 000a FFF7FEFF 		bl	queue_notempty
 1677 000e 0346     		mov	r3, r0
 1678 0010 002B     		cmp	r3, #0
 1679 0012 03D0     		beq	.L90
 1680              		.loc 7 667 0
 1681 0014 0198     		ldr	r0, [sp, #4]
 1682 0016 0099     		ldr	r1, [sp]
 1683 0018 FFF7FEFF 		bl	chThdDoDequeueNextI
 1684              	.L90:
 1685              		.loc 7 669 0
 1686 001c 03B0     		add	sp, sp, #12
 1687              		.cfi_def_cfa_offset 4
 1688              		@ sp needed
 1689 001e 5DF804FB 		ldr	pc, [sp], #4
 1690              		.cfi_endproc
 1691              	.LFE235:
 1692              		.size	chThdDequeueNextI, .-chThdDequeueNextI
 1693 0022 00BFAFF3 		.section	.text.chThdDequeueAllI,"ax",%progbits
 1693      0080AFF3 
 1693      0080AFF3 
 1693      0080
 1694              		.align	2
 1695              		.p2align 4,,15
 1696              		.global	chThdDequeueAllI
 1697              		.thumb
 1698              		.thumb_func
 1699              		.type	chThdDequeueAllI, %function
 1700              	chThdDequeueAllI:
 1701              	.LFB236:
 1702              		.loc 7 679 0
 1703              		.cfi_startproc
 1704              		@ args = 0, pretend = 0, frame = 8
 1705              		@ frame_needed = 0, uses_anonymous_args = 0
 1706 0000 00B5     		push	{lr}
 1707              		.cfi_def_cfa_offset 4
 1708              		.cfi_offset 14, -4
 1709 0002 83B0     		sub	sp, sp, #12
 1710              		.cfi_def_cfa_offset 16
 1711 0004 0190     		str	r0, [sp, #4]
 1712 0006 0091     		str	r1, [sp]
 1713              		.loc 7 681 0
 1714 0008 03E0     		b	.L93
 1715              	.L94:
 1716              		.loc 7 682 0
 1717 000a 0198     		ldr	r0, [sp, #4]
 1718 000c 0099     		ldr	r1, [sp]
 1719 000e FFF7FEFF 		bl	chThdDoDequeueNextI
 1720              	.L93:
 1721              		.loc 7 681 0
 1722 0012 0198     		ldr	r0, [sp, #4]
 1723 0014 FFF7FEFF 		bl	queue_notempty
 1724 0018 0346     		mov	r3, r0
 1725 001a 002B     		cmp	r3, #0
ARM GAS  /tmp/cczVTum7.s 			page 32


 1726 001c F5D1     		bne	.L94
 1727              		.loc 7 684 0
 1728 001e 03B0     		add	sp, sp, #12
 1729              		.cfi_def_cfa_offset 4
 1730              		@ sp needed
 1731 0020 5DF804FB 		ldr	pc, [sp], #4
 1732              		.cfi_endproc
 1733              	.LFE236:
 1734              		.size	chThdDequeueAllI, .-chThdDequeueAllI
 1735 0024 AFF30080 		.text
 1735      AFF30080 
 1735      AFF30080 
 1736              	.Letext0:
 1737              		.file 8 "/opt/gcc-arm-none-eabi/lib/gcc/arm-none-eabi/4.9.3/include/stddef.h"
 1738              		.file 9 "/opt/gcc-arm-none-eabi/arm-none-eabi/include/machine/_default_types.h"
 1739              		.file 10 "/opt/gcc-arm-none-eabi/arm-none-eabi/include/stdint.h"
 1740              		.file 11 "/home/makkmarci/workspace/CLEAN/ChibiOS/os/rt/ports/ARMCMx/compilers/GCC/chtypes.h"
 1741              		.file 12 "/home/makkmarci/workspace/CLEAN/ChibiOS/os/rt/include/chsystypes.h"
 1742              		.file 13 "/home/makkmarci/workspace/CLEAN/ChibiOS/os/rt/ports/ARMCMx/chcore.h"
 1743              		.file 14 "/home/makkmarci/workspace/CLEAN/ChibiOS/os/rt/include/chtm.h"
 1744              		.file 15 "/home/makkmarci/workspace/CLEAN/ChibiOS/os/rt/include/chsem.h"
 1745              		.file 16 "/home/makkmarci/workspace/CLEAN/ChibiOS/os/rt/include/chmtx.h"
 1746              		.file 17 "/home/makkmarci/workspace/CLEAN/ChibiOS/os/ext/CMSIS/include/core_cm4.h"
 1747              		.section	.debug_info,"",%progbits
 1748              	.Ldebug_info0:
 1749 0000 52100000 		.4byte	0x1052
 1750 0004 0400     		.2byte	0x4
 1751 0006 00000000 		.4byte	.Ldebug_abbrev0
 1752 000a 04       		.byte	0x4
 1753 000b 01       		.uleb128 0x1
 1754 000c DE030000 		.4byte	.LASF155
 1755 0010 01       		.byte	0x1
 1756 0011 52000000 		.4byte	.LASF156
 1757 0015 00000000 		.4byte	.Ldebug_ranges0+0
 1758 0019 00000000 		.4byte	0
 1759 001d 00000000 		.4byte	.Ldebug_line0
 1760 0021 02       		.uleb128 0x2
 1761 0022 04       		.byte	0x4
 1762 0023 05       		.byte	0x5
 1763 0024 696E7400 		.ascii	"int\000"
 1764 0028 03       		.uleb128 0x3
 1765 0029 2A000000 		.4byte	.LASF2
 1766 002d 08       		.byte	0x8
 1767 002e D4       		.byte	0xd4
 1768 002f 33000000 		.4byte	0x33
 1769 0033 04       		.uleb128 0x4
 1770 0034 04       		.byte	0x4
 1771 0035 07       		.byte	0x7
 1772 0036 85020000 		.4byte	.LASF0
 1773 003a 04       		.uleb128 0x4
 1774 003b 01       		.byte	0x1
 1775 003c 06       		.byte	0x6
 1776 003d 80010000 		.4byte	.LASF1
 1777 0041 03       		.uleb128 0x3
 1778 0042 90000000 		.4byte	.LASF3
 1779 0046 09       		.byte	0x9
 1780 0047 1D       		.byte	0x1d
ARM GAS  /tmp/cczVTum7.s 			page 33


 1781 0048 4C000000 		.4byte	0x4c
 1782 004c 04       		.uleb128 0x4
 1783 004d 01       		.byte	0x1
 1784 004e 08       		.byte	0x8
 1785 004f C3050000 		.4byte	.LASF4
 1786 0053 04       		.uleb128 0x4
 1787 0054 02       		.byte	0x2
 1788 0055 05       		.byte	0x5
 1789 0056 DB050000 		.4byte	.LASF5
 1790 005a 04       		.uleb128 0x4
 1791 005b 02       		.byte	0x2
 1792 005c 07       		.byte	0x7
 1793 005d DC020000 		.4byte	.LASF6
 1794 0061 03       		.uleb128 0x3
 1795 0062 56030000 		.4byte	.LASF7
 1796 0066 09       		.byte	0x9
 1797 0067 3F       		.byte	0x3f
 1798 0068 6C000000 		.4byte	0x6c
 1799 006c 04       		.uleb128 0x4
 1800 006d 04       		.byte	0x4
 1801 006e 05       		.byte	0x5
 1802 006f E5010000 		.4byte	.LASF8
 1803 0073 03       		.uleb128 0x3
 1804 0074 25070000 		.4byte	.LASF9
 1805 0078 09       		.byte	0x9
 1806 0079 41       		.byte	0x41
 1807 007a 7E000000 		.4byte	0x7e
 1808 007e 04       		.uleb128 0x4
 1809 007f 04       		.byte	0x4
 1810 0080 07       		.byte	0x7
 1811 0081 90060000 		.4byte	.LASF10
 1812 0085 04       		.uleb128 0x4
 1813 0086 08       		.byte	0x8
 1814 0087 05       		.byte	0x5
 1815 0088 72010000 		.4byte	.LASF11
 1816 008c 03       		.uleb128 0x3
 1817 008d 6C050000 		.4byte	.LASF12
 1818 0091 09       		.byte	0x9
 1819 0092 5B       		.byte	0x5b
 1820 0093 97000000 		.4byte	0x97
 1821 0097 04       		.uleb128 0x4
 1822 0098 08       		.byte	0x8
 1823 0099 07       		.byte	0x7
 1824 009a F2000000 		.4byte	.LASF13
 1825 009e 03       		.uleb128 0x3
 1826 009f 7D070000 		.4byte	.LASF14
 1827 00a3 0A       		.byte	0xa
 1828 00a4 15       		.byte	0x15
 1829 00a5 41000000 		.4byte	0x41
 1830 00a9 03       		.uleb128 0x3
 1831 00aa BB050000 		.4byte	.LASF15
 1832 00ae 0A       		.byte	0xa
 1833 00af 2C       		.byte	0x2c
 1834 00b0 61000000 		.4byte	0x61
 1835 00b4 03       		.uleb128 0x3
 1836 00b5 68060000 		.4byte	.LASF16
 1837 00b9 0A       		.byte	0xa
ARM GAS  /tmp/cczVTum7.s 			page 34


 1838 00ba 2D       		.byte	0x2d
 1839 00bb 73000000 		.4byte	0x73
 1840 00bf 03       		.uleb128 0x3
 1841 00c0 38000000 		.4byte	.LASF17
 1842 00c4 0A       		.byte	0xa
 1843 00c5 39       		.byte	0x39
 1844 00c6 8C000000 		.4byte	0x8c
 1845 00ca 05       		.uleb128 0x5
 1846 00cb A9000000 		.4byte	0xa9
 1847 00cf 03       		.uleb128 0x3
 1848 00d0 30070000 		.4byte	.LASF18
 1849 00d4 0B       		.byte	0xb
 1850 00d5 46       		.byte	0x46
 1851 00d6 B4000000 		.4byte	0xb4
 1852 00da 03       		.uleb128 0x3
 1853 00db 02060000 		.4byte	.LASF19
 1854 00df 0B       		.byte	0xb
 1855 00e0 49       		.byte	0x49
 1856 00e1 9E000000 		.4byte	0x9e
 1857 00e5 03       		.uleb128 0x3
 1858 00e6 EE010000 		.4byte	.LASF20
 1859 00ea 0B       		.byte	0xb
 1860 00eb 4A       		.byte	0x4a
 1861 00ec 9E000000 		.4byte	0x9e
 1862 00f0 03       		.uleb128 0x3
 1863 00f1 77050000 		.4byte	.LASF21
 1864 00f5 0B       		.byte	0xb
 1865 00f6 4B       		.byte	0x4b
 1866 00f7 9E000000 		.4byte	0x9e
 1867 00fb 03       		.uleb128 0x3
 1868 00fc 96050000 		.4byte	.LASF22
 1869 0100 0B       		.byte	0xb
 1870 0101 4D       		.byte	0x4d
 1871 0102 B4000000 		.4byte	0xb4
 1872 0106 03       		.uleb128 0x3
 1873 0107 F9020000 		.4byte	.LASF23
 1874 010b 0B       		.byte	0xb
 1875 010c 4E       		.byte	0x4e
 1876 010d A9000000 		.4byte	0xa9
 1877 0111 03       		.uleb128 0x3
 1878 0112 4A030000 		.4byte	.LASF24
 1879 0116 0B       		.byte	0xb
 1880 0117 50       		.byte	0x50
 1881 0118 B4000000 		.4byte	0xb4
 1882 011c 03       		.uleb128 0x3
 1883 011d 6C020000 		.4byte	.LASF25
 1884 0121 0B       		.byte	0xb
 1885 0122 52       		.byte	0x52
 1886 0123 A9000000 		.4byte	0xa9
 1887 0127 03       		.uleb128 0x3
 1888 0128 E0060000 		.4byte	.LASF26
 1889 012c 0C       		.byte	0xc
 1890 012d 33       		.byte	0x33
 1891 012e B4000000 		.4byte	0xb4
 1892 0132 03       		.uleb128 0x3
 1893 0133 B1060000 		.4byte	.LASF27
 1894 0137 0C       		.byte	0xc
ARM GAS  /tmp/cczVTum7.s 			page 35


 1895 0138 3F       		.byte	0x3f
 1896 0139 3D010000 		.4byte	0x13d
 1897 013d 06       		.uleb128 0x6
 1898 013e EF020000 		.4byte	.LASF47
 1899 0142 44       		.byte	0x44
 1900 0143 03       		.byte	0x3
 1901 0144 C2       		.byte	0xc2
 1902 0145 2A020000 		.4byte	0x22a
 1903 0149 07       		.uleb128 0x7
 1904 014a FB050000 		.4byte	.LASF28
 1905 014e 03       		.byte	0x3
 1906 014f C3       		.byte	0xc3
 1907 0150 35020000 		.4byte	0x235
 1908 0154 00       		.byte	0
 1909 0155 07       		.uleb128 0x7
 1910 0156 8F050000 		.4byte	.LASF29
 1911 015a 03       		.byte	0x3
 1912 015b C5       		.byte	0xc5
 1913 015c 35020000 		.4byte	0x235
 1914 0160 04       		.byte	0x4
 1915 0161 07       		.uleb128 0x7
 1916 0162 60010000 		.4byte	.LASF30
 1917 0166 03       		.byte	0x3
 1918 0167 C7       		.byte	0xc7
 1919 0168 FB000000 		.4byte	0xfb
 1920 016c 08       		.byte	0x8
 1921 016d 07       		.uleb128 0x7
 1922 016e F6070000 		.4byte	.LASF31
 1923 0172 03       		.byte	0x3
 1924 0173 C8       		.byte	0xc8
 1925 0174 65040000 		.4byte	0x465
 1926 0178 0C       		.byte	0xc
 1927 0179 07       		.uleb128 0x7
 1928 017a 06020000 		.4byte	.LASF32
 1929 017e 03       		.byte	0x3
 1930 017f CA       		.byte	0xca
 1931 0180 35020000 		.4byte	0x235
 1932 0184 10       		.byte	0x10
 1933 0185 07       		.uleb128 0x7
 1934 0186 FF040000 		.4byte	.LASF33
 1935 018a 03       		.byte	0x3
 1936 018b CB       		.byte	0xcb
 1937 018c 35020000 		.4byte	0x235
 1938 0190 14       		.byte	0x14
 1939 0191 07       		.uleb128 0x7
 1940 0192 9E050000 		.4byte	.LASF34
 1941 0196 03       		.byte	0x3
 1942 0197 D2       		.byte	0xd2
 1943 0198 AA060000 		.4byte	0x6aa
 1944 019c 18       		.byte	0x18
 1945 019d 07       		.uleb128 0x7
 1946 019e E5050000 		.4byte	.LASF35
 1947 01a2 03       		.byte	0x3
 1948 01a3 DD       		.byte	0xdd
 1949 01a4 E5000000 		.4byte	0xe5
 1950 01a8 1C       		.byte	0x1c
 1951 01a9 07       		.uleb128 0x7
ARM GAS  /tmp/cczVTum7.s 			page 36


 1952 01aa 0A060000 		.4byte	.LASF36
 1953 01ae 03       		.byte	0x3
 1954 01af E1       		.byte	0xe1
 1955 01b0 DA000000 		.4byte	0xda
 1956 01b4 1D       		.byte	0x1d
 1957 01b5 07       		.uleb128 0x7
 1958 01b6 62070000 		.4byte	.LASF37
 1959 01ba 03       		.byte	0x3
 1960 01bb E6       		.byte	0xe6
 1961 01bc F0000000 		.4byte	0xf0
 1962 01c0 1E       		.byte	0x1e
 1963 01c1 08       		.uleb128 0x8
 1964 01c2 705F7500 		.ascii	"p_u\000"
 1965 01c6 03       		.byte	0x3
 1966 01c7 3101     		.2byte	0x131
 1967 01c9 E5050000 		.4byte	0x5e5
 1968 01cd 20       		.byte	0x20
 1969 01ce 09       		.uleb128 0x9
 1970 01cf A1030000 		.4byte	.LASF38
 1971 01d3 03       		.byte	0x3
 1972 01d4 3601     		.2byte	0x136
 1973 01d6 3B020000 		.4byte	0x23b
 1974 01da 24       		.byte	0x24
 1975 01db 09       		.uleb128 0x9
 1976 01dc B7020000 		.4byte	.LASF39
 1977 01e0 03       		.byte	0x3
 1978 01e1 3C01     		.2byte	0x13c
 1979 01e3 5F020000 		.4byte	0x25f
 1980 01e7 28       		.byte	0x28
 1981 01e8 09       		.uleb128 0x9
 1982 01e9 D6070000 		.4byte	.LASF40
 1983 01ed 03       		.byte	0x3
 1984 01ee 4001     		.2byte	0x140
 1985 01f0 06010000 		.4byte	0x106
 1986 01f4 30       		.byte	0x30
 1987 01f5 09       		.uleb128 0x9
 1988 01f6 52060000 		.4byte	.LASF41
 1989 01fa 03       		.byte	0x3
 1990 01fb 4601     		.2byte	0x146
 1991 01fd 11010000 		.4byte	0x111
 1992 0201 34       		.byte	0x34
 1993 0202 09       		.uleb128 0x9
 1994 0203 D1050000 		.4byte	.LASF42
 1995 0207 03       		.byte	0x3
 1996 0208 4D01     		.2byte	0x14d
 1997 020a A4060000 		.4byte	0x6a4
 1998 020e 38       		.byte	0x38
 1999 020f 09       		.uleb128 0x9
 2000 0210 EA060000 		.4byte	.LASF43
 2001 0214 03       		.byte	0x3
 2002 0215 5101     		.2byte	0x151
 2003 0217 FB000000 		.4byte	0xfb
 2004 021b 3C       		.byte	0x3c
 2005 021c 09       		.uleb128 0x9
 2006 021d A5010000 		.4byte	.LASF44
 2007 0221 03       		.byte	0x3
 2008 0222 5801     		.2byte	0x158
ARM GAS  /tmp/cczVTum7.s 			page 37


 2009 0224 12030000 		.4byte	0x312
 2010 0228 40       		.byte	0x40
 2011 0229 00       		.byte	0
 2012 022a 03       		.uleb128 0x3
 2013 022b B4030000 		.4byte	.LASF45
 2014 022f 0C       		.byte	0xc
 2015 0230 44       		.byte	0x44
 2016 0231 35020000 		.4byte	0x235
 2017 0235 0A       		.uleb128 0xa
 2018 0236 04       		.byte	0x4
 2019 0237 32010000 		.4byte	0x132
 2020 023b 03       		.uleb128 0x3
 2021 023c 7D030000 		.4byte	.LASF46
 2022 0240 0C       		.byte	0xc
 2023 0241 49       		.byte	0x49
 2024 0242 46020000 		.4byte	0x246
 2025 0246 06       		.uleb128 0x6
 2026 0247 80060000 		.4byte	.LASF48
 2027 024b 04       		.byte	0x4
 2028 024c 03       		.byte	0x3
 2029 024d B0       		.byte	0xb0
 2030 024e 5F020000 		.4byte	0x25f
 2031 0252 07       		.uleb128 0x7
 2032 0253 FB050000 		.4byte	.LASF28
 2033 0257 03       		.byte	0x3
 2034 0258 B1       		.byte	0xb1
 2035 0259 35020000 		.4byte	0x235
 2036 025d 00       		.byte	0
 2037 025e 00       		.byte	0
 2038 025f 03       		.uleb128 0x3
 2039 0260 49070000 		.4byte	.LASF49
 2040 0264 0C       		.byte	0xc
 2041 0265 50       		.byte	0x50
 2042 0266 6A020000 		.4byte	0x26a
 2043 026a 06       		.uleb128 0x6
 2044 026b 45010000 		.4byte	.LASF50
 2045 026f 08       		.byte	0x8
 2046 0270 03       		.byte	0x3
 2047 0271 B7       		.byte	0xb7
 2048 0272 8F020000 		.4byte	0x28f
 2049 0276 07       		.uleb128 0x7
 2050 0277 FB050000 		.4byte	.LASF28
 2051 027b 03       		.byte	0x3
 2052 027c B8       		.byte	0xb8
 2053 027d 35020000 		.4byte	0x235
 2054 0281 00       		.byte	0
 2055 0282 07       		.uleb128 0x7
 2056 0283 8F050000 		.4byte	.LASF29
 2057 0287 03       		.byte	0x3
 2058 0288 B9       		.byte	0xb9
 2059 0289 35020000 		.4byte	0x235
 2060 028d 04       		.byte	0x4
 2061 028e 00       		.byte	0
 2062 028f 03       		.uleb128 0x3
 2063 0290 10000000 		.4byte	.LASF51
 2064 0294 0C       		.byte	0xc
 2065 0295 57       		.byte	0x57
ARM GAS  /tmp/cczVTum7.s 			page 38


 2066 0296 9A020000 		.4byte	0x29a
 2067 029a 0B       		.uleb128 0xb
 2068 029b 3C030000 		.4byte	.LASF52
 2069 029f 1C       		.byte	0x1c
 2070 02a0 03       		.byte	0x3
 2071 02a1 9001     		.2byte	0x190
 2072 02a3 F6020000 		.4byte	0x2f6
 2073 02a7 09       		.uleb128 0x9
 2074 02a8 78060000 		.4byte	.LASF53
 2075 02ac 03       		.byte	0x3
 2076 02ad 9101     		.2byte	0x191
 2077 02af 5F020000 		.4byte	0x25f
 2078 02b3 00       		.byte	0
 2079 02b4 09       		.uleb128 0x9
 2080 02b5 ED050000 		.4byte	.LASF54
 2081 02b9 03       		.byte	0x3
 2082 02ba 9201     		.2byte	0x192
 2083 02bc FB000000 		.4byte	0xfb
 2084 02c0 08       		.byte	0x8
 2085 02c1 09       		.uleb128 0x9
 2086 02c2 07050000 		.4byte	.LASF55
 2087 02c6 03       		.byte	0x3
 2088 02c7 9401     		.2byte	0x194
 2089 02c9 65040000 		.4byte	0x465
 2090 02cd 0C       		.byte	0xc
 2091 02ce 09       		.uleb128 0x9
 2092 02cf FF020000 		.4byte	.LASF56
 2093 02d3 03       		.byte	0x3
 2094 02d4 9701     		.2byte	0x197
 2095 02d6 35020000 		.4byte	0x235
 2096 02da 10       		.byte	0x10
 2097 02db 09       		.uleb128 0x9
 2098 02dc 3B050000 		.4byte	.LASF57
 2099 02e0 03       		.byte	0x3
 2100 02e1 9801     		.2byte	0x198
 2101 02e3 35020000 		.4byte	0x235
 2102 02e7 14       		.byte	0x14
 2103 02e8 09       		.uleb128 0x9
 2104 02e9 A2060000 		.4byte	.LASF58
 2105 02ed 03       		.byte	0x3
 2106 02ee 9B01     		.2byte	0x19b
 2107 02f0 35020000 		.4byte	0x235
 2108 02f4 18       		.byte	0x18
 2109 02f5 00       		.byte	0
 2110 02f6 03       		.uleb128 0x3
 2111 02f7 F5060000 		.4byte	.LASF59
 2112 02fb 0C       		.byte	0xc
 2113 02fc 5C       		.byte	0x5c
 2114 02fd 01030000 		.4byte	0x301
 2115 0301 0A       		.uleb128 0xa
 2116 0302 04       		.byte	0x4
 2117 0303 07030000 		.4byte	0x307
 2118 0307 0C       		.uleb128 0xc
 2119 0308 12030000 		.4byte	0x312
 2120 030c 0D       		.uleb128 0xd
 2121 030d 12030000 		.4byte	0x312
 2122 0311 00       		.byte	0
ARM GAS  /tmp/cczVTum7.s 			page 39


 2123 0312 0E       		.uleb128 0xe
 2124 0313 04       		.byte	0x4
 2125 0314 03       		.uleb128 0x3
 2126 0315 7F050000 		.4byte	.LASF60
 2127 0319 0C       		.byte	0xc
 2128 031a 61       		.byte	0x61
 2129 031b 1F030000 		.4byte	0x31f
 2130 031f 0B       		.uleb128 0xb
 2131 0320 34060000 		.4byte	.LASF61
 2132 0324 14       		.byte	0x14
 2133 0325 03       		.byte	0x3
 2134 0326 6B01     		.2byte	0x16b
 2135 0328 6E030000 		.4byte	0x36e
 2136 032c 09       		.uleb128 0x9
 2137 032d 9F020000 		.4byte	.LASF62
 2138 0331 03       		.byte	0x3
 2139 0332 6C01     		.2byte	0x16c
 2140 0334 BC060000 		.4byte	0x6bc
 2141 0338 00       		.byte	0
 2142 0339 09       		.uleb128 0x9
 2143 033a 38020000 		.4byte	.LASF63
 2144 033e 03       		.byte	0x3
 2145 033f 6D01     		.2byte	0x16d
 2146 0341 BC060000 		.4byte	0x6bc
 2147 0345 04       		.byte	0x4
 2148 0346 09       		.uleb128 0x9
 2149 0347 AE020000 		.4byte	.LASF64
 2150 034b 03       		.byte	0x3
 2151 034c 6E01     		.2byte	0x16e
 2152 034e 27010000 		.4byte	0x127
 2153 0352 08       		.byte	0x8
 2154 0353 09       		.uleb128 0x9
 2155 0354 FC070000 		.4byte	.LASF65
 2156 0358 03       		.byte	0x3
 2157 0359 6F01     		.2byte	0x16f
 2158 035b F6020000 		.4byte	0x2f6
 2159 035f 0C       		.byte	0xc
 2160 0360 09       		.uleb128 0x9
 2161 0361 42070000 		.4byte	.LASF66
 2162 0365 03       		.byte	0x3
 2163 0366 7101     		.2byte	0x171
 2164 0368 12030000 		.4byte	0x312
 2165 036c 10       		.byte	0x10
 2166 036d 00       		.byte	0
 2167 036e 03       		.uleb128 0x3
 2168 036f 1D010000 		.4byte	.LASF67
 2169 0373 0C       		.byte	0xc
 2170 0374 66       		.byte	0x66
 2171 0375 79030000 		.4byte	0x379
 2172 0379 0B       		.uleb128 0xb
 2173 037a C7030000 		.4byte	.LASF68
 2174 037e 10       		.byte	0x10
 2175 037f 03       		.byte	0x3
 2176 0380 7B01     		.2byte	0x17b
 2177 0382 BB030000 		.4byte	0x3bb
 2178 0386 09       		.uleb128 0x9
 2179 0387 9F020000 		.4byte	.LASF62
ARM GAS  /tmp/cczVTum7.s 			page 40


 2180 038b 03       		.byte	0x3
 2181 038c 7C01     		.2byte	0x17c
 2182 038e BC060000 		.4byte	0x6bc
 2183 0392 00       		.byte	0
 2184 0393 09       		.uleb128 0x9
 2185 0394 38020000 		.4byte	.LASF63
 2186 0398 03       		.byte	0x3
 2187 0399 7E01     		.2byte	0x17e
 2188 039b BC060000 		.4byte	0x6bc
 2189 039f 04       		.byte	0x4
 2190 03a0 09       		.uleb128 0x9
 2191 03a1 AE020000 		.4byte	.LASF64
 2192 03a5 03       		.byte	0x3
 2193 03a6 8001     		.2byte	0x180
 2194 03a8 27010000 		.4byte	0x127
 2195 03ac 08       		.byte	0x8
 2196 03ad 09       		.uleb128 0x9
 2197 03ae 67010000 		.4byte	.LASF69
 2198 03b2 03       		.byte	0x3
 2199 03b3 8201     		.2byte	0x182
 2200 03b5 C2060000 		.4byte	0x6c2
 2201 03b9 0C       		.byte	0xc
 2202 03ba 00       		.byte	0
 2203 03bb 03       		.uleb128 0x3
 2204 03bc AB000000 		.4byte	.LASF70
 2205 03c0 0C       		.byte	0xc
 2206 03c1 6B       		.byte	0x6b
 2207 03c2 C6030000 		.4byte	0x3c6
 2208 03c6 0B       		.uleb128 0xb
 2209 03c7 A5050000 		.4byte	.LASF71
 2210 03cb 04       		.byte	0x4
 2211 03cc 03       		.byte	0x3
 2212 03cd A201     		.2byte	0x1a2
 2213 03cf E1030000 		.4byte	0x3e1
 2214 03d3 09       		.uleb128 0x9
 2215 03d4 0C070000 		.4byte	.LASF72
 2216 03d8 03       		.byte	0x3
 2217 03d9 AA01     		.2byte	0x1aa
 2218 03db C7060000 		.4byte	0x6c7
 2219 03df 00       		.byte	0
 2220 03e0 00       		.byte	0
 2221 03e1 03       		.uleb128 0x3
 2222 03e2 07030000 		.4byte	.LASF73
 2223 03e6 0C       		.byte	0xc
 2224 03e7 70       		.byte	0x70
 2225 03e8 EC030000 		.4byte	0x3ec
 2226 03ec 0F       		.uleb128 0xf
 2227 03ed DB010000 		.4byte	.LASF74
 2228 03f1 D801     		.2byte	0x1d8
 2229 03f3 03       		.byte	0x3
 2230 03f4 C201     		.2byte	0x1c2
 2231 03f6 48040000 		.4byte	0x448
 2232 03fa 09       		.uleb128 0x9
 2233 03fb 69070000 		.4byte	.LASF75
 2234 03ff 03       		.byte	0x3
 2235 0400 C601     		.2byte	0x1c6
 2236 0402 8F020000 		.4byte	0x28f
ARM GAS  /tmp/cczVTum7.s 			page 41


 2237 0406 00       		.byte	0
 2238 0407 09       		.uleb128 0x9
 2239 0408 B5010000 		.4byte	.LASF76
 2240 040c 03       		.byte	0x3
 2241 040d CA01     		.2byte	0x1ca
 2242 040f 6E030000 		.4byte	0x36e
 2243 0413 1C       		.byte	0x1c
 2244 0414 08       		.uleb128 0x8
 2245 0415 64626700 		.ascii	"dbg\000"
 2246 0419 03       		.byte	0x3
 2247 041a CE01     		.2byte	0x1ce
 2248 041c BB030000 		.4byte	0x3bb
 2249 0420 2C       		.byte	0x2c
 2250 0421 09       		.uleb128 0x9
 2251 0422 12010000 		.4byte	.LASF77
 2252 0426 03       		.byte	0x3
 2253 0427 D201     		.2byte	0x1d2
 2254 0429 32010000 		.4byte	0x132
 2255 042d 30       		.byte	0x30
 2256 042e 08       		.uleb128 0x8
 2257 042f 746D00   		.ascii	"tm\000"
 2258 0432 03       		.byte	0x3
 2259 0433 D701     		.2byte	0x1d7
 2260 0435 DA050000 		.4byte	0x5da
 2261 0439 74       		.byte	0x74
 2262 043a 09       		.uleb128 0x9
 2263 043b 1B060000 		.4byte	.LASF78
 2264 043f 03       		.byte	0x3
 2265 0440 E301     		.2byte	0x1e3
 2266 0442 CC060000 		.4byte	0x6cc
 2267 0446 78       		.byte	0x78
 2268 0447 00       		.byte	0
 2269 0448 04       		.uleb128 0x4
 2270 0449 04       		.byte	0x4
 2271 044a 07       		.byte	0x7
 2272 044b AB030000 		.4byte	.LASF79
 2273 044f 03       		.uleb128 0x3
 2274 0450 2F020000 		.4byte	.LASF80
 2275 0454 0D       		.byte	0xd
 2276 0455 65       		.byte	0x65
 2277 0456 12030000 		.4byte	0x312
 2278 045a 03       		.uleb128 0x3
 2279 045b 60030000 		.4byte	.LASF81
 2280 045f 0D       		.byte	0xd
 2281 0460 6D       		.byte	0x6d
 2282 0461 BF000000 		.4byte	0xbf
 2283 0465 06       		.uleb128 0x6
 2284 0466 1D070000 		.4byte	.LASF82
 2285 046a 04       		.byte	0x4
 2286 046b 0D       		.byte	0xd
 2287 046c 89       		.byte	0x89
 2288 046d 7E040000 		.4byte	0x47e
 2289 0471 10       		.uleb128 0x10
 2290 0472 72313300 		.ascii	"r13\000"
 2291 0476 0D       		.byte	0xd
 2292 0477 8A       		.byte	0x8a
 2293 0478 BF050000 		.4byte	0x5bf
ARM GAS  /tmp/cczVTum7.s 			page 42


 2294 047c 00       		.byte	0
 2295 047d 00       		.byte	0
 2296 047e 06       		.uleb128 0x6
 2297 047f 9F000000 		.4byte	.LASF83
 2298 0483 64       		.byte	0x64
 2299 0484 01       		.byte	0x1
 2300 0485 F4       		.byte	0xf4
 2301 0486 BF050000 		.4byte	0x5bf
 2302 048a 10       		.uleb128 0x10
 2303 048b 73313600 		.ascii	"s16\000"
 2304 048f 01       		.byte	0x1
 2305 0490 F6       		.byte	0xf6
 2306 0491 4F040000 		.4byte	0x44f
 2307 0495 00       		.byte	0
 2308 0496 10       		.uleb128 0x10
 2309 0497 73313700 		.ascii	"s17\000"
 2310 049b 01       		.byte	0x1
 2311 049c F7       		.byte	0xf7
 2312 049d 4F040000 		.4byte	0x44f
 2313 04a1 04       		.byte	0x4
 2314 04a2 10       		.uleb128 0x10
 2315 04a3 73313800 		.ascii	"s18\000"
 2316 04a7 01       		.byte	0x1
 2317 04a8 F8       		.byte	0xf8
 2318 04a9 4F040000 		.4byte	0x44f
 2319 04ad 08       		.byte	0x8
 2320 04ae 10       		.uleb128 0x10
 2321 04af 73313900 		.ascii	"s19\000"
 2322 04b3 01       		.byte	0x1
 2323 04b4 F9       		.byte	0xf9
 2324 04b5 4F040000 		.4byte	0x44f
 2325 04b9 0C       		.byte	0xc
 2326 04ba 10       		.uleb128 0x10
 2327 04bb 73323000 		.ascii	"s20\000"
 2328 04bf 01       		.byte	0x1
 2329 04c0 FA       		.byte	0xfa
 2330 04c1 4F040000 		.4byte	0x44f
 2331 04c5 10       		.byte	0x10
 2332 04c6 10       		.uleb128 0x10
 2333 04c7 73323100 		.ascii	"s21\000"
 2334 04cb 01       		.byte	0x1
 2335 04cc FB       		.byte	0xfb
 2336 04cd 4F040000 		.4byte	0x44f
 2337 04d1 14       		.byte	0x14
 2338 04d2 10       		.uleb128 0x10
 2339 04d3 73323200 		.ascii	"s22\000"
 2340 04d7 01       		.byte	0x1
 2341 04d8 FC       		.byte	0xfc
 2342 04d9 4F040000 		.4byte	0x44f
 2343 04dd 18       		.byte	0x18
 2344 04de 10       		.uleb128 0x10
 2345 04df 73323300 		.ascii	"s23\000"
 2346 04e3 01       		.byte	0x1
 2347 04e4 FD       		.byte	0xfd
 2348 04e5 4F040000 		.4byte	0x44f
 2349 04e9 1C       		.byte	0x1c
 2350 04ea 10       		.uleb128 0x10
ARM GAS  /tmp/cczVTum7.s 			page 43


 2351 04eb 73323400 		.ascii	"s24\000"
 2352 04ef 01       		.byte	0x1
 2353 04f0 FE       		.byte	0xfe
 2354 04f1 4F040000 		.4byte	0x44f
 2355 04f5 20       		.byte	0x20
 2356 04f6 10       		.uleb128 0x10
 2357 04f7 73323500 		.ascii	"s25\000"
 2358 04fb 01       		.byte	0x1
 2359 04fc FF       		.byte	0xff
 2360 04fd 4F040000 		.4byte	0x44f
 2361 0501 24       		.byte	0x24
 2362 0502 08       		.uleb128 0x8
 2363 0503 73323600 		.ascii	"s26\000"
 2364 0507 01       		.byte	0x1
 2365 0508 0001     		.2byte	0x100
 2366 050a 4F040000 		.4byte	0x44f
 2367 050e 28       		.byte	0x28
 2368 050f 08       		.uleb128 0x8
 2369 0510 73323700 		.ascii	"s27\000"
 2370 0514 01       		.byte	0x1
 2371 0515 0101     		.2byte	0x101
 2372 0517 4F040000 		.4byte	0x44f
 2373 051b 2C       		.byte	0x2c
 2374 051c 08       		.uleb128 0x8
 2375 051d 73323800 		.ascii	"s28\000"
 2376 0521 01       		.byte	0x1
 2377 0522 0201     		.2byte	0x102
 2378 0524 4F040000 		.4byte	0x44f
 2379 0528 30       		.byte	0x30
 2380 0529 08       		.uleb128 0x8
 2381 052a 73323900 		.ascii	"s29\000"
 2382 052e 01       		.byte	0x1
 2383 052f 0301     		.2byte	0x103
 2384 0531 4F040000 		.4byte	0x44f
 2385 0535 34       		.byte	0x34
 2386 0536 08       		.uleb128 0x8
 2387 0537 73333000 		.ascii	"s30\000"
 2388 053b 01       		.byte	0x1
 2389 053c 0401     		.2byte	0x104
 2390 053e 4F040000 		.4byte	0x44f
 2391 0542 38       		.byte	0x38
 2392 0543 08       		.uleb128 0x8
 2393 0544 73333100 		.ascii	"s31\000"
 2394 0548 01       		.byte	0x1
 2395 0549 0501     		.2byte	0x105
 2396 054b 4F040000 		.4byte	0x44f
 2397 054f 3C       		.byte	0x3c
 2398 0550 08       		.uleb128 0x8
 2399 0551 723400   		.ascii	"r4\000"
 2400 0554 01       		.byte	0x1
 2401 0555 0701     		.2byte	0x107
 2402 0557 4F040000 		.4byte	0x44f
 2403 055b 40       		.byte	0x40
 2404 055c 08       		.uleb128 0x8
 2405 055d 723500   		.ascii	"r5\000"
 2406 0560 01       		.byte	0x1
 2407 0561 0801     		.2byte	0x108
ARM GAS  /tmp/cczVTum7.s 			page 44


 2408 0563 4F040000 		.4byte	0x44f
 2409 0567 44       		.byte	0x44
 2410 0568 08       		.uleb128 0x8
 2411 0569 723600   		.ascii	"r6\000"
 2412 056c 01       		.byte	0x1
 2413 056d 0901     		.2byte	0x109
 2414 056f 4F040000 		.4byte	0x44f
 2415 0573 48       		.byte	0x48
 2416 0574 08       		.uleb128 0x8
 2417 0575 723700   		.ascii	"r7\000"
 2418 0578 01       		.byte	0x1
 2419 0579 0A01     		.2byte	0x10a
 2420 057b 4F040000 		.4byte	0x44f
 2421 057f 4C       		.byte	0x4c
 2422 0580 08       		.uleb128 0x8
 2423 0581 723800   		.ascii	"r8\000"
 2424 0584 01       		.byte	0x1
 2425 0585 0B01     		.2byte	0x10b
 2426 0587 4F040000 		.4byte	0x44f
 2427 058b 50       		.byte	0x50
 2428 058c 08       		.uleb128 0x8
 2429 058d 723900   		.ascii	"r9\000"
 2430 0590 01       		.byte	0x1
 2431 0591 0C01     		.2byte	0x10c
 2432 0593 4F040000 		.4byte	0x44f
 2433 0597 54       		.byte	0x54
 2434 0598 08       		.uleb128 0x8
 2435 0599 72313000 		.ascii	"r10\000"
 2436 059d 01       		.byte	0x1
 2437 059e 0D01     		.2byte	0x10d
 2438 05a0 4F040000 		.4byte	0x44f
 2439 05a4 58       		.byte	0x58
 2440 05a5 08       		.uleb128 0x8
 2441 05a6 72313100 		.ascii	"r11\000"
 2442 05aa 01       		.byte	0x1
 2443 05ab 0E01     		.2byte	0x10e
 2444 05ad 4F040000 		.4byte	0x44f
 2445 05b1 5C       		.byte	0x5c
 2446 05b2 08       		.uleb128 0x8
 2447 05b3 6C7200   		.ascii	"lr\000"
 2448 05b6 01       		.byte	0x1
 2449 05b7 0F01     		.2byte	0x10f
 2450 05b9 4F040000 		.4byte	0x44f
 2451 05bd 60       		.byte	0x60
 2452 05be 00       		.byte	0
 2453 05bf 0A       		.uleb128 0xa
 2454 05c0 04       		.byte	0x4
 2455 05c1 7E040000 		.4byte	0x47e
 2456 05c5 11       		.uleb128 0x11
 2457 05c6 04       		.byte	0x4
 2458 05c7 0E       		.byte	0xe
 2459 05c8 38       		.byte	0x38
 2460 05c9 DA050000 		.4byte	0x5da
 2461 05cd 07       		.uleb128 0x7
 2462 05ce 16070000 		.4byte	.LASF84
 2463 05d2 0E       		.byte	0xe
 2464 05d3 3C       		.byte	0x3c
ARM GAS  /tmp/cczVTum7.s 			page 45


 2465 05d4 CF000000 		.4byte	0xcf
 2466 05d8 00       		.byte	0
 2467 05d9 00       		.byte	0
 2468 05da 03       		.uleb128 0x3
 2469 05db 0D050000 		.4byte	.LASF85
 2470 05df 0E       		.byte	0xe
 2471 05e0 3D       		.byte	0x3d
 2472 05e1 C5050000 		.4byte	0x5c5
 2473 05e5 12       		.uleb128 0x12
 2474 05e6 04       		.byte	0x4
 2475 05e7 03       		.byte	0x3
 2476 05e8 FA       		.byte	0xfa
 2477 05e9 42060000 		.4byte	0x642
 2478 05ed 13       		.uleb128 0x13
 2479 05ee 31000000 		.4byte	.LASF86
 2480 05f2 03       		.byte	0x3
 2481 05f3 0101     		.2byte	0x101
 2482 05f5 06010000 		.4byte	0x106
 2483 05f9 13       		.uleb128 0x13
 2484 05fa 09010000 		.4byte	.LASF87
 2485 05fe 03       		.byte	0x3
 2486 05ff 0801     		.2byte	0x108
 2487 0601 06010000 		.4byte	0x106
 2488 0605 13       		.uleb128 0x13
 2489 0606 90070000 		.4byte	.LASF88
 2490 060a 03       		.byte	0x3
 2491 060b 0F01     		.2byte	0x10f
 2492 060d 12030000 		.4byte	0x312
 2493 0611 13       		.uleb128 0x13
 2494 0612 D5010000 		.4byte	.LASF89
 2495 0616 03       		.byte	0x3
 2496 0617 1601     		.2byte	0x116
 2497 0619 42060000 		.4byte	0x642
 2498 061d 13       		.uleb128 0x13
 2499 061e A7020000 		.4byte	.LASF90
 2500 0622 03       		.byte	0x3
 2501 0623 1E01     		.2byte	0x11e
 2502 0625 6D060000 		.4byte	0x66d
 2503 0629 13       		.uleb128 0x13
 2504 062a 71060000 		.4byte	.LASF91
 2505 062e 03       		.byte	0x3
 2506 062f 2701     		.2byte	0x127
 2507 0631 A4060000 		.4byte	0x6a4
 2508 0635 13       		.uleb128 0x13
 2509 0636 F4050000 		.4byte	.LASF92
 2510 063a 03       		.byte	0x3
 2511 063b 2F01     		.2byte	0x12f
 2512 063d 11010000 		.4byte	0x111
 2513 0641 00       		.byte	0
 2514 0642 0A       		.uleb128 0xa
 2515 0643 04       		.byte	0x4
 2516 0644 2A020000 		.4byte	0x22a
 2517 0648 06       		.uleb128 0x6
 2518 0649 45060000 		.4byte	.LASF93
 2519 064d 0C       		.byte	0xc
 2520 064e 0F       		.byte	0xf
 2521 064f 34       		.byte	0x34
ARM GAS  /tmp/cczVTum7.s 			page 46


 2522 0650 6D060000 		.4byte	0x66d
 2523 0654 07       		.uleb128 0x7
 2524 0655 0E020000 		.4byte	.LASF94
 2525 0659 0F       		.byte	0xf
 2526 065a 35       		.byte	0x35
 2527 065b 5F020000 		.4byte	0x25f
 2528 065f 00       		.byte	0
 2529 0660 07       		.uleb128 0x7
 2530 0661 D6020000 		.4byte	.LASF95
 2531 0665 0F       		.byte	0xf
 2532 0666 37       		.byte	0x37
 2533 0667 1C010000 		.4byte	0x11c
 2534 066b 08       		.byte	0x8
 2535 066c 00       		.byte	0
 2536 066d 0A       		.uleb128 0xa
 2537 066e 04       		.byte	0x4
 2538 066f 48060000 		.4byte	0x648
 2539 0673 06       		.uleb128 0x6
 2540 0674 59070000 		.4byte	.LASF96
 2541 0678 10       		.byte	0x10
 2542 0679 10       		.byte	0x10
 2543 067a 39       		.byte	0x39
 2544 067b A4060000 		.4byte	0x6a4
 2545 067f 07       		.uleb128 0x7
 2546 0680 AD010000 		.4byte	.LASF97
 2547 0684 10       		.byte	0x10
 2548 0685 3A       		.byte	0x3a
 2549 0686 5F020000 		.4byte	0x25f
 2550 068a 00       		.byte	0
 2551 068b 07       		.uleb128 0x7
 2552 068c E2070000 		.4byte	.LASF98
 2553 0690 10       		.byte	0x10
 2554 0691 3C       		.byte	0x3c
 2555 0692 35020000 		.4byte	0x235
 2556 0696 08       		.byte	0x8
 2557 0697 07       		.uleb128 0x7
 2558 0698 1E050000 		.4byte	.LASF99
 2559 069c 10       		.byte	0x10
 2560 069d 3E       		.byte	0x3e
 2561 069e F2060000 		.4byte	0x6f2
 2562 06a2 0C       		.byte	0xc
 2563 06a3 00       		.byte	0
 2564 06a4 0A       		.uleb128 0xa
 2565 06a5 04       		.byte	0x4
 2566 06a6 73060000 		.4byte	0x673
 2567 06aa 0A       		.uleb128 0xa
 2568 06ab 04       		.byte	0x4
 2569 06ac B0060000 		.4byte	0x6b0
 2570 06b0 14       		.uleb128 0x14
 2571 06b1 B5060000 		.4byte	0x6b5
 2572 06b5 04       		.uleb128 0x4
 2573 06b6 01       		.byte	0x1
 2574 06b7 08       		.byte	0x8
 2575 06b8 AC060000 		.4byte	.LASF100
 2576 06bc 0A       		.uleb128 0xa
 2577 06bd 04       		.byte	0x4
 2578 06be 14030000 		.4byte	0x314
ARM GAS  /tmp/cczVTum7.s 			page 47


 2579 06c2 05       		.uleb128 0x5
 2580 06c3 27010000 		.4byte	0x127
 2581 06c7 05       		.uleb128 0x5
 2582 06c8 AA060000 		.4byte	0x6aa
 2583 06cc 15       		.uleb128 0x15
 2584 06cd 5A040000 		.4byte	0x45a
 2585 06d1 DC060000 		.4byte	0x6dc
 2586 06d5 16       		.uleb128 0x16
 2587 06d6 48040000 		.4byte	0x448
 2588 06da 2B       		.byte	0x2b
 2589 06db 00       		.byte	0
 2590 06dc 03       		.uleb128 0x3
 2591 06dd 00000000 		.4byte	.LASF101
 2592 06e1 06       		.byte	0x6
 2593 06e2 34       		.byte	0x34
 2594 06e3 01030000 		.4byte	0x301
 2595 06e7 03       		.uleb128 0x3
 2596 06e8 4D020000 		.4byte	.LASF102
 2597 06ec 10       		.byte	0x10
 2598 06ed 34       		.byte	0x34
 2599 06ee 73060000 		.4byte	0x673
 2600 06f2 0A       		.uleb128 0xa
 2601 06f3 04       		.byte	0x4
 2602 06f4 E7060000 		.4byte	0x6e7
 2603 06f8 17       		.uleb128 0x17
 2604 06f9 FE060000 		.4byte	.LASF157
 2605 06fd 02       		.byte	0x2
 2606 06fe 2002     		.2byte	0x220
 2607 0700 03       		.byte	0x3
 2608 0701 12070000 		.4byte	0x712
 2609 0705 18       		.uleb128 0x18
 2610 0706 55020000 		.4byte	.LASF158
 2611 070a 02       		.byte	0x2
 2612 070b 2002     		.2byte	0x220
 2613 070d B4000000 		.4byte	0xb4
 2614 0711 00       		.byte	0
 2615 0712 19       		.uleb128 0x19
 2616 0713 DD000000 		.4byte	.LASF103
 2617 0717 01       		.byte	0x1
 2618 0718 BC01     		.2byte	0x1bc
 2619 071a 00000000 		.4byte	.LFB116
 2620 071e 10000000 		.4byte	.LFE116-.LFB116
 2621 0722 01       		.uleb128 0x1
 2622 0723 9C       		.byte	0x9c
 2623 0724 42070000 		.4byte	0x742
 2624 0728 1A       		.uleb128 0x1a
 2625 0729 F8060000 		.4byte	0x6f8
 2626 072d 06000000 		.4byte	.LBB6
 2627 0731 06000000 		.4byte	.LBE6-.LBB6
 2628 0735 01       		.byte	0x1
 2629 0736 BF01     		.2byte	0x1bf
 2630 0738 1B       		.uleb128 0x1b
 2631 0739 05070000 		.4byte	0x705
 2632 073d 02       		.uleb128 0x2
 2633 073e 91       		.byte	0x91
 2634 073f 7C       		.sleb128 -4
 2635 0740 00       		.byte	0
ARM GAS  /tmp/cczVTum7.s 			page 48


 2636 0741 00       		.byte	0
 2637 0742 19       		.uleb128 0x19
 2638 0743 BC010000 		.4byte	.LASF104
 2639 0747 01       		.byte	0x1
 2640 0748 CA01     		.2byte	0x1ca
 2641 074a 00000000 		.4byte	.LFB117
 2642 074e 10000000 		.4byte	.LFE117-.LFB117
 2643 0752 01       		.uleb128 0x1
 2644 0753 9C       		.byte	0x9c
 2645 0754 72070000 		.4byte	0x772
 2646 0758 1A       		.uleb128 0x1a
 2647 0759 F8060000 		.4byte	0x6f8
 2648 075d 06000000 		.4byte	.LBB8
 2649 0761 06000000 		.4byte	.LBE8-.LBB8
 2650 0765 01       		.byte	0x1
 2651 0766 CD01     		.2byte	0x1cd
 2652 0768 1B       		.uleb128 0x1b
 2653 0769 05070000 		.4byte	0x705
 2654 076d 02       		.uleb128 0x2
 2655 076e 91       		.byte	0x91
 2656 076f 7C       		.sleb128 -4
 2657 0770 00       		.byte	0
 2658 0771 00       		.byte	0
 2659 0772 19       		.uleb128 0x19
 2660 0773 56010000 		.4byte	.LASF105
 2661 0777 03       		.byte	0x3
 2662 0778 3402     		.2byte	0x234
 2663 077a 00000000 		.4byte	.LFB125
 2664 077e 0E000000 		.4byte	.LFE125-.LFB125
 2665 0782 01       		.uleb128 0x1
 2666 0783 9C       		.byte	0x9c
 2667 0784 98070000 		.4byte	0x798
 2668 0788 1C       		.uleb128 0x1c
 2669 0789 746C7000 		.ascii	"tlp\000"
 2670 078d 03       		.byte	0x3
 2671 078e 3402     		.2byte	0x234
 2672 0790 98070000 		.4byte	0x798
 2673 0794 02       		.uleb128 0x2
 2674 0795 91       		.byte	0x91
 2675 0796 7C       		.sleb128 -4
 2676 0797 00       		.byte	0
 2677 0798 0A       		.uleb128 0xa
 2678 0799 04       		.byte	0x4
 2679 079a 3B020000 		.4byte	0x23b
 2680 079e 1D       		.uleb128 0x1d
 2681 079f AA070000 		.4byte	.LASF108
 2682 07a3 03       		.byte	0x3
 2683 07a4 4E02     		.2byte	0x24e
 2684 07a6 C8070000 		.4byte	0x7c8
 2685 07aa 00000000 		.4byte	.LFB127
 2686 07ae 1A000000 		.4byte	.LFE127-.LFB127
 2687 07b2 01       		.uleb128 0x1
 2688 07b3 9C       		.byte	0x9c
 2689 07b4 C8070000 		.4byte	0x7c8
 2690 07b8 1C       		.uleb128 0x1c
 2691 07b9 746C7000 		.ascii	"tlp\000"
 2692 07bd 03       		.byte	0x3
ARM GAS  /tmp/cczVTum7.s 			page 49


 2693 07be 4E02     		.2byte	0x24e
 2694 07c0 98070000 		.4byte	0x798
 2695 07c4 02       		.uleb128 0x2
 2696 07c5 91       		.byte	0x91
 2697 07c6 7C       		.sleb128 -4
 2698 07c7 00       		.byte	0
 2699 07c8 04       		.uleb128 0x4
 2700 07c9 01       		.byte	0x1
 2701 07ca 02       		.byte	0x2
 2702 07cb B5050000 		.4byte	.LASF106
 2703 07cf 19       		.uleb128 0x19
 2704 07d0 D2000000 		.4byte	.LASF107
 2705 07d4 03       		.byte	0x3
 2706 07d5 5A02     		.2byte	0x25a
 2707 07d7 00000000 		.4byte	.LFB128
 2708 07db 14000000 		.4byte	.LFE128-.LFB128
 2709 07df 01       		.uleb128 0x1
 2710 07e0 9C       		.byte	0x9c
 2711 07e1 F5070000 		.4byte	0x7f5
 2712 07e5 1C       		.uleb128 0x1c
 2713 07e6 74717000 		.ascii	"tqp\000"
 2714 07ea 03       		.byte	0x3
 2715 07eb 5A02     		.2byte	0x25a
 2716 07ed F5070000 		.4byte	0x7f5
 2717 07f1 02       		.uleb128 0x2
 2718 07f2 91       		.byte	0x91
 2719 07f3 7C       		.sleb128 -4
 2720 07f4 00       		.byte	0
 2721 07f5 0A       		.uleb128 0xa
 2722 07f6 04       		.byte	0x4
 2723 07f7 5F020000 		.4byte	0x25f
 2724 07fb 1D       		.uleb128 0x1d
 2725 07fc F7010000 		.4byte	.LASF109
 2726 0800 03       		.byte	0x3
 2727 0801 7502     		.2byte	0x275
 2728 0803 C8070000 		.4byte	0x7c8
 2729 0807 00000000 		.4byte	.LFB130
 2730 080b 1A000000 		.4byte	.LFE130-.LFB130
 2731 080f 01       		.uleb128 0x1
 2732 0810 9C       		.byte	0x9c
 2733 0811 25080000 		.4byte	0x825
 2734 0815 1C       		.uleb128 0x1c
 2735 0816 74717000 		.ascii	"tqp\000"
 2736 081a 03       		.byte	0x3
 2737 081b 7502     		.2byte	0x275
 2738 081d 25080000 		.4byte	0x825
 2739 0821 02       		.uleb128 0x2
 2740 0822 91       		.byte	0x91
 2741 0823 7C       		.sleb128 -4
 2742 0824 00       		.byte	0
 2743 0825 0A       		.uleb128 0xa
 2744 0826 04       		.byte	0x4
 2745 0827 2B080000 		.4byte	0x82b
 2746 082b 14       		.uleb128 0x14
 2747 082c 5F020000 		.4byte	0x25f
 2748 0830 19       		.uleb128 0x19
 2749 0831 2A050000 		.4byte	.LASF110
ARM GAS  /tmp/cczVTum7.s 			page 50


 2750 0835 03       		.byte	0x3
 2751 0836 7D02     		.2byte	0x27d
 2752 0838 00000000 		.4byte	.LFB131
 2753 083c 18000000 		.4byte	.LFE131-.LFB131
 2754 0840 01       		.uleb128 0x1
 2755 0841 9C       		.byte	0x9c
 2756 0842 64080000 		.4byte	0x864
 2757 0846 1C       		.uleb128 0x1c
 2758 0847 747000   		.ascii	"tp\000"
 2759 084a 03       		.byte	0x3
 2760 084b 7D02     		.2byte	0x27d
 2761 084d 35020000 		.4byte	0x235
 2762 0851 02       		.uleb128 0x2
 2763 0852 91       		.byte	0x91
 2764 0853 7C       		.sleb128 -4
 2765 0854 1C       		.uleb128 0x1c
 2766 0855 746C7000 		.ascii	"tlp\000"
 2767 0859 03       		.byte	0x3
 2768 085a 7D02     		.2byte	0x27d
 2769 085c 98070000 		.4byte	0x798
 2770 0860 02       		.uleb128 0x2
 2771 0861 91       		.byte	0x91
 2772 0862 78       		.sleb128 -8
 2773 0863 00       		.byte	0
 2774 0864 1D       		.uleb128 0x1d
 2775 0865 16020000 		.4byte	.LASF111
 2776 0869 03       		.byte	0x3
 2777 086a 8302     		.2byte	0x283
 2778 086c 35020000 		.4byte	0x235
 2779 0870 00000000 		.4byte	.LFB132
 2780 0874 1A000000 		.4byte	.LFE132-.LFB132
 2781 0878 01       		.uleb128 0x1
 2782 0879 9C       		.byte	0x9c
 2783 087a 9C080000 		.4byte	0x89c
 2784 087e 1C       		.uleb128 0x1c
 2785 087f 746C7000 		.ascii	"tlp\000"
 2786 0883 03       		.byte	0x3
 2787 0884 8302     		.2byte	0x283
 2788 0886 98070000 		.4byte	0x798
 2789 088a 02       		.uleb128 0x2
 2790 088b 91       		.byte	0x91
 2791 088c 74       		.sleb128 -12
 2792 088d 1E       		.uleb128 0x1e
 2793 088e 747000   		.ascii	"tp\000"
 2794 0891 03       		.byte	0x3
 2795 0892 8502     		.2byte	0x285
 2796 0894 35020000 		.4byte	0x235
 2797 0898 02       		.uleb128 0x2
 2798 0899 91       		.byte	0x91
 2799 089a 7C       		.sleb128 -4
 2800 089b 00       		.byte	0
 2801 089c 19       		.uleb128 0x19
 2802 089d 1D000000 		.4byte	.LASF112
 2803 08a1 03       		.byte	0x3
 2804 08a2 9702     		.2byte	0x297
 2805 08a4 00000000 		.4byte	.LFB134
 2806 08a8 26000000 		.4byte	.LFE134-.LFB134
ARM GAS  /tmp/cczVTum7.s 			page 51


 2807 08ac 01       		.uleb128 0x1
 2808 08ad 9C       		.byte	0x9c
 2809 08ae D0080000 		.4byte	0x8d0
 2810 08b2 1C       		.uleb128 0x1c
 2811 08b3 747000   		.ascii	"tp\000"
 2812 08b6 03       		.byte	0x3
 2813 08b7 9702     		.2byte	0x297
 2814 08b9 35020000 		.4byte	0x235
 2815 08bd 02       		.uleb128 0x2
 2816 08be 91       		.byte	0x91
 2817 08bf 7C       		.sleb128 -4
 2818 08c0 1C       		.uleb128 0x1c
 2819 08c1 74717000 		.ascii	"tqp\000"
 2820 08c5 03       		.byte	0x3
 2821 08c6 9702     		.2byte	0x297
 2822 08c8 F5070000 		.4byte	0x7f5
 2823 08cc 02       		.uleb128 0x2
 2824 08cd 91       		.byte	0x91
 2825 08ce 78       		.sleb128 -8
 2826 08cf 00       		.byte	0
 2827 08d0 1D       		.uleb128 0x1d
 2828 08d1 CE060000 		.4byte	.LASF113
 2829 08d5 03       		.byte	0x3
 2830 08d6 9F02     		.2byte	0x29f
 2831 08d8 35020000 		.4byte	0x235
 2832 08dc 00000000 		.4byte	.LFB135
 2833 08e0 22000000 		.4byte	.LFE135-.LFB135
 2834 08e4 01       		.uleb128 0x1
 2835 08e5 9C       		.byte	0x9c
 2836 08e6 08090000 		.4byte	0x908
 2837 08ea 1C       		.uleb128 0x1c
 2838 08eb 74717000 		.ascii	"tqp\000"
 2839 08ef 03       		.byte	0x3
 2840 08f0 9F02     		.2byte	0x29f
 2841 08f2 F5070000 		.4byte	0x7f5
 2842 08f6 02       		.uleb128 0x2
 2843 08f7 91       		.byte	0x91
 2844 08f8 74       		.sleb128 -12
 2845 08f9 1E       		.uleb128 0x1e
 2846 08fa 747000   		.ascii	"tp\000"
 2847 08fd 03       		.byte	0x3
 2848 08fe A002     		.2byte	0x2a0
 2849 0900 35020000 		.4byte	0x235
 2850 0904 02       		.uleb128 0x2
 2851 0905 91       		.byte	0x91
 2852 0906 7C       		.sleb128 -4
 2853 0907 00       		.byte	0
 2854 0908 1F       		.uleb128 0x1f
 2855 0909 96010000 		.4byte	.LASF117
 2856 090d 03       		.byte	0x3
 2857 090e D702     		.2byte	0x2d7
 2858 0910 C8070000 		.4byte	0x7c8
 2859 0914 00000000 		.4byte	.LFB139
 2860 0918 20000000 		.4byte	.LFE139-.LFB139
 2861 091c 01       		.uleb128 0x1
 2862 091d 9C       		.byte	0x9c
 2863 091e 20       		.uleb128 0x20
ARM GAS  /tmp/cczVTum7.s 			page 52


 2864 091f 97070000 		.4byte	.LASF114
 2865 0923 03       		.byte	0x3
 2866 0924 E502     		.2byte	0x2e5
 2867 0926 00000000 		.4byte	.LFB140
 2868 092a 12000000 		.4byte	.LFE140-.LFB140
 2869 092e 01       		.uleb128 0x1
 2870 092f 9C       		.byte	0x9c
 2871 0930 20       		.uleb128 0x20
 2872 0931 2A060000 		.4byte	.LASF115
 2873 0935 04       		.byte	0x4
 2874 0936 5A01     		.2byte	0x15a
 2875 0938 00000000 		.4byte	.LFB145
 2876 093c 08000000 		.4byte	.LFE145-.LFB145
 2877 0940 01       		.uleb128 0x1
 2878 0941 9C       		.byte	0x9c
 2879 0942 21       		.uleb128 0x21
 2880 0943 CA070000 		.4byte	.LASF116
 2881 0947 04       		.byte	0x4
 2882 0948 6601     		.2byte	0x166
 2883 094a 00000000 		.4byte	.LFB146
 2884 094e 08000000 		.4byte	.LFE146-.LFB146
 2885 0952 01       		.uleb128 0x1
 2886 0953 9C       		.byte	0x9c
 2887 0954 62090000 		.4byte	0x962
 2888 0958 22       		.uleb128 0x22
 2889 0959 12060000 		.4byte	.LASF124
 2890 095d 72090000 		.4byte	0x972
 2891 0961 00       		.byte	0
 2892 0962 15       		.uleb128 0x15
 2893 0963 B5060000 		.4byte	0x6b5
 2894 0967 72090000 		.4byte	0x972
 2895 096b 16       		.uleb128 0x16
 2896 096c 48040000 		.4byte	0x448
 2897 0970 0B       		.byte	0xb
 2898 0971 00       		.byte	0
 2899 0972 14       		.uleb128 0x14
 2900 0973 62090000 		.4byte	0x962
 2901 0977 23       		.uleb128 0x23
 2902 0978 72020000 		.4byte	.LASF118
 2903 097c 05       		.byte	0x5
 2904 097d E4       		.byte	0xe4
 2905 097e 27010000 		.4byte	0x127
 2906 0982 00000000 		.4byte	.LFB153
 2907 0986 0C000000 		.4byte	.LFE153-.LFB153
 2908 098a 01       		.uleb128 0x1
 2909 098b 9C       		.byte	0x9c
 2910 098c 1D       		.uleb128 0x1d
 2911 098d B8070000 		.4byte	.LASF119
 2912 0991 05       		.byte	0x5
 2913 0992 1C01     		.2byte	0x11c
 2914 0994 C8070000 		.4byte	0x7c8
 2915 0998 00000000 		.4byte	.LFB156
 2916 099c 24000000 		.4byte	.LFE156-.LFB156
 2917 09a0 01       		.uleb128 0x1
 2918 09a1 9C       		.byte	0x9c
 2919 09a2 D4090000 		.4byte	0x9d4
 2920 09a6 24       		.uleb128 0x24
ARM GAS  /tmp/cczVTum7.s 			page 53


 2921 09a7 25050000 		.4byte	.LASF120
 2922 09ab 05       		.byte	0x5
 2923 09ac 1C01     		.2byte	0x11c
 2924 09ae 27010000 		.4byte	0x127
 2925 09b2 02       		.uleb128 0x2
 2926 09b3 91       		.byte	0x91
 2927 09b4 7C       		.sleb128 -4
 2928 09b5 24       		.uleb128 0x24
 2929 09b6 DC070000 		.4byte	.LASF121
 2930 09ba 05       		.byte	0x5
 2931 09bb 1D01     		.2byte	0x11d
 2932 09bd 27010000 		.4byte	0x127
 2933 09c1 02       		.uleb128 0x2
 2934 09c2 91       		.byte	0x91
 2935 09c3 78       		.sleb128 -8
 2936 09c4 1C       		.uleb128 0x1c
 2937 09c5 656E6400 		.ascii	"end\000"
 2938 09c9 05       		.byte	0x5
 2939 09ca 1E01     		.2byte	0x11e
 2940 09cc 27010000 		.4byte	0x127
 2941 09d0 02       		.uleb128 0x2
 2942 09d1 91       		.byte	0x91
 2943 09d2 74       		.sleb128 -12
 2944 09d3 00       		.byte	0
 2945 09d4 23       		.uleb128 0x23
 2946 09d5 6F070000 		.4byte	.LASF122
 2947 09d9 06       		.byte	0x6
 2948 09da AE       		.byte	0xae
 2949 09db 35020000 		.4byte	0x235
 2950 09df 00000000 		.4byte	.LFB166
 2951 09e3 0C000000 		.4byte	.LFE166-.LFB166
 2952 09e7 01       		.uleb128 0x1
 2953 09e8 9C       		.byte	0x9c
 2954 09e9 25       		.uleb128 0x25
 2955 09ea EA070000 		.4byte	.LASF123
 2956 09ee 06       		.byte	0x6
 2957 09ef F5       		.byte	0xf5
 2958 09f0 35020000 		.4byte	0x235
 2959 09f4 00000000 		.4byte	.LFB170
 2960 09f8 16000000 		.4byte	.LFE170-.LFB170
 2961 09fc 01       		.uleb128 0x1
 2962 09fd 9C       		.byte	0x9c
 2963 09fe 190A0000 		.4byte	0xa19
 2964 0a02 26       		.uleb128 0x26
 2965 0a03 747000   		.ascii	"tp\000"
 2966 0a06 06       		.byte	0x6
 2967 0a07 F5       		.byte	0xf5
 2968 0a08 35020000 		.4byte	0x235
 2969 0a0c 02       		.uleb128 0x2
 2970 0a0d 91       		.byte	0x91
 2971 0a0e 74       		.sleb128 -12
 2972 0a0f 22       		.uleb128 0x22
 2973 0a10 12060000 		.4byte	.LASF124
 2974 0a14 190A0000 		.4byte	0xa19
 2975 0a18 00       		.byte	0
 2976 0a19 14       		.uleb128 0x14
 2977 0a1a 62090000 		.4byte	0x962
ARM GAS  /tmp/cczVTum7.s 			page 54


 2978 0a1e 21       		.uleb128 0x21
 2979 0a1f C2020000 		.4byte	.LASF125
 2980 0a23 06       		.byte	0x6
 2981 0a24 0801     		.2byte	0x108
 2982 0a26 00000000 		.4byte	.LFB171
 2983 0a2a 14000000 		.4byte	.LFE171-.LFB171
 2984 0a2e 01       		.uleb128 0x1
 2985 0a2f 9C       		.byte	0x9c
 2986 0a30 4D0A0000 		.4byte	0xa4d
 2987 0a34 24       		.uleb128 0x24
 2988 0a35 25050000 		.4byte	.LASF120
 2989 0a39 06       		.byte	0x6
 2990 0a3a 0801     		.2byte	0x108
 2991 0a3c 27010000 		.4byte	0x127
 2992 0a40 02       		.uleb128 0x2
 2993 0a41 91       		.byte	0x91
 2994 0a42 74       		.sleb128 -12
 2995 0a43 22       		.uleb128 0x22
 2996 0a44 12060000 		.4byte	.LASF124
 2997 0a48 4D0A0000 		.4byte	0xa4d
 2998 0a4c 00       		.byte	0
 2999 0a4d 14       		.uleb128 0x14
 3000 0a4e 62090000 		.4byte	0x962
 3001 0a52 21       		.uleb128 0x21
 3002 0a53 BA060000 		.4byte	.LASF126
 3003 0a57 06       		.byte	0x6
 3004 0a58 3801     		.2byte	0x138
 3005 0a5a 00000000 		.4byte	.LFB174
 3006 0a5e 22000000 		.4byte	.LFE174-.LFB174
 3007 0a62 01       		.uleb128 0x1
 3008 0a63 9C       		.byte	0x9c
 3009 0a64 9E0A0000 		.4byte	0xa9e
 3010 0a68 1C       		.uleb128 0x1c
 3011 0a69 74717000 		.ascii	"tqp\000"
 3012 0a6d 06       		.byte	0x6
 3013 0a6e 3801     		.2byte	0x138
 3014 0a70 F5070000 		.4byte	0x7f5
 3015 0a74 02       		.uleb128 0x2
 3016 0a75 91       		.byte	0x91
 3017 0a76 6C       		.sleb128 -20
 3018 0a77 1C       		.uleb128 0x1c
 3019 0a78 6D736700 		.ascii	"msg\000"
 3020 0a7c 06       		.byte	0x6
 3021 0a7d 3801     		.2byte	0x138
 3022 0a7f 06010000 		.4byte	0x106
 3023 0a83 02       		.uleb128 0x2
 3024 0a84 91       		.byte	0x91
 3025 0a85 68       		.sleb128 -24
 3026 0a86 1E       		.uleb128 0x1e
 3027 0a87 747000   		.ascii	"tp\000"
 3028 0a8a 06       		.byte	0x6
 3029 0a8b 3901     		.2byte	0x139
 3030 0a8d 35020000 		.4byte	0x235
 3031 0a91 02       		.uleb128 0x2
 3032 0a92 91       		.byte	0x91
 3033 0a93 74       		.sleb128 -12
 3034 0a94 22       		.uleb128 0x22
ARM GAS  /tmp/cczVTum7.s 			page 55


 3035 0a95 12060000 		.4byte	.LASF124
 3036 0a99 AE0A0000 		.4byte	0xaae
 3037 0a9d 00       		.byte	0
 3038 0a9e 15       		.uleb128 0x15
 3039 0a9f B5060000 		.4byte	0x6b5
 3040 0aa3 AE0A0000 		.4byte	0xaae
 3041 0aa7 16       		.uleb128 0x16
 3042 0aa8 48040000 		.4byte	0x448
 3043 0aac 13       		.byte	0x13
 3044 0aad 00       		.byte	0
 3045 0aae 14       		.uleb128 0x14
 3046 0aaf 9E0A0000 		.4byte	0xa9e
 3047 0ab3 27       		.uleb128 0x27
 3048 0ab4 92020000 		.4byte	.LASF128
 3049 0ab8 07       		.byte	0x7
 3050 0ab9 5B       		.byte	0x5b
 3051 0aba 35020000 		.4byte	0x235
 3052 0abe 00000000 		.4byte	.LFB216
 3053 0ac2 78000000 		.4byte	.LFE216-.LFB216
 3054 0ac6 01       		.uleb128 0x1
 3055 0ac7 9C       		.byte	0x9c
 3056 0ac8 E80A0000 		.4byte	0xae8
 3057 0acc 26       		.uleb128 0x26
 3058 0acd 747000   		.ascii	"tp\000"
 3059 0ad0 07       		.byte	0x7
 3060 0ad1 5B       		.byte	0x5b
 3061 0ad2 35020000 		.4byte	0x235
 3062 0ad6 02       		.uleb128 0x2
 3063 0ad7 91       		.byte	0x91
 3064 0ad8 74       		.sleb128 -12
 3065 0ad9 28       		.uleb128 0x28
 3066 0ada 36050000 		.4byte	.LASF127
 3067 0ade 07       		.byte	0x7
 3068 0adf 5B       		.byte	0x5b
 3069 0ae0 FB000000 		.4byte	0xfb
 3070 0ae4 02       		.uleb128 0x2
 3071 0ae5 91       		.byte	0x91
 3072 0ae6 70       		.sleb128 -16
 3073 0ae7 00       		.byte	0
 3074 0ae8 27       		.uleb128 0x27
 3075 0ae9 C8010000 		.4byte	.LASF129
 3076 0aed 07       		.byte	0x7
 3077 0aee B1       		.byte	0xb1
 3078 0aef 35020000 		.4byte	0x235
 3079 0af3 00000000 		.4byte	.LFB217
 3080 0af7 4C000000 		.4byte	.LFE217-.LFB217
 3081 0afb 01       		.uleb128 0x1
 3082 0afc 9C       		.byte	0x9c
 3083 0afd 5D0B0000 		.4byte	0xb5d
 3084 0b01 26       		.uleb128 0x26
 3085 0b02 77737000 		.ascii	"wsp\000"
 3086 0b06 07       		.byte	0x7
 3087 0b07 B1       		.byte	0xb1
 3088 0b08 12030000 		.4byte	0x312
 3089 0b0c 02       		.uleb128 0x2
 3090 0b0d 91       		.byte	0x91
 3091 0b0e 6C       		.sleb128 -20
ARM GAS  /tmp/cczVTum7.s 			page 56


 3092 0b0f 28       		.uleb128 0x28
 3093 0b10 A5070000 		.4byte	.LASF130
 3094 0b14 07       		.byte	0x7
 3095 0b15 B1       		.byte	0xb1
 3096 0b16 28000000 		.4byte	0x28
 3097 0b1a 02       		.uleb128 0x2
 3098 0b1b 91       		.byte	0x91
 3099 0b1c 68       		.sleb128 -24
 3100 0b1d 28       		.uleb128 0x28
 3101 0b1e 36050000 		.4byte	.LASF127
 3102 0b22 07       		.byte	0x7
 3103 0b23 B2       		.byte	0xb2
 3104 0b24 FB000000 		.4byte	0xfb
 3105 0b28 02       		.uleb128 0x2
 3106 0b29 91       		.byte	0x91
 3107 0b2a 64       		.sleb128 -28
 3108 0b2b 26       		.uleb128 0x26
 3109 0b2c 706600   		.ascii	"pf\000"
 3110 0b2f 07       		.byte	0x7
 3111 0b30 B2       		.byte	0xb2
 3112 0b31 DC060000 		.4byte	0x6dc
 3113 0b35 02       		.uleb128 0x2
 3114 0b36 91       		.byte	0x91
 3115 0b37 60       		.sleb128 -32
 3116 0b38 26       		.uleb128 0x26
 3117 0b39 61726700 		.ascii	"arg\000"
 3118 0b3d 07       		.byte	0x7
 3119 0b3e B2       		.byte	0xb2
 3120 0b3f 12030000 		.4byte	0x312
 3121 0b43 02       		.uleb128 0x2
 3122 0b44 91       		.byte	0x91
 3123 0b45 00       		.sleb128 0
 3124 0b46 29       		.uleb128 0x29
 3125 0b47 747000   		.ascii	"tp\000"
 3126 0b4a 07       		.byte	0x7
 3127 0b4b B5       		.byte	0xb5
 3128 0b4c 35020000 		.4byte	0x235
 3129 0b50 02       		.uleb128 0x2
 3130 0b51 91       		.byte	0x91
 3131 0b52 74       		.sleb128 -12
 3132 0b53 22       		.uleb128 0x22
 3133 0b54 12060000 		.4byte	.LASF124
 3134 0b58 6D0B0000 		.4byte	0xb6d
 3135 0b5c 00       		.byte	0
 3136 0b5d 15       		.uleb128 0x15
 3137 0b5e B5060000 		.4byte	0x6b5
 3138 0b62 6D0B0000 		.4byte	0xb6d
 3139 0b66 16       		.uleb128 0x16
 3140 0b67 48040000 		.4byte	0x448
 3141 0b6b 0C       		.byte	0xc
 3142 0b6c 00       		.byte	0
 3143 0b6d 14       		.uleb128 0x14
 3144 0b6e 5D0B0000 		.4byte	0xb5d
 3145 0b72 27       		.uleb128 0x27
 3146 0b73 6B030000 		.4byte	.LASF131
 3147 0b77 07       		.byte	0x7
 3148 0b78 D0       		.byte	0xd0
ARM GAS  /tmp/cczVTum7.s 			page 57


 3149 0b79 35020000 		.4byte	0x235
 3150 0b7d 00000000 		.4byte	.LFB218
 3151 0b81 38000000 		.4byte	.LFE218-.LFB218
 3152 0b85 01       		.uleb128 0x1
 3153 0b86 9C       		.byte	0x9c
 3154 0b87 DE0B0000 		.4byte	0xbde
 3155 0b8b 26       		.uleb128 0x26
 3156 0b8c 77737000 		.ascii	"wsp\000"
 3157 0b90 07       		.byte	0x7
 3158 0b91 D0       		.byte	0xd0
 3159 0b92 12030000 		.4byte	0x312
 3160 0b96 02       		.uleb128 0x2
 3161 0b97 91       		.byte	0x91
 3162 0b98 6C       		.sleb128 -20
 3163 0b99 28       		.uleb128 0x28
 3164 0b9a A5070000 		.4byte	.LASF130
 3165 0b9e 07       		.byte	0x7
 3166 0b9f D0       		.byte	0xd0
 3167 0ba0 28000000 		.4byte	0x28
 3168 0ba4 02       		.uleb128 0x2
 3169 0ba5 91       		.byte	0x91
 3170 0ba6 68       		.sleb128 -24
 3171 0ba7 28       		.uleb128 0x28
 3172 0ba8 36050000 		.4byte	.LASF127
 3173 0bac 07       		.byte	0x7
 3174 0bad D1       		.byte	0xd1
 3175 0bae FB000000 		.4byte	0xfb
 3176 0bb2 02       		.uleb128 0x2
 3177 0bb3 91       		.byte	0x91
 3178 0bb4 64       		.sleb128 -28
 3179 0bb5 26       		.uleb128 0x26
 3180 0bb6 706600   		.ascii	"pf\000"
 3181 0bb9 07       		.byte	0x7
 3182 0bba D1       		.byte	0xd1
 3183 0bbb DC060000 		.4byte	0x6dc
 3184 0bbf 02       		.uleb128 0x2
 3185 0bc0 91       		.byte	0x91
 3186 0bc1 60       		.sleb128 -32
 3187 0bc2 26       		.uleb128 0x26
 3188 0bc3 61726700 		.ascii	"arg\000"
 3189 0bc7 07       		.byte	0x7
 3190 0bc8 D1       		.byte	0xd1
 3191 0bc9 12030000 		.4byte	0x312
 3192 0bcd 02       		.uleb128 0x2
 3193 0bce 91       		.byte	0x91
 3194 0bcf 00       		.sleb128 0
 3195 0bd0 29       		.uleb128 0x29
 3196 0bd1 747000   		.ascii	"tp\000"
 3197 0bd4 07       		.byte	0x7
 3198 0bd5 D2       		.byte	0xd2
 3199 0bd6 35020000 		.4byte	0x235
 3200 0bda 02       		.uleb128 0x2
 3201 0bdb 91       		.byte	0x91
 3202 0bdc 74       		.sleb128 -12
 3203 0bdd 00       		.byte	0
 3204 0bde 27       		.uleb128 0x27
 3205 0bdf 53050000 		.4byte	.LASF132
ARM GAS  /tmp/cczVTum7.s 			page 58


 3206 0be3 07       		.byte	0x7
 3207 0be4 EE       		.byte	0xee
 3208 0be5 35020000 		.4byte	0x235
 3209 0be9 00000000 		.4byte	.LFB219
 3210 0bed 20000000 		.4byte	.LFE219-.LFB219
 3211 0bf1 01       		.uleb128 0x1
 3212 0bf2 9C       		.byte	0x9c
 3213 0bf3 050C0000 		.4byte	0xc05
 3214 0bf7 26       		.uleb128 0x26
 3215 0bf8 747000   		.ascii	"tp\000"
 3216 0bfb 07       		.byte	0x7
 3217 0bfc EE       		.byte	0xee
 3218 0bfd 35020000 		.4byte	0x235
 3219 0c01 02       		.uleb128 0x2
 3220 0c02 91       		.byte	0x91
 3221 0c03 74       		.sleb128 -12
 3222 0c04 00       		.byte	0
 3223 0c05 2A       		.uleb128 0x2a
 3224 0c06 5B020000 		.4byte	.LASF133
 3225 0c0a 07       		.byte	0x7
 3226 0c0b 0301     		.2byte	0x103
 3227 0c0d FB000000 		.4byte	0xfb
 3228 0c11 00000000 		.4byte	.LFB220
 3229 0c15 54000000 		.4byte	.LFE220-.LFB220
 3230 0c19 01       		.uleb128 0x1
 3231 0c1a 9C       		.byte	0x9c
 3232 0c1b 470C0000 		.4byte	0xc47
 3233 0c1f 24       		.uleb128 0x24
 3234 0c20 13030000 		.4byte	.LASF134
 3235 0c24 07       		.byte	0x7
 3236 0c25 0301     		.2byte	0x103
 3237 0c27 FB000000 		.4byte	0xfb
 3238 0c2b 02       		.uleb128 0x2
 3239 0c2c 91       		.byte	0x91
 3240 0c2d 6C       		.sleb128 -20
 3241 0c2e 2B       		.uleb128 0x2b
 3242 0c2f 08000000 		.4byte	.LASF135
 3243 0c33 07       		.byte	0x7
 3244 0c34 0401     		.2byte	0x104
 3245 0c36 FB000000 		.4byte	0xfb
 3246 0c3a 02       		.uleb128 0x2
 3247 0c3b 91       		.byte	0x91
 3248 0c3c 74       		.sleb128 -12
 3249 0c3d 22       		.uleb128 0x22
 3250 0c3e 12060000 		.4byte	.LASF124
 3251 0c42 570C0000 		.4byte	0xc57
 3252 0c46 00       		.byte	0
 3253 0c47 15       		.uleb128 0x15
 3254 0c48 B5060000 		.4byte	0x6b5
 3255 0c4c 570C0000 		.4byte	0xc57
 3256 0c50 16       		.uleb128 0x16
 3257 0c51 48040000 		.4byte	0x448
 3258 0c55 10       		.byte	0x10
 3259 0c56 00       		.byte	0
 3260 0c57 14       		.uleb128 0x14
 3261 0c58 470C0000 		.4byte	0xc47
 3262 0c5c 2C       		.uleb128 0x2c
ARM GAS  /tmp/cczVTum7.s 			page 59


 3263 0c5d 2D030000 		.4byte	.LASF136
 3264 0c61 07       		.byte	0x7
 3265 0c62 2501     		.2byte	0x125
 3266 0c64 00000000 		.4byte	.LFB221
 3267 0c68 22000000 		.4byte	.LFE221-.LFB221
 3268 0c6c 01       		.uleb128 0x1
 3269 0c6d 9C       		.byte	0x9c
 3270 0c6e 810C0000 		.4byte	0xc81
 3271 0c72 1C       		.uleb128 0x1c
 3272 0c73 747000   		.ascii	"tp\000"
 3273 0c76 07       		.byte	0x7
 3274 0c77 2501     		.2byte	0x125
 3275 0c79 35020000 		.4byte	0x235
 3276 0c7d 02       		.uleb128 0x2
 3277 0c7e 91       		.byte	0x91
 3278 0c7f 74       		.sleb128 -12
 3279 0c80 00       		.byte	0
 3280 0c81 2C       		.uleb128 0x2c
 3281 0c82 5D060000 		.4byte	.LASF137
 3282 0c86 07       		.byte	0x7
 3283 0c87 3801     		.2byte	0x138
 3284 0c89 00000000 		.4byte	.LFB222
 3285 0c8d 1A000000 		.4byte	.LFE222-.LFB222
 3286 0c91 01       		.uleb128 0x1
 3287 0c92 9C       		.byte	0x9c
 3288 0c93 A70C0000 		.4byte	0xca7
 3289 0c97 24       		.uleb128 0x24
 3290 0c98 25050000 		.4byte	.LASF120
 3291 0c9c 07       		.byte	0x7
 3292 0c9d 3801     		.2byte	0x138
 3293 0c9f 27010000 		.4byte	0x127
 3294 0ca3 02       		.uleb128 0x2
 3295 0ca4 91       		.byte	0x91
 3296 0ca5 74       		.sleb128 -12
 3297 0ca6 00       		.byte	0
 3298 0ca7 2C       		.uleb128 0x2c
 3299 0ca8 43050000 		.4byte	.LASF138
 3300 0cac 07       		.byte	0x7
 3301 0cad 4C01     		.2byte	0x14c
 3302 0caf 00000000 		.4byte	.LFB223
 3303 0cb3 2C000000 		.4byte	.LFE223-.LFB223
 3304 0cb7 01       		.uleb128 0x1
 3305 0cb8 9C       		.byte	0x9c
 3306 0cb9 CD0C0000 		.4byte	0xccd
 3307 0cbd 24       		.uleb128 0x24
 3308 0cbe 25050000 		.4byte	.LASF120
 3309 0cc2 07       		.byte	0x7
 3310 0cc3 4C01     		.2byte	0x14c
 3311 0cc5 27010000 		.4byte	0x127
 3312 0cc9 02       		.uleb128 0x2
 3313 0cca 91       		.byte	0x91
 3314 0ccb 74       		.sleb128 -12
 3315 0ccc 00       		.byte	0
 3316 0ccd 2A       		.uleb128 0x2a
 3317 0cce BA000000 		.4byte	.LASF139
 3318 0cd2 07       		.byte	0x7
 3319 0cd3 6401     		.2byte	0x164
ARM GAS  /tmp/cczVTum7.s 			page 60


 3320 0cd5 27010000 		.4byte	0x127
 3321 0cd9 00000000 		.4byte	.LFB224
 3322 0cdd 3C000000 		.4byte	.LFE224-.LFB224
 3323 0ce1 01       		.uleb128 0x1
 3324 0ce2 9C       		.byte	0x9c
 3325 0ce3 150D0000 		.4byte	0xd15
 3326 0ce7 24       		.uleb128 0x24
 3327 0ce8 9A000000 		.4byte	.LASF140
 3328 0cec 07       		.byte	0x7
 3329 0ced 6401     		.2byte	0x164
 3330 0cef 27010000 		.4byte	0x127
 3331 0cf3 02       		.uleb128 0x2
 3332 0cf4 91       		.byte	0x91
 3333 0cf5 6C       		.sleb128 -20
 3334 0cf6 24       		.uleb128 0x24
 3335 0cf7 40010000 		.4byte	.LASF141
 3336 0cfb 07       		.byte	0x7
 3337 0cfc 6401     		.2byte	0x164
 3338 0cfe 27010000 		.4byte	0x127
 3339 0d02 02       		.uleb128 0x2
 3340 0d03 91       		.byte	0x91
 3341 0d04 68       		.sleb128 -24
 3342 0d05 2B       		.uleb128 0x2b
 3343 0d06 25050000 		.4byte	.LASF120
 3344 0d0a 07       		.byte	0x7
 3345 0d0b 6501     		.2byte	0x165
 3346 0d0d 27010000 		.4byte	0x127
 3347 0d11 02       		.uleb128 0x2
 3348 0d12 91       		.byte	0x91
 3349 0d13 74       		.sleb128 -12
 3350 0d14 00       		.byte	0
 3351 0d15 2D       		.uleb128 0x2d
 3352 0d16 85070000 		.4byte	.LASF159
 3353 0d1a 07       		.byte	0x7
 3354 0d1b 7801     		.2byte	0x178
 3355 0d1d 00000000 		.4byte	.LFB225
 3356 0d21 10000000 		.4byte	.LFE225-.LFB225
 3357 0d25 01       		.uleb128 0x1
 3358 0d26 9C       		.byte	0x9c
 3359 0d27 2C       		.uleb128 0x2c
 3360 0d28 8C010000 		.4byte	.LASF142
 3361 0d2c 07       		.byte	0x7
 3362 0d2d 8D01     		.2byte	0x18d
 3363 0d2f 00000000 		.4byte	.LFB226
 3364 0d33 16000000 		.4byte	.LFE226-.LFB226
 3365 0d37 01       		.uleb128 0x1
 3366 0d38 9C       		.byte	0x9c
 3367 0d39 4D0D0000 		.4byte	0xd4d
 3368 0d3d 1C       		.uleb128 0x1c
 3369 0d3e 6D736700 		.ascii	"msg\000"
 3370 0d42 07       		.byte	0x7
 3371 0d43 8D01     		.2byte	0x18d
 3372 0d45 06010000 		.4byte	0x106
 3373 0d49 02       		.uleb128 0x2
 3374 0d4a 91       		.byte	0x91
 3375 0d4b 74       		.sleb128 -12
 3376 0d4c 00       		.byte	0
ARM GAS  /tmp/cczVTum7.s 			page 61


 3377 0d4d 2C       		.uleb128 0x2c
 3378 0d4e E7000000 		.4byte	.LASF143
 3379 0d52 07       		.byte	0x7
 3380 0d53 A201     		.2byte	0x1a2
 3381 0d55 00000000 		.4byte	.LFB227
 3382 0d59 68000000 		.4byte	.LFE227-.LFB227
 3383 0d5d 01       		.uleb128 0x1
 3384 0d5e 9C       		.byte	0x9c
 3385 0d5f 8A0D0000 		.4byte	0xd8a
 3386 0d63 1C       		.uleb128 0x1c
 3387 0d64 6D736700 		.ascii	"msg\000"
 3388 0d68 07       		.byte	0x7
 3389 0d69 A201     		.2byte	0x1a2
 3390 0d6b 06010000 		.4byte	0x106
 3391 0d6f 02       		.uleb128 0x2
 3392 0d70 91       		.byte	0x91
 3393 0d71 6C       		.sleb128 -20
 3394 0d72 1E       		.uleb128 0x1e
 3395 0d73 747000   		.ascii	"tp\000"
 3396 0d76 07       		.byte	0x7
 3397 0d77 A301     		.2byte	0x1a3
 3398 0d79 35020000 		.4byte	0x235
 3399 0d7d 02       		.uleb128 0x2
 3400 0d7e 91       		.byte	0x91
 3401 0d7f 74       		.sleb128 -12
 3402 0d80 22       		.uleb128 0x22
 3403 0d81 12060000 		.4byte	.LASF124
 3404 0d85 9A0D0000 		.4byte	0xd9a
 3405 0d89 00       		.byte	0
 3406 0d8a 15       		.uleb128 0x15
 3407 0d8b B5060000 		.4byte	0x6b5
 3408 0d8f 9A0D0000 		.4byte	0xd9a
 3409 0d93 16       		.uleb128 0x16
 3410 0d94 48040000 		.4byte	0x448
 3411 0d98 0A       		.byte	0xa
 3412 0d99 00       		.byte	0
 3413 0d9a 14       		.uleb128 0x14
 3414 0d9b 8A0D0000 		.4byte	0xd8a
 3415 0d9f 2A       		.uleb128 0x2a
 3416 0da0 38070000 		.4byte	.LASF144
 3417 0da4 07       		.byte	0x7
 3418 0da5 DB01     		.2byte	0x1db
 3419 0da7 06010000 		.4byte	0x106
 3420 0dab 00000000 		.4byte	.LFB228
 3421 0daf 48000000 		.4byte	.LFE228-.LFB228
 3422 0db3 01       		.uleb128 0x1
 3423 0db4 9C       		.byte	0x9c
 3424 0db5 E00D0000 		.4byte	0xde0
 3425 0db9 1C       		.uleb128 0x1c
 3426 0dba 747000   		.ascii	"tp\000"
 3427 0dbd 07       		.byte	0x7
 3428 0dbe DB01     		.2byte	0x1db
 3429 0dc0 35020000 		.4byte	0x235
 3430 0dc4 02       		.uleb128 0x2
 3431 0dc5 91       		.byte	0x91
 3432 0dc6 6C       		.sleb128 -20
 3433 0dc7 1E       		.uleb128 0x1e
ARM GAS  /tmp/cczVTum7.s 			page 62


 3434 0dc8 6D736700 		.ascii	"msg\000"
 3435 0dcc 07       		.byte	0x7
 3436 0dcd DC01     		.2byte	0x1dc
 3437 0dcf 06010000 		.4byte	0x106
 3438 0dd3 02       		.uleb128 0x2
 3439 0dd4 91       		.byte	0x91
 3440 0dd5 74       		.sleb128 -12
 3441 0dd6 22       		.uleb128 0x22
 3442 0dd7 12060000 		.4byte	.LASF124
 3443 0ddb F00D0000 		.4byte	0xdf0
 3444 0ddf 00       		.byte	0
 3445 0de0 15       		.uleb128 0x15
 3446 0de1 B5060000 		.4byte	0x6b5
 3447 0de5 F00D0000 		.4byte	0xdf0
 3448 0de9 16       		.uleb128 0x16
 3449 0dea 48040000 		.4byte	0x448
 3450 0dee 09       		.byte	0x9
 3451 0def 00       		.byte	0
 3452 0df0 14       		.uleb128 0x14
 3453 0df1 E00D0000 		.4byte	0xde0
 3454 0df5 2A       		.uleb128 0x2a
 3455 0df6 5E050000 		.4byte	.LASF145
 3456 0dfa 07       		.byte	0x7
 3457 0dfb FF01     		.2byte	0x1ff
 3458 0dfd 06010000 		.4byte	0x106
 3459 0e01 00000000 		.4byte	.LFB229
 3460 0e05 2E000000 		.4byte	.LFE229-.LFB229
 3461 0e09 01       		.uleb128 0x1
 3462 0e0a 9C       		.byte	0x9c
 3463 0e0b 360E0000 		.4byte	0xe36
 3464 0e0f 1C       		.uleb128 0x1c
 3465 0e10 74727000 		.ascii	"trp\000"
 3466 0e14 07       		.byte	0x7
 3467 0e15 FF01     		.2byte	0x1ff
 3468 0e17 42060000 		.4byte	0x642
 3469 0e1b 02       		.uleb128 0x2
 3470 0e1c 91       		.byte	0x91
 3471 0e1d 6C       		.sleb128 -20
 3472 0e1e 1E       		.uleb128 0x1e
 3473 0e1f 747000   		.ascii	"tp\000"
 3474 0e22 07       		.byte	0x7
 3475 0e23 0002     		.2byte	0x200
 3476 0e25 35020000 		.4byte	0x235
 3477 0e29 02       		.uleb128 0x2
 3478 0e2a 91       		.byte	0x91
 3479 0e2b 74       		.sleb128 -12
 3480 0e2c 22       		.uleb128 0x22
 3481 0e2d 12060000 		.4byte	.LASF124
 3482 0e31 460E0000 		.4byte	0xe46
 3483 0e35 00       		.byte	0
 3484 0e36 15       		.uleb128 0x15
 3485 0e37 B5060000 		.4byte	0x6b5
 3486 0e3b 460E0000 		.4byte	0xe46
 3487 0e3f 16       		.uleb128 0x16
 3488 0e40 48040000 		.4byte	0x448
 3489 0e44 0D       		.byte	0xd
 3490 0e45 00       		.byte	0
ARM GAS  /tmp/cczVTum7.s 			page 63


 3491 0e46 14       		.uleb128 0x14
 3492 0e47 360E0000 		.4byte	0xe36
 3493 0e4b 2A       		.uleb128 0x2a
 3494 0e4c 8C030000 		.4byte	.LASF146
 3495 0e50 07       		.byte	0x7
 3496 0e51 1E02     		.2byte	0x21e
 3497 0e53 06010000 		.4byte	0x106
 3498 0e57 00000000 		.4byte	.LFB230
 3499 0e5b 38000000 		.4byte	.LFE230-.LFB230
 3500 0e5f 01       		.uleb128 0x1
 3501 0e60 9C       		.byte	0x9c
 3502 0e61 9B0E0000 		.4byte	0xe9b
 3503 0e65 1C       		.uleb128 0x1c
 3504 0e66 74727000 		.ascii	"trp\000"
 3505 0e6a 07       		.byte	0x7
 3506 0e6b 1E02     		.2byte	0x21e
 3507 0e6d 42060000 		.4byte	0x642
 3508 0e71 02       		.uleb128 0x2
 3509 0e72 91       		.byte	0x91
 3510 0e73 6C       		.sleb128 -20
 3511 0e74 24       		.uleb128 0x24
 3512 0e75 CE020000 		.4byte	.LASF147
 3513 0e79 07       		.byte	0x7
 3514 0e7a 1E02     		.2byte	0x21e
 3515 0e7c 27010000 		.4byte	0x127
 3516 0e80 02       		.uleb128 0x2
 3517 0e81 91       		.byte	0x91
 3518 0e82 68       		.sleb128 -24
 3519 0e83 1E       		.uleb128 0x1e
 3520 0e84 747000   		.ascii	"tp\000"
 3521 0e87 07       		.byte	0x7
 3522 0e88 1F02     		.2byte	0x21f
 3523 0e8a 35020000 		.4byte	0x235
 3524 0e8e 02       		.uleb128 0x2
 3525 0e8f 91       		.byte	0x91
 3526 0e90 74       		.sleb128 -12
 3527 0e91 22       		.uleb128 0x22
 3528 0e92 12060000 		.4byte	.LASF124
 3529 0e96 AB0E0000 		.4byte	0xeab
 3530 0e9a 00       		.byte	0
 3531 0e9b 15       		.uleb128 0x15
 3532 0e9c B5060000 		.4byte	0x6b5
 3533 0ea0 AB0E0000 		.4byte	0xeab
 3534 0ea4 16       		.uleb128 0x16
 3535 0ea5 48040000 		.4byte	0x448
 3536 0ea9 14       		.byte	0x14
 3537 0eaa 00       		.byte	0
 3538 0eab 14       		.uleb128 0x14
 3539 0eac 9B0E0000 		.4byte	0xe9b
 3540 0eb0 2C       		.uleb128 0x2c
 3541 0eb1 22020000 		.4byte	.LASF148
 3542 0eb5 07       		.byte	0x7
 3543 0eb6 3702     		.2byte	0x237
 3544 0eb8 00000000 		.4byte	.LFB231
 3545 0ebc 2E000000 		.4byte	.LFE231-.LFB231
 3546 0ec0 01       		.uleb128 0x1
 3547 0ec1 9C       		.byte	0x9c
ARM GAS  /tmp/cczVTum7.s 			page 64


 3548 0ec2 060F0000 		.4byte	0xf06
 3549 0ec6 1C       		.uleb128 0x1c
 3550 0ec7 74727000 		.ascii	"trp\000"
 3551 0ecb 07       		.byte	0x7
 3552 0ecc 3702     		.2byte	0x237
 3553 0ece 42060000 		.4byte	0x642
 3554 0ed2 02       		.uleb128 0x2
 3555 0ed3 91       		.byte	0x91
 3556 0ed4 6C       		.sleb128 -20
 3557 0ed5 1C       		.uleb128 0x1c
 3558 0ed6 6D736700 		.ascii	"msg\000"
 3559 0eda 07       		.byte	0x7
 3560 0edb 3702     		.2byte	0x237
 3561 0edd 06010000 		.4byte	0x106
 3562 0ee1 02       		.uleb128 0x2
 3563 0ee2 91       		.byte	0x91
 3564 0ee3 68       		.sleb128 -24
 3565 0ee4 22       		.uleb128 0x22
 3566 0ee5 12060000 		.4byte	.LASF124
 3567 0ee9 060F0000 		.4byte	0xf06
 3568 0eed 2E       		.uleb128 0x2e
 3569 0eee 10000000 		.4byte	.LBB10
 3570 0ef2 18000000 		.4byte	.LBE10-.LBB10
 3571 0ef6 1E       		.uleb128 0x1e
 3572 0ef7 747000   		.ascii	"tp\000"
 3573 0efa 07       		.byte	0x7
 3574 0efb 3A02     		.2byte	0x23a
 3575 0efd 35020000 		.4byte	0x235
 3576 0f01 02       		.uleb128 0x2
 3577 0f02 91       		.byte	0x91
 3578 0f03 74       		.sleb128 -12
 3579 0f04 00       		.byte	0
 3580 0f05 00       		.byte	0
 3581 0f06 14       		.uleb128 0x14
 3582 0f07 5D0B0000 		.4byte	0xb5d
 3583 0f0b 2C       		.uleb128 0x2c
 3584 0f0c 40020000 		.4byte	.LASF149
 3585 0f10 07       		.byte	0x7
 3586 0f11 4F02     		.2byte	0x24f
 3587 0f13 00000000 		.4byte	.LFB232
 3588 0f17 2A000000 		.4byte	.LFE232-.LFB232
 3589 0f1b 01       		.uleb128 0x1
 3590 0f1c 9C       		.byte	0x9c
 3591 0f1d 610F0000 		.4byte	0xf61
 3592 0f21 1C       		.uleb128 0x1c
 3593 0f22 74727000 		.ascii	"trp\000"
 3594 0f26 07       		.byte	0x7
 3595 0f27 4F02     		.2byte	0x24f
 3596 0f29 42060000 		.4byte	0x642
 3597 0f2d 02       		.uleb128 0x2
 3598 0f2e 91       		.byte	0x91
 3599 0f2f 6C       		.sleb128 -20
 3600 0f30 1C       		.uleb128 0x1c
 3601 0f31 6D736700 		.ascii	"msg\000"
 3602 0f35 07       		.byte	0x7
 3603 0f36 4F02     		.2byte	0x24f
 3604 0f38 06010000 		.4byte	0x106
ARM GAS  /tmp/cczVTum7.s 			page 65


 3605 0f3c 02       		.uleb128 0x2
 3606 0f3d 91       		.byte	0x91
 3607 0f3e 68       		.sleb128 -24
 3608 0f3f 22       		.uleb128 0x22
 3609 0f40 12060000 		.4byte	.LASF124
 3610 0f44 610F0000 		.4byte	0xf61
 3611 0f48 2E       		.uleb128 0x2e
 3612 0f49 10000000 		.4byte	.LBB11
 3613 0f4d 14000000 		.4byte	.LBE11-.LBB11
 3614 0f51 1E       		.uleb128 0x1e
 3615 0f52 747000   		.ascii	"tp\000"
 3616 0f55 07       		.byte	0x7
 3617 0f56 5202     		.2byte	0x252
 3618 0f58 35020000 		.4byte	0x235
 3619 0f5c 02       		.uleb128 0x2
 3620 0f5d 91       		.byte	0x91
 3621 0f5e 74       		.sleb128 -12
 3622 0f5f 00       		.byte	0
 3623 0f60 00       		.byte	0
 3624 0f61 14       		.uleb128 0x14
 3625 0f62 5D0B0000 		.4byte	0xb5d
 3626 0f66 2C       		.uleb128 0x2c
 3627 0f67 F3040000 		.4byte	.LASF150
 3628 0f6b 07       		.byte	0x7
 3629 0f6c 6602     		.2byte	0x266
 3630 0f6e 00000000 		.4byte	.LFB233
 3631 0f72 1E000000 		.4byte	.LFE233-.LFB233
 3632 0f76 01       		.uleb128 0x1
 3633 0f77 9C       		.byte	0x9c
 3634 0f78 9B0F0000 		.4byte	0xf9b
 3635 0f7c 1C       		.uleb128 0x1c
 3636 0f7d 74727000 		.ascii	"trp\000"
 3637 0f81 07       		.byte	0x7
 3638 0f82 6602     		.2byte	0x266
 3639 0f84 42060000 		.4byte	0x642
 3640 0f88 02       		.uleb128 0x2
 3641 0f89 91       		.byte	0x91
 3642 0f8a 74       		.sleb128 -12
 3643 0f8b 1C       		.uleb128 0x1c
 3644 0f8c 6D736700 		.ascii	"msg\000"
 3645 0f90 07       		.byte	0x7
 3646 0f91 6602     		.2byte	0x266
 3647 0f93 06010000 		.4byte	0x106
 3648 0f97 02       		.uleb128 0x2
 3649 0f98 91       		.byte	0x91
 3650 0f99 70       		.sleb128 -16
 3651 0f9a 00       		.byte	0
 3652 0f9b 2A       		.uleb128 0x2a
 3653 0f9c 04080000 		.4byte	.LASF151
 3654 0fa0 07       		.byte	0x7
 3655 0fa1 8402     		.2byte	0x284
 3656 0fa3 06010000 		.4byte	0x106
 3657 0fa7 00000000 		.4byte	.LFB234
 3658 0fab 38000000 		.4byte	.LFE234-.LFB234
 3659 0faf 01       		.uleb128 0x1
 3660 0fb0 9C       		.byte	0x9c
 3661 0fb1 D40F0000 		.4byte	0xfd4
ARM GAS  /tmp/cczVTum7.s 			page 66


 3662 0fb5 1C       		.uleb128 0x1c
 3663 0fb6 74717000 		.ascii	"tqp\000"
 3664 0fba 07       		.byte	0x7
 3665 0fbb 8402     		.2byte	0x284
 3666 0fbd F5070000 		.4byte	0x7f5
 3667 0fc1 02       		.uleb128 0x2
 3668 0fc2 91       		.byte	0x91
 3669 0fc3 74       		.sleb128 -12
 3670 0fc4 24       		.uleb128 0x24
 3671 0fc5 CE020000 		.4byte	.LASF147
 3672 0fc9 07       		.byte	0x7
 3673 0fca 8402     		.2byte	0x284
 3674 0fcc 27010000 		.4byte	0x127
 3675 0fd0 02       		.uleb128 0x2
 3676 0fd1 91       		.byte	0x91
 3677 0fd2 70       		.sleb128 -16
 3678 0fd3 00       		.byte	0
 3679 0fd4 2C       		.uleb128 0x2c
 3680 0fd5 1B030000 		.4byte	.LASF152
 3681 0fd9 07       		.byte	0x7
 3682 0fda 9802     		.2byte	0x298
 3683 0fdc 00000000 		.4byte	.LFB235
 3684 0fe0 22000000 		.4byte	.LFE235-.LFB235
 3685 0fe4 01       		.uleb128 0x1
 3686 0fe5 9C       		.byte	0x9c
 3687 0fe6 09100000 		.4byte	0x1009
 3688 0fea 1C       		.uleb128 0x1c
 3689 0feb 74717000 		.ascii	"tqp\000"
 3690 0fef 07       		.byte	0x7
 3691 0ff0 9802     		.2byte	0x298
 3692 0ff2 F5070000 		.4byte	0x7f5
 3693 0ff6 02       		.uleb128 0x2
 3694 0ff7 91       		.byte	0x91
 3695 0ff8 74       		.sleb128 -12
 3696 0ff9 1C       		.uleb128 0x1c
 3697 0ffa 6D736700 		.ascii	"msg\000"
 3698 0ffe 07       		.byte	0x7
 3699 0fff 9802     		.2byte	0x298
 3700 1001 06010000 		.4byte	0x106
 3701 1005 02       		.uleb128 0x2
 3702 1006 91       		.byte	0x91
 3703 1007 70       		.sleb128 -16
 3704 1008 00       		.byte	0
 3705 1009 2C       		.uleb128 0x2c
 3706 100a 41000000 		.4byte	.LASF153
 3707 100e 07       		.byte	0x7
 3708 100f A702     		.2byte	0x2a7
 3709 1011 00000000 		.4byte	.LFB236
 3710 1015 24000000 		.4byte	.LFE236-.LFB236
 3711 1019 01       		.uleb128 0x1
 3712 101a 9C       		.byte	0x9c
 3713 101b 3E100000 		.4byte	0x103e
 3714 101f 1C       		.uleb128 0x1c
 3715 1020 74717000 		.ascii	"tqp\000"
 3716 1024 07       		.byte	0x7
 3717 1025 A702     		.2byte	0x2a7
 3718 1027 F5070000 		.4byte	0x7f5
ARM GAS  /tmp/cczVTum7.s 			page 67


 3719 102b 02       		.uleb128 0x2
 3720 102c 91       		.byte	0x91
 3721 102d 74       		.sleb128 -12
 3722 102e 1C       		.uleb128 0x1c
 3723 102f 6D736700 		.ascii	"msg\000"
 3724 1033 07       		.byte	0x7
 3725 1034 A702     		.2byte	0x2a7
 3726 1036 06010000 		.4byte	0x106
 3727 103a 02       		.uleb128 0x2
 3728 103b 91       		.byte	0x91
 3729 103c 70       		.sleb128 -16
 3730 103d 00       		.byte	0
 3731 103e 2F       		.uleb128 0x2f
 3732 103f 33010000 		.4byte	.LASF154
 3733 1043 11       		.byte	0x11
 3734 1044 A706     		.2byte	0x6a7
 3735 1046 CA000000 		.4byte	0xca
 3736 104a 30       		.uleb128 0x30
 3737 104b 636800   		.ascii	"ch\000"
 3738 104e 03       		.byte	0x3
 3739 104f 0902     		.2byte	0x209
 3740 1051 E1030000 		.4byte	0x3e1
 3741 1055 00       		.byte	0
 3742              		.section	.debug_abbrev,"",%progbits
 3743              	.Ldebug_abbrev0:
 3744 0000 01       		.uleb128 0x1
 3745 0001 11       		.uleb128 0x11
 3746 0002 01       		.byte	0x1
 3747 0003 25       		.uleb128 0x25
 3748 0004 0E       		.uleb128 0xe
 3749 0005 13       		.uleb128 0x13
 3750 0006 0B       		.uleb128 0xb
 3751 0007 03       		.uleb128 0x3
 3752 0008 0E       		.uleb128 0xe
 3753 0009 55       		.uleb128 0x55
 3754 000a 17       		.uleb128 0x17
 3755 000b 11       		.uleb128 0x11
 3756 000c 01       		.uleb128 0x1
 3757 000d 10       		.uleb128 0x10
 3758 000e 17       		.uleb128 0x17
 3759 000f 00       		.byte	0
 3760 0010 00       		.byte	0
 3761 0011 02       		.uleb128 0x2
 3762 0012 24       		.uleb128 0x24
 3763 0013 00       		.byte	0
 3764 0014 0B       		.uleb128 0xb
 3765 0015 0B       		.uleb128 0xb
 3766 0016 3E       		.uleb128 0x3e
 3767 0017 0B       		.uleb128 0xb
 3768 0018 03       		.uleb128 0x3
 3769 0019 08       		.uleb128 0x8
 3770 001a 00       		.byte	0
 3771 001b 00       		.byte	0
 3772 001c 03       		.uleb128 0x3
 3773 001d 16       		.uleb128 0x16
 3774 001e 00       		.byte	0
 3775 001f 03       		.uleb128 0x3
ARM GAS  /tmp/cczVTum7.s 			page 68


 3776 0020 0E       		.uleb128 0xe
 3777 0021 3A       		.uleb128 0x3a
 3778 0022 0B       		.uleb128 0xb
 3779 0023 3B       		.uleb128 0x3b
 3780 0024 0B       		.uleb128 0xb
 3781 0025 49       		.uleb128 0x49
 3782 0026 13       		.uleb128 0x13
 3783 0027 00       		.byte	0
 3784 0028 00       		.byte	0
 3785 0029 04       		.uleb128 0x4
 3786 002a 24       		.uleb128 0x24
 3787 002b 00       		.byte	0
 3788 002c 0B       		.uleb128 0xb
 3789 002d 0B       		.uleb128 0xb
 3790 002e 3E       		.uleb128 0x3e
 3791 002f 0B       		.uleb128 0xb
 3792 0030 03       		.uleb128 0x3
 3793 0031 0E       		.uleb128 0xe
 3794 0032 00       		.byte	0
 3795 0033 00       		.byte	0
 3796 0034 05       		.uleb128 0x5
 3797 0035 35       		.uleb128 0x35
 3798 0036 00       		.byte	0
 3799 0037 49       		.uleb128 0x49
 3800 0038 13       		.uleb128 0x13
 3801 0039 00       		.byte	0
 3802 003a 00       		.byte	0
 3803 003b 06       		.uleb128 0x6
 3804 003c 13       		.uleb128 0x13
 3805 003d 01       		.byte	0x1
 3806 003e 03       		.uleb128 0x3
 3807 003f 0E       		.uleb128 0xe
 3808 0040 0B       		.uleb128 0xb
 3809 0041 0B       		.uleb128 0xb
 3810 0042 3A       		.uleb128 0x3a
 3811 0043 0B       		.uleb128 0xb
 3812 0044 3B       		.uleb128 0x3b
 3813 0045 0B       		.uleb128 0xb
 3814 0046 01       		.uleb128 0x1
 3815 0047 13       		.uleb128 0x13
 3816 0048 00       		.byte	0
 3817 0049 00       		.byte	0
 3818 004a 07       		.uleb128 0x7
 3819 004b 0D       		.uleb128 0xd
 3820 004c 00       		.byte	0
 3821 004d 03       		.uleb128 0x3
 3822 004e 0E       		.uleb128 0xe
 3823 004f 3A       		.uleb128 0x3a
 3824 0050 0B       		.uleb128 0xb
 3825 0051 3B       		.uleb128 0x3b
 3826 0052 0B       		.uleb128 0xb
 3827 0053 49       		.uleb128 0x49
 3828 0054 13       		.uleb128 0x13
 3829 0055 38       		.uleb128 0x38
 3830 0056 0B       		.uleb128 0xb
 3831 0057 00       		.byte	0
 3832 0058 00       		.byte	0
ARM GAS  /tmp/cczVTum7.s 			page 69


 3833 0059 08       		.uleb128 0x8
 3834 005a 0D       		.uleb128 0xd
 3835 005b 00       		.byte	0
 3836 005c 03       		.uleb128 0x3
 3837 005d 08       		.uleb128 0x8
 3838 005e 3A       		.uleb128 0x3a
 3839 005f 0B       		.uleb128 0xb
 3840 0060 3B       		.uleb128 0x3b
 3841 0061 05       		.uleb128 0x5
 3842 0062 49       		.uleb128 0x49
 3843 0063 13       		.uleb128 0x13
 3844 0064 38       		.uleb128 0x38
 3845 0065 0B       		.uleb128 0xb
 3846 0066 00       		.byte	0
 3847 0067 00       		.byte	0
 3848 0068 09       		.uleb128 0x9
 3849 0069 0D       		.uleb128 0xd
 3850 006a 00       		.byte	0
 3851 006b 03       		.uleb128 0x3
 3852 006c 0E       		.uleb128 0xe
 3853 006d 3A       		.uleb128 0x3a
 3854 006e 0B       		.uleb128 0xb
 3855 006f 3B       		.uleb128 0x3b
 3856 0070 05       		.uleb128 0x5
 3857 0071 49       		.uleb128 0x49
 3858 0072 13       		.uleb128 0x13
 3859 0073 38       		.uleb128 0x38
 3860 0074 0B       		.uleb128 0xb
 3861 0075 00       		.byte	0
 3862 0076 00       		.byte	0
 3863 0077 0A       		.uleb128 0xa
 3864 0078 0F       		.uleb128 0xf
 3865 0079 00       		.byte	0
 3866 007a 0B       		.uleb128 0xb
 3867 007b 0B       		.uleb128 0xb
 3868 007c 49       		.uleb128 0x49
 3869 007d 13       		.uleb128 0x13
 3870 007e 00       		.byte	0
 3871 007f 00       		.byte	0
 3872 0080 0B       		.uleb128 0xb
 3873 0081 13       		.uleb128 0x13
 3874 0082 01       		.byte	0x1
 3875 0083 03       		.uleb128 0x3
 3876 0084 0E       		.uleb128 0xe
 3877 0085 0B       		.uleb128 0xb
 3878 0086 0B       		.uleb128 0xb
 3879 0087 3A       		.uleb128 0x3a
 3880 0088 0B       		.uleb128 0xb
 3881 0089 3B       		.uleb128 0x3b
 3882 008a 05       		.uleb128 0x5
 3883 008b 01       		.uleb128 0x1
 3884 008c 13       		.uleb128 0x13
 3885 008d 00       		.byte	0
 3886 008e 00       		.byte	0
 3887 008f 0C       		.uleb128 0xc
 3888 0090 15       		.uleb128 0x15
 3889 0091 01       		.byte	0x1
ARM GAS  /tmp/cczVTum7.s 			page 70


 3890 0092 27       		.uleb128 0x27
 3891 0093 19       		.uleb128 0x19
 3892 0094 01       		.uleb128 0x1
 3893 0095 13       		.uleb128 0x13
 3894 0096 00       		.byte	0
 3895 0097 00       		.byte	0
 3896 0098 0D       		.uleb128 0xd
 3897 0099 05       		.uleb128 0x5
 3898 009a 00       		.byte	0
 3899 009b 49       		.uleb128 0x49
 3900 009c 13       		.uleb128 0x13
 3901 009d 00       		.byte	0
 3902 009e 00       		.byte	0
 3903 009f 0E       		.uleb128 0xe
 3904 00a0 0F       		.uleb128 0xf
 3905 00a1 00       		.byte	0
 3906 00a2 0B       		.uleb128 0xb
 3907 00a3 0B       		.uleb128 0xb
 3908 00a4 00       		.byte	0
 3909 00a5 00       		.byte	0
 3910 00a6 0F       		.uleb128 0xf
 3911 00a7 13       		.uleb128 0x13
 3912 00a8 01       		.byte	0x1
 3913 00a9 03       		.uleb128 0x3
 3914 00aa 0E       		.uleb128 0xe
 3915 00ab 0B       		.uleb128 0xb
 3916 00ac 05       		.uleb128 0x5
 3917 00ad 3A       		.uleb128 0x3a
 3918 00ae 0B       		.uleb128 0xb
 3919 00af 3B       		.uleb128 0x3b
 3920 00b0 05       		.uleb128 0x5
 3921 00b1 01       		.uleb128 0x1
 3922 00b2 13       		.uleb128 0x13
 3923 00b3 00       		.byte	0
 3924 00b4 00       		.byte	0
 3925 00b5 10       		.uleb128 0x10
 3926 00b6 0D       		.uleb128 0xd
 3927 00b7 00       		.byte	0
 3928 00b8 03       		.uleb128 0x3
 3929 00b9 08       		.uleb128 0x8
 3930 00ba 3A       		.uleb128 0x3a
 3931 00bb 0B       		.uleb128 0xb
 3932 00bc 3B       		.uleb128 0x3b
 3933 00bd 0B       		.uleb128 0xb
 3934 00be 49       		.uleb128 0x49
 3935 00bf 13       		.uleb128 0x13
 3936 00c0 38       		.uleb128 0x38
 3937 00c1 0B       		.uleb128 0xb
 3938 00c2 00       		.byte	0
 3939 00c3 00       		.byte	0
 3940 00c4 11       		.uleb128 0x11
 3941 00c5 13       		.uleb128 0x13
 3942 00c6 01       		.byte	0x1
 3943 00c7 0B       		.uleb128 0xb
 3944 00c8 0B       		.uleb128 0xb
 3945 00c9 3A       		.uleb128 0x3a
 3946 00ca 0B       		.uleb128 0xb
ARM GAS  /tmp/cczVTum7.s 			page 71


 3947 00cb 3B       		.uleb128 0x3b
 3948 00cc 0B       		.uleb128 0xb
 3949 00cd 01       		.uleb128 0x1
 3950 00ce 13       		.uleb128 0x13
 3951 00cf 00       		.byte	0
 3952 00d0 00       		.byte	0
 3953 00d1 12       		.uleb128 0x12
 3954 00d2 17       		.uleb128 0x17
 3955 00d3 01       		.byte	0x1
 3956 00d4 0B       		.uleb128 0xb
 3957 00d5 0B       		.uleb128 0xb
 3958 00d6 3A       		.uleb128 0x3a
 3959 00d7 0B       		.uleb128 0xb
 3960 00d8 3B       		.uleb128 0x3b
 3961 00d9 0B       		.uleb128 0xb
 3962 00da 01       		.uleb128 0x1
 3963 00db 13       		.uleb128 0x13
 3964 00dc 00       		.byte	0
 3965 00dd 00       		.byte	0
 3966 00de 13       		.uleb128 0x13
 3967 00df 0D       		.uleb128 0xd
 3968 00e0 00       		.byte	0
 3969 00e1 03       		.uleb128 0x3
 3970 00e2 0E       		.uleb128 0xe
 3971 00e3 3A       		.uleb128 0x3a
 3972 00e4 0B       		.uleb128 0xb
 3973 00e5 3B       		.uleb128 0x3b
 3974 00e6 05       		.uleb128 0x5
 3975 00e7 49       		.uleb128 0x49
 3976 00e8 13       		.uleb128 0x13
 3977 00e9 00       		.byte	0
 3978 00ea 00       		.byte	0
 3979 00eb 14       		.uleb128 0x14
 3980 00ec 26       		.uleb128 0x26
 3981 00ed 00       		.byte	0
 3982 00ee 49       		.uleb128 0x49
 3983 00ef 13       		.uleb128 0x13
 3984 00f0 00       		.byte	0
 3985 00f1 00       		.byte	0
 3986 00f2 15       		.uleb128 0x15
 3987 00f3 01       		.uleb128 0x1
 3988 00f4 01       		.byte	0x1
 3989 00f5 49       		.uleb128 0x49
 3990 00f6 13       		.uleb128 0x13
 3991 00f7 01       		.uleb128 0x1
 3992 00f8 13       		.uleb128 0x13
 3993 00f9 00       		.byte	0
 3994 00fa 00       		.byte	0
 3995 00fb 16       		.uleb128 0x16
 3996 00fc 21       		.uleb128 0x21
 3997 00fd 00       		.byte	0
 3998 00fe 49       		.uleb128 0x49
 3999 00ff 13       		.uleb128 0x13
 4000 0100 2F       		.uleb128 0x2f
 4001 0101 0B       		.uleb128 0xb
 4002 0102 00       		.byte	0
 4003 0103 00       		.byte	0
ARM GAS  /tmp/cczVTum7.s 			page 72


 4004 0104 17       		.uleb128 0x17
 4005 0105 2E       		.uleb128 0x2e
 4006 0106 01       		.byte	0x1
 4007 0107 03       		.uleb128 0x3
 4008 0108 0E       		.uleb128 0xe
 4009 0109 3A       		.uleb128 0x3a
 4010 010a 0B       		.uleb128 0xb
 4011 010b 3B       		.uleb128 0x3b
 4012 010c 05       		.uleb128 0x5
 4013 010d 27       		.uleb128 0x27
 4014 010e 19       		.uleb128 0x19
 4015 010f 20       		.uleb128 0x20
 4016 0110 0B       		.uleb128 0xb
 4017 0111 01       		.uleb128 0x1
 4018 0112 13       		.uleb128 0x13
 4019 0113 00       		.byte	0
 4020 0114 00       		.byte	0
 4021 0115 18       		.uleb128 0x18
 4022 0116 05       		.uleb128 0x5
 4023 0117 00       		.byte	0
 4024 0118 03       		.uleb128 0x3
 4025 0119 0E       		.uleb128 0xe
 4026 011a 3A       		.uleb128 0x3a
 4027 011b 0B       		.uleb128 0xb
 4028 011c 3B       		.uleb128 0x3b
 4029 011d 05       		.uleb128 0x5
 4030 011e 49       		.uleb128 0x49
 4031 011f 13       		.uleb128 0x13
 4032 0120 00       		.byte	0
 4033 0121 00       		.byte	0
 4034 0122 19       		.uleb128 0x19
 4035 0123 2E       		.uleb128 0x2e
 4036 0124 01       		.byte	0x1
 4037 0125 03       		.uleb128 0x3
 4038 0126 0E       		.uleb128 0xe
 4039 0127 3A       		.uleb128 0x3a
 4040 0128 0B       		.uleb128 0xb
 4041 0129 3B       		.uleb128 0x3b
 4042 012a 05       		.uleb128 0x5
 4043 012b 27       		.uleb128 0x27
 4044 012c 19       		.uleb128 0x19
 4045 012d 11       		.uleb128 0x11
 4046 012e 01       		.uleb128 0x1
 4047 012f 12       		.uleb128 0x12
 4048 0130 06       		.uleb128 0x6
 4049 0131 40       		.uleb128 0x40
 4050 0132 18       		.uleb128 0x18
 4051 0133 9742     		.uleb128 0x2117
 4052 0135 19       		.uleb128 0x19
 4053 0136 01       		.uleb128 0x1
 4054 0137 13       		.uleb128 0x13
 4055 0138 00       		.byte	0
 4056 0139 00       		.byte	0
 4057 013a 1A       		.uleb128 0x1a
 4058 013b 1D       		.uleb128 0x1d
 4059 013c 01       		.byte	0x1
 4060 013d 31       		.uleb128 0x31
ARM GAS  /tmp/cczVTum7.s 			page 73


 4061 013e 13       		.uleb128 0x13
 4062 013f 11       		.uleb128 0x11
 4063 0140 01       		.uleb128 0x1
 4064 0141 12       		.uleb128 0x12
 4065 0142 06       		.uleb128 0x6
 4066 0143 58       		.uleb128 0x58
 4067 0144 0B       		.uleb128 0xb
 4068 0145 59       		.uleb128 0x59
 4069 0146 05       		.uleb128 0x5
 4070 0147 00       		.byte	0
 4071 0148 00       		.byte	0
 4072 0149 1B       		.uleb128 0x1b
 4073 014a 05       		.uleb128 0x5
 4074 014b 00       		.byte	0
 4075 014c 31       		.uleb128 0x31
 4076 014d 13       		.uleb128 0x13
 4077 014e 02       		.uleb128 0x2
 4078 014f 18       		.uleb128 0x18
 4079 0150 00       		.byte	0
 4080 0151 00       		.byte	0
 4081 0152 1C       		.uleb128 0x1c
 4082 0153 05       		.uleb128 0x5
 4083 0154 00       		.byte	0
 4084 0155 03       		.uleb128 0x3
 4085 0156 08       		.uleb128 0x8
 4086 0157 3A       		.uleb128 0x3a
 4087 0158 0B       		.uleb128 0xb
 4088 0159 3B       		.uleb128 0x3b
 4089 015a 05       		.uleb128 0x5
 4090 015b 49       		.uleb128 0x49
 4091 015c 13       		.uleb128 0x13
 4092 015d 02       		.uleb128 0x2
 4093 015e 18       		.uleb128 0x18
 4094 015f 00       		.byte	0
 4095 0160 00       		.byte	0
 4096 0161 1D       		.uleb128 0x1d
 4097 0162 2E       		.uleb128 0x2e
 4098 0163 01       		.byte	0x1
 4099 0164 03       		.uleb128 0x3
 4100 0165 0E       		.uleb128 0xe
 4101 0166 3A       		.uleb128 0x3a
 4102 0167 0B       		.uleb128 0xb
 4103 0168 3B       		.uleb128 0x3b
 4104 0169 05       		.uleb128 0x5
 4105 016a 27       		.uleb128 0x27
 4106 016b 19       		.uleb128 0x19
 4107 016c 49       		.uleb128 0x49
 4108 016d 13       		.uleb128 0x13
 4109 016e 11       		.uleb128 0x11
 4110 016f 01       		.uleb128 0x1
 4111 0170 12       		.uleb128 0x12
 4112 0171 06       		.uleb128 0x6
 4113 0172 40       		.uleb128 0x40
 4114 0173 18       		.uleb128 0x18
 4115 0174 9742     		.uleb128 0x2117
 4116 0176 19       		.uleb128 0x19
 4117 0177 01       		.uleb128 0x1
ARM GAS  /tmp/cczVTum7.s 			page 74


 4118 0178 13       		.uleb128 0x13
 4119 0179 00       		.byte	0
 4120 017a 00       		.byte	0
 4121 017b 1E       		.uleb128 0x1e
 4122 017c 34       		.uleb128 0x34
 4123 017d 00       		.byte	0
 4124 017e 03       		.uleb128 0x3
 4125 017f 08       		.uleb128 0x8
 4126 0180 3A       		.uleb128 0x3a
 4127 0181 0B       		.uleb128 0xb
 4128 0182 3B       		.uleb128 0x3b
 4129 0183 05       		.uleb128 0x5
 4130 0184 49       		.uleb128 0x49
 4131 0185 13       		.uleb128 0x13
 4132 0186 02       		.uleb128 0x2
 4133 0187 18       		.uleb128 0x18
 4134 0188 00       		.byte	0
 4135 0189 00       		.byte	0
 4136 018a 1F       		.uleb128 0x1f
 4137 018b 2E       		.uleb128 0x2e
 4138 018c 00       		.byte	0
 4139 018d 03       		.uleb128 0x3
 4140 018e 0E       		.uleb128 0xe
 4141 018f 3A       		.uleb128 0x3a
 4142 0190 0B       		.uleb128 0xb
 4143 0191 3B       		.uleb128 0x3b
 4144 0192 05       		.uleb128 0x5
 4145 0193 27       		.uleb128 0x27
 4146 0194 19       		.uleb128 0x19
 4147 0195 49       		.uleb128 0x49
 4148 0196 13       		.uleb128 0x13
 4149 0197 11       		.uleb128 0x11
 4150 0198 01       		.uleb128 0x1
 4151 0199 12       		.uleb128 0x12
 4152 019a 06       		.uleb128 0x6
 4153 019b 40       		.uleb128 0x40
 4154 019c 18       		.uleb128 0x18
 4155 019d 9742     		.uleb128 0x2117
 4156 019f 19       		.uleb128 0x19
 4157 01a0 00       		.byte	0
 4158 01a1 00       		.byte	0
 4159 01a2 20       		.uleb128 0x20
 4160 01a3 2E       		.uleb128 0x2e
 4161 01a4 00       		.byte	0
 4162 01a5 03       		.uleb128 0x3
 4163 01a6 0E       		.uleb128 0xe
 4164 01a7 3A       		.uleb128 0x3a
 4165 01a8 0B       		.uleb128 0xb
 4166 01a9 3B       		.uleb128 0x3b
 4167 01aa 05       		.uleb128 0x5
 4168 01ab 27       		.uleb128 0x27
 4169 01ac 19       		.uleb128 0x19
 4170 01ad 11       		.uleb128 0x11
 4171 01ae 01       		.uleb128 0x1
 4172 01af 12       		.uleb128 0x12
 4173 01b0 06       		.uleb128 0x6
 4174 01b1 40       		.uleb128 0x40
ARM GAS  /tmp/cczVTum7.s 			page 75


 4175 01b2 18       		.uleb128 0x18
 4176 01b3 9642     		.uleb128 0x2116
 4177 01b5 19       		.uleb128 0x19
 4178 01b6 00       		.byte	0
 4179 01b7 00       		.byte	0
 4180 01b8 21       		.uleb128 0x21
 4181 01b9 2E       		.uleb128 0x2e
 4182 01ba 01       		.byte	0x1
 4183 01bb 03       		.uleb128 0x3
 4184 01bc 0E       		.uleb128 0xe
 4185 01bd 3A       		.uleb128 0x3a
 4186 01be 0B       		.uleb128 0xb
 4187 01bf 3B       		.uleb128 0x3b
 4188 01c0 05       		.uleb128 0x5
 4189 01c1 27       		.uleb128 0x27
 4190 01c2 19       		.uleb128 0x19
 4191 01c3 11       		.uleb128 0x11
 4192 01c4 01       		.uleb128 0x1
 4193 01c5 12       		.uleb128 0x12
 4194 01c6 06       		.uleb128 0x6
 4195 01c7 40       		.uleb128 0x40
 4196 01c8 18       		.uleb128 0x18
 4197 01c9 9642     		.uleb128 0x2116
 4198 01cb 19       		.uleb128 0x19
 4199 01cc 01       		.uleb128 0x1
 4200 01cd 13       		.uleb128 0x13
 4201 01ce 00       		.byte	0
 4202 01cf 00       		.byte	0
 4203 01d0 22       		.uleb128 0x22
 4204 01d1 34       		.uleb128 0x34
 4205 01d2 00       		.byte	0
 4206 01d3 03       		.uleb128 0x3
 4207 01d4 0E       		.uleb128 0xe
 4208 01d5 49       		.uleb128 0x49
 4209 01d6 13       		.uleb128 0x13
 4210 01d7 34       		.uleb128 0x34
 4211 01d8 19       		.uleb128 0x19
 4212 01d9 00       		.byte	0
 4213 01da 00       		.byte	0
 4214 01db 23       		.uleb128 0x23
 4215 01dc 2E       		.uleb128 0x2e
 4216 01dd 00       		.byte	0
 4217 01de 03       		.uleb128 0x3
 4218 01df 0E       		.uleb128 0xe
 4219 01e0 3A       		.uleb128 0x3a
 4220 01e1 0B       		.uleb128 0xb
 4221 01e2 3B       		.uleb128 0x3b
 4222 01e3 0B       		.uleb128 0xb
 4223 01e4 27       		.uleb128 0x27
 4224 01e5 19       		.uleb128 0x19
 4225 01e6 49       		.uleb128 0x49
 4226 01e7 13       		.uleb128 0x13
 4227 01e8 11       		.uleb128 0x11
 4228 01e9 01       		.uleb128 0x1
 4229 01ea 12       		.uleb128 0x12
 4230 01eb 06       		.uleb128 0x6
 4231 01ec 40       		.uleb128 0x40
ARM GAS  /tmp/cczVTum7.s 			page 76


 4232 01ed 18       		.uleb128 0x18
 4233 01ee 9742     		.uleb128 0x2117
 4234 01f0 19       		.uleb128 0x19
 4235 01f1 00       		.byte	0
 4236 01f2 00       		.byte	0
 4237 01f3 24       		.uleb128 0x24
 4238 01f4 05       		.uleb128 0x5
 4239 01f5 00       		.byte	0
 4240 01f6 03       		.uleb128 0x3
 4241 01f7 0E       		.uleb128 0xe
 4242 01f8 3A       		.uleb128 0x3a
 4243 01f9 0B       		.uleb128 0xb
 4244 01fa 3B       		.uleb128 0x3b
 4245 01fb 05       		.uleb128 0x5
 4246 01fc 49       		.uleb128 0x49
 4247 01fd 13       		.uleb128 0x13
 4248 01fe 02       		.uleb128 0x2
 4249 01ff 18       		.uleb128 0x18
 4250 0200 00       		.byte	0
 4251 0201 00       		.byte	0
 4252 0202 25       		.uleb128 0x25
 4253 0203 2E       		.uleb128 0x2e
 4254 0204 01       		.byte	0x1
 4255 0205 03       		.uleb128 0x3
 4256 0206 0E       		.uleb128 0xe
 4257 0207 3A       		.uleb128 0x3a
 4258 0208 0B       		.uleb128 0xb
 4259 0209 3B       		.uleb128 0x3b
 4260 020a 0B       		.uleb128 0xb
 4261 020b 27       		.uleb128 0x27
 4262 020c 19       		.uleb128 0x19
 4263 020d 49       		.uleb128 0x49
 4264 020e 13       		.uleb128 0x13
 4265 020f 11       		.uleb128 0x11
 4266 0210 01       		.uleb128 0x1
 4267 0211 12       		.uleb128 0x12
 4268 0212 06       		.uleb128 0x6
 4269 0213 40       		.uleb128 0x40
 4270 0214 18       		.uleb128 0x18
 4271 0215 9642     		.uleb128 0x2116
 4272 0217 19       		.uleb128 0x19
 4273 0218 01       		.uleb128 0x1
 4274 0219 13       		.uleb128 0x13
 4275 021a 00       		.byte	0
 4276 021b 00       		.byte	0
 4277 021c 26       		.uleb128 0x26
 4278 021d 05       		.uleb128 0x5
 4279 021e 00       		.byte	0
 4280 021f 03       		.uleb128 0x3
 4281 0220 08       		.uleb128 0x8
 4282 0221 3A       		.uleb128 0x3a
 4283 0222 0B       		.uleb128 0xb
 4284 0223 3B       		.uleb128 0x3b
 4285 0224 0B       		.uleb128 0xb
 4286 0225 49       		.uleb128 0x49
 4287 0226 13       		.uleb128 0x13
 4288 0227 02       		.uleb128 0x2
ARM GAS  /tmp/cczVTum7.s 			page 77


 4289 0228 18       		.uleb128 0x18
 4290 0229 00       		.byte	0
 4291 022a 00       		.byte	0
 4292 022b 27       		.uleb128 0x27
 4293 022c 2E       		.uleb128 0x2e
 4294 022d 01       		.byte	0x1
 4295 022e 3F       		.uleb128 0x3f
 4296 022f 19       		.uleb128 0x19
 4297 0230 03       		.uleb128 0x3
 4298 0231 0E       		.uleb128 0xe
 4299 0232 3A       		.uleb128 0x3a
 4300 0233 0B       		.uleb128 0xb
 4301 0234 3B       		.uleb128 0x3b
 4302 0235 0B       		.uleb128 0xb
 4303 0236 27       		.uleb128 0x27
 4304 0237 19       		.uleb128 0x19
 4305 0238 49       		.uleb128 0x49
 4306 0239 13       		.uleb128 0x13
 4307 023a 11       		.uleb128 0x11
 4308 023b 01       		.uleb128 0x1
 4309 023c 12       		.uleb128 0x12
 4310 023d 06       		.uleb128 0x6
 4311 023e 40       		.uleb128 0x40
 4312 023f 18       		.uleb128 0x18
 4313 0240 9642     		.uleb128 0x2116
 4314 0242 19       		.uleb128 0x19
 4315 0243 01       		.uleb128 0x1
 4316 0244 13       		.uleb128 0x13
 4317 0245 00       		.byte	0
 4318 0246 00       		.byte	0
 4319 0247 28       		.uleb128 0x28
 4320 0248 05       		.uleb128 0x5
 4321 0249 00       		.byte	0
 4322 024a 03       		.uleb128 0x3
 4323 024b 0E       		.uleb128 0xe
 4324 024c 3A       		.uleb128 0x3a
 4325 024d 0B       		.uleb128 0xb
 4326 024e 3B       		.uleb128 0x3b
 4327 024f 0B       		.uleb128 0xb
 4328 0250 49       		.uleb128 0x49
 4329 0251 13       		.uleb128 0x13
 4330 0252 02       		.uleb128 0x2
 4331 0253 18       		.uleb128 0x18
 4332 0254 00       		.byte	0
 4333 0255 00       		.byte	0
 4334 0256 29       		.uleb128 0x29
 4335 0257 34       		.uleb128 0x34
 4336 0258 00       		.byte	0
 4337 0259 03       		.uleb128 0x3
 4338 025a 08       		.uleb128 0x8
 4339 025b 3A       		.uleb128 0x3a
 4340 025c 0B       		.uleb128 0xb
 4341 025d 3B       		.uleb128 0x3b
 4342 025e 0B       		.uleb128 0xb
 4343 025f 49       		.uleb128 0x49
 4344 0260 13       		.uleb128 0x13
 4345 0261 02       		.uleb128 0x2
ARM GAS  /tmp/cczVTum7.s 			page 78


 4346 0262 18       		.uleb128 0x18
 4347 0263 00       		.byte	0
 4348 0264 00       		.byte	0
 4349 0265 2A       		.uleb128 0x2a
 4350 0266 2E       		.uleb128 0x2e
 4351 0267 01       		.byte	0x1
 4352 0268 3F       		.uleb128 0x3f
 4353 0269 19       		.uleb128 0x19
 4354 026a 03       		.uleb128 0x3
 4355 026b 0E       		.uleb128 0xe
 4356 026c 3A       		.uleb128 0x3a
 4357 026d 0B       		.uleb128 0xb
 4358 026e 3B       		.uleb128 0x3b
 4359 026f 05       		.uleb128 0x5
 4360 0270 27       		.uleb128 0x27
 4361 0271 19       		.uleb128 0x19
 4362 0272 49       		.uleb128 0x49
 4363 0273 13       		.uleb128 0x13
 4364 0274 11       		.uleb128 0x11
 4365 0275 01       		.uleb128 0x1
 4366 0276 12       		.uleb128 0x12
 4367 0277 06       		.uleb128 0x6
 4368 0278 40       		.uleb128 0x40
 4369 0279 18       		.uleb128 0x18
 4370 027a 9642     		.uleb128 0x2116
 4371 027c 19       		.uleb128 0x19
 4372 027d 01       		.uleb128 0x1
 4373 027e 13       		.uleb128 0x13
 4374 027f 00       		.byte	0
 4375 0280 00       		.byte	0
 4376 0281 2B       		.uleb128 0x2b
 4377 0282 34       		.uleb128 0x34
 4378 0283 00       		.byte	0
 4379 0284 03       		.uleb128 0x3
 4380 0285 0E       		.uleb128 0xe
 4381 0286 3A       		.uleb128 0x3a
 4382 0287 0B       		.uleb128 0xb
 4383 0288 3B       		.uleb128 0x3b
 4384 0289 05       		.uleb128 0x5
 4385 028a 49       		.uleb128 0x49
 4386 028b 13       		.uleb128 0x13
 4387 028c 02       		.uleb128 0x2
 4388 028d 18       		.uleb128 0x18
 4389 028e 00       		.byte	0
 4390 028f 00       		.byte	0
 4391 0290 2C       		.uleb128 0x2c
 4392 0291 2E       		.uleb128 0x2e
 4393 0292 01       		.byte	0x1
 4394 0293 3F       		.uleb128 0x3f
 4395 0294 19       		.uleb128 0x19
 4396 0295 03       		.uleb128 0x3
 4397 0296 0E       		.uleb128 0xe
 4398 0297 3A       		.uleb128 0x3a
 4399 0298 0B       		.uleb128 0xb
 4400 0299 3B       		.uleb128 0x3b
 4401 029a 05       		.uleb128 0x5
 4402 029b 27       		.uleb128 0x27
ARM GAS  /tmp/cczVTum7.s 			page 79


 4403 029c 19       		.uleb128 0x19
 4404 029d 11       		.uleb128 0x11
 4405 029e 01       		.uleb128 0x1
 4406 029f 12       		.uleb128 0x12
 4407 02a0 06       		.uleb128 0x6
 4408 02a1 40       		.uleb128 0x40
 4409 02a2 18       		.uleb128 0x18
 4410 02a3 9642     		.uleb128 0x2116
 4411 02a5 19       		.uleb128 0x19
 4412 02a6 01       		.uleb128 0x1
 4413 02a7 13       		.uleb128 0x13
 4414 02a8 00       		.byte	0
 4415 02a9 00       		.byte	0
 4416 02aa 2D       		.uleb128 0x2d
 4417 02ab 2E       		.uleb128 0x2e
 4418 02ac 00       		.byte	0
 4419 02ad 3F       		.uleb128 0x3f
 4420 02ae 19       		.uleb128 0x19
 4421 02af 03       		.uleb128 0x3
 4422 02b0 0E       		.uleb128 0xe
 4423 02b1 3A       		.uleb128 0x3a
 4424 02b2 0B       		.uleb128 0xb
 4425 02b3 3B       		.uleb128 0x3b
 4426 02b4 05       		.uleb128 0x5
 4427 02b5 27       		.uleb128 0x27
 4428 02b6 19       		.uleb128 0x19
 4429 02b7 11       		.uleb128 0x11
 4430 02b8 01       		.uleb128 0x1
 4431 02b9 12       		.uleb128 0x12
 4432 02ba 06       		.uleb128 0x6
 4433 02bb 40       		.uleb128 0x40
 4434 02bc 18       		.uleb128 0x18
 4435 02bd 9642     		.uleb128 0x2116
 4436 02bf 19       		.uleb128 0x19
 4437 02c0 00       		.byte	0
 4438 02c1 00       		.byte	0
 4439 02c2 2E       		.uleb128 0x2e
 4440 02c3 0B       		.uleb128 0xb
 4441 02c4 01       		.byte	0x1
 4442 02c5 11       		.uleb128 0x11
 4443 02c6 01       		.uleb128 0x1
 4444 02c7 12       		.uleb128 0x12
 4445 02c8 06       		.uleb128 0x6
 4446 02c9 00       		.byte	0
 4447 02ca 00       		.byte	0
 4448 02cb 2F       		.uleb128 0x2f
 4449 02cc 34       		.uleb128 0x34
 4450 02cd 00       		.byte	0
 4451 02ce 03       		.uleb128 0x3
 4452 02cf 0E       		.uleb128 0xe
 4453 02d0 3A       		.uleb128 0x3a
 4454 02d1 0B       		.uleb128 0xb
 4455 02d2 3B       		.uleb128 0x3b
 4456 02d3 05       		.uleb128 0x5
 4457 02d4 49       		.uleb128 0x49
 4458 02d5 13       		.uleb128 0x13
 4459 02d6 3F       		.uleb128 0x3f
ARM GAS  /tmp/cczVTum7.s 			page 80


 4460 02d7 19       		.uleb128 0x19
 4461 02d8 3C       		.uleb128 0x3c
 4462 02d9 19       		.uleb128 0x19
 4463 02da 00       		.byte	0
 4464 02db 00       		.byte	0
 4465 02dc 30       		.uleb128 0x30
 4466 02dd 34       		.uleb128 0x34
 4467 02de 00       		.byte	0
 4468 02df 03       		.uleb128 0x3
 4469 02e0 08       		.uleb128 0x8
 4470 02e1 3A       		.uleb128 0x3a
 4471 02e2 0B       		.uleb128 0xb
 4472 02e3 3B       		.uleb128 0x3b
 4473 02e4 05       		.uleb128 0x5
 4474 02e5 49       		.uleb128 0x49
 4475 02e6 13       		.uleb128 0x13
 4476 02e7 3F       		.uleb128 0x3f
 4477 02e8 19       		.uleb128 0x19
 4478 02e9 3C       		.uleb128 0x3c
 4479 02ea 19       		.uleb128 0x19
 4480 02eb 00       		.byte	0
 4481 02ec 00       		.byte	0
 4482 02ed 00       		.byte	0
 4483              		.section	.debug_aranges,"",%progbits
 4484 0000 5C010000 		.4byte	0x15c
 4485 0004 0200     		.2byte	0x2
 4486 0006 00000000 		.4byte	.Ldebug_info0
 4487 000a 04       		.byte	0x4
 4488 000b 00       		.byte	0
 4489 000c 0000     		.2byte	0
 4490 000e 0000     		.2byte	0
 4491 0010 00000000 		.4byte	.LFB116
 4492 0014 10000000 		.4byte	.LFE116-.LFB116
 4493 0018 00000000 		.4byte	.LFB117
 4494 001c 10000000 		.4byte	.LFE117-.LFB117
 4495 0020 00000000 		.4byte	.LFB125
 4496 0024 0E000000 		.4byte	.LFE125-.LFB125
 4497 0028 00000000 		.4byte	.LFB127
 4498 002c 1A000000 		.4byte	.LFE127-.LFB127
 4499 0030 00000000 		.4byte	.LFB128
 4500 0034 14000000 		.4byte	.LFE128-.LFB128
 4501 0038 00000000 		.4byte	.LFB130
 4502 003c 1A000000 		.4byte	.LFE130-.LFB130
 4503 0040 00000000 		.4byte	.LFB131
 4504 0044 18000000 		.4byte	.LFE131-.LFB131
 4505 0048 00000000 		.4byte	.LFB132
 4506 004c 1A000000 		.4byte	.LFE132-.LFB132
 4507 0050 00000000 		.4byte	.LFB134
 4508 0054 26000000 		.4byte	.LFE134-.LFB134
 4509 0058 00000000 		.4byte	.LFB135
 4510 005c 22000000 		.4byte	.LFE135-.LFB135
 4511 0060 00000000 		.4byte	.LFB139
 4512 0064 20000000 		.4byte	.LFE139-.LFB139
 4513 0068 00000000 		.4byte	.LFB140
 4514 006c 12000000 		.4byte	.LFE140-.LFB140
 4515 0070 00000000 		.4byte	.LFB145
 4516 0074 08000000 		.4byte	.LFE145-.LFB145
ARM GAS  /tmp/cczVTum7.s 			page 81


 4517 0078 00000000 		.4byte	.LFB146
 4518 007c 08000000 		.4byte	.LFE146-.LFB146
 4519 0080 00000000 		.4byte	.LFB153
 4520 0084 0C000000 		.4byte	.LFE153-.LFB153
 4521 0088 00000000 		.4byte	.LFB156
 4522 008c 24000000 		.4byte	.LFE156-.LFB156
 4523 0090 00000000 		.4byte	.LFB166
 4524 0094 0C000000 		.4byte	.LFE166-.LFB166
 4525 0098 00000000 		.4byte	.LFB170
 4526 009c 16000000 		.4byte	.LFE170-.LFB170
 4527 00a0 00000000 		.4byte	.LFB171
 4528 00a4 14000000 		.4byte	.LFE171-.LFB171
 4529 00a8 00000000 		.4byte	.LFB174
 4530 00ac 22000000 		.4byte	.LFE174-.LFB174
 4531 00b0 00000000 		.4byte	.LFB216
 4532 00b4 78000000 		.4byte	.LFE216-.LFB216
 4533 00b8 00000000 		.4byte	.LFB217
 4534 00bc 4C000000 		.4byte	.LFE217-.LFB217
 4535 00c0 00000000 		.4byte	.LFB218
 4536 00c4 38000000 		.4byte	.LFE218-.LFB218
 4537 00c8 00000000 		.4byte	.LFB219
 4538 00cc 20000000 		.4byte	.LFE219-.LFB219
 4539 00d0 00000000 		.4byte	.LFB220
 4540 00d4 54000000 		.4byte	.LFE220-.LFB220
 4541 00d8 00000000 		.4byte	.LFB221
 4542 00dc 22000000 		.4byte	.LFE221-.LFB221
 4543 00e0 00000000 		.4byte	.LFB222
 4544 00e4 1A000000 		.4byte	.LFE222-.LFB222
 4545 00e8 00000000 		.4byte	.LFB223
 4546 00ec 2C000000 		.4byte	.LFE223-.LFB223
 4547 00f0 00000000 		.4byte	.LFB224
 4548 00f4 3C000000 		.4byte	.LFE224-.LFB224
 4549 00f8 00000000 		.4byte	.LFB225
 4550 00fc 10000000 		.4byte	.LFE225-.LFB225
 4551 0100 00000000 		.4byte	.LFB226
 4552 0104 16000000 		.4byte	.LFE226-.LFB226
 4553 0108 00000000 		.4byte	.LFB227
 4554 010c 68000000 		.4byte	.LFE227-.LFB227
 4555 0110 00000000 		.4byte	.LFB228
 4556 0114 48000000 		.4byte	.LFE228-.LFB228
 4557 0118 00000000 		.4byte	.LFB229
 4558 011c 2E000000 		.4byte	.LFE229-.LFB229
 4559 0120 00000000 		.4byte	.LFB230
 4560 0124 38000000 		.4byte	.LFE230-.LFB230
 4561 0128 00000000 		.4byte	.LFB231
 4562 012c 2E000000 		.4byte	.LFE231-.LFB231
 4563 0130 00000000 		.4byte	.LFB232
 4564 0134 2A000000 		.4byte	.LFE232-.LFB232
 4565 0138 00000000 		.4byte	.LFB233
 4566 013c 1E000000 		.4byte	.LFE233-.LFB233
 4567 0140 00000000 		.4byte	.LFB234
 4568 0144 38000000 		.4byte	.LFE234-.LFB234
 4569 0148 00000000 		.4byte	.LFB235
 4570 014c 22000000 		.4byte	.LFE235-.LFB235
 4571 0150 00000000 		.4byte	.LFB236
 4572 0154 24000000 		.4byte	.LFE236-.LFB236
 4573 0158 00000000 		.4byte	0
ARM GAS  /tmp/cczVTum7.s 			page 82


 4574 015c 00000000 		.4byte	0
 4575              		.section	.debug_ranges,"",%progbits
 4576              	.Ldebug_ranges0:
 4577 0000 00000000 		.4byte	.LFB116
 4578 0004 10000000 		.4byte	.LFE116
 4579 0008 00000000 		.4byte	.LFB117
 4580 000c 10000000 		.4byte	.LFE117
 4581 0010 00000000 		.4byte	.LFB125
 4582 0014 0E000000 		.4byte	.LFE125
 4583 0018 00000000 		.4byte	.LFB127
 4584 001c 1A000000 		.4byte	.LFE127
 4585 0020 00000000 		.4byte	.LFB128
 4586 0024 14000000 		.4byte	.LFE128
 4587 0028 00000000 		.4byte	.LFB130
 4588 002c 1A000000 		.4byte	.LFE130
 4589 0030 00000000 		.4byte	.LFB131
 4590 0034 18000000 		.4byte	.LFE131
 4591 0038 00000000 		.4byte	.LFB132
 4592 003c 1A000000 		.4byte	.LFE132
 4593 0040 00000000 		.4byte	.LFB134
 4594 0044 26000000 		.4byte	.LFE134
 4595 0048 00000000 		.4byte	.LFB135
 4596 004c 22000000 		.4byte	.LFE135
 4597 0050 00000000 		.4byte	.LFB139
 4598 0054 20000000 		.4byte	.LFE139
 4599 0058 00000000 		.4byte	.LFB140
 4600 005c 12000000 		.4byte	.LFE140
 4601 0060 00000000 		.4byte	.LFB145
 4602 0064 08000000 		.4byte	.LFE145
 4603 0068 00000000 		.4byte	.LFB146
 4604 006c 08000000 		.4byte	.LFE146
 4605 0070 00000000 		.4byte	.LFB153
 4606 0074 0C000000 		.4byte	.LFE153
 4607 0078 00000000 		.4byte	.LFB156
 4608 007c 24000000 		.4byte	.LFE156
 4609 0080 00000000 		.4byte	.LFB166
 4610 0084 0C000000 		.4byte	.LFE166
 4611 0088 00000000 		.4byte	.LFB170
 4612 008c 16000000 		.4byte	.LFE170
 4613 0090 00000000 		.4byte	.LFB171
 4614 0094 14000000 		.4byte	.LFE171
 4615 0098 00000000 		.4byte	.LFB174
 4616 009c 22000000 		.4byte	.LFE174
 4617 00a0 00000000 		.4byte	.LFB216
 4618 00a4 78000000 		.4byte	.LFE216
 4619 00a8 00000000 		.4byte	.LFB217
 4620 00ac 4C000000 		.4byte	.LFE217
 4621 00b0 00000000 		.4byte	.LFB218
 4622 00b4 38000000 		.4byte	.LFE218
 4623 00b8 00000000 		.4byte	.LFB219
 4624 00bc 20000000 		.4byte	.LFE219
 4625 00c0 00000000 		.4byte	.LFB220
 4626 00c4 54000000 		.4byte	.LFE220
 4627 00c8 00000000 		.4byte	.LFB221
 4628 00cc 22000000 		.4byte	.LFE221
 4629 00d0 00000000 		.4byte	.LFB222
 4630 00d4 1A000000 		.4byte	.LFE222
ARM GAS  /tmp/cczVTum7.s 			page 83


 4631 00d8 00000000 		.4byte	.LFB223
 4632 00dc 2C000000 		.4byte	.LFE223
 4633 00e0 00000000 		.4byte	.LFB224
 4634 00e4 3C000000 		.4byte	.LFE224
 4635 00e8 00000000 		.4byte	.LFB225
 4636 00ec 10000000 		.4byte	.LFE225
 4637 00f0 00000000 		.4byte	.LFB226
 4638 00f4 16000000 		.4byte	.LFE226
 4639 00f8 00000000 		.4byte	.LFB227
 4640 00fc 68000000 		.4byte	.LFE227
 4641 0100 00000000 		.4byte	.LFB228
 4642 0104 48000000 		.4byte	.LFE228
 4643 0108 00000000 		.4byte	.LFB229
 4644 010c 2E000000 		.4byte	.LFE229
 4645 0110 00000000 		.4byte	.LFB230
 4646 0114 38000000 		.4byte	.LFE230
 4647 0118 00000000 		.4byte	.LFB231
 4648 011c 2E000000 		.4byte	.LFE231
 4649 0120 00000000 		.4byte	.LFB232
 4650 0124 2A000000 		.4byte	.LFE232
 4651 0128 00000000 		.4byte	.LFB233
 4652 012c 1E000000 		.4byte	.LFE233
 4653 0130 00000000 		.4byte	.LFB234
 4654 0134 38000000 		.4byte	.LFE234
 4655 0138 00000000 		.4byte	.LFB235
 4656 013c 22000000 		.4byte	.LFE235
 4657 0140 00000000 		.4byte	.LFB236
 4658 0144 24000000 		.4byte	.LFE236
 4659 0148 00000000 		.4byte	0
 4660 014c 00000000 		.4byte	0
 4661              		.section	.debug_line,"",%progbits
 4662              	.Ldebug_line0:
 4663 0000 72060000 		.section	.debug_str,"MS",%progbits,1
 4663      0200BC02 
 4663      00000201 
 4663      FB0E0D00 
 4663      01010101 
 4664              	.LASF101:
 4665 0000 7466756E 		.ascii	"tfunc_t\000"
 4665      635F7400 
 4666              	.LASF135:
 4667 0008 6F6C6470 		.ascii	"oldprio\000"
 4667      72696F00 
 4668              	.LASF51:
 4669 0010 72656164 		.ascii	"ready_list_t\000"
 4669      795F6C69 
 4669      73745F74 
 4669      00
 4670              	.LASF112:
 4671 001d 71756575 		.ascii	"queue_insert\000"
 4671      655F696E 
 4671      73657274 
 4671      00
 4672              	.LASF2:
 4673 002a 73697A65 		.ascii	"size_t\000"
 4673      5F7400
 4674              	.LASF86:
ARM GAS  /tmp/cczVTum7.s 			page 84


 4675 0031 7264796D 		.ascii	"rdymsg\000"
 4675      736700
 4676              	.LASF17:
 4677 0038 75696E74 		.ascii	"uint64_t\000"
 4677      36345F74 
 4677      00
 4678              	.LASF153:
 4679 0041 63685468 		.ascii	"chThdDequeueAllI\000"
 4679      64446571 
 4679      75657565 
 4679      416C6C49 
 4679      00
 4680              	.LASF156:
 4681 0052 2F686F6D 		.ascii	"/home/makkmarci/workspace/CLEAN/ChibiOS/os/rt/src/c"
 4681      652F6D61 
 4681      6B6B6D61 
 4681      7263692F 
 4681      776F726B 
 4682 0085 68746872 		.ascii	"hthreads.c\000"
 4682      65616473 
 4682      2E6300
 4683              	.LASF3:
 4684 0090 5F5F7569 		.ascii	"__uint8_t\000"
 4684      6E74385F 
 4684      7400
 4685              	.LASF140:
 4686 009a 70726576 		.ascii	"prev\000"
 4686      00
 4687              	.LASF83:
 4688 009f 706F7274 		.ascii	"port_intctx\000"
 4688      5F696E74 
 4688      63747800 
 4689              	.LASF70:
 4690 00ab 73797374 		.ascii	"system_debug_t\000"
 4690      656D5F64 
 4690      65627567 
 4690      5F7400
 4691              	.LASF139:
 4692 00ba 63685468 		.ascii	"chThdSleepUntilWindowed\000"
 4692      64536C65 
 4692      6570556E 
 4692      74696C57 
 4692      696E646F 
 4693              	.LASF107:
 4694 00d2 71756575 		.ascii	"queue_init\000"
 4694      655F696E 
 4694      697400
 4695              	.LASF103:
 4696 00dd 706F7274 		.ascii	"port_lock\000"
 4696      5F6C6F63 
 4696      6B00
 4697              	.LASF143:
 4698 00e7 63685468 		.ascii	"chThdExitS\000"
 4698      64457869 
 4698      745300
 4699              	.LASF13:
 4700 00f2 6C6F6E67 		.ascii	"long long unsigned int\000"
ARM GAS  /tmp/cczVTum7.s 			page 85


 4700      206C6F6E 
 4700      6720756E 
 4700      7369676E 
 4700      65642069 
 4701              	.LASF87:
 4702 0109 65786974 		.ascii	"exitcode\000"
 4702      636F6465 
 4702      00
 4703              	.LASF77:
 4704 0112 6D61696E 		.ascii	"mainthread\000"
 4704      74687265 
 4704      616400
 4705              	.LASF67:
 4706 011d 76697274 		.ascii	"virtual_timers_list_t\000"
 4706      75616C5F 
 4706      74696D65 
 4706      72735F6C 
 4706      6973745F 
 4707              	.LASF154:
 4708 0133 49544D5F 		.ascii	"ITM_RxBuffer\000"
 4708      52784275 
 4708      66666572 
 4708      00
 4709              	.LASF141:
 4710 0140 6E657874 		.ascii	"next\000"
 4710      00
 4711              	.LASF50:
 4712 0145 63685F74 		.ascii	"ch_threads_queue\000"
 4712      68726561 
 4712      64735F71 
 4712      75657565 
 4712      00
 4713              	.LASF105:
 4714 0156 6C697374 		.ascii	"list_init\000"
 4714      5F696E69 
 4714      7400
 4715              	.LASF30:
 4716 0160 705F7072 		.ascii	"p_prio\000"
 4716      696F00
 4717              	.LASF69:
 4718 0167 76745F73 		.ascii	"vt_systime\000"
 4718      79737469 
 4718      6D6500
 4719              	.LASF11:
 4720 0172 6C6F6E67 		.ascii	"long long int\000"
 4720      206C6F6E 
 4720      6720696E 
 4720      7400
 4721              	.LASF1:
 4722 0180 7369676E 		.ascii	"signed char\000"
 4722      65642063 
 4722      68617200 
 4723              	.LASF142:
 4724 018c 63685468 		.ascii	"chThdExit\000"
 4724      64457869 
 4724      7400
 4725              	.LASF117:
ARM GAS  /tmp/cczVTum7.s 			page 86


 4726 0196 63685363 		.ascii	"chSchCanYieldS\000"
 4726      6843616E 
 4726      5969656C 
 4726      645300
 4727              	.LASF44:
 4728 01a5 705F6D70 		.ascii	"p_mpool\000"
 4728      6F6F6C00 
 4729              	.LASF97:
 4730 01ad 6D5F7175 		.ascii	"m_queue\000"
 4730      65756500 
 4731              	.LASF76:
 4732 01b5 76746C69 		.ascii	"vtlist\000"
 4732      737400
 4733              	.LASF104:
 4734 01bc 706F7274 		.ascii	"port_unlock\000"
 4734      5F756E6C 
 4734      6F636B00 
 4735              	.LASF129:
 4736 01c8 63685468 		.ascii	"chThdCreateI\000"
 4736      64437265 
 4736      61746549 
 4736      00
 4737              	.LASF89:
 4738 01d5 77747472 		.ascii	"wttrp\000"
 4738      7000
 4739              	.LASF74:
 4740 01db 63685F73 		.ascii	"ch_system\000"
 4740      79737465 
 4740      6D00
 4741              	.LASF8:
 4742 01e5 6C6F6E67 		.ascii	"long int\000"
 4742      20696E74 
 4742      00
 4743              	.LASF20:
 4744 01ee 74737461 		.ascii	"tstate_t\000"
 4744      74655F74 
 4744      00
 4745              	.LASF109:
 4746 01f7 71756575 		.ascii	"queue_notempty\000"
 4746      655F6E6F 
 4746      74656D70 
 4746      747900
 4747              	.LASF32:
 4748 0206 705F6E65 		.ascii	"p_newer\000"
 4748      77657200 
 4749              	.LASF94:
 4750 020e 735F7175 		.ascii	"s_queue\000"
 4750      65756500 
 4751              	.LASF111:
 4752 0216 6C697374 		.ascii	"list_remove\000"
 4752      5F72656D 
 4752      6F766500 
 4753              	.LASF148:
 4754 0222 63685468 		.ascii	"chThdResumeI\000"
 4754      64526573 
 4754      756D6549 
 4754      00
ARM GAS  /tmp/cczVTum7.s 			page 87


 4755              	.LASF80:
 4756 022f 72656761 		.ascii	"regarm_t\000"
 4756      726D5F74 
 4756      00
 4757              	.LASF63:
 4758 0238 76745F70 		.ascii	"vt_prev\000"
 4758      72657600 
 4759              	.LASF149:
 4760 0240 63685468 		.ascii	"chThdResumeS\000"
 4760      64526573 
 4760      756D6553 
 4760      00
 4761              	.LASF102:
 4762 024d 6D757465 		.ascii	"mutex_t\000"
 4762      785F7400 
 4763              	.LASF158:
 4764 0255 76616C75 		.ascii	"value\000"
 4764      6500
 4765              	.LASF133:
 4766 025b 63685468 		.ascii	"chThdSetPriority\000"
 4766      64536574 
 4766      5072696F 
 4766      72697479 
 4766      00
 4767              	.LASF25:
 4768 026c 636E745F 		.ascii	"cnt_t\000"
 4768      7400
 4769              	.LASF118:
 4770 0272 63685654 		.ascii	"chVTGetSystemTimeX\000"
 4770      47657453 
 4770      79737465 
 4770      6D54696D 
 4770      655800
 4771              	.LASF0:
 4772 0285 756E7369 		.ascii	"unsigned int\000"
 4772      676E6564 
 4772      20696E74 
 4772      00
 4773              	.LASF128:
 4774 0292 5F746872 		.ascii	"_thread_init\000"
 4774      6561645F 
 4774      696E6974 
 4774      00
 4775              	.LASF62:
 4776 029f 76745F6E 		.ascii	"vt_next\000"
 4776      65787400 
 4777              	.LASF90:
 4778 02a7 77747365 		.ascii	"wtsemp\000"
 4778      6D7000
 4779              	.LASF64:
 4780 02ae 76745F64 		.ascii	"vt_delta\000"
 4780      656C7461 
 4780      00
 4781              	.LASF39:
 4782 02b7 705F6D73 		.ascii	"p_msgqueue\000"
 4782      67717565 
 4782      756500
ARM GAS  /tmp/cczVTum7.s 			page 88


 4783              	.LASF125:
 4784 02c2 63685468 		.ascii	"chThdSleepS\000"
 4784      64536C65 
 4784      65705300 
 4785              	.LASF147:
 4786 02ce 74696D65 		.ascii	"timeout\000"
 4786      6F757400 
 4787              	.LASF95:
 4788 02d6 735F636E 		.ascii	"s_cnt\000"
 4788      7400
 4789              	.LASF6:
 4790 02dc 73686F72 		.ascii	"short unsigned int\000"
 4790      7420756E 
 4790      7369676E 
 4790      65642069 
 4790      6E7400
 4791              	.LASF47:
 4792 02ef 63685F74 		.ascii	"ch_thread\000"
 4792      68726561 
 4792      6400
 4793              	.LASF23:
 4794 02f9 6D73675F 		.ascii	"msg_t\000"
 4794      7400
 4795              	.LASF56:
 4796 02ff 725F6E65 		.ascii	"r_newer\000"
 4796      77657200 
 4797              	.LASF73:
 4798 0307 63685F73 		.ascii	"ch_system_t\000"
 4798      79737465 
 4798      6D5F7400 
 4799              	.LASF134:
 4800 0313 6E657770 		.ascii	"newprio\000"
 4800      72696F00 
 4801              	.LASF152:
 4802 031b 63685468 		.ascii	"chThdDequeueNextI\000"
 4802      64446571 
 4802      75657565 
 4802      4E657874 
 4802      4900
 4803              	.LASF136:
 4804 032d 63685468 		.ascii	"chThdTerminate\000"
 4804      64546572 
 4804      6D696E61 
 4804      746500
 4805              	.LASF52:
 4806 033c 63685F72 		.ascii	"ch_ready_list\000"
 4806      65616479 
 4806      5F6C6973 
 4806      7400
 4807              	.LASF24:
 4808 034a 6576656E 		.ascii	"eventmask_t\000"
 4808      746D6173 
 4808      6B5F7400 
 4809              	.LASF7:
 4810 0356 5F5F696E 		.ascii	"__int32_t\000"
 4810      7433325F 
 4810      7400
ARM GAS  /tmp/cczVTum7.s 			page 89


 4811              	.LASF81:
 4812 0360 73746B61 		.ascii	"stkalign_t\000"
 4812      6C69676E 
 4812      5F7400
 4813              	.LASF131:
 4814 036b 63685468 		.ascii	"chThdCreateStatic\000"
 4814      64437265 
 4814      61746553 
 4814      74617469 
 4814      6300
 4815              	.LASF46:
 4816 037d 74687265 		.ascii	"threads_list_t\000"
 4816      6164735F 
 4816      6C697374 
 4816      5F7400
 4817              	.LASF146:
 4818 038c 63685468 		.ascii	"chThdSuspendTimeoutS\000"
 4818      64537573 
 4818      70656E64 
 4818      54696D65 
 4818      6F757453 
 4819              	.LASF38:
 4820 03a1 705F7761 		.ascii	"p_waiting\000"
 4820      6974696E 
 4820      6700
 4821              	.LASF79:
 4822 03ab 73697A65 		.ascii	"sizetype\000"
 4822      74797065 
 4822      00
 4823              	.LASF45:
 4824 03b4 74687265 		.ascii	"thread_reference_t\000"
 4824      61645F72 
 4824      65666572 
 4824      656E6365 
 4824      5F7400
 4825              	.LASF68:
 4826 03c7 63685F76 		.ascii	"ch_virtual_timers_list\000"
 4826      69727475 
 4826      616C5F74 
 4826      696D6572 
 4826      735F6C69 
 4827              	.LASF155:
 4828 03de 474E5520 		.ascii	"GNU C 4.9.3 20150303 (release) [ARM/embedded-4_9-br"
 4828      4320342E 
 4828      392E3320 
 4828      32303135 
 4828      30333033 
 4829 0411 616E6368 		.ascii	"anch revision 221220] -mcpu=cortex-m4 -mfloat-abi=h"
 4829      20726576 
 4829      6973696F 
 4829      6E203232 
 4829      31323230 
 4830 0444 61726420 		.ascii	"ard -mfpu=fpv4-sp-d16 -mno-thumb-interwork -mthumb "
 4830      2D6D6670 
 4830      753D6670 
 4830      76342D73 
 4830      702D6431 
ARM GAS  /tmp/cczVTum7.s 			page 90


 4831 0477 2D676764 		.ascii	"-ggdb -fomit-frame-pointer -falign-functions=16 -ff"
 4831      62202D66 
 4831      6F6D6974 
 4831      2D667261 
 4831      6D652D70 
 4832 04aa 756E6374 		.ascii	"unction-sections -fdata-sections -fno-common -fsing"
 4832      696F6E2D 
 4832      73656374 
 4832      696F6E73 
 4832      202D6664 
 4833 04dd 6C652D70 		.ascii	"le-precision-constant\000"
 4833      72656369 
 4833      73696F6E 
 4833      2D636F6E 
 4833      7374616E 
 4834              	.LASF150:
 4835 04f3 63685468 		.ascii	"chThdResume\000"
 4835      64526573 
 4835      756D6500 
 4836              	.LASF33:
 4837 04ff 705F6F6C 		.ascii	"p_older\000"
 4837      64657200 
 4838              	.LASF55:
 4839 0507 725F6374 		.ascii	"r_ctx\000"
 4839      7800
 4840              	.LASF85:
 4841 050d 746D5F63 		.ascii	"tm_calibration_t\000"
 4841      616C6962 
 4841      72617469 
 4841      6F6E5F74 
 4841      00
 4842              	.LASF99:
 4843 051e 6D5F6E65 		.ascii	"m_next\000"
 4843      787400
 4844              	.LASF120:
 4845 0525 74696D65 		.ascii	"time\000"
 4845      00
 4846              	.LASF110:
 4847 052a 6C697374 		.ascii	"list_insert\000"
 4847      5F696E73 
 4847      65727400 
 4848              	.LASF127:
 4849 0536 7072696F 		.ascii	"prio\000"
 4849      00
 4850              	.LASF57:
 4851 053b 725F6F6C 		.ascii	"r_older\000"
 4851      64657200 
 4852              	.LASF138:
 4853 0543 63685468 		.ascii	"chThdSleepUntil\000"
 4853      64536C65 
 4853      6570556E 
 4853      74696C00 
 4854              	.LASF132:
 4855 0553 63685468 		.ascii	"chThdStart\000"
 4855      64537461 
 4855      727400
 4856              	.LASF145:
ARM GAS  /tmp/cczVTum7.s 			page 91


 4857 055e 63685468 		.ascii	"chThdSuspendS\000"
 4857      64537573 
 4857      70656E64 
 4857      5300
 4858              	.LASF12:
 4859 056c 5F5F7569 		.ascii	"__uint64_t\000"
 4859      6E743634 
 4859      5F7400
 4860              	.LASF21:
 4861 0577 74726566 		.ascii	"trefs_t\000"
 4861      735F7400 
 4862              	.LASF60:
 4863 057f 76697274 		.ascii	"virtual_timer_t\000"
 4863      75616C5F 
 4863      74696D65 
 4863      725F7400 
 4864              	.LASF29:
 4865 058f 705F7072 		.ascii	"p_prev\000"
 4865      657600
 4866              	.LASF22:
 4867 0596 74707269 		.ascii	"tprio_t\000"
 4867      6F5F7400 
 4868              	.LASF34:
 4869 059e 705F6E61 		.ascii	"p_name\000"
 4869      6D6500
 4870              	.LASF71:
 4871 05a5 63685F73 		.ascii	"ch_system_debug\000"
 4871      79737465 
 4871      6D5F6465 
 4871      62756700 
 4872              	.LASF106:
 4873 05b5 5F426F6F 		.ascii	"_Bool\000"
 4873      6C00
 4874              	.LASF15:
 4875 05bb 696E7433 		.ascii	"int32_t\000"
 4875      325F7400 
 4876              	.LASF4:
 4877 05c3 756E7369 		.ascii	"unsigned char\000"
 4877      676E6564 
 4877      20636861 
 4877      7200
 4878              	.LASF42:
 4879 05d1 705F6D74 		.ascii	"p_mtxlist\000"
 4879      786C6973 
 4879      7400
 4880              	.LASF5:
 4881 05db 73686F72 		.ascii	"short int\000"
 4881      7420696E 
 4881      7400
 4882              	.LASF35:
 4883 05e5 705F7374 		.ascii	"p_state\000"
 4883      61746500 
 4884              	.LASF54:
 4885 05ed 725F7072 		.ascii	"r_prio\000"
 4885      696F00
 4886              	.LASF92:
 4887 05f4 65776D61 		.ascii	"ewmask\000"
ARM GAS  /tmp/cczVTum7.s 			page 92


 4887      736B00
 4888              	.LASF28:
 4889 05fb 705F6E65 		.ascii	"p_next\000"
 4889      787400
 4890              	.LASF19:
 4891 0602 746D6F64 		.ascii	"tmode_t\000"
 4891      655F7400 
 4892              	.LASF36:
 4893 060a 705F666C 		.ascii	"p_flags\000"
 4893      61677300 
 4894              	.LASF124:
 4895 0612 5F5F6675 		.ascii	"__func__\000"
 4895      6E635F5F 
 4895      00
 4896              	.LASF78:
 4897 061b 69646C65 		.ascii	"idle_thread_wa\000"
 4897      5F746872 
 4897      6561645F 
 4897      776100
 4898              	.LASF115:
 4899 062a 63685379 		.ascii	"chSysLock\000"
 4899      734C6F63 
 4899      6B00
 4900              	.LASF61:
 4901 0634 63685F76 		.ascii	"ch_virtual_timer\000"
 4901      69727475 
 4901      616C5F74 
 4901      696D6572 
 4901      00
 4902              	.LASF93:
 4903 0645 63685F73 		.ascii	"ch_semaphore\000"
 4903      656D6170 
 4903      686F7265 
 4903      00
 4904              	.LASF41:
 4905 0652 705F6570 		.ascii	"p_epending\000"
 4905      656E6469 
 4905      6E6700
 4906              	.LASF137:
 4907 065d 63685468 		.ascii	"chThdSleep\000"
 4907      64536C65 
 4907      657000
 4908              	.LASF16:
 4909 0668 75696E74 		.ascii	"uint32_t\000"
 4909      33325F74 
 4909      00
 4910              	.LASF91:
 4911 0671 77746D74 		.ascii	"wtmtxp\000"
 4911      787000
 4912              	.LASF53:
 4913 0678 725F7175 		.ascii	"r_queue\000"
 4913      65756500 
 4914              	.LASF48:
 4915 0680 63685F74 		.ascii	"ch_threads_list\000"
 4915      68726561 
 4915      64735F6C 
 4915      69737400 
ARM GAS  /tmp/cczVTum7.s 			page 93


 4916              	.LASF10:
 4917 0690 6C6F6E67 		.ascii	"long unsigned int\000"
 4917      20756E73 
 4917      69676E65 
 4917      6420696E 
 4917      7400
 4918              	.LASF58:
 4919 06a2 725F6375 		.ascii	"r_current\000"
 4919      7272656E 
 4919      7400
 4920              	.LASF100:
 4921 06ac 63686172 		.ascii	"char\000"
 4921      00
 4922              	.LASF27:
 4923 06b1 74687265 		.ascii	"thread_t\000"
 4923      61645F74 
 4923      00
 4924              	.LASF126:
 4925 06ba 63685468 		.ascii	"chThdDoDequeueNextI\000"
 4925      64446F44 
 4925      65717565 
 4925      75654E65 
 4925      78744900 
 4926              	.LASF113:
 4927 06ce 71756575 		.ascii	"queue_fifo_remove\000"
 4927      655F6669 
 4927      666F5F72 
 4927      656D6F76 
 4927      6500
 4928              	.LASF26:
 4929 06e0 73797374 		.ascii	"systime_t\000"
 4929      696D655F 
 4929      7400
 4930              	.LASF43:
 4931 06ea 705F7265 		.ascii	"p_realprio\000"
 4931      616C7072 
 4931      696F00
 4932              	.LASF59:
 4933 06f5 76746675 		.ascii	"vtfunc_t\000"
 4933      6E635F74 
 4933      00
 4934              	.LASF157:
 4935 06fe 5F5F7365 		.ascii	"__set_BASEPRI\000"
 4935      745F4241 
 4935      53455052 
 4935      4900
 4936              	.LASF72:
 4937 070c 70616E69 		.ascii	"panic_msg\000"
 4937      635F6D73 
 4937      6700
 4938              	.LASF84:
 4939 0716 6F666673 		.ascii	"offset\000"
 4939      657400
 4940              	.LASF82:
 4941 071d 636F6E74 		.ascii	"context\000"
 4941      65787400 
 4942              	.LASF9:
ARM GAS  /tmp/cczVTum7.s 			page 94


 4943 0725 5F5F7569 		.ascii	"__uint32_t\000"
 4943      6E743332 
 4943      5F7400
 4944              	.LASF18:
 4945 0730 7274636E 		.ascii	"rtcnt_t\000"
 4945      745F7400 
 4946              	.LASF144:
 4947 0738 63685468 		.ascii	"chThdWait\000"
 4947      64576169 
 4947      7400
 4948              	.LASF66:
 4949 0742 76745F70 		.ascii	"vt_par\000"
 4949      617200
 4950              	.LASF49:
 4951 0749 74687265 		.ascii	"threads_queue_t\000"
 4951      6164735F 
 4951      71756575 
 4951      655F7400 
 4952              	.LASF96:
 4953 0759 63685F6D 		.ascii	"ch_mutex\000"
 4953      75746578 
 4953      00
 4954              	.LASF37:
 4955 0762 705F7265 		.ascii	"p_refs\000"
 4955      667300
 4956              	.LASF75:
 4957 0769 726C6973 		.ascii	"rlist\000"
 4957      7400
 4958              	.LASF122:
 4959 076f 63685468 		.ascii	"chThdGetSelfX\000"
 4959      64476574 
 4959      53656C66 
 4959      5800
 4960              	.LASF14:
 4961 077d 75696E74 		.ascii	"uint8_t\000"
 4961      385F7400 
 4962              	.LASF159:
 4963 0785 63685468 		.ascii	"chThdYield\000"
 4963      64596965 
 4963      6C6400
 4964              	.LASF88:
 4965 0790 77746F62 		.ascii	"wtobjp\000"
 4965      6A7000
 4966              	.LASF114:
 4967 0797 63685363 		.ascii	"chSchDoYieldS\000"
 4967      68446F59 
 4967      69656C64 
 4967      5300
 4968              	.LASF130:
 4969 07a5 73697A65 		.ascii	"size\000"
 4969      00
 4970              	.LASF108:
 4971 07aa 6C697374 		.ascii	"list_notempty\000"
 4971      5F6E6F74 
 4971      656D7074 
 4971      7900
 4972              	.LASF119:
ARM GAS  /tmp/cczVTum7.s 			page 95


 4973 07b8 63685654 		.ascii	"chVTIsTimeWithinX\000"
 4973      49735469 
 4973      6D655769 
 4973      7468696E 
 4973      5800
 4974              	.LASF116:
 4975 07ca 63685379 		.ascii	"chSysUnlock\000"
 4975      73556E6C 
 4975      6F636B00 
 4976              	.LASF40:
 4977 07d6 705F6D73 		.ascii	"p_msg\000"
 4977      6700
 4978              	.LASF121:
 4979 07dc 73746172 		.ascii	"start\000"
 4979      7400
 4980              	.LASF98:
 4981 07e2 6D5F6F77 		.ascii	"m_owner\000"
 4981      6E657200 
 4982              	.LASF123:
 4983 07ea 63685468 		.ascii	"chThdStartI\000"
 4983      64537461 
 4983      72744900 
 4984              	.LASF31:
 4985 07f6 705F6374 		.ascii	"p_ctx\000"
 4985      7800
 4986              	.LASF65:
 4987 07fc 76745F66 		.ascii	"vt_func\000"
 4987      756E6300 
 4988              	.LASF151:
 4989 0804 63685468 		.ascii	"chThdEnqueueTimeoutS\000"
 4989      64456E71 
 4989      75657565 
 4989      54696D65 
 4989      6F757453 
 4990              		.ident	"GCC: (GNU Tools for ARM Embedded Processors) 4.9.3 20150303 (release) [ARM/embedded-4_9-br
ARM GAS  /tmp/cczVTum7.s 			page 96


DEFINED SYMBOLS
                            *ABS*:00000000 chthreads.c
     /tmp/cczVTum7.s:21     .text.port_lock:00000000 $t
     /tmp/cczVTum7.s:26     .text.port_lock:00000000 port_lock
     /tmp/cczVTum7.s:58     .text.port_unlock:00000000 $t
     /tmp/cczVTum7.s:63     .text.port_unlock:00000000 port_unlock
     /tmp/cczVTum7.s:93     .text.list_init:00000000 $t
     /tmp/cczVTum7.s:98     .text.list_init:00000000 list_init
     /tmp/cczVTum7.s:122    .text.list_notempty:00000000 $t
     /tmp/cczVTum7.s:127    .text.list_notempty:00000000 list_notempty
     /tmp/cczVTum7.s:156    .text.queue_init:00000000 $t
     /tmp/cczVTum7.s:161    .text.queue_init:00000000 queue_init
     /tmp/cczVTum7.s:188    .text.queue_notempty:00000000 $t
     /tmp/cczVTum7.s:193    .text.queue_notempty:00000000 queue_notempty
     /tmp/cczVTum7.s:222    .text.list_insert:00000000 $t
     /tmp/cczVTum7.s:227    .text.list_insert:00000000 list_insert
     /tmp/cczVTum7.s:256    .text.list_remove:00000000 $t
     /tmp/cczVTum7.s:261    .text.list_remove:00000000 list_remove
     /tmp/cczVTum7.s:292    .text.queue_insert:00000000 $t
     /tmp/cczVTum7.s:297    .text.queue_insert:00000000 queue_insert
     /tmp/cczVTum7.s:335    .text.queue_fifo_remove:00000000 $t
     /tmp/cczVTum7.s:340    .text.queue_fifo_remove:00000000 queue_fifo_remove
     /tmp/cczVTum7.s:376    .text.chSchCanYieldS:00000000 $t
     /tmp/cczVTum7.s:381    .text.chSchCanYieldS:00000000 chSchCanYieldS
     /tmp/cczVTum7.s:406    .text.chSchCanYieldS:0000001c $d
     /tmp/cczVTum7.s:411    .text.chSchDoYieldS:00000000 $t
     /tmp/cczVTum7.s:416    .text.chSchDoYieldS:00000000 chSchDoYieldS
     /tmp/cczVTum7.s:440    .text.chSysLock:00000000 $t
     /tmp/cczVTum7.s:445    .text.chSysLock:00000000 chSysLock
     /tmp/cczVTum7.s:464    .text.chSysUnlock:00000000 $t
     /tmp/cczVTum7.s:469    .text.chSysUnlock:00000000 chSysUnlock
     /tmp/cczVTum7.s:487    .text.chVTGetSystemTimeX:00000000 $t
     /tmp/cczVTum7.s:492    .text.chVTGetSystemTimeX:00000000 chVTGetSystemTimeX
     /tmp/cczVTum7.s:509    .text.chVTGetSystemTimeX:00000008 $d
     /tmp/cczVTum7.s:514    .text.chVTIsTimeWithinX:00000000 $t
     /tmp/cczVTum7.s:519    .text.chVTIsTimeWithinX:00000000 chVTIsTimeWithinX
     /tmp/cczVTum7.s:553    .text.chThdGetSelfX:00000000 $t
     /tmp/cczVTum7.s:558    .text.chThdGetSelfX:00000000 chThdGetSelfX
     /tmp/cczVTum7.s:575    .text.chThdGetSelfX:00000008 $d
     /tmp/cczVTum7.s:580    .text.chThdStartI:00000000 $t
     /tmp/cczVTum7.s:585    .text.chThdStartI:00000000 chThdStartI
     /tmp/cczVTum7.s:611    .text.chThdSleepS:00000000 $t
     /tmp/cczVTum7.s:616    .text.chThdSleepS:00000000 chThdSleepS
     /tmp/cczVTum7.s:641    .text.chThdDoDequeueNextI:00000000 $t
     /tmp/cczVTum7.s:646    .text.chThdDoDequeueNextI:00000000 chThdDoDequeueNextI
     /tmp/cczVTum7.s:679    .text._thread_init:00000000 $t
     /tmp/cczVTum7.s:685    .text._thread_init:00000000 _thread_init
     /tmp/cczVTum7.s:767    .text._thread_init:00000074 $d
     /tmp/cczVTum7.s:772    .text.chThdCreateI:00000000 $t
     /tmp/cczVTum7.s:778    .text.chThdCreateI:00000000 chThdCreateI
     /tmp/cczVTum7.s:829    .text.chThdCreateI:00000048 $d
     /tmp/cczVTum7.s:834    .text.chThdCreateStatic:00000000 $t
     /tmp/cczVTum7.s:840    .text.chThdCreateStatic:00000000 chThdCreateStatic
     /tmp/cczVTum7.s:884    .text.chThdStart:00000000 $t
     /tmp/cczVTum7.s:890    .text.chThdStart:00000000 chThdStart
     /tmp/cczVTum7.s:922    .text.chThdSetPriority:00000000 $t
     /tmp/cczVTum7.s:928    .text.chThdSetPriority:00000000 chThdSetPriority
ARM GAS  /tmp/cczVTum7.s 			page 97


     /tmp/cczVTum7.s:990    .text.chThdSetPriority:00000050 $d
     /tmp/cczVTum7.s:995    .text.chThdTerminate:00000000 $t
     /tmp/cczVTum7.s:1001   .text.chThdTerminate:00000000 chThdTerminate
     /tmp/cczVTum7.s:1033   .text.chThdSleep:00000000 $t
     /tmp/cczVTum7.s:1039   .text.chThdSleep:00000000 chThdSleep
     /tmp/cczVTum7.s:1067   .text.chThdSleepUntil:00000000 $t
     /tmp/cczVTum7.s:1073   .text.chThdSleepUntil:00000000 chThdSleepUntil
     /tmp/cczVTum7.s:1112   .text.chThdSleepUntilWindowed:00000000 $t
     /tmp/cczVTum7.s:1118   .text.chThdSleepUntilWindowed:00000000 chThdSleepUntilWindowed
     /tmp/cczVTum7.s:1165   .text.chThdYield:00000000 $t
     /tmp/cczVTum7.s:1171   .text.chThdYield:00000000 chThdYield
     /tmp/cczVTum7.s:1193   .text.chThdExit:00000000 $t
     /tmp/cczVTum7.s:1199   .text.chThdExit:00000000 chThdExit
     /tmp/cczVTum7.s:1231   .text.chThdExitS:00000000 chThdExitS
     /tmp/cczVTum7.s:1225   .text.chThdExitS:00000000 $t
     /tmp/cczVTum7.s:1300   .text.chThdExitS:00000064 $d
     /tmp/cczVTum7.s:1305   .text.chThdWait:00000000 $t
     /tmp/cczVTum7.s:1311   .text.chThdWait:00000000 chThdWait
     /tmp/cczVTum7.s:1362   .text.chThdWait:00000044 $d
     /tmp/cczVTum7.s:1367   .text.chThdSuspendS:00000000 $t
     /tmp/cczVTum7.s:1373   .text.chThdSuspendS:00000000 chThdSuspendS
     /tmp/cczVTum7.s:1413   .text.chThdSuspendTimeoutS:00000000 $t
     /tmp/cczVTum7.s:1419   .text.chThdSuspendTimeoutS:00000000 chThdSuspendTimeoutS
     /tmp/cczVTum7.s:1467   .text.chThdResumeI:00000000 $t
     /tmp/cczVTum7.s:1473   .text.chThdResumeI:00000000 chThdResumeI
     /tmp/cczVTum7.s:1518   .text.chThdResumeS:00000000 $t
     /tmp/cczVTum7.s:1524   .text.chThdResumeS:00000000 chThdResumeS
     /tmp/cczVTum7.s:1566   .text.chThdResume:00000000 $t
     /tmp/cczVTum7.s:1572   .text.chThdResume:00000000 chThdResume
     /tmp/cczVTum7.s:1602   .text.chThdEnqueueTimeoutS:00000000 $t
     /tmp/cczVTum7.s:1608   .text.chThdEnqueueTimeoutS:00000000 chThdEnqueueTimeoutS
     /tmp/cczVTum7.s:1650   .text.chThdEnqueueTimeoutS:00000034 $d
     /tmp/cczVTum7.s:1655   .text.chThdDequeueNextI:00000000 $t
     /tmp/cczVTum7.s:1661   .text.chThdDequeueNextI:00000000 chThdDequeueNextI
     /tmp/cczVTum7.s:1694   .text.chThdDequeueAllI:00000000 $t
     /tmp/cczVTum7.s:1700   .text.chThdDequeueAllI:00000000 chThdDequeueAllI
                     .debug_frame:00000010 $d
     /tmp/cczVTum7.s:513    .text.chVTGetSystemTimeX:0000000c $t
     /tmp/cczVTum7.s:579    .text.chThdGetSelfX:0000000c $t
     /tmp/cczVTum7.s:771    .text._thread_init:00000078 $t
     /tmp/cczVTum7.s:833    .text.chThdCreateI:0000004c $t
     /tmp/cczVTum7.s:994    .text.chThdSetPriority:00000054 $t
     /tmp/cczVTum7.s:1304   .text.chThdExitS:00000068 $t
     /tmp/cczVTum7.s:1366   .text.chThdWait:00000048 $t
     /tmp/cczVTum7.s:1654   .text.chThdEnqueueTimeoutS:00000038 $t

UNDEFINED SYMBOLS
ch
chSchDoRescheduleBehind
chSchReadyI
chSchGoSleepTimeoutS
_port_thread_start
chSchWakeupS
chSchRescheduleS
chSchGoSleepS
chThdRelease
