ARM GAS  /tmp/cczVTum7.s 			page 1


   1              		.syntax unified
   2              		.cpu cortex-m4
   3              		.eabi_attribute 27, 1
   4              		.eabi_attribute 28, 1
   5              		.fpu fpv4-sp-d16
   6              		.eabi_attribute 20, 1
   7              		.eabi_attribute 21, 1
   8              		.eabi_attribute 23, 3
   9              		.eabi_attribute 24, 1
  10              		.eabi_attribute 25, 1
  11              		.eabi_attribute 26, 1
  12              		.eabi_attribute 30, 6
  13              		.eabi_attribute 34, 1
  14              		.eabi_attribute 18, 4
  15              		.thumb
  16              		.file	"chthreads.c"
  17              		.text
  18              	.Ltext0:
  19              		.cfi_sections	.debug_frame
  20              		.section	.text.port_lock,"ax",%progbits
  21              		.align	2
  22              		.p2align 4,,15
  23              		.thumb
  24              		.thumb_func
  25              		.type	port_lock, %function
  26              	port_lock:
  27              	.LFB116:
  28              		.file 1 "/home/makkmarci/workspace/CLEAN/ChibiOS/os/rt/ports/ARMCMx/chcore_v7m.h"
  29              		.loc 1 444 0
  30              		.cfi_startproc
  31              		@ args = 0, pretend = 0, frame = 8
  32              		@ frame_needed = 0, uses_anonymous_args = 0
  33              		@ link register save eliminated.
  34 0000 82B0     		sub	sp, sp, #8
  35              		.cfi_def_cfa_offset 8
  36 0002 2023     		movs	r3, #32
  37 0004 0193     		str	r3, [sp, #4]
  38              	.LBB6:
  39              	.LBB7:
  40              		.file 2 "/home/makkmarci/workspace/CLEAN/ChibiOS/os/ext/CMSIS/include/core_cmFunc.h"
  41              		.loc 2 546 0
  42 0006 019B     		ldr	r3, [sp, #4]
  43              	@ 546 "/home/makkmarci/workspace/CLEAN/ChibiOS/os/ext/CMSIS/include/core_cmFunc.h" 1
  44 0008 83F31188 		MSR basepri, r3
  45              	@ 0 "" 2
  46              		.thumb
  47              	.LBE7:
  48              	.LBE6:
  49              		.loc 1 451 0
  50 000c 02B0     		add	sp, sp, #8
  51              		.cfi_def_cfa_offset 0
  52              		@ sp needed
  53 000e 7047     		bx	lr
  54              		.cfi_endproc
  55              	.LFE116:
  56              		.size	port_lock, .-port_lock
  57              		.section	.text.port_unlock,"ax",%progbits
ARM GAS  /tmp/cczVTum7.s 			page 2


  58              		.align	2
  59              		.p2align 4,,15
  60              		.thumb
  61              		.thumb_func
  62              		.type	port_unlock, %function
  63              	port_unlock:
  64              	.LFB117:
  65              		.loc 1 458 0
  66              		.cfi_startproc
  67              		@ args = 0, pretend = 0, frame = 8
  68              		@ frame_needed = 0, uses_anonymous_args = 0
  69              		@ link register save eliminated.
  70 0000 82B0     		sub	sp, sp, #8
  71              		.cfi_def_cfa_offset 8
  72 0002 0023     		movs	r3, #0
  73 0004 0193     		str	r3, [sp, #4]
  74              	.LBB8:
  75              	.LBB9:
  76              		.loc 2 546 0
  77 0006 019B     		ldr	r3, [sp, #4]
  78              	@ 546 "/home/makkmarci/workspace/CLEAN/ChibiOS/os/ext/CMSIS/include/core_cmFunc.h" 1
  79 0008 83F31188 		MSR basepri, r3
  80              	@ 0 "" 2
  81              		.thumb
  82              	.LBE9:
  83              	.LBE8:
  84              		.loc 1 465 0
  85 000c 02B0     		add	sp, sp, #8
  86              		.cfi_def_cfa_offset 0
  87              		@ sp needed
  88 000e 7047     		bx	lr
  89              		.cfi_endproc
  90              	.LFE117:
  91              		.size	port_unlock, .-port_unlock
  92              		.section	.text.list_init,"ax",%progbits
  93              		.align	2
  94              		.p2align 4,,15
  95              		.thumb
  96              		.thumb_func
  97              		.type	list_init, %function
  98              	list_init:
  99              	.LFB125:
 100              		.file 3 "/home/makkmarci/workspace/CLEAN/ChibiOS/os/rt/include/chschd.h"
 101              		.loc 3 564 0
 102              		.cfi_startproc
 103              		@ args = 0, pretend = 0, frame = 8
 104              		@ frame_needed = 0, uses_anonymous_args = 0
 105              		@ link register save eliminated.
 106 0000 82B0     		sub	sp, sp, #8
 107              		.cfi_def_cfa_offset 8
 108 0002 0190     		str	r0, [sp, #4]
 109              		.loc 3 566 0
 110 0004 019B     		ldr	r3, [sp, #4]
 111 0006 019A     		ldr	r2, [sp, #4]
 112 0008 1A60     		str	r2, [r3]
 113              		.loc 3 567 0
 114 000a 02B0     		add	sp, sp, #8
ARM GAS  /tmp/cczVTum7.s 			page 3


 115              		.cfi_def_cfa_offset 0
 116              		@ sp needed
 117 000c 7047     		bx	lr
 118              		.cfi_endproc
 119              	.LFE125:
 120              		.size	list_init, .-list_init
 121 000e 00BF     		.section	.text.list_notempty,"ax",%progbits
 122              		.align	2
 123              		.p2align 4,,15
 124              		.thumb
 125              		.thumb_func
 126              		.type	list_notempty, %function
 127              	list_notempty:
 128              	.LFB127:
 129              		.loc 3 590 0
 130              		.cfi_startproc
 131              		@ args = 0, pretend = 0, frame = 8
 132              		@ frame_needed = 0, uses_anonymous_args = 0
 133              		@ link register save eliminated.
 134 0000 82B0     		sub	sp, sp, #8
 135              		.cfi_def_cfa_offset 8
 136 0002 0190     		str	r0, [sp, #4]
 137              		.loc 3 592 0
 138 0004 019B     		ldr	r3, [sp, #4]
 139 0006 1A68     		ldr	r2, [r3]
 140 0008 019B     		ldr	r3, [sp, #4]
 141 000a 9A42     		cmp	r2, r3
 142 000c 14BF     		ite	ne
 143 000e 0123     		movne	r3, #1
 144 0010 0023     		moveq	r3, #0
 145 0012 DBB2     		uxtb	r3, r3
 146              		.loc 3 593 0
 147 0014 1846     		mov	r0, r3
 148 0016 02B0     		add	sp, sp, #8
 149              		.cfi_def_cfa_offset 0
 150              		@ sp needed
 151 0018 7047     		bx	lr
 152              		.cfi_endproc
 153              	.LFE127:
 154              		.size	list_notempty, .-list_notempty
 155 001a 00BFAFF3 		.section	.text.queue_init,"ax",%progbits
 155      0080
 156              		.align	2
 157              		.p2align 4,,15
 158              		.thumb
 159              		.thumb_func
 160              		.type	queue_init, %function
 161              	queue_init:
 162              	.LFB128:
 163              		.loc 3 602 0
 164              		.cfi_startproc
 165              		@ args = 0, pretend = 0, frame = 8
 166              		@ frame_needed = 0, uses_anonymous_args = 0
 167              		@ link register save eliminated.
 168 0000 82B0     		sub	sp, sp, #8
 169              		.cfi_def_cfa_offset 8
 170 0002 0190     		str	r0, [sp, #4]
ARM GAS  /tmp/cczVTum7.s 			page 4


 171              		.loc 3 604 0
 172 0004 019B     		ldr	r3, [sp, #4]
 173 0006 019A     		ldr	r2, [sp, #4]
 174 0008 1A60     		str	r2, [r3]
 175              		.loc 3 605 0
 176 000a 019B     		ldr	r3, [sp, #4]
 177 000c 019A     		ldr	r2, [sp, #4]
 178 000e 5A60     		str	r2, [r3, #4]
 179              		.loc 3 606 0
 180 0010 02B0     		add	sp, sp, #8
 181              		.cfi_def_cfa_offset 0
 182              		@ sp needed
 183 0012 7047     		bx	lr
 184              		.cfi_endproc
 185              	.LFE128:
 186              		.size	queue_init, .-queue_init
 187 0014 AFF30080 		.section	.text.queue_notempty,"ax",%progbits
 187      AFF30080 
 187      AFF30080 
 188              		.align	2
 189              		.p2align 4,,15
 190              		.thumb
 191              		.thumb_func
 192              		.type	queue_notempty, %function
 193              	queue_notempty:
 194              	.LFB130:
 195              		.loc 3 629 0
 196              		.cfi_startproc
 197              		@ args = 0, pretend = 0, frame = 8
 198              		@ frame_needed = 0, uses_anonymous_args = 0
 199              		@ link register save eliminated.
 200 0000 82B0     		sub	sp, sp, #8
 201              		.cfi_def_cfa_offset 8
 202 0002 0190     		str	r0, [sp, #4]
 203              		.loc 3 631 0
 204 0004 019B     		ldr	r3, [sp, #4]
 205 0006 1A68     		ldr	r2, [r3]
 206 0008 019B     		ldr	r3, [sp, #4]
 207 000a 9A42     		cmp	r2, r3
 208 000c 14BF     		ite	ne
 209 000e 0123     		movne	r3, #1
 210 0010 0023     		moveq	r3, #0
 211 0012 DBB2     		uxtb	r3, r3
 212              		.loc 3 632 0
 213 0014 1846     		mov	r0, r3
 214 0016 02B0     		add	sp, sp, #8
 215              		.cfi_def_cfa_offset 0
 216              		@ sp needed
 217 0018 7047     		bx	lr
 218              		.cfi_endproc
 219              	.LFE130:
 220              		.size	queue_notempty, .-queue_notempty
 221 001a 00BFAFF3 		.section	.text.list_insert,"ax",%progbits
 221      0080
 222              		.align	2
 223              		.p2align 4,,15
 224              		.thumb
ARM GAS  /tmp/cczVTum7.s 			page 5


 225              		.thumb_func
 226              		.type	list_insert, %function
 227              	list_insert:
 228              	.LFB131:
 229              		.loc 3 637 0
 230              		.cfi_startproc
 231              		@ args = 0, pretend = 0, frame = 8
 232              		@ frame_needed = 0, uses_anonymous_args = 0
 233              		@ link register save eliminated.
 234 0000 82B0     		sub	sp, sp, #8
 235              		.cfi_def_cfa_offset 8
 236 0002 0190     		str	r0, [sp, #4]
 237 0004 0091     		str	r1, [sp]
 238              		.loc 3 639 0
 239 0006 009B     		ldr	r3, [sp]
 240 0008 1A68     		ldr	r2, [r3]
 241 000a 019B     		ldr	r3, [sp, #4]
 242 000c 1A60     		str	r2, [r3]
 243              		.loc 3 640 0
 244 000e 009B     		ldr	r3, [sp]
 245 0010 019A     		ldr	r2, [sp, #4]
 246 0012 1A60     		str	r2, [r3]
 247              		.loc 3 641 0
 248 0014 02B0     		add	sp, sp, #8
 249              		.cfi_def_cfa_offset 0
 250              		@ sp needed
 251 0016 7047     		bx	lr
 252              		.cfi_endproc
 253              	.LFE131:
 254              		.size	list_insert, .-list_insert
 255 0018 AFF30080 		.section	.text.list_remove,"ax",%progbits
 255      AFF30080 
 256              		.align	2
 257              		.p2align 4,,15
 258              		.thumb
 259              		.thumb_func
 260              		.type	list_remove, %function
 261              	list_remove:
 262              	.LFB132:
 263              		.loc 3 643 0
 264              		.cfi_startproc
 265              		@ args = 0, pretend = 0, frame = 16
 266              		@ frame_needed = 0, uses_anonymous_args = 0
 267              		@ link register save eliminated.
 268 0000 84B0     		sub	sp, sp, #16
 269              		.cfi_def_cfa_offset 16
 270 0002 0190     		str	r0, [sp, #4]
 271              		.loc 3 645 0
 272 0004 019B     		ldr	r3, [sp, #4]
 273 0006 1B68     		ldr	r3, [r3]
 274 0008 0393     		str	r3, [sp, #12]
 275              		.loc 3 646 0
 276 000a 039B     		ldr	r3, [sp, #12]
 277 000c 1A68     		ldr	r2, [r3]
 278 000e 019B     		ldr	r3, [sp, #4]
 279 0010 1A60     		str	r2, [r3]
 280              		.loc 3 648 0
ARM GAS  /tmp/cczVTum7.s 			page 6


 281 0012 039B     		ldr	r3, [sp, #12]
 282              		.loc 3 649 0
 283 0014 1846     		mov	r0, r3
 284 0016 04B0     		add	sp, sp, #16
 285              		.cfi_def_cfa_offset 0
 286              		@ sp needed
 287 0018 7047     		bx	lr
 288              		.cfi_endproc
 289              	.LFE132:
 290              		.size	list_remove, .-list_remove
 291 001a 00BFAFF3 		.section	.text.queue_insert,"ax",%progbits
 291      0080
 292              		.align	2
 293              		.p2align 4,,15
 294              		.thumb
 295              		.thumb_func
 296              		.type	queue_insert, %function
 297              	queue_insert:
 298              	.LFB134:
 299              		.loc 3 663 0
 300              		.cfi_startproc
 301              		@ args = 0, pretend = 0, frame = 8
 302              		@ frame_needed = 0, uses_anonymous_args = 0
 303              		@ link register save eliminated.
 304 0000 82B0     		sub	sp, sp, #8
 305              		.cfi_def_cfa_offset 8
 306 0002 0190     		str	r0, [sp, #4]
 307 0004 0091     		str	r1, [sp]
 308              		.loc 3 665 0
 309 0006 019B     		ldr	r3, [sp, #4]
 310 0008 009A     		ldr	r2, [sp]
 311 000a 1A60     		str	r2, [r3]
 312              		.loc 3 666 0
 313 000c 009B     		ldr	r3, [sp]
 314 000e 5A68     		ldr	r2, [r3, #4]
 315 0010 019B     		ldr	r3, [sp, #4]
 316 0012 5A60     		str	r2, [r3, #4]
 317              		.loc 3 667 0
 318 0014 019B     		ldr	r3, [sp, #4]
 319 0016 5B68     		ldr	r3, [r3, #4]
 320 0018 019A     		ldr	r2, [sp, #4]
 321 001a 1A60     		str	r2, [r3]
 322              		.loc 3 668 0
 323 001c 009B     		ldr	r3, [sp]
 324 001e 019A     		ldr	r2, [sp, #4]
 325 0020 5A60     		str	r2, [r3, #4]
 326              		.loc 3 669 0
 327 0022 02B0     		add	sp, sp, #8
 328              		.cfi_def_cfa_offset 0
 329              		@ sp needed
 330 0024 7047     		bx	lr
 331              		.cfi_endproc
 332              	.LFE134:
 333              		.size	queue_insert, .-queue_insert
 334 0026 00BFAFF3 		.section	.text.queue_fifo_remove,"ax",%progbits
 334      0080AFF3 
 334      0080
ARM GAS  /tmp/cczVTum7.s 			page 7


 335              		.align	2
 336              		.p2align 4,,15
 337              		.thumb
 338              		.thumb_func
 339              		.type	queue_fifo_remove, %function
 340              	queue_fifo_remove:
 341              	.LFB135:
 342              		.loc 3 671 0
 343              		.cfi_startproc
 344              		@ args = 0, pretend = 0, frame = 16
 345              		@ frame_needed = 0, uses_anonymous_args = 0
 346              		@ link register save eliminated.
 347 0000 84B0     		sub	sp, sp, #16
 348              		.cfi_def_cfa_offset 16
 349 0002 0190     		str	r0, [sp, #4]
 350              		.loc 3 672 0
 351 0004 019B     		ldr	r3, [sp, #4]
 352 0006 1B68     		ldr	r3, [r3]
 353 0008 0393     		str	r3, [sp, #12]
 354              		.loc 3 674 0
 355 000a 039B     		ldr	r3, [sp, #12]
 356 000c 1A68     		ldr	r2, [r3]
 357 000e 019B     		ldr	r3, [sp, #4]
 358 0010 1A60     		str	r2, [r3]
 359              		.loc 3 675 0
 360 0012 019B     		ldr	r3, [sp, #4]
 361 0014 1B68     		ldr	r3, [r3]
 362 0016 019A     		ldr	r2, [sp, #4]
 363 0018 5A60     		str	r2, [r3, #4]
 364              		.loc 3 677 0
 365 001a 039B     		ldr	r3, [sp, #12]
 366              		.loc 3 678 0
 367 001c 1846     		mov	r0, r3
 368 001e 04B0     		add	sp, sp, #16
 369              		.cfi_def_cfa_offset 0
 370              		@ sp needed
 371 0020 7047     		bx	lr
 372              		.cfi_endproc
 373              	.LFE135:
 374              		.size	queue_fifo_remove, .-queue_fifo_remove
 375 0022 00BFAFF3 		.section	.text.chSchCanYieldS,"ax",%progbits
 375      0080AFF3 
 375      0080AFF3 
 375      0080
 376              		.align	2
 377              		.p2align 4,,15
 378              		.thumb
 379              		.thumb_func
 380              		.type	chSchCanYieldS, %function
 381              	chSchCanYieldS:
 382              	.LFB139:
 383              		.loc 3 727 0
 384              		.cfi_startproc
 385              		@ args = 0, pretend = 0, frame = 0
 386              		@ frame_needed = 0, uses_anonymous_args = 0
 387              		@ link register save eliminated.
 388              		.loc 3 731 0
ARM GAS  /tmp/cczVTum7.s 			page 8


 389 0000 064B     		ldr	r3, .L17
 390 0002 1B68     		ldr	r3, [r3]
 391 0004 9A68     		ldr	r2, [r3, #8]
 392 0006 054B     		ldr	r3, .L17
 393 0008 9B69     		ldr	r3, [r3, #24]
 394 000a 9B68     		ldr	r3, [r3, #8]
 395 000c 9A42     		cmp	r2, r3
 396 000e 2CBF     		ite	cs
 397 0010 0123     		movcs	r3, #1
 398 0012 0023     		movcc	r3, #0
 399 0014 DBB2     		uxtb	r3, r3
 400              		.loc 3 732 0
 401 0016 1846     		mov	r0, r3
 402 0018 7047     		bx	lr
 403              	.L18:
 404 001a 00BF     		.align	2
 405              	.L17:
 406 001c 00000000 		.word	ch
 407              		.cfi_endproc
 408              	.LFE139:
 409              		.size	chSchCanYieldS, .-chSchCanYieldS
 410              		.section	.text.chSchDoYieldS,"ax",%progbits
 411              		.align	2
 412              		.p2align 4,,15
 413              		.thumb
 414              		.thumb_func
 415              		.type	chSchDoYieldS, %function
 416              	chSchDoYieldS:
 417              	.LFB140:
 418              		.loc 3 741 0
 419              		.cfi_startproc
 420              		@ args = 0, pretend = 0, frame = 0
 421              		@ frame_needed = 0, uses_anonymous_args = 0
 422 0000 08B5     		push	{r3, lr}
 423              		.cfi_def_cfa_offset 8
 424              		.cfi_offset 3, -8
 425              		.cfi_offset 14, -4
 426              		.loc 3 745 0
 427 0002 FFF7FEFF 		bl	chSchCanYieldS
 428 0006 0346     		mov	r3, r0
 429 0008 002B     		cmp	r3, #0
 430 000a 01D0     		beq	.L19
 431              		.loc 3 746 0
 432 000c FFF7FEFF 		bl	chSchDoRescheduleBehind
 433              	.L19:
 434              		.loc 3 748 0
 435 0010 08BD     		pop	{r3, pc}
 436              		.cfi_endproc
 437              	.LFE140:
 438              		.size	chSchDoYieldS, .-chSchDoYieldS
 439 0012 00BFAFF3 		.section	.text.chSysLock,"ax",%progbits
 439      0080AFF3 
 439      0080AFF3 
 439      0080
 440              		.align	2
 441              		.p2align 4,,15
 442              		.thumb
ARM GAS  /tmp/cczVTum7.s 			page 9


 443              		.thumb_func
 444              		.type	chSysLock, %function
 445              	chSysLock:
 446              	.LFB145:
 447              		.file 4 "/home/makkmarci/workspace/CLEAN/ChibiOS/os/rt/include/chsys.h"
 448              		.loc 4 346 0
 449              		.cfi_startproc
 450              		@ args = 0, pretend = 0, frame = 0
 451              		@ frame_needed = 0, uses_anonymous_args = 0
 452 0000 08B5     		push	{r3, lr}
 453              		.cfi_def_cfa_offset 8
 454              		.cfi_offset 3, -8
 455              		.cfi_offset 14, -4
 456              		.loc 4 348 0
 457 0002 FFF7FEFF 		bl	port_lock
 458              		.loc 4 351 0
 459 0006 08BD     		pop	{r3, pc}
 460              		.cfi_endproc
 461              	.LFE145:
 462              		.size	chSysLock, .-chSysLock
 463              		.section	.text.chSysUnlock,"ax",%progbits
 464              		.align	2
 465              		.p2align 4,,15
 466              		.thumb
 467              		.thumb_func
 468              		.type	chSysUnlock, %function
 469              	chSysUnlock:
 470              	.LFB146:
 471              		.loc 4 358 0
 472              		.cfi_startproc
 473              		@ args = 0, pretend = 0, frame = 0
 474              		@ frame_needed = 0, uses_anonymous_args = 0
 475 0000 08B5     		push	{r3, lr}
 476              		.cfi_def_cfa_offset 8
 477              		.cfi_offset 3, -8
 478              		.cfi_offset 14, -4
 479              		.loc 4 371 0
 480 0002 FFF7FEFF 		bl	port_unlock
 481              		.loc 4 372 0
 482 0006 08BD     		pop	{r3, pc}
 483              		.cfi_endproc
 484              	.LFE146:
 485              		.size	chSysUnlock, .-chSysUnlock
 486 0008 AFF30080 		.section	.text.chVTGetSystemTimeX,"ax",%progbits
 486      AFF30080 
 487              		.align	2
 488              		.p2align 4,,15
 489              		.thumb
 490              		.thumb_func
 491              		.type	chVTGetSystemTimeX, %function
 492              	chVTGetSystemTimeX:
 493              	.LFB153:
 494              		.file 5 "/home/makkmarci/workspace/CLEAN/ChibiOS/os/rt/include/chvt.h"
 495              		.loc 5 228 0
 496              		.cfi_startproc
 497              		@ args = 0, pretend = 0, frame = 0
 498              		@ frame_needed = 0, uses_anonymous_args = 0
ARM GAS  /tmp/cczVTum7.s 			page 10


 499              		@ link register save eliminated.
 500              		.loc 5 231 0
 501 0000 014B     		ldr	r3, .L25
 502 0002 9B6A     		ldr	r3, [r3, #40]
 503              		.loc 5 235 0
 504 0004 1846     		mov	r0, r3
 505 0006 7047     		bx	lr
 506              	.L26:
 507              		.align	2
 508              	.L25:
 509 0008 00000000 		.word	ch
 510              		.cfi_endproc
 511              	.LFE153:
 512              		.size	chVTGetSystemTimeX, .-chVTGetSystemTimeX
 513 000c AFF30080 		.section	.text.chVTIsTimeWithinX,"ax",%progbits
 514              		.align	2
 515              		.p2align 4,,15
 516              		.thumb
 517              		.thumb_func
 518              		.type	chVTIsTimeWithinX, %function
 519              	chVTIsTimeWithinX:
 520              	.LFB156:
 521              		.loc 5 286 0
 522              		.cfi_startproc
 523              		@ args = 0, pretend = 0, frame = 16
 524              		@ frame_needed = 0, uses_anonymous_args = 0
 525              		@ link register save eliminated.
 526 0000 84B0     		sub	sp, sp, #16
 527              		.cfi_def_cfa_offset 16
 528 0002 0390     		str	r0, [sp, #12]
 529 0004 0291     		str	r1, [sp, #8]
 530 0006 0192     		str	r2, [sp, #4]
 531              		.loc 5 288 0
 532 0008 039A     		ldr	r2, [sp, #12]
 533 000a 029B     		ldr	r3, [sp, #8]
 534 000c D21A     		subs	r2, r2, r3
 535 000e 0199     		ldr	r1, [sp, #4]
 536 0010 029B     		ldr	r3, [sp, #8]
 537 0012 CB1A     		subs	r3, r1, r3
 538 0014 9A42     		cmp	r2, r3
 539 0016 34BF     		ite	cc
 540 0018 0123     		movcc	r3, #1
 541 001a 0023     		movcs	r3, #0
 542 001c DBB2     		uxtb	r3, r3
 543              		.loc 5 289 0
 544 001e 1846     		mov	r0, r3
 545 0020 04B0     		add	sp, sp, #16
 546              		.cfi_def_cfa_offset 0
 547              		@ sp needed
 548 0022 7047     		bx	lr
 549              		.cfi_endproc
 550              	.LFE156:
 551              		.size	chVTIsTimeWithinX, .-chVTIsTimeWithinX
 552 0024 AFF30080 		.section	.text.chThdGetSelfX,"ax",%progbits
 552      AFF30080 
 552      AFF30080 
 553              		.align	2
ARM GAS  /tmp/cczVTum7.s 			page 11


 554              		.p2align 4,,15
 555              		.thumb
 556              		.thumb_func
 557              		.type	chThdGetSelfX, %function
 558              	chThdGetSelfX:
 559              	.LFB166:
 560              		.file 6 "/home/makkmarci/workspace/CLEAN/ChibiOS/os/rt/include/chthreads.h"
 561              		.loc 6 174 0
 562              		.cfi_startproc
 563              		@ args = 0, pretend = 0, frame = 0
 564              		@ frame_needed = 0, uses_anonymous_args = 0
 565              		@ link register save eliminated.
 566              		.loc 6 176 0
 567 0000 014B     		ldr	r3, .L31
 568 0002 9B69     		ldr	r3, [r3, #24]
 569              		.loc 6 177 0
 570 0004 1846     		mov	r0, r3
 571 0006 7047     		bx	lr
 572              	.L32:
 573              		.align	2
 574              	.L31:
 575 0008 00000000 		.word	ch
 576              		.cfi_endproc
 577              	.LFE166:
 578              		.size	chThdGetSelfX, .-chThdGetSelfX
 579 000c AFF30080 		.section	.text.chThdStartI,"ax",%progbits
 580              		.align	2
 581              		.p2align 4,,15
 582              		.thumb
 583              		.thumb_func
 584              		.type	chThdStartI, %function
 585              	chThdStartI:
 586              	.LFB170:
 587              		.loc 6 245 0
 588              		.cfi_startproc
 589              		@ args = 0, pretend = 0, frame = 8
 590              		@ frame_needed = 0, uses_anonymous_args = 0
 591 0000 00B5     		push	{lr}
 592              		.cfi_def_cfa_offset 4
 593              		.cfi_offset 14, -4
 594 0002 83B0     		sub	sp, sp, #12
 595              		.cfi_def_cfa_offset 16
 596 0004 0190     		str	r0, [sp, #4]
 597              		.loc 6 249 0
 598 0006 0198     		ldr	r0, [sp, #4]
 599 0008 FFF7FEFF 		bl	chSchReadyI
 600 000c 0346     		mov	r3, r0
 601              		.loc 6 250 0
 602 000e 1846     		mov	r0, r3
 603 0010 03B0     		add	sp, sp, #12
 604              		.cfi_def_cfa_offset 4
 605              		@ sp needed
 606 0012 5DF804FB 		ldr	pc, [sp], #4
 607              		.cfi_endproc
 608              	.LFE170:
 609              		.size	chThdStartI, .-chThdStartI
 610 0016 00BFAFF3 		.section	.text.chThdSleepS,"ax",%progbits
ARM GAS  /tmp/cczVTum7.s 			page 12


 610      0080AFF3 
 610      0080
 611              		.align	2
 612              		.p2align 4,,15
 613              		.thumb
 614              		.thumb_func
 615              		.type	chThdSleepS, %function
 616              	chThdSleepS:
 617              	.LFB171:
 618              		.loc 6 264 0
 619              		.cfi_startproc
 620              		@ args = 0, pretend = 0, frame = 8
 621              		@ frame_needed = 0, uses_anonymous_args = 0
 622 0000 00B5     		push	{lr}
 623              		.cfi_def_cfa_offset 4
 624              		.cfi_offset 14, -4
 625 0002 83B0     		sub	sp, sp, #12
 626              		.cfi_def_cfa_offset 16
 627 0004 0190     		str	r0, [sp, #4]
 628              		.loc 6 268 0
 629 0006 0820     		movs	r0, #8
 630 0008 0199     		ldr	r1, [sp, #4]
 631 000a FFF7FEFF 		bl	chSchGoSleepTimeoutS
 632              		.loc 6 269 0
 633 000e 03B0     		add	sp, sp, #12
 634              		.cfi_def_cfa_offset 4
 635              		@ sp needed
 636 0010 5DF804FB 		ldr	pc, [sp], #4
 637              		.cfi_endproc
 638              	.LFE171:
 639              		.size	chThdSleepS, .-chThdSleepS
 640 0014 AFF30080 		.section	.text.chThdDoDequeueNextI,"ax",%progbits
 640      AFF30080 
 640      AFF30080 
 641              		.align	2
 642              		.p2align 4,,15
 643              		.thumb
 644              		.thumb_func
 645              		.type	chThdDoDequeueNextI, %function
 646              	chThdDoDequeueNextI:
 647              	.LFB174:
 648              		.loc 6 312 0
 649              		.cfi_startproc
 650              		@ args = 0, pretend = 0, frame = 16
 651              		@ frame_needed = 0, uses_anonymous_args = 0
 652 0000 00B5     		push	{lr}
 653              		.cfi_def_cfa_offset 4
 654              		.cfi_offset 14, -4
 655 0002 85B0     		sub	sp, sp, #20
 656              		.cfi_def_cfa_offset 24
 657 0004 0190     		str	r0, [sp, #4]
 658 0006 0091     		str	r1, [sp]
 659              		.loc 6 317 0
 660 0008 0198     		ldr	r0, [sp, #4]
 661 000a FFF7FEFF 		bl	queue_fifo_remove
 662 000e 0390     		str	r0, [sp, #12]
 663              		.loc 6 321 0
ARM GAS  /tmp/cczVTum7.s 			page 13


 664 0010 039B     		ldr	r3, [sp, #12]
 665 0012 009A     		ldr	r2, [sp]
 666 0014 1A62     		str	r2, [r3, #32]
 667              		.loc 6 322 0
 668 0016 0398     		ldr	r0, [sp, #12]
 669 0018 FFF7FEFF 		bl	chSchReadyI
 670              		.loc 6 323 0
 671 001c 05B0     		add	sp, sp, #20
 672              		.cfi_def_cfa_offset 4
 673              		@ sp needed
 674 001e 5DF804FB 		ldr	pc, [sp], #4
 675              		.cfi_endproc
 676              	.LFE174:
 677              		.size	chThdDoDequeueNextI, .-chThdDoDequeueNextI
 678 0022 00BFAFF3 		.section	.text._thread_init,"ax",%progbits
 678      0080AFF3 
 678      0080AFF3 
 678      0080
 679              		.align	2
 680              		.p2align 4,,15
 681              		.global	_thread_init
 682              		.thumb
 683              		.thumb_func
 684              		.type	_thread_init, %function
 685              	_thread_init:
 686              	.LFB216:
 687              		.file 7 "/home/makkmarci/workspace/CLEAN/ChibiOS/os/rt/src/chthreads.c"
 688              		.loc 7 91 0
 689              		.cfi_startproc
 690              		@ args = 0, pretend = 0, frame = 8
 691              		@ frame_needed = 0, uses_anonymous_args = 0
 692 0000 00B5     		push	{lr}
 693              		.cfi_def_cfa_offset 4
 694              		.cfi_offset 14, -4
 695 0002 83B0     		sub	sp, sp, #12
 696              		.cfi_def_cfa_offset 16
 697 0004 0190     		str	r0, [sp, #4]
 698 0006 0091     		str	r1, [sp]
 699              		.loc 7 93 0
 700 0008 019B     		ldr	r3, [sp, #4]
 701 000a 009A     		ldr	r2, [sp]
 702 000c 9A60     		str	r2, [r3, #8]
 703              		.loc 7 94 0
 704 000e 019B     		ldr	r3, [sp, #4]
 705 0010 0222     		movs	r2, #2
 706 0012 1A77     		strb	r2, [r3, #28]
 707              		.loc 7 95 0
 708 0014 019B     		ldr	r3, [sp, #4]
 709 0016 0022     		movs	r2, #0
 710 0018 5A77     		strb	r2, [r3, #29]
 711              		.loc 7 100 0
 712 001a 019B     		ldr	r3, [sp, #4]
 713 001c 009A     		ldr	r2, [sp]
 714 001e DA63     		str	r2, [r3, #60]
 715              		.loc 7 101 0
 716 0020 019B     		ldr	r3, [sp, #4]
 717 0022 0022     		movs	r2, #0
ARM GAS  /tmp/cczVTum7.s 			page 14


 718 0024 9A63     		str	r2, [r3, #56]
 719              		.loc 7 104 0
 720 0026 019B     		ldr	r3, [sp, #4]
 721 0028 0022     		movs	r2, #0
 722 002a 5A63     		str	r2, [r3, #52]
 723              		.loc 7 110 0
 724 002c 019B     		ldr	r3, [sp, #4]
 725 002e 0122     		movs	r2, #1
 726 0030 9A77     		strb	r2, [r3, #30]
 727              		.loc 7 113 0
 728 0032 019B     		ldr	r3, [sp, #4]
 729 0034 0022     		movs	r2, #0
 730 0036 9A61     		str	r2, [r3, #24]
 731              		.loc 7 114 0
 732 0038 019B     		ldr	r3, [sp, #4]
 733 003a 0E4A     		ldr	r2, .L39
 734 003c 1A61     		str	r2, [r3, #16]
 735 003e 0D4B     		ldr	r3, .L39
 736 0040 5A69     		ldr	r2, [r3, #20]
 737 0042 019B     		ldr	r3, [sp, #4]
 738 0044 5A61     		str	r2, [r3, #20]
 739 0046 019B     		ldr	r3, [sp, #4]
 740 0048 5B69     		ldr	r3, [r3, #20]
 741 004a 019A     		ldr	r2, [sp, #4]
 742 004c 1A61     		str	r2, [r3, #16]
 743 004e 094A     		ldr	r2, .L39
 744 0050 019B     		ldr	r3, [sp, #4]
 745 0052 5361     		str	r3, [r2, #20]
 746              		.loc 7 117 0
 747 0054 019B     		ldr	r3, [sp, #4]
 748 0056 2433     		adds	r3, r3, #36
 749 0058 1846     		mov	r0, r3
 750 005a FFF7FEFF 		bl	list_init
 751              		.loc 7 120 0
 752 005e 019B     		ldr	r3, [sp, #4]
 753 0060 2833     		adds	r3, r3, #40
 754 0062 1846     		mov	r0, r3
 755 0064 FFF7FEFF 		bl	queue_init
 756              		.loc 7 132 0
 757 0068 019B     		ldr	r3, [sp, #4]
 758              		.loc 7 133 0
 759 006a 1846     		mov	r0, r3
 760 006c 03B0     		add	sp, sp, #12
 761              		.cfi_def_cfa_offset 4
 762              		@ sp needed
 763 006e 5DF804FB 		ldr	pc, [sp], #4
 764              	.L40:
 765 0072 00BF     		.align	2
 766              	.L39:
 767 0074 00000000 		.word	ch
 768              		.cfi_endproc
 769              	.LFE216:
 770              		.size	_thread_init, .-_thread_init
 771 0078 AFF30080 		.section	.text.chThdCreateI,"ax",%progbits
 771      AFF30080 
 772              		.align	2
 773              		.p2align 4,,15
ARM GAS  /tmp/cczVTum7.s 			page 15


 774              		.global	chThdCreateI
 775              		.thumb
 776              		.thumb_func
 777              		.type	chThdCreateI, %function
 778              	chThdCreateI:
 779              	.LFB217:
 780              		.loc 7 178 0
 781              		.cfi_startproc
 782              		@ args = 4, pretend = 0, frame = 24
 783              		@ frame_needed = 0, uses_anonymous_args = 0
 784 0000 00B5     		push	{lr}
 785              		.cfi_def_cfa_offset 4
 786              		.cfi_offset 14, -4
 787 0002 87B0     		sub	sp, sp, #28
 788              		.cfi_def_cfa_offset 32
 789 0004 0390     		str	r0, [sp, #12]
 790 0006 0291     		str	r1, [sp, #8]
 791 0008 0192     		str	r2, [sp, #4]
 792 000a 0093     		str	r3, [sp]
 793              		.loc 7 181 0
 794 000c 039B     		ldr	r3, [sp, #12]
 795 000e 0593     		str	r3, [sp, #20]
 796              		.loc 7 187 0
 797 0010 029B     		ldr	r3, [sp, #8]
 798 0012 643B     		subs	r3, r3, #100
 799 0014 039A     		ldr	r2, [sp, #12]
 800 0016 1A44     		add	r2, r2, r3
 801 0018 059B     		ldr	r3, [sp, #20]
 802 001a DA60     		str	r2, [r3, #12]
 803 001c 059B     		ldr	r3, [sp, #20]
 804 001e DB68     		ldr	r3, [r3, #12]
 805 0020 009A     		ldr	r2, [sp]
 806 0022 1A64     		str	r2, [r3, #64]
 807 0024 059B     		ldr	r3, [sp, #20]
 808 0026 DB68     		ldr	r3, [r3, #12]
 809 0028 089A     		ldr	r2, [sp, #32]
 810 002a 5A64     		str	r2, [r3, #68]
 811 002c 059B     		ldr	r3, [sp, #20]
 812 002e DB68     		ldr	r3, [r3, #12]
 813 0030 054A     		ldr	r2, .L43
 814 0032 1A66     		str	r2, [r3, #96]
 815              		.loc 7 189 0
 816 0034 0598     		ldr	r0, [sp, #20]
 817 0036 0199     		ldr	r1, [sp, #4]
 818 0038 FFF7FEFF 		bl	_thread_init
 819 003c 0346     		mov	r3, r0
 820              		.loc 7 190 0
 821 003e 1846     		mov	r0, r3
 822 0040 07B0     		add	sp, sp, #28
 823              		.cfi_def_cfa_offset 4
 824              		@ sp needed
 825 0042 5DF804FB 		ldr	pc, [sp], #4
 826              	.L44:
 827 0046 00BF     		.align	2
 828              	.L43:
 829 0048 00000000 		.word	_port_thread_start
 830              		.cfi_endproc
ARM GAS  /tmp/cczVTum7.s 			page 16


 831              	.LFE217:
 832              		.size	chThdCreateI, .-chThdCreateI
 833 004c AFF30080 		.section	.text.chThdCreateStatic,"ax",%progbits
 834              		.align	2
 835              		.p2align 4,,15
 836              		.global	chThdCreateStatic
 837              		.thumb
 838              		.thumb_func
 839              		.type	chThdCreateStatic, %function
 840              	chThdCreateStatic:
 841              	.LFB218:
 842              		.loc 7 209 0
 843              		.cfi_startproc
 844              		@ args = 4, pretend = 0, frame = 24
 845              		@ frame_needed = 0, uses_anonymous_args = 0
 846 0000 00B5     		push	{lr}
 847              		.cfi_def_cfa_offset 4
 848              		.cfi_offset 14, -4
 849 0002 89B0     		sub	sp, sp, #36
 850              		.cfi_def_cfa_offset 40
 851 0004 0590     		str	r0, [sp, #20]
 852 0006 0491     		str	r1, [sp, #16]
 853 0008 0392     		str	r2, [sp, #12]
 854 000a 0293     		str	r3, [sp, #8]
 855              		.loc 7 221 0
 856 000c FFF7FEFF 		bl	chSysLock
 857              		.loc 7 222 0
 858 0010 0A9B     		ldr	r3, [sp, #40]
 859 0012 0093     		str	r3, [sp]
 860 0014 0598     		ldr	r0, [sp, #20]
 861 0016 0499     		ldr	r1, [sp, #16]
 862 0018 039A     		ldr	r2, [sp, #12]
 863 001a 029B     		ldr	r3, [sp, #8]
 864 001c FFF7FEFF 		bl	chThdCreateI
 865 0020 0790     		str	r0, [sp, #28]
 866              		.loc 7 223 0
 867 0022 0798     		ldr	r0, [sp, #28]
 868 0024 0021     		movs	r1, #0
 869 0026 FFF7FEFF 		bl	chSchWakeupS
 870              		.loc 7 224 0
 871 002a FFF7FEFF 		bl	chSysUnlock
 872              		.loc 7 226 0
 873 002e 079B     		ldr	r3, [sp, #28]
 874              		.loc 7 227 0
 875 0030 1846     		mov	r0, r3
 876 0032 09B0     		add	sp, sp, #36
 877              		.cfi_def_cfa_offset 4
 878              		@ sp needed
 879 0034 5DF804FB 		ldr	pc, [sp], #4
 880              		.cfi_endproc
 881              	.LFE218:
 882              		.size	chThdCreateStatic, .-chThdCreateStatic
 883 0038 AFF30080 		.section	.text.chThdStart,"ax",%progbits
 883      AFF30080 
 884              		.align	2
 885              		.p2align 4,,15
 886              		.global	chThdStart
ARM GAS  /tmp/cczVTum7.s 			page 17


 887              		.thumb
 888              		.thumb_func
 889              		.type	chThdStart, %function
 890              	chThdStart:
 891              	.LFB219:
 892              		.loc 7 238 0
 893              		.cfi_startproc
 894              		@ args = 0, pretend = 0, frame = 8
 895              		@ frame_needed = 0, uses_anonymous_args = 0
 896 0000 00B5     		push	{lr}
 897              		.cfi_def_cfa_offset 4
 898              		.cfi_offset 14, -4
 899 0002 83B0     		sub	sp, sp, #12
 900              		.cfi_def_cfa_offset 16
 901 0004 0190     		str	r0, [sp, #4]
 902              		.loc 7 240 0
 903 0006 FFF7FEFF 		bl	chSysLock
 904              		.loc 7 241 0
 905 000a 0198     		ldr	r0, [sp, #4]
 906 000c FFF7FEFF 		bl	chThdStartI
 907 0010 0190     		str	r0, [sp, #4]
 908              		.loc 7 242 0
 909 0012 FFF7FEFF 		bl	chSysUnlock
 910              		.loc 7 244 0
 911 0016 019B     		ldr	r3, [sp, #4]
 912              		.loc 7 245 0
 913 0018 1846     		mov	r0, r3
 914 001a 03B0     		add	sp, sp, #12
 915              		.cfi_def_cfa_offset 4
 916              		@ sp needed
 917 001c 5DF804FB 		ldr	pc, [sp], #4
 918              		.cfi_endproc
 919              	.LFE219:
 920              		.size	chThdStart, .-chThdStart
 921              		.section	.text.chThdSetPriority,"ax",%progbits
 922              		.align	2
 923              		.p2align 4,,15
 924              		.global	chThdSetPriority
 925              		.thumb
 926              		.thumb_func
 927              		.type	chThdSetPriority, %function
 928              	chThdSetPriority:
 929              	.LFB220:
 930              		.loc 7 259 0
 931              		.cfi_startproc
 932              		@ args = 0, pretend = 0, frame = 16
 933              		@ frame_needed = 0, uses_anonymous_args = 0
 934 0000 00B5     		push	{lr}
 935              		.cfi_def_cfa_offset 4
 936              		.cfi_offset 14, -4
 937 0002 85B0     		sub	sp, sp, #20
 938              		.cfi_def_cfa_offset 24
 939 0004 0190     		str	r0, [sp, #4]
 940              		.loc 7 264 0
 941 0006 FFF7FEFF 		bl	chSysLock
 942              		.loc 7 266 0
 943 000a 114B     		ldr	r3, .L53
ARM GAS  /tmp/cczVTum7.s 			page 18


 944 000c 9B69     		ldr	r3, [r3, #24]
 945 000e DB6B     		ldr	r3, [r3, #60]
 946 0010 0393     		str	r3, [sp, #12]
 947              		.loc 7 267 0
 948 0012 0F4B     		ldr	r3, .L53
 949 0014 9B69     		ldr	r3, [r3, #24]
 950 0016 9A68     		ldr	r2, [r3, #8]
 951 0018 0D4B     		ldr	r3, .L53
 952 001a 9B69     		ldr	r3, [r3, #24]
 953 001c DB6B     		ldr	r3, [r3, #60]
 954 001e 9A42     		cmp	r2, r3
 955 0020 05D0     		beq	.L50
 956              		.loc 7 267 0 is_stmt 0 discriminator 1
 957 0022 0B4B     		ldr	r3, .L53
 958 0024 9B69     		ldr	r3, [r3, #24]
 959 0026 9A68     		ldr	r2, [r3, #8]
 960 0028 019B     		ldr	r3, [sp, #4]
 961 002a 9A42     		cmp	r2, r3
 962 002c 03D2     		bcs	.L51
 963              	.L50:
 964              		.loc 7 268 0 is_stmt 1
 965 002e 084B     		ldr	r3, .L53
 966 0030 9B69     		ldr	r3, [r3, #24]
 967 0032 019A     		ldr	r2, [sp, #4]
 968 0034 9A60     		str	r2, [r3, #8]
 969              	.L51:
 970              		.loc 7 270 0
 971 0036 064B     		ldr	r3, .L53
 972 0038 9B69     		ldr	r3, [r3, #24]
 973 003a 019A     		ldr	r2, [sp, #4]
 974 003c DA63     		str	r2, [r3, #60]
 975              		.loc 7 275 0
 976 003e FFF7FEFF 		bl	chSchRescheduleS
 977              		.loc 7 276 0
 978 0042 FFF7FEFF 		bl	chSysUnlock
 979              		.loc 7 278 0
 980 0046 039B     		ldr	r3, [sp, #12]
 981              		.loc 7 279 0
 982 0048 1846     		mov	r0, r3
 983 004a 05B0     		add	sp, sp, #20
 984              		.cfi_def_cfa_offset 4
 985              		@ sp needed
 986 004c 5DF804FB 		ldr	pc, [sp], #4
 987              	.L54:
 988              		.align	2
 989              	.L53:
 990 0050 00000000 		.word	ch
 991              		.cfi_endproc
 992              	.LFE220:
 993              		.size	chThdSetPriority, .-chThdSetPriority
 994 0054 AFF30080 		.section	.text.chThdTerminate,"ax",%progbits
 994      AFF30080 
 994      AFF30080 
 995              		.align	2
 996              		.p2align 4,,15
 997              		.global	chThdTerminate
 998              		.thumb
ARM GAS  /tmp/cczVTum7.s 			page 19


 999              		.thumb_func
 1000              		.type	chThdTerminate, %function
 1001              	chThdTerminate:
 1002              	.LFB221:
 1003              		.loc 7 293 0
 1004              		.cfi_startproc
 1005              		@ args = 0, pretend = 0, frame = 8
 1006              		@ frame_needed = 0, uses_anonymous_args = 0
 1007 0000 00B5     		push	{lr}
 1008              		.cfi_def_cfa_offset 4
 1009              		.cfi_offset 14, -4
 1010 0002 83B0     		sub	sp, sp, #12
 1011              		.cfi_def_cfa_offset 16
 1012 0004 0190     		str	r0, [sp, #4]
 1013              		.loc 7 295 0
 1014 0006 FFF7FEFF 		bl	chSysLock
 1015              		.loc 7 296 0
 1016 000a 019B     		ldr	r3, [sp, #4]
 1017 000c 5B7F     		ldrb	r3, [r3, #29]	@ zero_extendqisi2
 1018 000e 43F00403 		orr	r3, r3, #4
 1019 0012 DAB2     		uxtb	r2, r3
 1020 0014 019B     		ldr	r3, [sp, #4]
 1021 0016 5A77     		strb	r2, [r3, #29]
 1022              		.loc 7 297 0
 1023 0018 FFF7FEFF 		bl	chSysUnlock
 1024              		.loc 7 298 0
 1025 001c 03B0     		add	sp, sp, #12
 1026              		.cfi_def_cfa_offset 4
 1027              		@ sp needed
 1028 001e 5DF804FB 		ldr	pc, [sp], #4
 1029              		.cfi_endproc
 1030              	.LFE221:
 1031              		.size	chThdTerminate, .-chThdTerminate
 1032 0022 00BFAFF3 		.section	.text.chThdSleep,"ax",%progbits
 1032      0080AFF3 
 1032      0080AFF3 
 1032      0080
 1033              		.align	2
 1034              		.p2align 4,,15
 1035              		.global	chThdSleep
 1036              		.thumb
 1037              		.thumb_func
 1038              		.type	chThdSleep, %function
 1039              	chThdSleep:
 1040              	.LFB222:
 1041              		.loc 7 312 0
 1042              		.cfi_startproc
 1043              		@ args = 0, pretend = 0, frame = 8
 1044              		@ frame_needed = 0, uses_anonymous_args = 0
 1045 0000 00B5     		push	{lr}
 1046              		.cfi_def_cfa_offset 4
 1047              		.cfi_offset 14, -4
 1048 0002 83B0     		sub	sp, sp, #12
 1049              		.cfi_def_cfa_offset 16
 1050 0004 0190     		str	r0, [sp, #4]
 1051              		.loc 7 314 0
 1052 0006 FFF7FEFF 		bl	chSysLock
ARM GAS  /tmp/cczVTum7.s 			page 20


 1053              		.loc 7 315 0
 1054 000a 0198     		ldr	r0, [sp, #4]
 1055 000c FFF7FEFF 		bl	chThdSleepS
 1056              		.loc 7 316 0
 1057 0010 FFF7FEFF 		bl	chSysUnlock
 1058              		.loc 7 317 0
 1059 0014 03B0     		add	sp, sp, #12
 1060              		.cfi_def_cfa_offset 4
 1061              		@ sp needed
 1062 0016 5DF804FB 		ldr	pc, [sp], #4
 1063              		.cfi_endproc
 1064              	.LFE222:
 1065              		.size	chThdSleep, .-chThdSleep
 1066 001a 00BFAFF3 		.section	.text.chThdSleepUntil,"ax",%progbits
 1066      0080
 1067              		.align	2
 1068              		.p2align 4,,15
 1069              		.global	chThdSleepUntil
 1070              		.thumb
 1071              		.thumb_func
 1072              		.type	chThdSleepUntil, %function
 1073              	chThdSleepUntil:
 1074              	.LFB223:
 1075              		.loc 7 332 0
 1076              		.cfi_startproc
 1077              		@ args = 0, pretend = 0, frame = 8
 1078              		@ frame_needed = 0, uses_anonymous_args = 0
 1079 0000 00B5     		push	{lr}
 1080              		.cfi_def_cfa_offset 4
 1081              		.cfi_offset 14, -4
 1082 0002 83B0     		sub	sp, sp, #12
 1083              		.cfi_def_cfa_offset 16
 1084 0004 0190     		str	r0, [sp, #4]
 1085              		.loc 7 334 0
 1086 0006 FFF7FEFF 		bl	chSysLock
 1087              		.loc 7 335 0
 1088 000a FFF7FEFF 		bl	chVTGetSystemTimeX
 1089 000e 0246     		mov	r2, r0
 1090 0010 019B     		ldr	r3, [sp, #4]
 1091 0012 9B1A     		subs	r3, r3, r2
 1092 0014 0193     		str	r3, [sp, #4]
 1093              		.loc 7 336 0
 1094 0016 019B     		ldr	r3, [sp, #4]
 1095 0018 002B     		cmp	r3, #0
 1096 001a 02D0     		beq	.L58
 1097              		.loc 7 337 0
 1098 001c 0198     		ldr	r0, [sp, #4]
 1099 001e FFF7FEFF 		bl	chThdSleepS
 1100              	.L58:
 1101              		.loc 7 339 0
 1102 0022 FFF7FEFF 		bl	chSysUnlock
 1103              		.loc 7 340 0
 1104 0026 03B0     		add	sp, sp, #12
 1105              		.cfi_def_cfa_offset 4
 1106              		@ sp needed
 1107 0028 5DF804FB 		ldr	pc, [sp], #4
 1108              		.cfi_endproc
ARM GAS  /tmp/cczVTum7.s 			page 21


 1109              	.LFE223:
 1110              		.size	chThdSleepUntil, .-chThdSleepUntil
 1111              		.section	.text.chThdSleepUntilWindowed,"ax",%progbits
 1112              		.align	2
 1113              		.p2align 4,,15
 1114              		.global	chThdSleepUntilWindowed
 1115              		.thumb
 1116              		.thumb_func
 1117              		.type	chThdSleepUntilWindowed, %function
 1118              	chThdSleepUntilWindowed:
 1119              	.LFB224:
 1120              		.loc 7 356 0
 1121              		.cfi_startproc
 1122              		@ args = 0, pretend = 0, frame = 16
 1123              		@ frame_needed = 0, uses_anonymous_args = 0
 1124 0000 00B5     		push	{lr}
 1125              		.cfi_def_cfa_offset 4
 1126              		.cfi_offset 14, -4
 1127 0002 85B0     		sub	sp, sp, #20
 1128              		.cfi_def_cfa_offset 24
 1129 0004 0190     		str	r0, [sp, #4]
 1130 0006 0091     		str	r1, [sp]
 1131              		.loc 7 359 0
 1132 0008 FFF7FEFF 		bl	chSysLock
 1133              		.loc 7 360 0
 1134 000c FFF7FEFF 		bl	chVTGetSystemTimeX
 1135 0010 0390     		str	r0, [sp, #12]
 1136              		.loc 7 361 0
 1137 0012 0398     		ldr	r0, [sp, #12]
 1138 0014 0199     		ldr	r1, [sp, #4]
 1139 0016 009A     		ldr	r2, [sp]
 1140 0018 FFF7FEFF 		bl	chVTIsTimeWithinX
 1141 001c 0346     		mov	r3, r0
 1142 001e 002B     		cmp	r3, #0
 1143 0020 05D0     		beq	.L60
 1144              		.loc 7 362 0
 1145 0022 009A     		ldr	r2, [sp]
 1146 0024 039B     		ldr	r3, [sp, #12]
 1147 0026 D31A     		subs	r3, r2, r3
 1148 0028 1846     		mov	r0, r3
 1149 002a FFF7FEFF 		bl	chThdSleepS
 1150              	.L60:
 1151              		.loc 7 364 0
 1152 002e FFF7FEFF 		bl	chSysUnlock
 1153              		.loc 7 366 0
 1154 0032 009B     		ldr	r3, [sp]
 1155              		.loc 7 367 0
 1156 0034 1846     		mov	r0, r3
 1157 0036 05B0     		add	sp, sp, #20
 1158              		.cfi_def_cfa_offset 4
 1159              		@ sp needed
 1160 0038 5DF804FB 		ldr	pc, [sp], #4
 1161              		.cfi_endproc
 1162              	.LFE224:
 1163              		.size	chThdSleepUntilWindowed, .-chThdSleepUntilWindowed
 1164 003c AFF30080 		.section	.text.chThdYield,"ax",%progbits
 1165              		.align	2
ARM GAS  /tmp/cczVTum7.s 			page 22


 1166              		.p2align 4,,15
 1167              		.global	chThdYield
 1168              		.thumb
 1169              		.thumb_func
 1170              		.type	chThdYield, %function
 1171              	chThdYield:
 1172              	.LFB225:
 1173              		.loc 7 376 0
 1174              		.cfi_startproc
 1175              		@ args = 0, pretend = 0, frame = 0
 1176              		@ frame_needed = 0, uses_anonymous_args = 0
 1177 0000 08B5     		push	{r3, lr}
 1178              		.cfi_def_cfa_offset 8
 1179              		.cfi_offset 3, -8
 1180              		.cfi_offset 14, -4
 1181              		.loc 7 378 0
 1182 0002 FFF7FEFF 		bl	chSysLock
 1183              		.loc 7 379 0
 1184 0006 FFF7FEFF 		bl	chSchDoYieldS
 1185              		.loc 7 380 0
 1186 000a FFF7FEFF 		bl	chSysUnlock
 1187              		.loc 7 381 0
 1188 000e 08BD     		pop	{r3, pc}
 1189              		.cfi_endproc
 1190              	.LFE225:
 1191              		.size	chThdYield, .-chThdYield
 1192              		.section	.text.chThdExit,"ax",%progbits
 1193              		.align	2
 1194              		.p2align 4,,15
 1195              		.global	chThdExit
 1196              		.thumb
 1197              		.thumb_func
 1198              		.type	chThdExit, %function
 1199              	chThdExit:
 1200              	.LFB226:
 1201              		.loc 7 397 0
 1202              		.cfi_startproc
 1203              		@ args = 0, pretend = 0, frame = 8
 1204              		@ frame_needed = 0, uses_anonymous_args = 0
 1205 0000 00B5     		push	{lr}
 1206              		.cfi_def_cfa_offset 4
 1207              		.cfi_offset 14, -4
 1208 0002 83B0     		sub	sp, sp, #12
 1209              		.cfi_def_cfa_offset 16
 1210 0004 0190     		str	r0, [sp, #4]
 1211              		.loc 7 399 0
 1212 0006 FFF7FEFF 		bl	chSysLock
 1213              		.loc 7 400 0
 1214 000a 0198     		ldr	r0, [sp, #4]
 1215 000c FFF7FEFF 		bl	chThdExitS
 1216              		.loc 7 402 0
 1217 0010 03B0     		add	sp, sp, #12
 1218              		.cfi_def_cfa_offset 4
 1219              		@ sp needed
 1220 0012 5DF804FB 		ldr	pc, [sp], #4
 1221              		.cfi_endproc
 1222              	.LFE226:
ARM GAS  /tmp/cczVTum7.s 			page 23


 1223              		.size	chThdExit, .-chThdExit
 1224 0016 00BFAFF3 		.section	.text.chThdExitS,"ax",%progbits
 1224      0080AFF3 
 1224      0080
 1225              		.align	2
 1226              		.p2align 4,,15
 1227              		.global	chThdExitS
 1228              		.thumb
 1229              		.thumb_func
 1230              		.type	chThdExitS, %function
 1231              	chThdExitS:
 1232              	.LFB227:
 1233              		.loc 7 418 0
 1234              		.cfi_startproc
 1235              		@ args = 0, pretend = 0, frame = 16
 1236              		@ frame_needed = 0, uses_anonymous_args = 0
 1237 0000 00B5     		push	{lr}
 1238              		.cfi_def_cfa_offset 4
 1239              		.cfi_offset 14, -4
 1240 0002 85B0     		sub	sp, sp, #20
 1241              		.cfi_def_cfa_offset 24
 1242 0004 0190     		str	r0, [sp, #4]
 1243              		.loc 7 419 0
 1244 0006 174B     		ldr	r3, .L68
 1245 0008 9B69     		ldr	r3, [r3, #24]
 1246 000a 0393     		str	r3, [sp, #12]
 1247              		.loc 7 421 0
 1248 000c 039B     		ldr	r3, [sp, #12]
 1249 000e 019A     		ldr	r2, [sp, #4]
 1250 0010 1A62     		str	r2, [r3, #32]
 1251              		.loc 7 426 0
 1252 0012 08E0     		b	.L65
 1253              	.L66:
 1254              		.loc 7 427 0
 1255 0014 039B     		ldr	r3, [sp, #12]
 1256 0016 2433     		adds	r3, r3, #36
 1257 0018 1846     		mov	r0, r3
 1258 001a FFF7FEFF 		bl	list_remove
 1259 001e 0346     		mov	r3, r0
 1260 0020 1846     		mov	r0, r3
 1261 0022 FFF7FEFF 		bl	chSchReadyI
 1262              	.L65:
 1263              		.loc 7 426 0
 1264 0026 039B     		ldr	r3, [sp, #12]
 1265 0028 2433     		adds	r3, r3, #36
 1266 002a 1846     		mov	r0, r3
 1267 002c FFF7FEFF 		bl	list_notempty
 1268 0030 0346     		mov	r3, r0
 1269 0032 002B     		cmp	r3, #0
 1270 0034 EED1     		bne	.L66
 1271              		.loc 7 433 0
 1272 0036 039B     		ldr	r3, [sp, #12]
 1273 0038 5B7F     		ldrb	r3, [r3, #29]	@ zero_extendqisi2
 1274 003a 03F00303 		and	r3, r3, #3
 1275 003e 002B     		cmp	r3, #0
 1276 0040 09D1     		bne	.L67
 1277              		.loc 7 434 0
ARM GAS  /tmp/cczVTum7.s 			page 24


 1278 0042 039B     		ldr	r3, [sp, #12]
 1279 0044 5B69     		ldr	r3, [r3, #20]
 1280 0046 039A     		ldr	r2, [sp, #12]
 1281 0048 1269     		ldr	r2, [r2, #16]
 1282 004a 1A61     		str	r2, [r3, #16]
 1283 004c 039B     		ldr	r3, [sp, #12]
 1284 004e 1B69     		ldr	r3, [r3, #16]
 1285 0050 039A     		ldr	r2, [sp, #12]
 1286 0052 5269     		ldr	r2, [r2, #20]
 1287 0054 5A61     		str	r2, [r3, #20]
 1288              	.L67:
 1289              		.loc 7 437 0
 1290 0056 0F20     		movs	r0, #15
 1291 0058 FFF7FEFF 		bl	chSchGoSleepS
 1292              		.loc 7 441 0
 1293 005c 05B0     		add	sp, sp, #20
 1294              		.cfi_def_cfa_offset 4
 1295              		@ sp needed
 1296 005e 5DF804FB 		ldr	pc, [sp], #4
 1297              	.L69:
 1298 0062 00BF     		.align	2
 1299              	.L68:
 1300 0064 00000000 		.word	ch
 1301              		.cfi_endproc
 1302              	.LFE227:
 1303              		.size	chThdExitS, .-chThdExitS
 1304 0068 AFF30080 		.section	.text.chThdWait,"ax",%progbits
 1304      AFF30080 
 1305              		.align	2
 1306              		.p2align 4,,15
 1307              		.global	chThdWait
 1308              		.thumb
 1309              		.thumb_func
 1310              		.type	chThdWait, %function
 1311              	chThdWait:
 1312              	.LFB228:
 1313              		.loc 7 475 0
 1314              		.cfi_startproc
 1315              		@ args = 0, pretend = 0, frame = 16
 1316              		@ frame_needed = 0, uses_anonymous_args = 0
 1317 0000 00B5     		push	{lr}
 1318              		.cfi_def_cfa_offset 4
 1319              		.cfi_offset 14, -4
 1320 0002 85B0     		sub	sp, sp, #20
 1321              		.cfi_def_cfa_offset 24
 1322 0004 0190     		str	r0, [sp, #4]
 1323              		.loc 7 480 0
 1324 0006 FFF7FEFF 		bl	chSysLock
 1325              		.loc 7 485 0
 1326 000a 019B     		ldr	r3, [sp, #4]
 1327 000c 1B7F     		ldrb	r3, [r3, #28]	@ zero_extendqisi2
 1328 000e 0F2B     		cmp	r3, #15
 1329 0010 0AD0     		beq	.L71
 1330              		.loc 7 486 0
 1331 0012 0C4B     		ldr	r3, .L73
 1332 0014 9A69     		ldr	r2, [r3, #24]
 1333 0016 019B     		ldr	r3, [sp, #4]
ARM GAS  /tmp/cczVTum7.s 			page 25


 1334 0018 2433     		adds	r3, r3, #36
 1335 001a 1046     		mov	r0, r2
 1336 001c 1946     		mov	r1, r3
 1337 001e FFF7FEFF 		bl	list_insert
 1338              		.loc 7 487 0
 1339 0022 0920     		movs	r0, #9
 1340 0024 FFF7FEFF 		bl	chSchGoSleepS
 1341              	.L71:
 1342              		.loc 7 489 0
 1343 0028 019B     		ldr	r3, [sp, #4]
 1344 002a 1B6A     		ldr	r3, [r3, #32]
 1345 002c 0393     		str	r3, [sp, #12]
 1346              		.loc 7 490 0
 1347 002e FFF7FEFF 		bl	chSysUnlock
 1348              		.loc 7 494 0
 1349 0032 0198     		ldr	r0, [sp, #4]
 1350 0034 FFF7FEFF 		bl	chThdRelease
 1351              		.loc 7 497 0
 1352 0038 039B     		ldr	r3, [sp, #12]
 1353              		.loc 7 498 0
 1354 003a 1846     		mov	r0, r3
 1355 003c 05B0     		add	sp, sp, #20
 1356              		.cfi_def_cfa_offset 4
 1357              		@ sp needed
 1358 003e 5DF804FB 		ldr	pc, [sp], #4
 1359              	.L74:
 1360 0042 00BF     		.align	2
 1361              	.L73:
 1362 0044 00000000 		.word	ch
 1363              		.cfi_endproc
 1364              	.LFE228:
 1365              		.size	chThdWait, .-chThdWait
 1366 0048 AFF30080 		.section	.text.chThdSuspendS,"ax",%progbits
 1366      AFF30080 
 1367              		.align	2
 1368              		.p2align 4,,15
 1369              		.global	chThdSuspendS
 1370              		.thumb
 1371              		.thumb_func
 1372              		.type	chThdSuspendS, %function
 1373              	chThdSuspendS:
 1374              	.LFB229:
 1375              		.loc 7 511 0
 1376              		.cfi_startproc
 1377              		@ args = 0, pretend = 0, frame = 16
 1378              		@ frame_needed = 0, uses_anonymous_args = 0
 1379 0000 00B5     		push	{lr}
 1380              		.cfi_def_cfa_offset 4
 1381              		.cfi_offset 14, -4
 1382 0002 85B0     		sub	sp, sp, #20
 1383              		.cfi_def_cfa_offset 24
 1384 0004 0190     		str	r0, [sp, #4]
 1385              		.loc 7 512 0
 1386 0006 FFF7FEFF 		bl	chThdGetSelfX
 1387 000a 0390     		str	r0, [sp, #12]
 1388              		.loc 7 516 0
 1389 000c 019B     		ldr	r3, [sp, #4]
ARM GAS  /tmp/cczVTum7.s 			page 26


 1390 000e 039A     		ldr	r2, [sp, #12]
 1391 0010 1A60     		str	r2, [r3]
 1392              		.loc 7 517 0
 1393 0012 039B     		ldr	r3, [sp, #12]
 1394 0014 019A     		ldr	r2, [sp, #4]
 1395 0016 1A62     		str	r2, [r3, #32]
 1396              		.loc 7 518 0
 1397 0018 0320     		movs	r0, #3
 1398 001a FFF7FEFF 		bl	chSchGoSleepS
 1399              		.loc 7 520 0
 1400 001e FFF7FEFF 		bl	chThdGetSelfX
 1401 0022 0346     		mov	r3, r0
 1402 0024 1B6A     		ldr	r3, [r3, #32]
 1403              		.loc 7 521 0
 1404 0026 1846     		mov	r0, r3
 1405 0028 05B0     		add	sp, sp, #20
 1406              		.cfi_def_cfa_offset 4
 1407              		@ sp needed
 1408 002a 5DF804FB 		ldr	pc, [sp], #4
 1409              		.cfi_endproc
 1410              	.LFE229:
 1411              		.size	chThdSuspendS, .-chThdSuspendS
 1412 002e 00BF     		.section	.text.chThdSuspendTimeoutS,"ax",%progbits
 1413              		.align	2
 1414              		.p2align 4,,15
 1415              		.global	chThdSuspendTimeoutS
 1416              		.thumb
 1417              		.thumb_func
 1418              		.type	chThdSuspendTimeoutS, %function
 1419              	chThdSuspendTimeoutS:
 1420              	.LFB230:
 1421              		.loc 7 542 0
 1422              		.cfi_startproc
 1423              		@ args = 0, pretend = 0, frame = 16
 1424              		@ frame_needed = 0, uses_anonymous_args = 0
 1425 0000 00B5     		push	{lr}
 1426              		.cfi_def_cfa_offset 4
 1427              		.cfi_offset 14, -4
 1428 0002 85B0     		sub	sp, sp, #20
 1429              		.cfi_def_cfa_offset 24
 1430 0004 0190     		str	r0, [sp, #4]
 1431 0006 0091     		str	r1, [sp]
 1432              		.loc 7 543 0
 1433 0008 FFF7FEFF 		bl	chThdGetSelfX
 1434 000c 0390     		str	r0, [sp, #12]
 1435              		.loc 7 547 0
 1436 000e 009B     		ldr	r3, [sp]
 1437 0010 002B     		cmp	r3, #0
 1438 0012 02D1     		bne	.L78
 1439              		.loc 7 548 0
 1440 0014 4FF0FF33 		mov	r3, #-1
 1441 0018 0AE0     		b	.L79
 1442              	.L78:
 1443              		.loc 7 551 0
 1444 001a 019B     		ldr	r3, [sp, #4]
 1445 001c 039A     		ldr	r2, [sp, #12]
 1446 001e 1A60     		str	r2, [r3]
ARM GAS  /tmp/cczVTum7.s 			page 27


 1447              		.loc 7 552 0
 1448 0020 039B     		ldr	r3, [sp, #12]
 1449 0022 019A     		ldr	r2, [sp, #4]
 1450 0024 1A62     		str	r2, [r3, #32]
 1451              		.loc 7 554 0
 1452 0026 0320     		movs	r0, #3
 1453 0028 0099     		ldr	r1, [sp]
 1454 002a FFF7FEFF 		bl	chSchGoSleepTimeoutS
 1455 002e 0346     		mov	r3, r0
 1456              	.L79:
 1457              		.loc 7 555 0
 1458 0030 1846     		mov	r0, r3
 1459 0032 05B0     		add	sp, sp, #20
 1460              		.cfi_def_cfa_offset 4
 1461              		@ sp needed
 1462 0034 5DF804FB 		ldr	pc, [sp], #4
 1463              		.cfi_endproc
 1464              	.LFE230:
 1465              		.size	chThdSuspendTimeoutS, .-chThdSuspendTimeoutS
 1466 0038 AFF30080 		.section	.text.chThdResumeI,"ax",%progbits
 1466      AFF30080 
 1467              		.align	2
 1468              		.p2align 4,,15
 1469              		.global	chThdResumeI
 1470              		.thumb
 1471              		.thumb_func
 1472              		.type	chThdResumeI, %function
 1473              	chThdResumeI:
 1474              	.LFB231:
 1475              		.loc 7 567 0
 1476              		.cfi_startproc
 1477              		@ args = 0, pretend = 0, frame = 16
 1478              		@ frame_needed = 0, uses_anonymous_args = 0
 1479 0000 00B5     		push	{lr}
 1480              		.cfi_def_cfa_offset 4
 1481              		.cfi_offset 14, -4
 1482 0002 85B0     		sub	sp, sp, #20
 1483              		.cfi_def_cfa_offset 24
 1484 0004 0190     		str	r0, [sp, #4]
 1485 0006 0091     		str	r1, [sp]
 1486              		.loc 7 569 0
 1487 0008 019B     		ldr	r3, [sp, #4]
 1488 000a 1B68     		ldr	r3, [r3]
 1489 000c 002B     		cmp	r3, #0
 1490 000e 0BD0     		beq	.L80
 1491              	.LBB10:
 1492              		.loc 7 570 0
 1493 0010 019B     		ldr	r3, [sp, #4]
 1494 0012 1B68     		ldr	r3, [r3]
 1495 0014 0393     		str	r3, [sp, #12]
 1496              		.loc 7 575 0
 1497 0016 019B     		ldr	r3, [sp, #4]
 1498 0018 0022     		movs	r2, #0
 1499 001a 1A60     		str	r2, [r3]
 1500              		.loc 7 576 0
 1501 001c 039B     		ldr	r3, [sp, #12]
 1502 001e 009A     		ldr	r2, [sp]
ARM GAS  /tmp/cczVTum7.s 			page 28


 1503 0020 1A62     		str	r2, [r3, #32]
 1504              		.loc 7 577 0
 1505 0022 0398     		ldr	r0, [sp, #12]
 1506 0024 FFF7FEFF 		bl	chSchReadyI
 1507              	.L80:
 1508              	.LBE10:
 1509              		.loc 7 579 0
 1510 0028 05B0     		add	sp, sp, #20
 1511              		.cfi_def_cfa_offset 4
 1512              		@ sp needed
 1513 002a 5DF804FB 		ldr	pc, [sp], #4
 1514              		.cfi_endproc
 1515              	.LFE231:
 1516              		.size	chThdResumeI, .-chThdResumeI
 1517 002e 00BF     		.section	.text.chThdResumeS,"ax",%progbits
 1518              		.align	2
 1519              		.p2align 4,,15
 1520              		.global	chThdResumeS
 1521              		.thumb
 1522              		.thumb_func
 1523              		.type	chThdResumeS, %function
 1524              	chThdResumeS:
 1525              	.LFB232:
 1526              		.loc 7 591 0
 1527              		.cfi_startproc
 1528              		@ args = 0, pretend = 0, frame = 16
 1529              		@ frame_needed = 0, uses_anonymous_args = 0
 1530 0000 00B5     		push	{lr}
 1531              		.cfi_def_cfa_offset 4
 1532              		.cfi_offset 14, -4
 1533 0002 85B0     		sub	sp, sp, #20
 1534              		.cfi_def_cfa_offset 24
 1535 0004 0190     		str	r0, [sp, #4]
 1536 0006 0091     		str	r1, [sp]
 1537              		.loc 7 593 0
 1538 0008 019B     		ldr	r3, [sp, #4]
 1539 000a 1B68     		ldr	r3, [r3]
 1540 000c 002B     		cmp	r3, #0
 1541 000e 09D0     		beq	.L82
 1542              	.LBB11:
 1543              		.loc 7 594 0
 1544 0010 019B     		ldr	r3, [sp, #4]
 1545 0012 1B68     		ldr	r3, [r3]
 1546 0014 0393     		str	r3, [sp, #12]
 1547              		.loc 7 599 0
 1548 0016 019B     		ldr	r3, [sp, #4]
 1549 0018 0022     		movs	r2, #0
 1550 001a 1A60     		str	r2, [r3]
 1551              		.loc 7 600 0
 1552 001c 0398     		ldr	r0, [sp, #12]
 1553 001e 0099     		ldr	r1, [sp]
 1554 0020 FFF7FEFF 		bl	chSchWakeupS
 1555              	.L82:
 1556              	.LBE11:
 1557              		.loc 7 602 0
 1558 0024 05B0     		add	sp, sp, #20
 1559              		.cfi_def_cfa_offset 4
ARM GAS  /tmp/cczVTum7.s 			page 29


 1560              		@ sp needed
 1561 0026 5DF804FB 		ldr	pc, [sp], #4
 1562              		.cfi_endproc
 1563              	.LFE232:
 1564              		.size	chThdResumeS, .-chThdResumeS
 1565 002a 00BFAFF3 		.section	.text.chThdResume,"ax",%progbits
 1565      0080
 1566              		.align	2
 1567              		.p2align 4,,15
 1568              		.global	chThdResume
 1569              		.thumb
 1570              		.thumb_func
 1571              		.type	chThdResume, %function
 1572              	chThdResume:
 1573              	.LFB233:
 1574              		.loc 7 614 0
 1575              		.cfi_startproc
 1576              		@ args = 0, pretend = 0, frame = 8
 1577              		@ frame_needed = 0, uses_anonymous_args = 0
 1578 0000 00B5     		push	{lr}
 1579              		.cfi_def_cfa_offset 4
 1580              		.cfi_offset 14, -4
 1581 0002 83B0     		sub	sp, sp, #12
 1582              		.cfi_def_cfa_offset 16
 1583 0004 0190     		str	r0, [sp, #4]
 1584 0006 0091     		str	r1, [sp]
 1585              		.loc 7 616 0
 1586 0008 FFF7FEFF 		bl	chSysLock
 1587              		.loc 7 617 0
 1588 000c 0198     		ldr	r0, [sp, #4]
 1589 000e 0099     		ldr	r1, [sp]
 1590 0010 FFF7FEFF 		bl	chThdResumeS
 1591              		.loc 7 618 0
 1592 0014 FFF7FEFF 		bl	chSysUnlock
 1593              		.loc 7 619 0
 1594 0018 03B0     		add	sp, sp, #12
 1595              		.cfi_def_cfa_offset 4
 1596              		@ sp needed
 1597 001a 5DF804FB 		ldr	pc, [sp], #4
 1598              		.cfi_endproc
 1599              	.LFE233:
 1600              		.size	chThdResume, .-chThdResume
 1601 001e 00BF     		.section	.text.chThdEnqueueTimeoutS,"ax",%progbits
 1602              		.align	2
 1603              		.p2align 4,,15
 1604              		.global	chThdEnqueueTimeoutS
 1605              		.thumb
 1606              		.thumb_func
 1607              		.type	chThdEnqueueTimeoutS, %function
 1608              	chThdEnqueueTimeoutS:
 1609              	.LFB234:
 1610              		.loc 7 644 0
 1611              		.cfi_startproc
 1612              		@ args = 0, pretend = 0, frame = 8
 1613              		@ frame_needed = 0, uses_anonymous_args = 0
 1614 0000 00B5     		push	{lr}
 1615              		.cfi_def_cfa_offset 4
ARM GAS  /tmp/cczVTum7.s 			page 30


 1616              		.cfi_offset 14, -4
 1617 0002 83B0     		sub	sp, sp, #12
 1618              		.cfi_def_cfa_offset 16
 1619 0004 0190     		str	r0, [sp, #4]
 1620 0006 0091     		str	r1, [sp]
 1621              		.loc 7 646 0
 1622 0008 009B     		ldr	r3, [sp]
 1623 000a 002B     		cmp	r3, #0
 1624 000c 02D1     		bne	.L86
 1625              		.loc 7 647 0
 1626 000e 4FF0FF33 		mov	r3, #-1
 1627 0012 0AE0     		b	.L87
 1628              	.L86:
 1629              		.loc 7 650 0
 1630 0014 074B     		ldr	r3, .L88
 1631 0016 9B69     		ldr	r3, [r3, #24]
 1632 0018 1846     		mov	r0, r3
 1633 001a 0199     		ldr	r1, [sp, #4]
 1634 001c FFF7FEFF 		bl	queue_insert
 1635              		.loc 7 652 0
 1636 0020 0420     		movs	r0, #4
 1637 0022 0099     		ldr	r1, [sp]
 1638 0024 FFF7FEFF 		bl	chSchGoSleepTimeoutS
 1639 0028 0346     		mov	r3, r0
 1640              	.L87:
 1641              		.loc 7 653 0
 1642 002a 1846     		mov	r0, r3
 1643 002c 03B0     		add	sp, sp, #12
 1644              		.cfi_def_cfa_offset 4
 1645              		@ sp needed
 1646 002e 5DF804FB 		ldr	pc, [sp], #4
 1647              	.L89:
 1648 0032 00BF     		.align	2
 1649              	.L88:
 1650 0034 00000000 		.word	ch
 1651              		.cfi_endproc
 1652              	.LFE234:
 1653              		.size	chThdEnqueueTimeoutS, .-chThdEnqueueTimeoutS
 1654 0038 AFF30080 		.section	.text.chThdDequeueNextI,"ax",%progbits
 1654      AFF30080 
 1655              		.align	2
 1656              		.p2align 4,,15
 1657              		.global	chThdDequeueNextI
 1658              		.thumb
 1659              		.thumb_func
 1660              		.type	chThdDequeueNextI, %function
 1661              	chThdDequeueNextI:
 1662              	.LFB235:
 1663              		.loc 7 664 0
 1664              		.cfi_startproc
 1665              		@ args = 0, pretend = 0, frame = 8
 1666              		@ frame_needed = 0, uses_anonymous_args = 0
 1667 0000 00B5     		push	{lr}
 1668              		.cfi_def_cfa_offset 4
 1669              		.cfi_offset 14, -4
 1670 0002 83B0     		sub	sp, sp, #12
 1671              		.cfi_def_cfa_offset 16
ARM GAS  /tmp/cczVTum7.s 			page 31


 1672 0004 0190     		str	r0, [sp, #4]
 1673 0006 0091     		str	r1, [sp]
 1674              		.loc 7 666 0
 1675 0008 0198     		ldr	r0, [sp, #4]
 1676 000a FFF7FEFF 		bl	queue_notempty
 1677 000e 0346     		mov	r3, r0
 1678 0010 002B     		cmp	r3, #0
 1679 0012 03D0     		beq	.L90
 1680              		.loc 7 667 0
 1681 0014 0198     		ldr	r0, [sp, #4]
 1682 0016 0099     		ldr	r1, [sp]
 1683 0018 FFF7FEFF 		bl	chThdDoDequeueNextI
 1684              	.L90:
 1685              		.loc 7 669 0
 1686 001c 03B0     		add	sp, sp, #12
 1687              		.cfi_def_cfa_offset 4
 1688              		@ sp needed
 1689 001e 5DF804FB 		ldr	pc, [sp], #4
 1690              		.cfi_endproc
 1691              	.LFE235:
 1692              		.size	chThdDequeueNextI, .-chThdDequeueNextI
 1693 0022 00BFAFF3 		.section	.text.chThdDequeueAllI,"ax",%progbits
 1693      0080AFF3 
 1693      0080AFF3 
 1693      0080
 1694              		.align	2
 1695              		.p2align 4,,15
 1696              		.global	chThdDequeueAllI
 1697              		.thumb
 1698              		.thumb_func
 1699              		.type	chThdDequeueAllI, %function
 1700              	chThdDequeueAllI:
 1701              	.LFB236:
 1702              		.loc 7 679 0
 1703              		.cfi_startproc
 1704              		@ args = 0, pretend = 0, frame = 8
 1705              		@ frame_needed = 0, uses_anonymous_args = 0
 1706 0000 00B5     		push	{lr}
 1707              		.cfi_def_cfa_offset 4
 1708              		.cfi_offset 14, -4
 1709 0002 83B0     		sub	sp, sp, #12
 1710              		.cfi_def_cfa_offset 16
 1711 0004 0190     		str	r0, [sp, #4]
 1712 0006 0091     		str	r1, [sp]
 1713              		.loc 7 681 0
 1714 0008 03E0     		b	.L93
 1715              	.L94:
 1716              		.loc 7 682 0
 1717 000a 0198     		ldr	r0, [sp, #4]
 1718 000c 0099     		ldr	r1, [sp]
 1719 000e FFF7FEFF 		bl	chThdDoDequeueNextI
 1720              	.L93:
 1721              		.loc 7 681 0
 1722 0012 0198     		ldr	r0, [sp, #4]
 1723 0014 FFF7FEFF 		bl	queue_notempty
 1724 0018 0346     		mov	r3, r0
 1725 001a 002B     		cmp	r3, #0
ARM GAS  /tmp/cczVTum7.s 			page 32


 1726 001c F5D1     		bne	.L94
 1727              		.loc 7 684 0
 1728 001e 03B0     		add	sp, sp, #12
 1729              		.cfi_def_cfa_offset 4
 1730              		@ sp needed
 1731 0020 5DF804FB 		ldr	pc, [sp], #4
 1732              		.cfi_endproc
 1733              	.LFE236:
 1734              		.size	chThdDequeueAllI, .-chThdDequeueAllI
 1735 0024 AFF30080 		.text
 1735      AFF30080 
 1735      AFF30080 
 1736              	.Letext0:
 1737              		.file 8 "/opt/gcc-arm-none-eabi/lib/gcc/arm-none-eabi/4.9.3/include/stddef.h"
 1738              		.file 9 "/opt/gcc-arm-none-eabi/arm-none-eabi/include/machine/_default_types.h"
 1739              		.file 10 "/opt/gcc-arm-none-eabi/arm-none-eabi/include/stdint.h"
 1740              		.file 11 "/home/makkmarci/workspace/CLEAN/ChibiOS/os/rt/ports/ARMCMx/compilers/GCC/chtypes.h"
 1741              		.file 12 "/home/makkmarci/workspace/CLEAN/ChibiOS/os/rt/include/chsystypes.h"
 1742              		.file 13 "/home/makkmarci/workspace/CLEAN/ChibiOS/os/rt/ports/ARMCMx/chcore.h"
 1743              		.file 14 "/home/makkmarci/workspace/CLEAN/ChibiOS/os/rt/include/chtm.h"
 1744              		.file 15 "/home/makkmarci/workspace/CLEAN/ChibiOS/os/rt/include/chsem.h"
 1745              		.file 16 "/home/makkmarci/workspace/CLEAN/ChibiOS/os/rt/include/chmtx.h"
 1746              		.file 17 "/home/makkmarci/workspace/CLEAN/ChibiOS/os/ext/CMSIS/include/core_cm4.h"