ARM GAS  /tmp/ccscP3b9.s 			page 1


   1              		.syntax unified
   2              		.cpu cortex-m4
   3              		.eabi_attribute 27, 1
   4              		.eabi_attribute 28, 1
   5              		.fpu fpv4-sp-d16
   6              		.eabi_attribute 20, 1
   7              		.eabi_attribute 21, 1
   8              		.eabi_attribute 23, 3
   9              		.eabi_attribute 24, 1
  10              		.eabi_attribute 25, 1
  11              		.eabi_attribute 26, 1
  12              		.eabi_attribute 30, 6
  13              		.eabi_attribute 34, 1
  14              		.eabi_attribute 18, 4
  15              		.thumb
  16              		.file	"chtm.c"
  17              		.text
  18              	.Ltext0:
  19              		.cfi_sections	.debug_frame
  20              		.section	.text.port_rt_get_counter_value,"ax",%progbits
  21              		.align	2
  22              		.p2align 4,,15
  23              		.thumb
  24              		.thumb_func
  25              		.type	port_rt_get_counter_value, %function
  26              	port_rt_get_counter_value:
  27              	.LFB124:
  28              		.file 1 "/home/makkmarci/workspace/CLEAN/ChibiOS/os/rt/ports/ARMCMx/chcore_v7m.h"
  29              		.loc 1 546 0
  30              		.cfi_startproc
  31              		@ args = 0, pretend = 0, frame = 0
  32              		@ frame_needed = 0, uses_anonymous_args = 0
  33              		@ link register save eliminated.
  34              		.loc 1 548 0
  35 0000 014B     		ldr	r3, .L3
  36 0002 5B68     		ldr	r3, [r3, #4]
  37              		.loc 1 549 0
  38 0004 1846     		mov	r0, r3
  39 0006 7047     		bx	lr
  40              	.L4:
  41              		.align	2
  42              	.L3:
  43 0008 001000E0 		.word	-536866816
  44              		.cfi_endproc
  45              	.LFE124:
  46              		.size	port_rt_get_counter_value, .-port_rt_get_counter_value
  47 000c AFF30080 		.section	.text.tm_stop,"ax",%progbits
  48              		.align	2
  49              		.p2align 4,,15
  50              		.thumb
  51              		.thumb_func
  52              		.type	tm_stop, %function
  53              	tm_stop:
  54              	.LFB216:
  55              		.file 2 "/home/makkmarci/workspace/CLEAN/ChibiOS/os/rt/src/chtm.c"
  56              		.loc 2 55 0
  57              		.cfi_startproc
ARM GAS  /tmp/ccscP3b9.s 			page 2


  58              		@ args = 0, pretend = 0, frame = 16
  59              		@ frame_needed = 0, uses_anonymous_args = 0
  60              		@ link register save eliminated.
  61 0000 84B0     		sub	sp, sp, #16
  62              		.cfi_def_cfa_offset 16
  63 0002 0390     		str	r0, [sp, #12]
  64 0004 0291     		str	r1, [sp, #8]
  65 0006 0192     		str	r2, [sp, #4]
  66              		.loc 2 57 0
  67 0008 039B     		ldr	r3, [sp, #12]
  68 000a DB68     		ldr	r3, [r3, #12]
  69 000c 5A1C     		adds	r2, r3, #1
  70 000e 039B     		ldr	r3, [sp, #12]
  71 0010 DA60     		str	r2, [r3, #12]
  72              		.loc 2 58 0
  73 0012 039B     		ldr	r3, [sp, #12]
  74 0014 9B68     		ldr	r3, [r3, #8]
  75 0016 029A     		ldr	r2, [sp, #8]
  76 0018 D21A     		subs	r2, r2, r3
  77 001a 019B     		ldr	r3, [sp, #4]
  78 001c D21A     		subs	r2, r2, r3
  79 001e 039B     		ldr	r3, [sp, #12]
  80 0020 9A60     		str	r2, [r3, #8]
  81              		.loc 2 59 0
  82 0022 039B     		ldr	r3, [sp, #12]
  83 0024 D3E90401 		ldrd	r0, [r3, #16]
  84 0028 039B     		ldr	r3, [sp, #12]
  85 002a 9B68     		ldr	r3, [r3, #8]
  86 002c 1A46     		mov	r2, r3
  87 002e 4FF00003 		mov	r3, #0
  88 0032 1218     		adds	r2, r2, r0
  89 0034 43EB0103 		adc	r3, r3, r1
  90 0038 0399     		ldr	r1, [sp, #12]
  91 003a C1E90423 		strd	r2, [r1, #16]
  92              		.loc 2 61 0
  93 003e 039B     		ldr	r3, [sp, #12]
  94 0040 9A68     		ldr	r2, [r3, #8]
  95 0042 039B     		ldr	r3, [sp, #12]
  96 0044 5B68     		ldr	r3, [r3, #4]
  97 0046 9A42     		cmp	r2, r3
  98 0048 04D9     		bls	.L6
  99              		.loc 2 62 0
 100 004a 039B     		ldr	r3, [sp, #12]
 101 004c 9A68     		ldr	r2, [r3, #8]
 102 004e 039B     		ldr	r3, [sp, #12]
 103 0050 5A60     		str	r2, [r3, #4]
 104 0052 09E0     		b	.L5
 105              	.L6:
 106              		.loc 2 64 0
 107 0054 039B     		ldr	r3, [sp, #12]
 108 0056 9A68     		ldr	r2, [r3, #8]
 109 0058 039B     		ldr	r3, [sp, #12]
 110 005a 1B68     		ldr	r3, [r3]
 111 005c 9A42     		cmp	r2, r3
 112 005e 03D2     		bcs	.L5
 113              		.loc 2 65 0
 114 0060 039B     		ldr	r3, [sp, #12]
ARM GAS  /tmp/ccscP3b9.s 			page 3


 115 0062 9A68     		ldr	r2, [r3, #8]
 116 0064 039B     		ldr	r3, [sp, #12]
 117 0066 1A60     		str	r2, [r3]
 118              	.L5:
 119              		.loc 2 68 0
 120 0068 04B0     		add	sp, sp, #16
 121              		.cfi_def_cfa_offset 0
 122              		@ sp needed
 123 006a 7047     		bx	lr
 124              		.cfi_endproc
 125              	.LFE216:
 126              		.size	tm_stop, .-tm_stop
 127 006c AFF30080 		.section	.text._tm_init,"ax",%progbits
 128              		.align	2
 129              		.p2align 4,,15
 130              		.global	_tm_init
 131              		.thumb
 132              		.thumb_func
 133              		.type	_tm_init, %function
 134              	_tm_init:
 135              	.LFB217:
 136              		.loc 2 79 0
 137              		.cfi_startproc
 138              		@ args = 0, pretend = 0, frame = 24
 139              		@ frame_needed = 0, uses_anonymous_args = 0
 140 0000 00B5     		push	{lr}
 141              		.cfi_def_cfa_offset 4
 142              		.cfi_offset 14, -4
 143 0002 87B0     		sub	sp, sp, #28
 144              		.cfi_def_cfa_offset 32
 145              		.loc 2 85 0
 146 0004 0A4B     		ldr	r3, .L9
 147 0006 0022     		movs	r2, #0
 148 0008 5A67     		str	r2, [r3, #116]
 149              		.loc 2 86 0
 150 000a 6B46     		mov	r3, sp
 151 000c 1846     		mov	r0, r3
 152 000e FFF7FEFF 		bl	chTMObjectInit
 153              		.loc 2 87 0
 154 0012 6B46     		mov	r3, sp
 155 0014 1846     		mov	r0, r3
 156 0016 FFF7FEFF 		bl	chTMStartMeasurementX
 157              		.loc 2 88 0
 158 001a 6B46     		mov	r3, sp
 159 001c 1846     		mov	r0, r3
 160 001e FFF7FEFF 		bl	chTMStopMeasurementX
 161              		.loc 2 89 0
 162 0022 029B     		ldr	r3, [sp, #8]
 163 0024 024A     		ldr	r2, .L9
 164 0026 5367     		str	r3, [r2, #116]
 165              		.loc 2 90 0
 166 0028 07B0     		add	sp, sp, #28
 167              		.cfi_def_cfa_offset 4
 168              		@ sp needed
 169 002a 5DF804FB 		ldr	pc, [sp], #4
 170              	.L10:
 171 002e 00BF     		.align	2
ARM GAS  /tmp/ccscP3b9.s 			page 4


 172              	.L9:
 173 0030 00000000 		.word	ch
 174              		.cfi_endproc
 175              	.LFE217:
 176              		.size	_tm_init, .-_tm_init
 177 0034 AFF30080 		.section	.text.chTMObjectInit,"ax",%progbits
 177      AFF30080 
 177      AFF30080 
 178              		.align	2
 179              		.p2align 4,,15
 180              		.global	chTMObjectInit
 181              		.thumb
 182              		.thumb_func
 183              		.type	chTMObjectInit, %function
 184              	chTMObjectInit:
 185              	.LFB218:
 186              		.loc 2 99 0
 187              		.cfi_startproc
 188              		@ args = 0, pretend = 0, frame = 8
 189              		@ frame_needed = 0, uses_anonymous_args = 0
 190              		@ link register save eliminated.
 191 0000 82B0     		sub	sp, sp, #8
 192              		.cfi_def_cfa_offset 8
 193 0002 0190     		str	r0, [sp, #4]
 194              		.loc 2 101 0
 195 0004 019B     		ldr	r3, [sp, #4]
 196 0006 4FF0FF32 		mov	r2, #-1
 197 000a 1A60     		str	r2, [r3]
 198              		.loc 2 102 0
 199 000c 019B     		ldr	r3, [sp, #4]
 200 000e 0022     		movs	r2, #0
 201 0010 5A60     		str	r2, [r3, #4]
 202              		.loc 2 103 0
 203 0012 019B     		ldr	r3, [sp, #4]
 204 0014 0022     		movs	r2, #0
 205 0016 9A60     		str	r2, [r3, #8]
 206              		.loc 2 104 0
 207 0018 019B     		ldr	r3, [sp, #4]
 208 001a 0022     		movs	r2, #0
 209 001c DA60     		str	r2, [r3, #12]
 210              		.loc 2 105 0
 211 001e 0199     		ldr	r1, [sp, #4]
 212 0020 4FF00002 		mov	r2, #0
 213 0024 4FF00003 		mov	r3, #0
 214 0028 C1E90423 		strd	r2, [r1, #16]
 215              		.loc 2 106 0
 216 002c 02B0     		add	sp, sp, #8
 217              		.cfi_def_cfa_offset 0
 218              		@ sp needed
 219 002e 7047     		bx	lr
 220              		.cfi_endproc
 221              	.LFE218:
 222              		.size	chTMObjectInit, .-chTMObjectInit
 223              		.section	.text.chTMStartMeasurementX,"ax",%progbits
 224              		.align	2
 225              		.p2align 4,,15
 226              		.global	chTMStartMeasurementX
ARM GAS  /tmp/ccscP3b9.s 			page 5


 227              		.thumb
 228              		.thumb_func
 229              		.type	chTMStartMeasurementX, %function
 230              	chTMStartMeasurementX:
 231              	.LFB219:
 232              		.loc 2 116 0
 233              		.cfi_startproc
 234              		@ args = 0, pretend = 0, frame = 8
 235              		@ frame_needed = 0, uses_anonymous_args = 0
 236 0000 00B5     		push	{lr}
 237              		.cfi_def_cfa_offset 4
 238              		.cfi_offset 14, -4
 239 0002 83B0     		sub	sp, sp, #12
 240              		.cfi_def_cfa_offset 16
 241 0004 0190     		str	r0, [sp, #4]
 242              		.loc 2 118 0
 243 0006 FFF7FEFF 		bl	port_rt_get_counter_value
 244 000a 0246     		mov	r2, r0
 245 000c 019B     		ldr	r3, [sp, #4]
 246 000e 9A60     		str	r2, [r3, #8]
 247              		.loc 2 119 0
 248 0010 03B0     		add	sp, sp, #12
 249              		.cfi_def_cfa_offset 4
 250              		@ sp needed
 251 0012 5DF804FB 		ldr	pc, [sp], #4
 252              		.cfi_endproc
 253              	.LFE219:
 254              		.size	chTMStartMeasurementX, .-chTMStartMeasurementX
 255 0016 00BFAFF3 		.section	.text.chTMStopMeasurementX,"ax",%progbits
 255      0080AFF3 
 255      0080
 256              		.align	2
 257              		.p2align 4,,15
 258              		.global	chTMStopMeasurementX
 259              		.thumb
 260              		.thumb_func
 261              		.type	chTMStopMeasurementX, %function
 262              	chTMStopMeasurementX:
 263              	.LFB220:
 264              		.loc 2 129 0
 265              		.cfi_startproc
 266              		@ args = 0, pretend = 0, frame = 8
 267              		@ frame_needed = 0, uses_anonymous_args = 0
 268 0000 00B5     		push	{lr}
 269              		.cfi_def_cfa_offset 4
 270              		.cfi_offset 14, -4
 271 0002 83B0     		sub	sp, sp, #12
 272              		.cfi_def_cfa_offset 16
 273 0004 0190     		str	r0, [sp, #4]
 274              		.loc 2 131 0
 275 0006 FFF7FEFF 		bl	port_rt_get_counter_value
 276 000a 0246     		mov	r2, r0
 277 000c 044B     		ldr	r3, .L14
 278 000e 5B6F     		ldr	r3, [r3, #116]
 279 0010 0198     		ldr	r0, [sp, #4]
 280 0012 1146     		mov	r1, r2
 281 0014 1A46     		mov	r2, r3
ARM GAS  /tmp/ccscP3b9.s 			page 6


 282 0016 FFF7FEFF 		bl	tm_stop
 283              		.loc 2 132 0
 284 001a 03B0     		add	sp, sp, #12
 285              		.cfi_def_cfa_offset 4
 286              		@ sp needed
 287 001c 5DF804FB 		ldr	pc, [sp], #4
 288              	.L15:
 289              		.align	2
 290              	.L14:
 291 0020 00000000 		.word	ch
 292              		.cfi_endproc
 293              	.LFE220:
 294              		.size	chTMStopMeasurementX, .-chTMStopMeasurementX
 295 0024 AFF30080 		.section	.text.chTMChainMeasurementToX,"ax",%progbits
 295      AFF30080 
 295      AFF30080 
 296              		.align	2
 297              		.p2align 4,,15
 298              		.global	chTMChainMeasurementToX
 299              		.thumb
 300              		.thumb_func
 301              		.type	chTMChainMeasurementToX, %function
 302              	chTMChainMeasurementToX:
 303              	.LFB221:
 304              		.loc 2 147 0
 305              		.cfi_startproc
 306              		@ args = 0, pretend = 0, frame = 8
 307              		@ frame_needed = 0, uses_anonymous_args = 0
 308 0000 00B5     		push	{lr}
 309              		.cfi_def_cfa_offset 4
 310              		.cfi_offset 14, -4
 311 0002 83B0     		sub	sp, sp, #12
 312              		.cfi_def_cfa_offset 16
 313 0004 0190     		str	r0, [sp, #4]
 314 0006 0091     		str	r1, [sp]
 315              		.loc 2 150 0
 316 0008 FFF7FEFF 		bl	port_rt_get_counter_value
 317 000c 0246     		mov	r2, r0
 318 000e 009B     		ldr	r3, [sp]
 319 0010 9A60     		str	r2, [r3, #8]
 320              		.loc 2 153 0
 321 0012 009B     		ldr	r3, [sp]
 322 0014 9B68     		ldr	r3, [r3, #8]
 323 0016 0198     		ldr	r0, [sp, #4]
 324 0018 1946     		mov	r1, r3
 325 001a 0022     		movs	r2, #0
 326 001c FFF7FEFF 		bl	tm_stop
 327              		.loc 2 154 0
 328 0020 03B0     		add	sp, sp, #12
 329              		.cfi_def_cfa_offset 4
 330              		@ sp needed
 331 0022 5DF804FB 		ldr	pc, [sp], #4
 332              		.cfi_endproc
 333              	.LFE221:
 334              		.size	chTMChainMeasurementToX, .-chTMChainMeasurementToX
 335 0026 00BFAFF3 		.text
 335      0080AFF3 
ARM GAS  /tmp/ccscP3b9.s 			page 7


 335      0080
 336              	.Letext0:
 337              		.file 3 "/opt/gcc-arm-none-eabi/arm-none-eabi/include/machine/_default_types.h"
 338              		.file 4 "/opt/gcc-arm-none-eabi/arm-none-eabi/include/stdint.h"
 339              		.file 5 "/home/makkmarci/workspace/CLEAN/ChibiOS/os/rt/ports/ARMCMx/compilers/GCC/chtypes.h"
 340              		.file 6 "/home/makkmarci/workspace/CLEAN/ChibiOS/os/rt/include/chsystypes.h"
 341              		.file 7 "/home/makkmarci/workspace/CLEAN/ChibiOS/os/rt/include/chschd.h"
 342              		.file 8 "/home/makkmarci/workspace/CLEAN/ChibiOS/os/ext/CMSIS/include/core_cm4.h"
 343              		.file 9 "/home/makkmarci/workspace/CLEAN/ChibiOS/os/rt/ports/ARMCMx/chcore.h"
 344              		.file 10 "/home/makkmarci/workspace/CLEAN/ChibiOS/os/rt/include/chtm.h"
 345              		.file 11 "/home/makkmarci/workspace/CLEAN/ChibiOS/os/rt/include/chsem.h"
 346              		.file 12 "/home/makkmarci/workspace/CLEAN/ChibiOS/os/rt/include/chmtx.h"