ARM GAS  /tmp/cclGpcc6.s 			page 1


   1              		.syntax unified
   2              		.cpu cortex-m4
   3              		.eabi_attribute 27, 1
   4              		.eabi_attribute 28, 1
   5              		.fpu fpv4-sp-d16
   6              		.eabi_attribute 20, 1
   7              		.eabi_attribute 21, 1
   8              		.eabi_attribute 23, 3
   9              		.eabi_attribute 24, 1
  10              		.eabi_attribute 25, 1
  11              		.eabi_attribute 26, 1
  12              		.eabi_attribute 30, 6
  13              		.eabi_attribute 34, 1
  14              		.eabi_attribute 18, 4
  15              		.thumb
  16              		.file	"chvt.c"
  17              		.text
  18              	.Ltext0:
  19              		.cfi_sections	.debug_frame
  20              		.section	.text._vt_init,"ax",%progbits
  21              		.align	2
  22              		.p2align 4,,15
  23              		.global	_vt_init
  24              		.thumb
  25              		.thumb_func
  26              		.type	_vt_init, %function
  27              	_vt_init:
  28              	.LFB216:
  29              		.file 1 "/home/makkmarci/workspace/CLEAN/ChibiOS/os/rt/src/chvt.c"
  30              		.loc 1 61 0
  31              		.cfi_startproc
  32              		@ args = 0, pretend = 0, frame = 0
  33              		@ frame_needed = 0, uses_anonymous_args = 0
  34              		@ link register save eliminated.
  35              		.loc 1 63 0
  36 0000 064B     		ldr	r3, .L2
  37 0002 074A     		ldr	r2, .L2+4
  38 0004 DA61     		str	r2, [r3, #28]
  39              		.loc 1 64 0
  40 0006 054B     		ldr	r3, .L2
  41 0008 054A     		ldr	r2, .L2+4
  42 000a 1A62     		str	r2, [r3, #32]
  43              		.loc 1 65 0
  44 000c 034B     		ldr	r3, .L2
  45 000e 4FF0FF32 		mov	r2, #-1
  46 0012 5A62     		str	r2, [r3, #36]
  47              		.loc 1 67 0
  48 0014 014B     		ldr	r3, .L2
  49 0016 0022     		movs	r2, #0
  50 0018 9A62     		str	r2, [r3, #40]
  51              		.loc 1 71 0
  52 001a 7047     		bx	lr
  53              	.L3:
  54              		.align	2
  55              	.L2:
  56 001c 00000000 		.word	ch
  57 0020 1C000000 		.word	ch+28
ARM GAS  /tmp/cclGpcc6.s 			page 2


  58              		.cfi_endproc
  59              	.LFE216:
  60              		.size	_vt_init, .-_vt_init
  61 0024 AFF30080 		.section	.text.chVTDoSetI,"ax",%progbits
  61      AFF30080 
  61      AFF30080 
  62              		.align	2
  63              		.p2align 4,,15
  64              		.global	chVTDoSetI
  65              		.thumb
  66              		.thumb_func
  67              		.type	chVTDoSetI, %function
  68              	chVTDoSetI:
  69              	.LFB217:
  70              		.loc 1 96 0
  71              		.cfi_startproc
  72              		@ args = 0, pretend = 0, frame = 24
  73              		@ frame_needed = 0, uses_anonymous_args = 0
  74              		@ link register save eliminated.
  75 0000 86B0     		sub	sp, sp, #24
  76              		.cfi_def_cfa_offset 24
  77 0002 0390     		str	r0, [sp, #12]
  78 0004 0291     		str	r1, [sp, #8]
  79 0006 0192     		str	r2, [sp, #4]
  80 0008 0093     		str	r3, [sp]
  81              		.loc 1 103 0
  82 000a 039B     		ldr	r3, [sp, #12]
  83 000c 009A     		ldr	r2, [sp]
  84 000e 1A61     		str	r2, [r3, #16]
  85              		.loc 1 104 0
  86 0010 039B     		ldr	r3, [sp, #12]
  87 0012 019A     		ldr	r2, [sp, #4]
  88 0014 DA60     		str	r2, [r3, #12]
  89              		.loc 1 145 0
  90 0016 029B     		ldr	r3, [sp, #8]
  91 0018 0493     		str	r3, [sp, #16]
  92              		.loc 1 150 0
  93 001a 174B     		ldr	r3, .L7
  94 001c DB69     		ldr	r3, [r3, #28]
  95 001e 0593     		str	r3, [sp, #20]
  96              		.loc 1 151 0
  97 0020 07E0     		b	.L5
  98              	.L6:
  99              		.loc 1 152 0
 100 0022 059B     		ldr	r3, [sp, #20]
 101 0024 9B68     		ldr	r3, [r3, #8]
 102 0026 049A     		ldr	r2, [sp, #16]
 103 0028 D31A     		subs	r3, r2, r3
 104 002a 0493     		str	r3, [sp, #16]
 105              		.loc 1 153 0
 106 002c 059B     		ldr	r3, [sp, #20]
 107 002e 1B68     		ldr	r3, [r3]
 108 0030 0593     		str	r3, [sp, #20]
 109              	.L5:
 110              		.loc 1 151 0
 111 0032 059B     		ldr	r3, [sp, #20]
 112 0034 9A68     		ldr	r2, [r3, #8]
ARM GAS  /tmp/cclGpcc6.s 			page 3


 113 0036 049B     		ldr	r3, [sp, #16]
 114 0038 9A42     		cmp	r2, r3
 115 003a F2D3     		bcc	.L6
 116              		.loc 1 157 0
 117 003c 039B     		ldr	r3, [sp, #12]
 118 003e 059A     		ldr	r2, [sp, #20]
 119 0040 1A60     		str	r2, [r3]
 120              		.loc 1 158 0
 121 0042 039B     		ldr	r3, [sp, #12]
 122 0044 1B68     		ldr	r3, [r3]
 123 0046 5A68     		ldr	r2, [r3, #4]
 124 0048 039B     		ldr	r3, [sp, #12]
 125 004a 5A60     		str	r2, [r3, #4]
 126              		.loc 1 159 0
 127 004c 039B     		ldr	r3, [sp, #12]
 128 004e 5B68     		ldr	r3, [r3, #4]
 129 0050 039A     		ldr	r2, [sp, #12]
 130 0052 1A60     		str	r2, [r3]
 131              		.loc 1 160 0
 132 0054 059B     		ldr	r3, [sp, #20]
 133 0056 039A     		ldr	r2, [sp, #12]
 134 0058 5A60     		str	r2, [r3, #4]
 135              		.loc 1 161 0
 136 005a 039B     		ldr	r3, [sp, #12]
 137 005c 049A     		ldr	r2, [sp, #16]
 138 005e 9A60     		str	r2, [r3, #8]
 139              		.loc 1 165 0
 140 0060 059B     		ldr	r3, [sp, #20]
 141 0062 9A68     		ldr	r2, [r3, #8]
 142 0064 049B     		ldr	r3, [sp, #16]
 143 0066 D21A     		subs	r2, r2, r3
 144 0068 059B     		ldr	r3, [sp, #20]
 145 006a 9A60     		str	r2, [r3, #8]
 146              		.loc 1 166 0
 147 006c 024B     		ldr	r3, .L7
 148 006e 4FF0FF32 		mov	r2, #-1
 149 0072 5A62     		str	r2, [r3, #36]
 150              		.loc 1 167 0
 151 0074 06B0     		add	sp, sp, #24
 152              		.cfi_def_cfa_offset 0
 153              		@ sp needed
 154 0076 7047     		bx	lr
 155              	.L8:
 156              		.align	2
 157              	.L7:
 158 0078 00000000 		.word	ch
 159              		.cfi_endproc
 160              	.LFE217:
 161              		.size	chVTDoSetI, .-chVTDoSetI
 162 007c AFF30080 		.section	.text.chVTDoResetI,"ax",%progbits
 163              		.align	2
 164              		.p2align 4,,15
 165              		.global	chVTDoResetI
 166              		.thumb
 167              		.thumb_func
 168              		.type	chVTDoResetI, %function
 169              	chVTDoResetI:
ARM GAS  /tmp/cclGpcc6.s 			page 4


 170              	.LFB218:
 171              		.loc 1 177 0
 172              		.cfi_startproc
 173              		@ args = 0, pretend = 0, frame = 8
 174              		@ frame_needed = 0, uses_anonymous_args = 0
 175              		@ link register save eliminated.
 176 0000 82B0     		sub	sp, sp, #8
 177              		.cfi_def_cfa_offset 8
 178 0002 0190     		str	r0, [sp, #4]
 179              		.loc 1 186 0
 180 0004 019B     		ldr	r3, [sp, #4]
 181 0006 1B68     		ldr	r3, [r3]
 182 0008 019A     		ldr	r2, [sp, #4]
 183 000a 1268     		ldr	r2, [r2]
 184 000c 9168     		ldr	r1, [r2, #8]
 185 000e 019A     		ldr	r2, [sp, #4]
 186 0010 9268     		ldr	r2, [r2, #8]
 187 0012 0A44     		add	r2, r2, r1
 188 0014 9A60     		str	r2, [r3, #8]
 189              		.loc 1 189 0
 190 0016 019B     		ldr	r3, [sp, #4]
 191 0018 5B68     		ldr	r3, [r3, #4]
 192 001a 019A     		ldr	r2, [sp, #4]
 193 001c 1268     		ldr	r2, [r2]
 194 001e 1A60     		str	r2, [r3]
 195              		.loc 1 190 0
 196 0020 019B     		ldr	r3, [sp, #4]
 197 0022 1B68     		ldr	r3, [r3]
 198 0024 019A     		ldr	r2, [sp, #4]
 199 0026 5268     		ldr	r2, [r2, #4]
 200 0028 5A60     		str	r2, [r3, #4]
 201              		.loc 1 191 0
 202 002a 019B     		ldr	r3, [sp, #4]
 203 002c 0022     		movs	r2, #0
 204 002e DA60     		str	r2, [r3, #12]
 205              		.loc 1 195 0
 206 0030 024B     		ldr	r3, .L10
 207 0032 4FF0FF32 		mov	r2, #-1
 208 0036 5A62     		str	r2, [r3, #36]
 209              		.loc 1 255 0
 210 0038 02B0     		add	sp, sp, #8
 211              		.cfi_def_cfa_offset 0
 212              		@ sp needed
 213 003a 7047     		bx	lr
 214              	.L11:
 215              		.align	2
 216              	.L10:
 217 003c 00000000 		.word	ch
 218              		.cfi_endproc
 219              	.LFE218:
 220              		.size	chVTDoResetI, .-chVTDoResetI
 221              		.text
 222              	.Letext0:
 223              		.file 2 "/opt/gcc-arm-none-eabi/arm-none-eabi/include/machine/_default_types.h"
 224              		.file 3 "/opt/gcc-arm-none-eabi/arm-none-eabi/include/stdint.h"
 225              		.file 4 "/home/makkmarci/workspace/CLEAN/ChibiOS/os/rt/ports/ARMCMx/compilers/GCC/chtypes.h"
 226              		.file 5 "/home/makkmarci/workspace/CLEAN/ChibiOS/os/rt/include/chsystypes.h"
ARM GAS  /tmp/cclGpcc6.s 			page 5


 227              		.file 6 "/home/makkmarci/workspace/CLEAN/ChibiOS/os/rt/include/chschd.h"
 228              		.file 7 "/home/makkmarci/workspace/CLEAN/ChibiOS/os/rt/ports/ARMCMx/chcore.h"
 229              		.file 8 "/home/makkmarci/workspace/CLEAN/ChibiOS/os/rt/ports/ARMCMx/chcore_v7m.h"
 230              		.file 9 "/home/makkmarci/workspace/CLEAN/ChibiOS/os/rt/include/chtm.h"
 231              		.file 10 "/home/makkmarci/workspace/CLEAN/ChibiOS/os/rt/include/chsem.h"
 232              		.file 11 "/home/makkmarci/workspace/CLEAN/ChibiOS/os/rt/include/chmtx.h"
 233              		.file 12 "/home/makkmarci/workspace/CLEAN/ChibiOS/os/ext/CMSIS/include/core_cm4.h"