ARM GAS  /tmp/ccMJ4WU1.s 			page 1


   1              		.syntax unified
   2              		.cpu cortex-m4
   3              		.eabi_attribute 27, 1
   4              		.eabi_attribute 28, 1
   5              		.fpu fpv4-sp-d16
   6              		.eabi_attribute 20, 1
   7              		.eabi_attribute 21, 1
   8              		.eabi_attribute 23, 3
   9              		.eabi_attribute 24, 1
  10              		.eabi_attribute 25, 1
  11              		.eabi_attribute 26, 1
  12              		.eabi_attribute 30, 6
  13              		.eabi_attribute 34, 1
  14              		.eabi_attribute 18, 4
  15              		.thumb
  16              		.file	"hal_lld.c"
  17              		.text
  18              	.Ltext0:
  19              		.cfi_sections	.debug_frame
  20              		.global	SystemCoreClock
  21              		.section	.data.SystemCoreClock,"aw",%progbits
  22              		.align	2
  23              		.type	SystemCoreClock, %object
  24              		.size	SystemCoreClock, 4
  25              	SystemCoreClock:
  26 0000 007A030A 		.word	168000000
  27              		.section	.text.hal_lld_backup_domain_init,"ax",%progbits
  28              		.align	2
  29              		.p2align 4,,15
  30              		.thumb
  31              		.thumb_func
  32              		.type	hal_lld_backup_domain_init, %function
  33              	hal_lld_backup_domain_init:
  34              	.LFB253:
  35              		.file 1 "/home/makkmarci/workspace/CLEAN/ChibiOS/os/hal/ports/STM32/STM32F4xx/hal_lld.c"
  36              		.loc 1 54 0
  37              		.cfi_startproc
  38              		@ args = 0, pretend = 0, frame = 0
  39              		@ frame_needed = 0, uses_anonymous_args = 0
  40              		@ link register save eliminated.
  41              		.loc 1 57 0
  42 0000 0D4A     		ldr	r2, .L3
  43 0002 0D4B     		ldr	r3, .L3
  44 0004 1B68     		ldr	r3, [r3]
  45 0006 43F48073 		orr	r3, r3, #256
  46 000a 1360     		str	r3, [r2]
  47              		.loc 1 60 0
  48 000c 0B4B     		ldr	r3, .L3+4
  49 000e 1B6F     		ldr	r3, [r3, #112]
  50 0010 03F44073 		and	r3, r3, #768
  51 0014 B3F5007F 		cmp	r3, #512
  52 0018 06D0     		beq	.L2
  53              		.loc 1 62 0
  54 001a 084B     		ldr	r3, .L3+4
  55 001c 4FF48032 		mov	r2, #65536
  56 0020 1A67     		str	r2, [r3, #112]
  57              		.loc 1 63 0
ARM GAS  /tmp/ccMJ4WU1.s 			page 2


  58 0022 064B     		ldr	r3, .L3+4
  59 0024 0022     		movs	r2, #0
  60 0026 1A67     		str	r2, [r3, #112]
  61              	.L2:
  62              		.loc 1 97 0
  63 0028 034A     		ldr	r2, .L3
  64 002a 034B     		ldr	r3, .L3
  65 002c 5B68     		ldr	r3, [r3, #4]
  66 002e 23F40073 		bic	r3, r3, #512
  67 0032 5360     		str	r3, [r2, #4]
  68              		.loc 1 99 0
  69 0034 7047     		bx	lr
  70              	.L4:
  71 0036 00BF     		.align	2
  72              	.L3:
  73 0038 00700040 		.word	1073770496
  74 003c 00380240 		.word	1073887232
  75              		.cfi_endproc
  76              	.LFE253:
  77              		.size	hal_lld_backup_domain_init, .-hal_lld_backup_domain_init
  78              		.section	.text.hal_lld_init,"ax",%progbits
  79              		.align	2
  80              		.p2align 4,,15
  81              		.global	hal_lld_init
  82              		.thumb
  83              		.thumb_func
  84              		.type	hal_lld_init, %function
  85              	hal_lld_init:
  86              	.LFB254:
  87              		.loc 1 114 0
  88              		.cfi_startproc
  89              		@ args = 0, pretend = 0, frame = 0
  90              		@ frame_needed = 0, uses_anonymous_args = 0
  91 0000 08B5     		push	{r3, lr}
  92              		.cfi_def_cfa_offset 8
  93              		.cfi_offset 3, -8
  94              		.cfi_offset 14, -4
  95              		.loc 1 118 0
  96 0002 174B     		ldr	r3, .L6
  97 0004 1B69     		ldr	r3, [r3, #16]
  98 0006 164B     		ldr	r3, .L6
  99 0008 4FF0FF32 		mov	r2, #-1
 100 000c 1A61     		str	r2, [r3, #16]
 101 000e 144B     		ldr	r3, .L6
 102 0010 0022     		movs	r2, #0
 103 0012 1A61     		str	r2, [r3, #16]
 104              		.loc 1 119 0
 105 0014 124B     		ldr	r3, .L6
 106 0016 5B69     		ldr	r3, [r3, #20]
 107 0018 114B     		ldr	r3, .L6
 108 001a 4FF0FF32 		mov	r2, #-1
 109 001e 5A61     		str	r2, [r3, #20]
 110 0020 0F4B     		ldr	r3, .L6
 111 0022 0022     		movs	r2, #0
 112 0024 5A61     		str	r2, [r3, #20]
 113              		.loc 1 120 0
 114 0026 0E4A     		ldr	r2, .L6
ARM GAS  /tmp/ccMJ4WU1.s 			page 3


 115 0028 0D4B     		ldr	r3, .L6
 116 002a 1B6A     		ldr	r3, [r3, #32]
 117 002c 63F08053 		orn	r3, r3, #268435456
 118 0030 1362     		str	r3, [r2, #32]
 119 0032 0B4B     		ldr	r3, .L6
 120 0034 0022     		movs	r2, #0
 121 0036 1A62     		str	r2, [r3, #32]
 122              		.loc 1 121 0
 123 0038 094B     		ldr	r3, .L6
 124 003a 5B6A     		ldr	r3, [r3, #36]
 125 003c 084B     		ldr	r3, .L6
 126 003e 4FF0FF32 		mov	r2, #-1
 127 0042 5A62     		str	r2, [r3, #36]
 128 0044 064B     		ldr	r3, .L6
 129 0046 0022     		movs	r2, #0
 130 0048 5A62     		str	r2, [r3, #36]
 131              		.loc 1 124 0
 132 004a 054A     		ldr	r2, .L6
 133 004c 044B     		ldr	r3, .L6
 134 004e 1B6C     		ldr	r3, [r3, #64]
 135 0050 43F08053 		orr	r3, r3, #268435456
 136 0054 1364     		str	r3, [r2, #64]
 137              		.loc 1 127 0
 138 0056 FFF7FEFF 		bl	hal_lld_backup_domain_init
 139              		.loc 1 130 0
 140 005a FFF7FEFF 		bl	dmaInit
 141              		.loc 1 137 0
 142 005e 08BD     		pop	{r3, pc}
 143              	.L7:
 144              		.align	2
 145              	.L6:
 146 0060 00380240 		.word	1073887232
 147              		.cfi_endproc
 148              	.LFE254:
 149              		.size	hal_lld_init, .-hal_lld_init
 150 0064 AFF30080 		.section	.text.stm32_clock_init,"ax",%progbits
 150      AFF30080 
 150      AFF30080 
 151              		.align	2
 152              		.p2align 4,,15
 153              		.global	stm32_clock_init
 154              		.thumb
 155              		.thumb_func
 156              		.type	stm32_clock_init, %function
 157              	stm32_clock_init:
 158              	.LFB255:
 159              		.loc 1 146 0
 160              		.cfi_startproc
 161              		@ args = 0, pretend = 0, frame = 0
 162              		@ frame_needed = 0, uses_anonymous_args = 0
 163              		@ link register save eliminated.
 164              		.loc 1 150 0
 165 0000 404B     		ldr	r3, .L16
 166 0002 4FF08052 		mov	r2, #268435456
 167 0006 1A64     		str	r2, [r3, #64]
 168              		.loc 1 154 0
 169 0008 3F4B     		ldr	r3, .L16+4
ARM GAS  /tmp/ccMJ4WU1.s 			page 4


 170 000a 4FF44042 		mov	r2, #49152
 171 000e 1A60     		str	r2, [r3]
 172              		.loc 1 161 0
 173 0010 3C4A     		ldr	r2, .L16
 174 0012 3C4B     		ldr	r3, .L16
 175 0014 1B68     		ldr	r3, [r3]
 176 0016 43F00103 		orr	r3, r3, #1
 177 001a 1360     		str	r3, [r2]
 178              		.loc 1 162 0
 179 001c 00BF     		nop
 180              	.L9:
 181              		.loc 1 162 0 is_stmt 0 discriminator 1
 182 001e 394B     		ldr	r3, .L16
 183 0020 1B68     		ldr	r3, [r3]
 184 0022 03F00203 		and	r3, r3, #2
 185 0026 002B     		cmp	r3, #0
 186 0028 F9D0     		beq	.L9
 187              		.loc 1 168 0 is_stmt 1
 188 002a 364A     		ldr	r2, .L16
 189 002c 354B     		ldr	r3, .L16
 190 002e 9B68     		ldr	r3, [r3, #8]
 191 0030 23F00303 		bic	r3, r3, #3
 192 0034 9360     		str	r3, [r2, #8]
 193              		.loc 1 169 0
 194 0036 334A     		ldr	r2, .L16
 195 0038 324B     		ldr	r3, .L16
 196 003a 9B68     		ldr	r3, [r3, #8]
 197 003c 9360     		str	r3, [r2, #8]
 198              		.loc 1 170 0
 199 003e 00BF     		nop
 200              	.L10:
 201              		.loc 1 170 0 is_stmt 0 discriminator 1
 202 0040 304B     		ldr	r3, .L16
 203 0042 9B68     		ldr	r3, [r3, #8]
 204 0044 03F00C03 		and	r3, r3, #12
 205 0048 002B     		cmp	r3, #0
 206 004a F9D1     		bne	.L10
 207              		.loc 1 174 0 is_stmt 1
 208 004c 2D4A     		ldr	r2, .L16
 209 004e 2D4B     		ldr	r3, .L16
 210 0050 1B68     		ldr	r3, [r3]
 211 0052 03F0F903 		and	r3, r3, #249
 212 0056 1360     		str	r3, [r2]
 213              		.loc 1 175 0
 214 0058 2A4B     		ldr	r3, .L16
 215 005a 0022     		movs	r2, #0
 216 005c 9A60     		str	r2, [r3, #8]
 217              		.loc 1 184 0
 218 005e 294A     		ldr	r2, .L16
 219 0060 284B     		ldr	r3, .L16
 220 0062 1B68     		ldr	r3, [r3]
 221 0064 43F48033 		orr	r3, r3, #65536
 222 0068 1360     		str	r3, [r2]
 223              		.loc 1 186 0
 224 006a 00BF     		nop
 225              	.L11:
 226              		.loc 1 186 0 is_stmt 0 discriminator 1
ARM GAS  /tmp/ccMJ4WU1.s 			page 5


 227 006c 254B     		ldr	r3, .L16
 228 006e 1B68     		ldr	r3, [r3]
 229 0070 03F40033 		and	r3, r3, #131072
 230 0074 002B     		cmp	r3, #0
 231 0076 F9D0     		beq	.L11
 232              		.loc 1 192 0 is_stmt 1
 233 0078 224A     		ldr	r2, .L16
 234 007a 224B     		ldr	r3, .L16
 235 007c 5B6F     		ldr	r3, [r3, #116]
 236 007e 43F00103 		orr	r3, r3, #1
 237 0082 5367     		str	r3, [r2, #116]
 238              		.loc 1 193 0
 239 0084 00BF     		nop
 240              	.L12:
 241              		.loc 1 193 0 is_stmt 0 discriminator 1
 242 0086 1F4B     		ldr	r3, .L16
 243 0088 5B6F     		ldr	r3, [r3, #116]
 244 008a 03F00203 		and	r3, r3, #2
 245 008e 002B     		cmp	r3, #0
 246 0090 F9D0     		beq	.L12
 247              		.loc 1 199 0 is_stmt 1
 248 0092 1C4B     		ldr	r3, .L16
 249 0094 1D4A     		ldr	r2, .L16+8
 250 0096 5A60     		str	r2, [r3, #4]
 251              		.loc 1 201 0
 252 0098 1A4A     		ldr	r2, .L16
 253 009a 1A4B     		ldr	r3, .L16
 254 009c 1B68     		ldr	r3, [r3]
 255 009e 43F08073 		orr	r3, r3, #16777216
 256 00a2 1360     		str	r3, [r2]
 257              		.loc 1 205 0
 258 00a4 00BF     		nop
 259              	.L13:
 260              		.loc 1 205 0 is_stmt 0 discriminator 1
 261 00a6 184B     		ldr	r3, .L16+4
 262 00a8 5B68     		ldr	r3, [r3, #4]
 263 00aa 03F48043 		and	r3, r3, #16384
 264 00ae 002B     		cmp	r3, #0
 265 00b0 F9D0     		beq	.L13
 266              		.loc 1 221 0 is_stmt 1
 267 00b2 00BF     		nop
 268              	.L14:
 269              		.loc 1 221 0 is_stmt 0 discriminator 1
 270 00b4 134B     		ldr	r3, .L16
 271 00b6 1B68     		ldr	r3, [r3]
 272 00b8 03F00073 		and	r3, r3, #33554432
 273 00bc 002B     		cmp	r3, #0
 274 00be F9D0     		beq	.L14
 275              		.loc 1 236 0 is_stmt 1
 276 00c0 104B     		ldr	r3, .L16
 277 00c2 134A     		ldr	r2, .L16+12
 278 00c4 9A60     		str	r2, [r3, #8]
 279              		.loc 1 249 0
 280 00c6 134B     		ldr	r3, .L16+16
 281 00c8 40F20572 		movw	r2, #1797
 282 00cc 1A60     		str	r2, [r3]
 283              		.loc 1 255 0
ARM GAS  /tmp/ccMJ4WU1.s 			page 6


 284 00ce 0D4A     		ldr	r2, .L16
 285 00d0 0C4B     		ldr	r3, .L16
 286 00d2 9B68     		ldr	r3, [r3, #8]
 287 00d4 43F00203 		orr	r3, r3, #2
 288 00d8 9360     		str	r3, [r2, #8]
 289              		.loc 1 256 0
 290 00da 00BF     		nop
 291              	.L15:
 292              		.loc 1 256 0 is_stmt 0 discriminator 1
 293 00dc 094B     		ldr	r3, .L16
 294 00de 9B68     		ldr	r3, [r3, #8]
 295 00e0 03F00C03 		and	r3, r3, #12
 296 00e4 082B     		cmp	r3, #8
 297 00e6 F9D1     		bne	.L15
 298              		.loc 1 263 0 is_stmt 1
 299 00e8 064A     		ldr	r2, .L16
 300 00ea 064B     		ldr	r3, .L16
 301 00ec 5B6C     		ldr	r3, [r3, #68]
 302 00ee 43F48043 		orr	r3, r3, #16384
 303 00f2 5364     		str	r3, [r2, #68]
 304 00f4 034A     		ldr	r2, .L16
 305 00f6 034B     		ldr	r3, .L16
 306 00f8 5B6E     		ldr	r3, [r3, #100]
 307 00fa 43F48043 		orr	r3, r3, #16384
 308 00fe 5366     		str	r3, [r2, #100]
 309              		.loc 1 264 0
 310 0100 7047     		bx	lr
 311              	.L17:
 312 0102 00BF     		.align	2
 313              	.L16:
 314 0104 00380240 		.word	1073887232
 315 0108 00700040 		.word	1073770496
 316 010c 08544007 		.word	121656328
 317 0110 00940838 		.word	940086272
 318 0114 003C0240 		.word	1073888256
 319              		.cfi_endproc
 320              	.LFE255:
 321              		.size	stm32_clock_init, .-stm32_clock_init
 322 0118 AFF30080 		.text
 322      AFF30080 
 323              	.Letext0:
 324              		.file 2 "/opt/gcc-arm-none-eabi/lib/gcc/arm-none-eabi/4.9.3/include/stddef.h"
 325              		.file 3 "/opt/gcc-arm-none-eabi/arm-none-eabi/include/machine/_default_types.h"
 326              		.file 4 "/opt/gcc-arm-none-eabi/arm-none-eabi/include/stdint.h"
 327              		.file 5 "/home/makkmarci/workspace/CLEAN/ChibiOS/os/rt/ports/ARMCMx/compilers/GCC/chtypes.h"
 328              		.file 6 "/home/makkmarci/workspace/CLEAN/ChibiOS/os/rt/include/chsystypes.h"
 329              		.file 7 "/home/makkmarci/workspace/CLEAN/ChibiOS/os/rt/include/chschd.h"
 330              		.file 8 "/home/makkmarci/workspace/CLEAN/ChibiOS/os/ext/CMSIS/ST/stm32f407xx.h"
 331              		.file 9 "/home/makkmarci/workspace/CLEAN/ChibiOS/os/rt/ports/ARMCMx/chcore.h"
 332              		.file 10 "/home/makkmarci/workspace/CLEAN/ChibiOS/os/rt/ports/ARMCMx/chcore_v7m.h"
 333              		.file 11 "/home/makkmarci/workspace/CLEAN/ChibiOS/os/rt/include/chtm.h"
 334              		.file 12 "/home/makkmarci/workspace/CLEAN/ChibiOS/os/rt/include/chsem.h"
 335              		.file 13 "/home/makkmarci/workspace/CLEAN/ChibiOS/os/rt/include/chmtx.h"
 336              		.file 14 "/home/makkmarci/workspace/CLEAN/ChibiOS/os/ext/CMSIS/include/core_cm4.h"