ARM GAS  /tmp/ccugOuWN.s 			page 1


   1              		.syntax unified
   2              		.cpu cortex-m4
   3              		.eabi_attribute 27, 1
   4              		.eabi_attribute 28, 1
   5              		.fpu fpv4-sp-d16
   6              		.eabi_attribute 20, 1
   7              		.eabi_attribute 21, 1
   8              		.eabi_attribute 23, 3
   9              		.eabi_attribute 24, 1
  10              		.eabi_attribute 25, 1
  11              		.eabi_attribute 26, 1
  12              		.eabi_attribute 30, 6
  13              		.eabi_attribute 34, 1
  14              		.eabi_attribute 18, 4
  15              		.thumb
  16              		.file	"icu.c"
  17              		.text
  18              	.Ltext0:
  19              		.cfi_sections	.debug_frame
  20              		.section	.text.port_lock,"ax",%progbits
  21              		.align	2
  22              		.p2align 4,,15
  23              		.thumb
  24              		.thumb_func
  25              		.type	port_lock, %function
  26              	port_lock:
  27              	.LFB116:
  28              		.file 1 "/home/makkmarci/workspace/CLEAN/ChibiOS/os/rt/ports/ARMCMx/chcore_v7m.h"
  29              		.loc 1 444 0
  30              		.cfi_startproc
  31              		@ args = 0, pretend = 0, frame = 8
  32              		@ frame_needed = 0, uses_anonymous_args = 0
  33              		@ link register save eliminated.
  34 0000 82B0     		sub	sp, sp, #8
  35              		.cfi_def_cfa_offset 8
  36 0002 2023     		movs	r3, #32
  37 0004 0193     		str	r3, [sp, #4]
  38              	.LBB6:
  39              	.LBB7:
  40              		.file 2 "/home/makkmarci/workspace/CLEAN/ChibiOS/os/ext/CMSIS/include/core_cmFunc.h"
  41              		.loc 2 546 0
  42 0006 019B     		ldr	r3, [sp, #4]
  43              	@ 546 "/home/makkmarci/workspace/CLEAN/ChibiOS/os/ext/CMSIS/include/core_cmFunc.h" 1
  44 0008 83F31188 		MSR basepri, r3
  45              	@ 0 "" 2
  46              		.thumb
  47              	.LBE7:
  48              	.LBE6:
  49              		.loc 1 451 0
  50 000c 02B0     		add	sp, sp, #8
  51              		.cfi_def_cfa_offset 0
  52              		@ sp needed
  53 000e 7047     		bx	lr
  54              		.cfi_endproc
  55              	.LFE116:
  56              		.size	port_lock, .-port_lock
  57              		.section	.text.port_unlock,"ax",%progbits
ARM GAS  /tmp/ccugOuWN.s 			page 2


  58              		.align	2
  59              		.p2align 4,,15
  60              		.thumb
  61              		.thumb_func
  62              		.type	port_unlock, %function
  63              	port_unlock:
  64              	.LFB117:
  65              		.loc 1 458 0
  66              		.cfi_startproc
  67              		@ args = 0, pretend = 0, frame = 8
  68              		@ frame_needed = 0, uses_anonymous_args = 0
  69              		@ link register save eliminated.
  70 0000 82B0     		sub	sp, sp, #8
  71              		.cfi_def_cfa_offset 8
  72 0002 0023     		movs	r3, #0
  73 0004 0193     		str	r3, [sp, #4]
  74              	.LBB8:
  75              	.LBB9:
  76              		.loc 2 546 0
  77 0006 019B     		ldr	r3, [sp, #4]
  78              	@ 546 "/home/makkmarci/workspace/CLEAN/ChibiOS/os/ext/CMSIS/include/core_cmFunc.h" 1
  79 0008 83F31188 		MSR basepri, r3
  80              	@ 0 "" 2
  81              		.thumb
  82              	.LBE9:
  83              	.LBE8:
  84              		.loc 1 465 0
  85 000c 02B0     		add	sp, sp, #8
  86              		.cfi_def_cfa_offset 0
  87              		@ sp needed
  88 000e 7047     		bx	lr
  89              		.cfi_endproc
  90              	.LFE117:
  91              		.size	port_unlock, .-port_unlock
  92              		.section	.text.chSysLock,"ax",%progbits
  93              		.align	2
  94              		.p2align 4,,15
  95              		.thumb
  96              		.thumb_func
  97              		.type	chSysLock, %function
  98              	chSysLock:
  99              	.LFB145:
 100              		.file 3 "/home/makkmarci/workspace/CLEAN/ChibiOS/os/rt/include/chsys.h"
 101              		.loc 3 346 0
 102              		.cfi_startproc
 103              		@ args = 0, pretend = 0, frame = 0
 104              		@ frame_needed = 0, uses_anonymous_args = 0
 105 0000 08B5     		push	{r3, lr}
 106              		.cfi_def_cfa_offset 8
 107              		.cfi_offset 3, -8
 108              		.cfi_offset 14, -4
 109              		.loc 3 348 0
 110 0002 FFF7FEFF 		bl	port_lock
 111              		.loc 3 351 0
 112 0006 08BD     		pop	{r3, pc}
 113              		.cfi_endproc
 114              	.LFE145:
ARM GAS  /tmp/ccugOuWN.s 			page 3


 115              		.size	chSysLock, .-chSysLock
 116              		.section	.text.chSysUnlock,"ax",%progbits
 117              		.align	2
 118              		.p2align 4,,15
 119              		.thumb
 120              		.thumb_func
 121              		.type	chSysUnlock, %function
 122              	chSysUnlock:
 123              	.LFB146:
 124              		.loc 3 358 0
 125              		.cfi_startproc
 126              		@ args = 0, pretend = 0, frame = 0
 127              		@ frame_needed = 0, uses_anonymous_args = 0
 128 0000 08B5     		push	{r3, lr}
 129              		.cfi_def_cfa_offset 8
 130              		.cfi_offset 3, -8
 131              		.cfi_offset 14, -4
 132              		.loc 3 371 0
 133 0002 FFF7FEFF 		bl	port_unlock
 134              		.loc 3 372 0
 135 0006 08BD     		pop	{r3, pc}
 136              		.cfi_endproc
 137              	.LFE146:
 138              		.size	chSysUnlock, .-chSysUnlock
 139 0008 AFF30080 		.section	.text.osalSysLock,"ax",%progbits
 139      AFF30080 
 140              		.align	2
 141              		.p2align 4,,15
 142              		.thumb
 143              		.thumb_func
 144              		.type	osalSysLock, %function
 145              	osalSysLock:
 146              	.LFB220:
 147              		.file 4 "/home/makkmarci/workspace/CLEAN/ChibiOS/os/hal/osal/rt/osal.h"
 148              		.loc 4 445 0
 149              		.cfi_startproc
 150              		@ args = 0, pretend = 0, frame = 0
 151              		@ frame_needed = 0, uses_anonymous_args = 0
 152 0000 08B5     		push	{r3, lr}
 153              		.cfi_def_cfa_offset 8
 154              		.cfi_offset 3, -8
 155              		.cfi_offset 14, -4
 156              		.loc 4 447 0
 157 0002 FFF7FEFF 		bl	chSysLock
 158              		.loc 4 448 0
 159 0006 08BD     		pop	{r3, pc}
 160              		.cfi_endproc
 161              	.LFE220:
 162              		.size	osalSysLock, .-osalSysLock
 163              		.section	.text.osalSysUnlock,"ax",%progbits
 164              		.align	2
 165              		.p2align 4,,15
 166              		.thumb
 167              		.thumb_func
 168              		.type	osalSysUnlock, %function
 169              	osalSysUnlock:
 170              	.LFB221:
ARM GAS  /tmp/ccugOuWN.s 			page 4


 171              		.loc 4 456 0
 172              		.cfi_startproc
 173              		@ args = 0, pretend = 0, frame = 0
 174              		@ frame_needed = 0, uses_anonymous_args = 0
 175 0000 08B5     		push	{r3, lr}
 176              		.cfi_def_cfa_offset 8
 177              		.cfi_offset 3, -8
 178              		.cfi_offset 14, -4
 179              		.loc 4 458 0
 180 0002 FFF7FEFF 		bl	chSysUnlock
 181              		.loc 4 459 0
 182 0006 08BD     		pop	{r3, pc}
 183              		.cfi_endproc
 184              	.LFE221:
 185              		.size	osalSysUnlock, .-osalSysUnlock
 186 0008 AFF30080 		.section	.text.icuInit,"ax",%progbits
 186      AFF30080 
 187              		.align	2
 188              		.p2align 4,,15
 189              		.global	icuInit
 190              		.thumb
 191              		.thumb_func
 192              		.type	icuInit, %function
 193              	icuInit:
 194              	.LFB253:
 195              		.file 5 "/home/makkmarci/workspace/CLEAN/ChibiOS/os/hal/src/icu.c"
 196              		.loc 5 56 0
 197              		.cfi_startproc
 198              		@ args = 0, pretend = 0, frame = 0
 199              		@ frame_needed = 0, uses_anonymous_args = 0
 200 0000 08B5     		push	{r3, lr}
 201              		.cfi_def_cfa_offset 8
 202              		.cfi_offset 3, -8
 203              		.cfi_offset 14, -4
 204              		.loc 5 58 0
 205 0002 FFF7FEFF 		bl	icu_lld_init
 206              		.loc 5 59 0
 207 0006 08BD     		pop	{r3, pc}
 208              		.cfi_endproc
 209              	.LFE253:
 210              		.size	icuInit, .-icuInit
 211 0008 AFF30080 		.section	.text.icuObjectInit,"ax",%progbits
 211      AFF30080 
 212              		.align	2
 213              		.p2align 4,,15
 214              		.global	icuObjectInit
 215              		.thumb
 216              		.thumb_func
 217              		.type	icuObjectInit, %function
 218              	icuObjectInit:
 219              	.LFB254:
 220              		.loc 5 68 0
 221              		.cfi_startproc
 222              		@ args = 0, pretend = 0, frame = 8
 223              		@ frame_needed = 0, uses_anonymous_args = 0
 224              		@ link register save eliminated.
 225 0000 82B0     		sub	sp, sp, #8
ARM GAS  /tmp/ccugOuWN.s 			page 5


 226              		.cfi_def_cfa_offset 8
 227 0002 0190     		str	r0, [sp, #4]
 228              		.loc 5 70 0
 229 0004 019B     		ldr	r3, [sp, #4]
 230 0006 0122     		movs	r2, #1
 231 0008 1A70     		strb	r2, [r3]
 232              		.loc 5 71 0
 233 000a 019B     		ldr	r3, [sp, #4]
 234 000c 0022     		movs	r2, #0
 235 000e 5A60     		str	r2, [r3, #4]
 236              		.loc 5 72 0
 237 0010 02B0     		add	sp, sp, #8
 238              		.cfi_def_cfa_offset 0
 239              		@ sp needed
 240 0012 7047     		bx	lr
 241              		.cfi_endproc
 242              	.LFE254:
 243              		.size	icuObjectInit, .-icuObjectInit
 244 0014 AFF30080 		.section	.text.icuStart,"ax",%progbits
 244      AFF30080 
 244      AFF30080 
 245              		.align	2
 246              		.p2align 4,,15
 247              		.global	icuStart
 248              		.thumb
 249              		.thumb_func
 250              		.type	icuStart, %function
 251              	icuStart:
 252              	.LFB255:
 253              		.loc 5 82 0
 254              		.cfi_startproc
 255              		@ args = 0, pretend = 0, frame = 8
 256              		@ frame_needed = 0, uses_anonymous_args = 0
 257 0000 00B5     		push	{lr}
 258              		.cfi_def_cfa_offset 4
 259              		.cfi_offset 14, -4
 260 0002 83B0     		sub	sp, sp, #12
 261              		.cfi_def_cfa_offset 16
 262 0004 0190     		str	r0, [sp, #4]
 263 0006 0091     		str	r1, [sp]
 264              		.loc 5 86 0
 265 0008 FFF7FEFF 		bl	osalSysLock
 266              		.loc 5 89 0
 267 000c 019B     		ldr	r3, [sp, #4]
 268 000e 009A     		ldr	r2, [sp]
 269 0010 5A60     		str	r2, [r3, #4]
 270              		.loc 5 90 0
 271 0012 0198     		ldr	r0, [sp, #4]
 272 0014 FFF7FEFF 		bl	icu_lld_start
 273              		.loc 5 91 0
 274 0018 019B     		ldr	r3, [sp, #4]
 275 001a 0222     		movs	r2, #2
 276 001c 1A70     		strb	r2, [r3]
 277              		.loc 5 92 0
 278 001e FFF7FEFF 		bl	osalSysUnlock
 279              		.loc 5 93 0
 280 0022 03B0     		add	sp, sp, #12
ARM GAS  /tmp/ccugOuWN.s 			page 6


 281              		.cfi_def_cfa_offset 4
 282              		@ sp needed
 283 0024 5DF804FB 		ldr	pc, [sp], #4
 284              		.cfi_endproc
 285              	.LFE255:
 286              		.size	icuStart, .-icuStart
 287 0028 AFF30080 		.section	.text.icuStop,"ax",%progbits
 287      AFF30080 
 288              		.align	2
 289              		.p2align 4,,15
 290              		.global	icuStop
 291              		.thumb
 292              		.thumb_func
 293              		.type	icuStop, %function
 294              	icuStop:
 295              	.LFB256:
 296              		.loc 5 102 0
 297              		.cfi_startproc
 298              		@ args = 0, pretend = 0, frame = 8
 299              		@ frame_needed = 0, uses_anonymous_args = 0
 300 0000 00B5     		push	{lr}
 301              		.cfi_def_cfa_offset 4
 302              		.cfi_offset 14, -4
 303 0002 83B0     		sub	sp, sp, #12
 304              		.cfi_def_cfa_offset 16
 305 0004 0190     		str	r0, [sp, #4]
 306              		.loc 5 106 0
 307 0006 FFF7FEFF 		bl	osalSysLock
 308              		.loc 5 109 0
 309 000a 0198     		ldr	r0, [sp, #4]
 310 000c FFF7FEFF 		bl	icu_lld_stop
 311              		.loc 5 110 0
 312 0010 019B     		ldr	r3, [sp, #4]
 313 0012 0122     		movs	r2, #1
 314 0014 1A70     		strb	r2, [r3]
 315              		.loc 5 111 0
 316 0016 FFF7FEFF 		bl	osalSysUnlock
 317              		.loc 5 112 0
 318 001a 03B0     		add	sp, sp, #12
 319              		.cfi_def_cfa_offset 4
 320              		@ sp needed
 321 001c 5DF804FB 		ldr	pc, [sp], #4
 322              		.cfi_endproc
 323              	.LFE256:
 324              		.size	icuStop, .-icuStop
 325              		.section	.text.icuStartCapture,"ax",%progbits
 326              		.align	2
 327              		.p2align 4,,15
 328              		.global	icuStartCapture
 329              		.thumb
 330              		.thumb_func
 331              		.type	icuStartCapture, %function
 332              	icuStartCapture:
 333              	.LFB257:
 334              		.loc 5 121 0
 335              		.cfi_startproc
 336              		@ args = 0, pretend = 0, frame = 8
ARM GAS  /tmp/ccugOuWN.s 			page 7


 337              		@ frame_needed = 0, uses_anonymous_args = 0
 338 0000 00B5     		push	{lr}
 339              		.cfi_def_cfa_offset 4
 340              		.cfi_offset 14, -4
 341 0002 83B0     		sub	sp, sp, #12
 342              		.cfi_def_cfa_offset 16
 343 0004 0190     		str	r0, [sp, #4]
 344              		.loc 5 125 0
 345 0006 FFF7FEFF 		bl	osalSysLock
 346              		.loc 5 127 0
 347 000a 0198     		ldr	r0, [sp, #4]
 348 000c FFF7FEFF 		bl	icu_lld_start_capture
 349 0010 019B     		ldr	r3, [sp, #4]
 350 0012 0322     		movs	r2, #3
 351 0014 1A70     		strb	r2, [r3]
 352              		.loc 5 128 0
 353 0016 FFF7FEFF 		bl	osalSysUnlock
 354              		.loc 5 129 0
 355 001a 03B0     		add	sp, sp, #12
 356              		.cfi_def_cfa_offset 4
 357              		@ sp needed
 358 001c 5DF804FB 		ldr	pc, [sp], #4
 359              		.cfi_endproc
 360              	.LFE257:
 361              		.size	icuStartCapture, .-icuStartCapture
 362              		.section	.text.icuWaitCapture,"ax",%progbits
 363              		.align	2
 364              		.p2align 4,,15
 365              		.global	icuWaitCapture
 366              		.thumb
 367              		.thumb_func
 368              		.type	icuWaitCapture, %function
 369              	icuWaitCapture:
 370              	.LFB258:
 371              		.loc 5 147 0
 372              		.cfi_startproc
 373              		@ args = 0, pretend = 0, frame = 16
 374              		@ frame_needed = 0, uses_anonymous_args = 0
 375 0000 00B5     		push	{lr}
 376              		.cfi_def_cfa_offset 4
 377              		.cfi_offset 14, -4
 378 0002 85B0     		sub	sp, sp, #20
 379              		.cfi_def_cfa_offset 24
 380 0004 0190     		str	r0, [sp, #4]
 381              		.loc 5 152 0
 382 0006 FFF7FEFF 		bl	osalSysLock
 383              		.loc 5 157 0
 384 000a 0198     		ldr	r0, [sp, #4]
 385 000c FFF7FEFF 		bl	icu_lld_wait_capture
 386 0010 0346     		mov	r3, r0
 387 0012 8DF80F30 		strb	r3, [sp, #15]
 388              		.loc 5 158 0
 389 0016 9DF80F30 		ldrb	r3, [sp, #15]	@ zero_extendqisi2
 390 001a 002B     		cmp	r3, #0
 391 001c 01D0     		beq	.L13
 392              		.loc 5 158 0 is_stmt 0 discriminator 1
 393 001e 0322     		movs	r2, #3
ARM GAS  /tmp/ccugOuWN.s 			page 8


 394 0020 00E0     		b	.L14
 395              	.L13:
 396              		.loc 5 158 0 discriminator 2
 397 0022 0422     		movs	r2, #4
 398              	.L14:
 399              		.loc 5 158 0 discriminator 4
 400 0024 019B     		ldr	r3, [sp, #4]
 401 0026 1A70     		strb	r2, [r3]
 402              		.loc 5 159 0 is_stmt 1 discriminator 4
 403 0028 FFF7FEFF 		bl	osalSysUnlock
 404              		.loc 5 161 0 discriminator 4
 405 002c 9DF80F30 		ldrb	r3, [sp, #15]	@ zero_extendqisi2
 406              		.loc 5 162 0 discriminator 4
 407 0030 1846     		mov	r0, r3
 408 0032 05B0     		add	sp, sp, #20
 409              		.cfi_def_cfa_offset 4
 410              		@ sp needed
 411 0034 5DF804FB 		ldr	pc, [sp], #4
 412              		.cfi_endproc
 413              	.LFE258:
 414              		.size	icuWaitCapture, .-icuWaitCapture
 415 0038 AFF30080 		.section	.text.icuStopCapture,"ax",%progbits
 415      AFF30080 
 416              		.align	2
 417              		.p2align 4,,15
 418              		.global	icuStopCapture
 419              		.thumb
 420              		.thumb_func
 421              		.type	icuStopCapture, %function
 422              	icuStopCapture:
 423              	.LFB259:
 424              		.loc 5 171 0
 425              		.cfi_startproc
 426              		@ args = 0, pretend = 0, frame = 8
 427              		@ frame_needed = 0, uses_anonymous_args = 0
 428 0000 00B5     		push	{lr}
 429              		.cfi_def_cfa_offset 4
 430              		.cfi_offset 14, -4
 431 0002 83B0     		sub	sp, sp, #12
 432              		.cfi_def_cfa_offset 16
 433 0004 0190     		str	r0, [sp, #4]
 434              		.loc 5 175 0
 435 0006 FFF7FEFF 		bl	osalSysLock
 436              		.loc 5 179 0
 437 000a 0198     		ldr	r0, [sp, #4]
 438 000c FFF7FEFF 		bl	icu_lld_stop_capture
 439 0010 019B     		ldr	r3, [sp, #4]
 440 0012 0222     		movs	r2, #2
 441 0014 1A70     		strb	r2, [r3]
 442              		.loc 5 180 0
 443 0016 FFF7FEFF 		bl	osalSysUnlock
 444              		.loc 5 181 0
 445 001a 03B0     		add	sp, sp, #12
 446              		.cfi_def_cfa_offset 4
 447              		@ sp needed
 448 001c 5DF804FB 		ldr	pc, [sp], #4
 449              		.cfi_endproc
ARM GAS  /tmp/ccugOuWN.s 			page 9


 450              	.LFE259:
 451              		.size	icuStopCapture, .-icuStopCapture
 452              		.section	.text.icuEnableNotifications,"ax",%progbits
 453              		.align	2
 454              		.p2align 4,,15
 455              		.global	icuEnableNotifications
 456              		.thumb
 457              		.thumb_func
 458              		.type	icuEnableNotifications, %function
 459              	icuEnableNotifications:
 460              	.LFB260:
 461              		.loc 5 192 0
 462              		.cfi_startproc
 463              		@ args = 0, pretend = 0, frame = 8
 464              		@ frame_needed = 0, uses_anonymous_args = 0
 465 0000 00B5     		push	{lr}
 466              		.cfi_def_cfa_offset 4
 467              		.cfi_offset 14, -4
 468 0002 83B0     		sub	sp, sp, #12
 469              		.cfi_def_cfa_offset 16
 470 0004 0190     		str	r0, [sp, #4]
 471              		.loc 5 196 0
 472 0006 FFF7FEFF 		bl	osalSysLock
 473              		.loc 5 199 0
 474 000a 0198     		ldr	r0, [sp, #4]
 475 000c FFF7FEFF 		bl	icu_lld_enable_notifications
 476              		.loc 5 200 0
 477 0010 FFF7FEFF 		bl	osalSysUnlock
 478              		.loc 5 201 0
 479 0014 03B0     		add	sp, sp, #12
 480              		.cfi_def_cfa_offset 4
 481              		@ sp needed
 482 0016 5DF804FB 		ldr	pc, [sp], #4
 483              		.cfi_endproc
 484              	.LFE260:
 485              		.size	icuEnableNotifications, .-icuEnableNotifications
 486 001a 00BFAFF3 		.section	.text.icuDisableNotifications,"ax",%progbits
 486      0080
 487              		.align	2
 488              		.p2align 4,,15
 489              		.global	icuDisableNotifications
 490              		.thumb
 491              		.thumb_func
 492              		.type	icuDisableNotifications, %function
 493              	icuDisableNotifications:
 494              	.LFB261:
 495              		.loc 5 212 0
 496              		.cfi_startproc
 497              		@ args = 0, pretend = 0, frame = 8
 498              		@ frame_needed = 0, uses_anonymous_args = 0
 499 0000 00B5     		push	{lr}
 500              		.cfi_def_cfa_offset 4
 501              		.cfi_offset 14, -4
 502 0002 83B0     		sub	sp, sp, #12
 503              		.cfi_def_cfa_offset 16
 504 0004 0190     		str	r0, [sp, #4]
 505              		.loc 5 216 0
ARM GAS  /tmp/ccugOuWN.s 			page 10


 506 0006 FFF7FEFF 		bl	osalSysLock
 507              		.loc 5 219 0
 508 000a 0198     		ldr	r0, [sp, #4]
 509 000c FFF7FEFF 		bl	icu_lld_disable_notifications
 510              		.loc 5 220 0
 511 0010 FFF7FEFF 		bl	osalSysUnlock
 512              		.loc 5 221 0
 513 0014 03B0     		add	sp, sp, #12
 514              		.cfi_def_cfa_offset 4
 515              		@ sp needed
 516 0016 5DF804FB 		ldr	pc, [sp], #4
 517              		.cfi_endproc
 518              	.LFE261:
 519              		.size	icuDisableNotifications, .-icuDisableNotifications
 520 001a 00BFAFF3 		.text
 520      0080
 521              	.Letext0:
 522              		.file 6 "/opt/gcc-arm-none-eabi/arm-none-eabi/include/machine/_default_types.h"
 523              		.file 7 "/opt/gcc-arm-none-eabi/arm-none-eabi/include/stdint.h"
 524              		.file 8 "/home/makkmarci/workspace/CLEAN/ChibiOS/os/rt/ports/ARMCMx/compilers/GCC/chtypes.h"
 525              		.file 9 "/home/makkmarci/workspace/CLEAN/ChibiOS/os/rt/include/chsystypes.h"
 526              		.file 10 "/home/makkmarci/workspace/CLEAN/ChibiOS/os/rt/include/chschd.h"
 527              		.file 11 "/home/makkmarci/workspace/CLEAN/ChibiOS/os/rt/ports/ARMCMx/chcore.h"
 528              		.file 12 "/home/makkmarci/workspace/CLEAN/ChibiOS/os/rt/include/chtm.h"
 529              		.file 13 "/home/makkmarci/workspace/CLEAN/ChibiOS/os/rt/include/chsem.h"
 530              		.file 14 "/home/makkmarci/workspace/CLEAN/ChibiOS/os/rt/include/chmtx.h"
 531              		.file 15 "/home/makkmarci/workspace/CLEAN/ChibiOS/os/hal/include/icu.h"
 532              		.file 16 "/home/makkmarci/workspace/CLEAN/ChibiOS/os/hal/ports/STM32/LLD/TIMv1/icu_lld.h"
 533              		.file 17 "/home/makkmarci/workspace/CLEAN/ChibiOS/os/hal/ports/STM32/LLD/TIMv1/stm32_tim.h"
 534              		.file 18 "/home/makkmarci/workspace/CLEAN/ChibiOS/os/ext/CMSIS/include/core_cm4.h"