ARM GAS  /tmp/cc4ZxXve.s 			page 1


   1              		.syntax unified
   2              		.cpu cortex-m4
   3              		.eabi_attribute 27, 1
   4              		.eabi_attribute 28, 1
   5              		.fpu fpv4-sp-d16
   6              		.eabi_attribute 20, 1
   7              		.eabi_attribute 21, 1
   8              		.eabi_attribute 23, 3
   9              		.eabi_attribute 24, 1
  10              		.eabi_attribute 25, 1
  11              		.eabi_attribute 26, 1
  12              		.eabi_attribute 30, 6
  13              		.eabi_attribute 34, 1
  14              		.eabi_attribute 18, 4
  15              		.thumb
  16              		.file	"icu_lld.c"
  17              		.text
  18              	.Ltext0:
  19              		.cfi_sections	.debug_frame
  20              		.section	.text.port_lock,"ax",%progbits
  21              		.align	2
  22              		.p2align 4,,15
  23              		.thumb
  24              		.thumb_func
  25              		.type	port_lock, %function
  26              	port_lock:
  27              	.LFB116:
  28              		.file 1 "/home/makkmarci/workspace/CLEAN/ChibiOS/os/rt/ports/ARMCMx/chcore_v7m.h"
  29              		.loc 1 444 0
  30              		.cfi_startproc
  31              		@ args = 0, pretend = 0, frame = 8
  32              		@ frame_needed = 0, uses_anonymous_args = 0
  33              		@ link register save eliminated.
  34 0000 82B0     		sub	sp, sp, #8
  35              		.cfi_def_cfa_offset 8
  36 0002 2023     		movs	r3, #32
  37 0004 0193     		str	r3, [sp, #4]
  38              	.LBB6:
  39              	.LBB7:
  40              		.file 2 "/home/makkmarci/workspace/CLEAN/ChibiOS/os/ext/CMSIS/include/core_cmFunc.h"
  41              		.loc 2 546 0
  42 0006 019B     		ldr	r3, [sp, #4]
  43              	@ 546 "/home/makkmarci/workspace/CLEAN/ChibiOS/os/ext/CMSIS/include/core_cmFunc.h" 1
  44 0008 83F31188 		MSR basepri, r3
  45              	@ 0 "" 2
  46              		.thumb
  47              	.LBE7:
  48              	.LBE6:
  49              		.loc 1 451 0
  50 000c 02B0     		add	sp, sp, #8
  51              		.cfi_def_cfa_offset 0
  52              		@ sp needed
  53 000e 7047     		bx	lr
  54              		.cfi_endproc
  55              	.LFE116:
  56              		.size	port_lock, .-port_lock
  57              		.section	.text.port_unlock,"ax",%progbits
ARM GAS  /tmp/cc4ZxXve.s 			page 2


  58              		.align	2
  59              		.p2align 4,,15
  60              		.thumb
  61              		.thumb_func
  62              		.type	port_unlock, %function
  63              	port_unlock:
  64              	.LFB117:
  65              		.loc 1 458 0
  66              		.cfi_startproc
  67              		@ args = 0, pretend = 0, frame = 8
  68              		@ frame_needed = 0, uses_anonymous_args = 0
  69              		@ link register save eliminated.
  70 0000 82B0     		sub	sp, sp, #8
  71              		.cfi_def_cfa_offset 8
  72 0002 0023     		movs	r3, #0
  73 0004 0193     		str	r3, [sp, #4]
  74              	.LBB8:
  75              	.LBB9:
  76              		.loc 2 546 0
  77 0006 019B     		ldr	r3, [sp, #4]
  78              	@ 546 "/home/makkmarci/workspace/CLEAN/ChibiOS/os/ext/CMSIS/include/core_cmFunc.h" 1
  79 0008 83F31188 		MSR basepri, r3
  80              	@ 0 "" 2
  81              		.thumb
  82              	.LBE9:
  83              	.LBE8:
  84              		.loc 1 465 0
  85 000c 02B0     		add	sp, sp, #8
  86              		.cfi_def_cfa_offset 0
  87              		@ sp needed
  88 000e 7047     		bx	lr
  89              		.cfi_endproc
  90              	.LFE117:
  91              		.size	port_unlock, .-port_unlock
  92              		.section	.text.chSysLock,"ax",%progbits
  93              		.align	2
  94              		.p2align 4,,15
  95              		.thumb
  96              		.thumb_func
  97              		.type	chSysLock, %function
  98              	chSysLock:
  99              	.LFB145:
 100              		.file 3 "/home/makkmarci/workspace/CLEAN/ChibiOS/os/rt/include/chsys.h"
 101              		.loc 3 346 0
 102              		.cfi_startproc
 103              		@ args = 0, pretend = 0, frame = 0
 104              		@ frame_needed = 0, uses_anonymous_args = 0
 105 0000 08B5     		push	{r3, lr}
 106              		.cfi_def_cfa_offset 8
 107              		.cfi_offset 3, -8
 108              		.cfi_offset 14, -4
 109              		.loc 3 348 0
 110 0002 FFF7FEFF 		bl	port_lock
 111              		.loc 3 351 0
 112 0006 08BD     		pop	{r3, pc}
 113              		.cfi_endproc
 114              	.LFE145:
ARM GAS  /tmp/cc4ZxXve.s 			page 3


 115              		.size	chSysLock, .-chSysLock
 116              		.section	.text.chSysUnlock,"ax",%progbits
 117              		.align	2
 118              		.p2align 4,,15
 119              		.thumb
 120              		.thumb_func
 121              		.type	chSysUnlock, %function
 122              	chSysUnlock:
 123              	.LFB146:
 124              		.loc 3 358 0
 125              		.cfi_startproc
 126              		@ args = 0, pretend = 0, frame = 0
 127              		@ frame_needed = 0, uses_anonymous_args = 0
 128 0000 08B5     		push	{r3, lr}
 129              		.cfi_def_cfa_offset 8
 130              		.cfi_offset 3, -8
 131              		.cfi_offset 14, -4
 132              		.loc 3 371 0
 133 0002 FFF7FEFF 		bl	port_unlock
 134              		.loc 3 372 0
 135 0006 08BD     		pop	{r3, pc}
 136              		.cfi_endproc
 137              	.LFE146:
 138              		.size	chSysUnlock, .-chSysUnlock
 139              		.global	ICUD2
 140              		.section	.bss.ICUD2,"aw",%nobits
 141              		.align	2
 142              		.type	ICUD2, %object
 143              		.size	ICUD2, 24
 144              	ICUD2:
 145 0000 00000000 		.space	24
 145      00000000 
 145      00000000 
 145      00000000 
 145      00000000 
 146              		.global	ICUD5
 147              		.section	.bss.ICUD5,"aw",%nobits
 148              		.align	2
 149              		.type	ICUD5, %object
 150              		.size	ICUD5, 24
 151              	ICUD5:
 152 0000 00000000 		.space	24
 152      00000000 
 152      00000000 
 152      00000000 
 152      00000000 
 153              		.section	.text.icu_lld_wait_edge,"ax",%progbits
 154              		.align	2
 155              		.p2align 4,,15
 156              		.thumb
 157              		.thumb_func
 158              		.type	icu_lld_wait_edge, %function
 159              	icu_lld_wait_edge:
 160              	.LFB253:
 161              		.file 4 "/home/makkmarci/workspace/CLEAN/ChibiOS/os/hal/ports/STM32/LLD/TIMv1/icu_lld.c"
 162              		.loc 4 105 0
 163              		.cfi_startproc
ARM GAS  /tmp/cc4ZxXve.s 			page 4


 164              		@ args = 0, pretend = 0, frame = 16
 165              		@ frame_needed = 0, uses_anonymous_args = 0
 166 0000 00B5     		push	{lr}
 167              		.cfi_def_cfa_offset 4
 168              		.cfi_offset 14, -4
 169 0002 85B0     		sub	sp, sp, #20
 170              		.cfi_def_cfa_offset 24
 171 0004 0190     		str	r0, [sp, #4]
 172              		.loc 4 111 0
 173 0006 FFF7FEFF 		bl	chSysUnlock
 174              		.loc 4 114 0
 175 000a 019B     		ldr	r3, [sp, #4]
 176 000c 5B68     		ldr	r3, [r3, #4]
 177 000e 1B7D     		ldrb	r3, [r3, #20]	@ zero_extendqisi2
 178 0010 002B     		cmp	r3, #0
 179 0012 0AD1     		bne	.L6
 180              		.loc 4 116 0
 181 0014 00BF     		nop
 182              	.L7:
 183              		.loc 4 116 0 is_stmt 0 discriminator 1
 184 0016 019B     		ldr	r3, [sp, #4]
 185 0018 DB68     		ldr	r3, [r3, #12]
 186 001a 1B69     		ldr	r3, [r3, #16]
 187 001c 0393     		str	r3, [sp, #12]
 188 001e 039B     		ldr	r3, [sp, #12]
 189 0020 03F00303 		and	r3, r3, #3
 190 0024 002B     		cmp	r3, #0
 191 0026 F6D0     		beq	.L7
 192 0028 09E0     		b	.L8
 193              	.L6:
 194              		.loc 4 122 0 is_stmt 1
 195 002a 00BF     		nop
 196              	.L9:
 197              		.loc 4 122 0 is_stmt 0 discriminator 1
 198 002c 019B     		ldr	r3, [sp, #4]
 199 002e DB68     		ldr	r3, [r3, #12]
 200 0030 1B69     		ldr	r3, [r3, #16]
 201 0032 0393     		str	r3, [sp, #12]
 202 0034 039B     		ldr	r3, [sp, #12]
 203 0036 03F00503 		and	r3, r3, #5
 204 003a 002B     		cmp	r3, #0
 205 003c F6D0     		beq	.L9
 206              	.L8:
 207              		.loc 4 128 0 is_stmt 1
 208 003e 039B     		ldr	r3, [sp, #12]
 209 0040 03F00103 		and	r3, r3, #1
 210 0044 002B     		cmp	r3, #0
 211 0046 14BF     		ite	ne
 212 0048 0123     		movne	r3, #1
 213 004a 0023     		moveq	r3, #0
 214 004c 8DF80B30 		strb	r3, [sp, #11]
 215              		.loc 4 131 0
 216 0050 FFF7FEFF 		bl	chSysLock
 217              		.loc 4 134 0
 218 0054 019B     		ldr	r3, [sp, #4]
 219 0056 DB68     		ldr	r3, [r3, #12]
 220 0058 019A     		ldr	r2, [sp, #4]
ARM GAS  /tmp/cc4ZxXve.s 			page 5


 221 005a D268     		ldr	r2, [r2, #12]
 222 005c 1269     		ldr	r2, [r2, #16]
 223 005e 22F00702 		bic	r2, r2, #7
 224 0062 1A61     		str	r2, [r3, #16]
 225              		.loc 4 138 0
 226 0064 9DF80B30 		ldrb	r3, [sp, #11]	@ zero_extendqisi2
 227              		.loc 4 139 0
 228 0068 1846     		mov	r0, r3
 229 006a 05B0     		add	sp, sp, #20
 230              		.cfi_def_cfa_offset 4
 231              		@ sp needed
 232 006c 5DF804FB 		ldr	pc, [sp], #4
 233              		.cfi_endproc
 234              	.LFE253:
 235              		.size	icu_lld_wait_edge, .-icu_lld_wait_edge
 236              		.section	.text.icu_lld_serve_interrupt,"ax",%progbits
 237              		.align	2
 238              		.p2align 4,,15
 239              		.thumb
 240              		.thumb_func
 241              		.type	icu_lld_serve_interrupt, %function
 242              	icu_lld_serve_interrupt:
 243              	.LFB254:
 244              		.loc 4 146 0
 245              		.cfi_startproc
 246              		@ args = 0, pretend = 0, frame = 16
 247              		@ frame_needed = 0, uses_anonymous_args = 0
 248 0000 00B5     		push	{lr}
 249              		.cfi_def_cfa_offset 4
 250              		.cfi_offset 14, -4
 251 0002 85B0     		sub	sp, sp, #20
 252              		.cfi_def_cfa_offset 24
 253 0004 0190     		str	r0, [sp, #4]
 254              		.loc 4 149 0
 255 0006 019B     		ldr	r3, [sp, #4]
 256 0008 DB68     		ldr	r3, [r3, #12]
 257 000a 1B69     		ldr	r3, [r3, #16]
 258 000c 0393     		str	r3, [sp, #12]
 259              		.loc 4 150 0
 260 000e 019B     		ldr	r3, [sp, #4]
 261 0010 DB68     		ldr	r3, [r3, #12]
 262 0012 DB68     		ldr	r3, [r3, #12]
 263 0014 DBB2     		uxtb	r3, r3
 264 0016 039A     		ldr	r2, [sp, #12]
 265 0018 1340     		ands	r3, r3, r2
 266 001a 0393     		str	r3, [sp, #12]
 267              		.loc 4 151 0
 268 001c 019B     		ldr	r3, [sp, #4]
 269 001e DB68     		ldr	r3, [r3, #12]
 270 0020 039A     		ldr	r2, [sp, #12]
 271 0022 D243     		mvns	r2, r2
 272 0024 1A61     		str	r2, [r3, #16]
 273              		.loc 4 152 0
 274 0026 019B     		ldr	r3, [sp, #4]
 275 0028 5B68     		ldr	r3, [r3, #4]
 276 002a 1B7D     		ldrb	r3, [r3, #20]	@ zero_extendqisi2
 277 002c 002B     		cmp	r3, #0
ARM GAS  /tmp/cc4ZxXve.s 			page 6


 278 002e 29D1     		bne	.L12
 279              		.loc 4 153 0
 280 0030 039B     		ldr	r3, [sp, #12]
 281 0032 03F00403 		and	r3, r3, #4
 282 0036 002B     		cmp	r3, #0
 283 0038 0DD0     		beq	.L13
 284              		.loc 4 154 0
 285 003a 019B     		ldr	r3, [sp, #4]
 286 003c 1B78     		ldrb	r3, [r3]	@ zero_extendqisi2
 287 003e 042B     		cmp	r3, #4
 288 0040 09D1     		bne	.L13
 289              		.loc 4 154 0 is_stmt 0 discriminator 1
 290 0042 019B     		ldr	r3, [sp, #4]
 291 0044 5B68     		ldr	r3, [r3, #4]
 292 0046 9B68     		ldr	r3, [r3, #8]
 293 0048 002B     		cmp	r3, #0
 294 004a 04D0     		beq	.L13
 295              		.loc 4 154 0 discriminator 2
 296 004c 019B     		ldr	r3, [sp, #4]
 297 004e 5B68     		ldr	r3, [r3, #4]
 298 0050 9B68     		ldr	r3, [r3, #8]
 299 0052 0198     		ldr	r0, [sp, #4]
 300 0054 9847     		blx	r3
 301              	.L13:
 302              		.loc 4 155 0 is_stmt 1
 303 0056 039B     		ldr	r3, [sp, #12]
 304 0058 03F00203 		and	r3, r3, #2
 305 005c 002B     		cmp	r3, #0
 306 005e 3AD0     		beq	.L16
 307              		.loc 4 156 0
 308 0060 019B     		ldr	r3, [sp, #4]
 309 0062 1B78     		ldrb	r3, [r3]	@ zero_extendqisi2
 310 0064 042B     		cmp	r3, #4
 311 0066 09D1     		bne	.L15
 312              		.loc 4 156 0 is_stmt 0 discriminator 1
 313 0068 019B     		ldr	r3, [sp, #4]
 314 006a 5B68     		ldr	r3, [r3, #4]
 315 006c DB68     		ldr	r3, [r3, #12]
 316 006e 002B     		cmp	r3, #0
 317 0070 04D0     		beq	.L15
 318              		.loc 4 156 0 discriminator 3
 319 0072 019B     		ldr	r3, [sp, #4]
 320 0074 5B68     		ldr	r3, [r3, #4]
 321 0076 DB68     		ldr	r3, [r3, #12]
 322 0078 0198     		ldr	r0, [sp, #4]
 323 007a 9847     		blx	r3
 324              	.L15:
 325              		.loc 4 156 0 discriminator 5
 326 007c 019B     		ldr	r3, [sp, #4]
 327 007e 0422     		movs	r2, #4
 328 0080 1A70     		strb	r2, [r3]
 329 0082 28E0     		b	.L16
 330              	.L12:
 331              		.loc 4 159 0 is_stmt 1
 332 0084 039B     		ldr	r3, [sp, #12]
 333 0086 03F00203 		and	r3, r3, #2
 334 008a 002B     		cmp	r3, #0
ARM GAS  /tmp/cc4ZxXve.s 			page 7


 335 008c 0DD0     		beq	.L17
 336              		.loc 4 160 0
 337 008e 019B     		ldr	r3, [sp, #4]
 338 0090 1B78     		ldrb	r3, [r3]	@ zero_extendqisi2
 339 0092 042B     		cmp	r3, #4
 340 0094 09D1     		bne	.L17
 341              		.loc 4 160 0 is_stmt 0 discriminator 1
 342 0096 019B     		ldr	r3, [sp, #4]
 343 0098 5B68     		ldr	r3, [r3, #4]
 344 009a 9B68     		ldr	r3, [r3, #8]
 345 009c 002B     		cmp	r3, #0
 346 009e 04D0     		beq	.L17
 347              		.loc 4 160 0 discriminator 2
 348 00a0 019B     		ldr	r3, [sp, #4]
 349 00a2 5B68     		ldr	r3, [r3, #4]
 350 00a4 9B68     		ldr	r3, [r3, #8]
 351 00a6 0198     		ldr	r0, [sp, #4]
 352 00a8 9847     		blx	r3
 353              	.L17:
 354              		.loc 4 161 0 is_stmt 1
 355 00aa 039B     		ldr	r3, [sp, #12]
 356 00ac 03F00403 		and	r3, r3, #4
 357 00b0 002B     		cmp	r3, #0
 358 00b2 10D0     		beq	.L16
 359              		.loc 4 162 0
 360 00b4 019B     		ldr	r3, [sp, #4]
 361 00b6 1B78     		ldrb	r3, [r3]	@ zero_extendqisi2
 362 00b8 042B     		cmp	r3, #4
 363 00ba 09D1     		bne	.L18
 364              		.loc 4 162 0 is_stmt 0 discriminator 1
 365 00bc 019B     		ldr	r3, [sp, #4]
 366 00be 5B68     		ldr	r3, [r3, #4]
 367 00c0 DB68     		ldr	r3, [r3, #12]
 368 00c2 002B     		cmp	r3, #0
 369 00c4 04D0     		beq	.L18
 370              		.loc 4 162 0 discriminator 3
 371 00c6 019B     		ldr	r3, [sp, #4]
 372 00c8 5B68     		ldr	r3, [r3, #4]
 373 00ca DB68     		ldr	r3, [r3, #12]
 374 00cc 0198     		ldr	r0, [sp, #4]
 375 00ce 9847     		blx	r3
 376              	.L18:
 377              		.loc 4 162 0 discriminator 5
 378 00d0 019B     		ldr	r3, [sp, #4]
 379 00d2 0422     		movs	r2, #4
 380 00d4 1A70     		strb	r2, [r3]
 381              	.L16:
 382              		.loc 4 164 0 is_stmt 1
 383 00d6 039B     		ldr	r3, [sp, #12]
 384 00d8 03F00103 		and	r3, r3, #1
 385 00dc 002B     		cmp	r3, #0
 386 00de 07D0     		beq	.L11
 387              		.loc 4 165 0
 388 00e0 019B     		ldr	r3, [sp, #4]
 389 00e2 5B68     		ldr	r3, [r3, #4]
 390 00e4 1B69     		ldr	r3, [r3, #16]
 391 00e6 0198     		ldr	r0, [sp, #4]
ARM GAS  /tmp/cc4ZxXve.s 			page 8


 392 00e8 9847     		blx	r3
 393 00ea 019B     		ldr	r3, [sp, #4]
 394 00ec 0322     		movs	r2, #3
 395 00ee 1A70     		strb	r2, [r3]
 396              	.L11:
 397              		.loc 4 166 0
 398 00f0 05B0     		add	sp, sp, #20
 399              		.cfi_def_cfa_offset 4
 400              		@ sp needed
 401 00f2 5DF804FB 		ldr	pc, [sp], #4
 402              		.cfi_endproc
 403              	.LFE254:
 404              		.size	icu_lld_serve_interrupt, .-icu_lld_serve_interrupt
 405 00f6 00BFAFF3 		.section	.text.VectorB0,"ax",%progbits
 405      0080AFF3 
 405      0080
 406              		.align	2
 407              		.p2align 4,,15
 408              		.global	VectorB0
 409              		.thumb
 410              		.thumb_func
 411              		.type	VectorB0, %function
 412              	VectorB0:
 413              	.LFB255:
 414              		.loc 4 226 0
 415              		.cfi_startproc
 416              		@ args = 0, pretend = 0, frame = 0
 417              		@ frame_needed = 0, uses_anonymous_args = 0
 418 0000 08B5     		push	{r3, lr}
 419              		.cfi_def_cfa_offset 8
 420              		.cfi_offset 3, -8
 421              		.cfi_offset 14, -4
 422              		.loc 4 230 0
 423 0002 0348     		ldr	r0, .L21
 424 0004 FFF7FEFF 		bl	icu_lld_serve_interrupt
 425              		.loc 4 232 0
 426 0008 FFF7FEFF 		bl	_port_irq_epilogue
 427              		.loc 4 233 0
 428 000c 08BD     		pop	{r3, pc}
 429              	.L22:
 430 000e 00BF     		.align	2
 431              	.L21:
 432 0010 00000000 		.word	ICUD2
 433              		.cfi_endproc
 434              	.LFE255:
 435              		.size	VectorB0, .-VectorB0
 436 0014 AFF30080 		.section	.text.Vector108,"ax",%progbits
 436      AFF30080 
 436      AFF30080 
 437              		.align	2
 438              		.p2align 4,,15
 439              		.global	Vector108
 440              		.thumb
 441              		.thumb_func
 442              		.type	Vector108, %function
 443              	Vector108:
 444              	.LFB256:
ARM GAS  /tmp/cc4ZxXve.s 			page 9


 445              		.loc 4 292 0
 446              		.cfi_startproc
 447              		@ args = 0, pretend = 0, frame = 0
 448              		@ frame_needed = 0, uses_anonymous_args = 0
 449 0000 08B5     		push	{r3, lr}
 450              		.cfi_def_cfa_offset 8
 451              		.cfi_offset 3, -8
 452              		.cfi_offset 14, -4
 453              		.loc 4 296 0
 454 0002 0348     		ldr	r0, .L24
 455 0004 FFF7FEFF 		bl	icu_lld_serve_interrupt
 456              		.loc 4 298 0
 457 0008 FFF7FEFF 		bl	_port_irq_epilogue
 458              		.loc 4 299 0
 459 000c 08BD     		pop	{r3, pc}
 460              	.L25:
 461 000e 00BF     		.align	2
 462              	.L24:
 463 0010 00000000 		.word	ICUD5
 464              		.cfi_endproc
 465              	.LFE256:
 466              		.size	Vector108, .-Vector108
 467 0014 AFF30080 		.section	.text.icu_lld_init,"ax",%progbits
 467      AFF30080 
 467      AFF30080 
 468              		.align	2
 469              		.p2align 4,,15
 470              		.global	icu_lld_init
 471              		.thumb
 472              		.thumb_func
 473              		.type	icu_lld_init, %function
 474              	icu_lld_init:
 475              	.LFB257:
 476              		.loc 4 375 0
 477              		.cfi_startproc
 478              		@ args = 0, pretend = 0, frame = 0
 479              		@ frame_needed = 0, uses_anonymous_args = 0
 480 0000 08B5     		push	{r3, lr}
 481              		.cfi_def_cfa_offset 8
 482              		.cfi_offset 3, -8
 483              		.cfi_offset 14, -4
 484              		.loc 4 385 0
 485 0002 0748     		ldr	r0, .L27
 486 0004 FFF7FEFF 		bl	icuObjectInit
 487              		.loc 4 386 0
 488 0008 054B     		ldr	r3, .L27
 489 000a 4FF08042 		mov	r2, #1073741824
 490 000e DA60     		str	r2, [r3, #12]
 491              		.loc 4 403 0
 492 0010 0448     		ldr	r0, .L27+4
 493 0012 FFF7FEFF 		bl	icuObjectInit
 494              		.loc 4 404 0
 495 0016 034B     		ldr	r3, .L27+4
 496 0018 034A     		ldr	r2, .L27+8
 497 001a DA60     		str	r2, [r3, #12]
 498              		.loc 4 418 0
 499 001c 08BD     		pop	{r3, pc}
ARM GAS  /tmp/cc4ZxXve.s 			page 10


 500              	.L28:
 501 001e 00BF     		.align	2
 502              	.L27:
 503 0020 00000000 		.word	ICUD2
 504 0024 00000000 		.word	ICUD5
 505 0028 000C0040 		.word	1073744896
 506              		.cfi_endproc
 507              	.LFE257:
 508              		.size	icu_lld_init, .-icu_lld_init
 509 002c AFF30080 		.section	.text.icu_lld_start,"ax",%progbits
 510              		.align	2
 511              		.p2align 4,,15
 512              		.global	icu_lld_start
 513              		.thumb
 514              		.thumb_func
 515              		.type	icu_lld_start, %function
 516              	icu_lld_start:
 517              	.LFB258:
 518              		.loc 4 427 0
 519              		.cfi_startproc
 520              		@ args = 0, pretend = 0, frame = 16
 521              		@ frame_needed = 0, uses_anonymous_args = 0
 522 0000 00B5     		push	{lr}
 523              		.cfi_def_cfa_offset 4
 524              		.cfi_offset 14, -4
 525 0002 85B0     		sub	sp, sp, #20
 526              		.cfi_def_cfa_offset 24
 527 0004 0190     		str	r0, [sp, #4]
 528              		.loc 4 434 0
 529 0006 019B     		ldr	r3, [sp, #4]
 530 0008 1B78     		ldrb	r3, [r3]	@ zero_extendqisi2
 531 000a 012B     		cmp	r3, #1
 532 000c 34D1     		bne	.L30
 533              		.loc 4 450 0
 534 000e 019B     		ldr	r3, [sp, #4]
 535 0010 584A     		ldr	r2, .L40
 536 0012 9342     		cmp	r3, r2
 537 0014 15D1     		bne	.L31
 538              		.loc 4 451 0
 539 0016 584A     		ldr	r2, .L40+4
 540 0018 574B     		ldr	r3, .L40+4
 541 001a 1B6C     		ldr	r3, [r3, #64]
 542 001c 43F00103 		orr	r3, r3, #1
 543 0020 1364     		str	r3, [r2, #64]
 544              		.loc 4 452 0
 545 0022 554A     		ldr	r2, .L40+4
 546 0024 544B     		ldr	r3, .L40+4
 547 0026 1B6A     		ldr	r3, [r3, #32]
 548 0028 43F00103 		orr	r3, r3, #1
 549 002c 1362     		str	r3, [r2, #32]
 550 002e 524B     		ldr	r3, .L40+4
 551 0030 0022     		movs	r2, #0
 552 0032 1A62     		str	r2, [r3, #32]
 553              		.loc 4 453 0
 554 0034 1C20     		movs	r0, #28
 555 0036 0721     		movs	r1, #7
 556 0038 FFF7FEFF 		bl	nvicEnableVector
ARM GAS  /tmp/cc4ZxXve.s 			page 11


 557              		.loc 4 454 0
 558 003c 019B     		ldr	r3, [sp, #4]
 559 003e 4F4A     		ldr	r2, .L40+8
 560 0040 9A60     		str	r2, [r3, #8]
 561              	.L31:
 562              		.loc 4 474 0
 563 0042 019B     		ldr	r3, [sp, #4]
 564 0044 4E4A     		ldr	r2, .L40+12
 565 0046 9342     		cmp	r3, r2
 566 0048 26D1     		bne	.L33
 567              		.loc 4 475 0
 568 004a 4B4A     		ldr	r2, .L40+4
 569 004c 4A4B     		ldr	r3, .L40+4
 570 004e 1B6C     		ldr	r3, [r3, #64]
 571 0050 43F00803 		orr	r3, r3, #8
 572 0054 1364     		str	r3, [r2, #64]
 573              		.loc 4 476 0
 574 0056 484A     		ldr	r2, .L40+4
 575 0058 474B     		ldr	r3, .L40+4
 576 005a 1B6A     		ldr	r3, [r3, #32]
 577 005c 43F00803 		orr	r3, r3, #8
 578 0060 1362     		str	r3, [r2, #32]
 579 0062 454B     		ldr	r3, .L40+4
 580 0064 0022     		movs	r2, #0
 581 0066 1A62     		str	r2, [r3, #32]
 582              		.loc 4 477 0
 583 0068 3220     		movs	r0, #50
 584 006a 0721     		movs	r1, #7
 585 006c FFF7FEFF 		bl	nvicEnableVector
 586              		.loc 4 478 0
 587 0070 019B     		ldr	r3, [sp, #4]
 588 0072 424A     		ldr	r2, .L40+8
 589 0074 9A60     		str	r2, [r3, #8]
 590 0076 0FE0     		b	.L33
 591              	.L30:
 592              		.loc 4 505 0
 593 0078 019B     		ldr	r3, [sp, #4]
 594 007a DB68     		ldr	r3, [r3, #12]
 595 007c 0022     		movs	r2, #0
 596 007e 1A60     		str	r2, [r3]
 597              		.loc 4 506 0
 598 0080 019B     		ldr	r3, [sp, #4]
 599 0082 DB68     		ldr	r3, [r3, #12]
 600 0084 0022     		movs	r2, #0
 601 0086 5A63     		str	r2, [r3, #52]
 602              		.loc 4 507 0
 603 0088 019B     		ldr	r3, [sp, #4]
 604 008a DB68     		ldr	r3, [r3, #12]
 605 008c 0022     		movs	r2, #0
 606 008e 9A63     		str	r2, [r3, #56]
 607              		.loc 4 508 0
 608 0090 019B     		ldr	r3, [sp, #4]
 609 0092 DB68     		ldr	r3, [r3, #12]
 610 0094 0022     		movs	r2, #0
 611 0096 5A62     		str	r2, [r3, #36]
 612              	.L33:
 613              		.loc 4 512 0
ARM GAS  /tmp/cc4ZxXve.s 			page 12


 614 0098 019B     		ldr	r3, [sp, #4]
 615 009a DB68     		ldr	r3, [r3, #12]
 616 009c 0022     		movs	r2, #0
 617 009e 1A61     		str	r2, [r3, #16]
 618              		.loc 4 513 0
 619 00a0 019B     		ldr	r3, [sp, #4]
 620 00a2 DB68     		ldr	r3, [r3, #12]
 621 00a4 019A     		ldr	r2, [sp, #4]
 622 00a6 5268     		ldr	r2, [r2, #4]
 623 00a8 9269     		ldr	r2, [r2, #24]
 624 00aa 22F0FF02 		bic	r2, r2, #255
 625 00ae DA60     		str	r2, [r3, #12]
 626              		.loc 4 515 0
 627 00b0 019B     		ldr	r3, [sp, #4]
 628 00b2 9A68     		ldr	r2, [r3, #8]
 629 00b4 019B     		ldr	r3, [sp, #4]
 630 00b6 5B68     		ldr	r3, [r3, #4]
 631 00b8 5B68     		ldr	r3, [r3, #4]
 632 00ba B2FBF3F3 		udiv	r3, r2, r3
 633 00be 013B     		subs	r3, r3, #1
 634 00c0 0393     		str	r3, [sp, #12]
 635              		.loc 4 519 0
 636 00c2 019B     		ldr	r3, [sp, #4]
 637 00c4 DB68     		ldr	r3, [r3, #12]
 638 00c6 039A     		ldr	r2, [sp, #12]
 639 00c8 9A62     		str	r2, [r3, #40]
 640              		.loc 4 520 0
 641 00ca 019B     		ldr	r3, [sp, #4]
 642 00cc DB68     		ldr	r3, [r3, #12]
 643 00ce 4FF6FF72 		movw	r2, #65535
 644 00d2 DA62     		str	r2, [r3, #44]
 645              		.loc 4 522 0
 646 00d4 019B     		ldr	r3, [sp, #4]
 647 00d6 5B68     		ldr	r3, [r3, #4]
 648 00d8 1B7D     		ldrb	r3, [r3, #20]	@ zero_extendqisi2
 649 00da 002B     		cmp	r3, #0
 650 00dc 23D1     		bne	.L34
 651              		.loc 4 526 0
 652 00de 019B     		ldr	r3, [sp, #4]
 653 00e0 DB68     		ldr	r3, [r3, #12]
 654 00e2 40F20122 		movw	r2, #513
 655 00e6 9A61     		str	r2, [r3, #24]
 656              		.loc 4 530 0
 657 00e8 019B     		ldr	r3, [sp, #4]
 658 00ea DB68     		ldr	r3, [r3, #12]
 659 00ec 5422     		movs	r2, #84
 660 00ee 9A60     		str	r2, [r3, #8]
 661              		.loc 4 535 0
 662 00f0 019B     		ldr	r3, [sp, #4]
 663 00f2 5B68     		ldr	r3, [r3, #4]
 664 00f4 1B78     		ldrb	r3, [r3]	@ zero_extendqisi2
 665 00f6 002B     		cmp	r3, #0
 666 00f8 04D1     		bne	.L35
 667              		.loc 4 536 0
 668 00fa 019B     		ldr	r3, [sp, #4]
 669 00fc DB68     		ldr	r3, [r3, #12]
 670 00fe 3122     		movs	r2, #49
ARM GAS  /tmp/cc4ZxXve.s 			page 13


 671 0100 1A62     		str	r2, [r3, #32]
 672 0102 03E0     		b	.L36
 673              	.L35:
 674              		.loc 4 539 0
 675 0104 019B     		ldr	r3, [sp, #4]
 676 0106 DB68     		ldr	r3, [r3, #12]
 677 0108 1322     		movs	r2, #19
 678 010a 1A62     		str	r2, [r3, #32]
 679              	.L36:
 680              		.loc 4 544 0
 681 010c 019B     		ldr	r3, [sp, #4]
 682 010e DB68     		ldr	r3, [r3, #12]
 683 0110 03F13802 		add	r2, r3, #56
 684 0114 019B     		ldr	r3, [sp, #4]
 685 0116 1A61     		str	r2, [r3, #16]
 686              		.loc 4 545 0
 687 0118 019B     		ldr	r3, [sp, #4]
 688 011a DB68     		ldr	r3, [r3, #12]
 689 011c 03F13402 		add	r2, r3, #52
 690 0120 019B     		ldr	r3, [sp, #4]
 691 0122 5A61     		str	r2, [r3, #20]
 692 0124 22E0     		b	.L29
 693              	.L34:
 694              		.loc 4 551 0
 695 0126 019B     		ldr	r3, [sp, #4]
 696 0128 DB68     		ldr	r3, [r3, #12]
 697 012a 4FF48172 		mov	r2, #258
 698 012e 9A61     		str	r2, [r3, #24]
 699              		.loc 4 555 0
 700 0130 019B     		ldr	r3, [sp, #4]
 701 0132 DB68     		ldr	r3, [r3, #12]
 702 0134 6422     		movs	r2, #100
 703 0136 9A60     		str	r2, [r3, #8]
 704              		.loc 4 560 0
 705 0138 019B     		ldr	r3, [sp, #4]
 706 013a 5B68     		ldr	r3, [r3, #4]
 707 013c 1B78     		ldrb	r3, [r3]	@ zero_extendqisi2
 708 013e 002B     		cmp	r3, #0
 709 0140 04D1     		bne	.L38
 710              		.loc 4 561 0
 711 0142 019B     		ldr	r3, [sp, #4]
 712 0144 DB68     		ldr	r3, [r3, #12]
 713 0146 1322     		movs	r2, #19
 714 0148 1A62     		str	r2, [r3, #32]
 715 014a 03E0     		b	.L39
 716              	.L38:
 717              		.loc 4 564 0
 718 014c 019B     		ldr	r3, [sp, #4]
 719 014e DB68     		ldr	r3, [r3, #12]
 720 0150 3122     		movs	r2, #49
 721 0152 1A62     		str	r2, [r3, #32]
 722              	.L39:
 723              		.loc 4 569 0
 724 0154 019B     		ldr	r3, [sp, #4]
 725 0156 DB68     		ldr	r3, [r3, #12]
 726 0158 03F13402 		add	r2, r3, #52
 727 015c 019B     		ldr	r3, [sp, #4]
ARM GAS  /tmp/cc4ZxXve.s 			page 14


 728 015e 1A61     		str	r2, [r3, #16]
 729              		.loc 4 570 0
 730 0160 019B     		ldr	r3, [sp, #4]
 731 0162 DB68     		ldr	r3, [r3, #12]
 732 0164 03F13802 		add	r2, r3, #56
 733 0168 019B     		ldr	r3, [sp, #4]
 734 016a 5A61     		str	r2, [r3, #20]
 735              	.L29:
 736              		.loc 4 572 0
 737 016c 05B0     		add	sp, sp, #20
 738              		.cfi_def_cfa_offset 4
 739              		@ sp needed
 740 016e 5DF804FB 		ldr	pc, [sp], #4
 741              	.L41:
 742 0172 00BF     		.align	2
 743              	.L40:
 744 0174 00000000 		.word	ICUD2
 745 0178 00380240 		.word	1073887232
 746 017c 00BD0105 		.word	84000000
 747 0180 00000000 		.word	ICUD5
 748              		.cfi_endproc
 749              	.LFE258:
 750              		.size	icu_lld_start, .-icu_lld_start
 751 0184 AFF30080 		.section	.text.icu_lld_stop,"ax",%progbits
 751      AFF30080 
 751      AFF30080 
 752              		.align	2
 753              		.p2align 4,,15
 754              		.global	icu_lld_stop
 755              		.thumb
 756              		.thumb_func
 757              		.type	icu_lld_stop, %function
 758              	icu_lld_stop:
 759              	.LFB259:
 760              		.loc 4 581 0
 761              		.cfi_startproc
 762              		@ args = 0, pretend = 0, frame = 8
 763              		@ frame_needed = 0, uses_anonymous_args = 0
 764 0000 00B5     		push	{lr}
 765              		.cfi_def_cfa_offset 4
 766              		.cfi_offset 14, -4
 767 0002 83B0     		sub	sp, sp, #12
 768              		.cfi_def_cfa_offset 16
 769 0004 0190     		str	r0, [sp, #4]
 770              		.loc 4 583 0
 771 0006 019B     		ldr	r3, [sp, #4]
 772 0008 1B78     		ldrb	r3, [r3]	@ zero_extendqisi2
 773 000a 022B     		cmp	r3, #2
 774 000c 25D1     		bne	.L42
 775              		.loc 4 585 0
 776 000e 019B     		ldr	r3, [sp, #4]
 777 0010 DB68     		ldr	r3, [r3, #12]
 778 0012 0022     		movs	r2, #0
 779 0014 1A60     		str	r2, [r3]
 780              		.loc 4 586 0
 781 0016 019B     		ldr	r3, [sp, #4]
 782 0018 DB68     		ldr	r3, [r3, #12]
ARM GAS  /tmp/cc4ZxXve.s 			page 15


 783 001a 0022     		movs	r2, #0
 784 001c DA60     		str	r2, [r3, #12]
 785              		.loc 4 587 0
 786 001e 019B     		ldr	r3, [sp, #4]
 787 0020 DB68     		ldr	r3, [r3, #12]
 788 0022 0022     		movs	r2, #0
 789 0024 1A61     		str	r2, [r3, #16]
 790              		.loc 4 597 0
 791 0026 019B     		ldr	r3, [sp, #4]
 792 0028 0D4A     		ldr	r2, .L45
 793 002a 9342     		cmp	r3, r2
 794 002c 08D1     		bne	.L44
 795              		.loc 4 598 0
 796 002e 1C20     		movs	r0, #28
 797 0030 FFF7FEFF 		bl	nvicDisableVector
 798              		.loc 4 599 0
 799 0034 0B4A     		ldr	r2, .L45+4
 800 0036 0B4B     		ldr	r3, .L45+4
 801 0038 1B6C     		ldr	r3, [r3, #64]
 802 003a 23F00103 		bic	r3, r3, #1
 803 003e 1364     		str	r3, [r2, #64]
 804              	.L44:
 805              		.loc 4 615 0
 806 0040 019B     		ldr	r3, [sp, #4]
 807 0042 094A     		ldr	r2, .L45+8
 808 0044 9342     		cmp	r3, r2
 809 0046 08D1     		bne	.L42
 810              		.loc 4 616 0
 811 0048 3220     		movs	r0, #50
 812 004a FFF7FEFF 		bl	nvicDisableVector
 813              		.loc 4 617 0
 814 004e 054A     		ldr	r2, .L45+4
 815 0050 044B     		ldr	r3, .L45+4
 816 0052 1B6C     		ldr	r3, [r3, #64]
 817 0054 23F00803 		bic	r3, r3, #8
 818 0058 1364     		str	r3, [r2, #64]
 819              	.L42:
 820              		.loc 4 634 0
 821 005a 03B0     		add	sp, sp, #12
 822              		.cfi_def_cfa_offset 4
 823              		@ sp needed
 824 005c 5DF804FB 		ldr	pc, [sp], #4
 825              	.L46:
 826              		.align	2
 827              	.L45:
 828 0060 00000000 		.word	ICUD2
 829 0064 00380240 		.word	1073887232
 830 0068 00000000 		.word	ICUD5
 831              		.cfi_endproc
 832              	.LFE259:
 833              		.size	icu_lld_stop, .-icu_lld_stop
 834 006c AFF30080 		.section	.text.icu_lld_start_capture,"ax",%progbits
 835              		.align	2
 836              		.p2align 4,,15
 837              		.global	icu_lld_start_capture
 838              		.thumb
 839              		.thumb_func
ARM GAS  /tmp/cc4ZxXve.s 			page 16


 840              		.type	icu_lld_start_capture, %function
 841              	icu_lld_start_capture:
 842              	.LFB260:
 843              		.loc 4 643 0
 844              		.cfi_startproc
 845              		@ args = 0, pretend = 0, frame = 8
 846              		@ frame_needed = 0, uses_anonymous_args = 0
 847              		@ link register save eliminated.
 848 0000 82B0     		sub	sp, sp, #8
 849              		.cfi_def_cfa_offset 8
 850 0002 0190     		str	r0, [sp, #4]
 851              		.loc 4 646 0
 852 0004 019B     		ldr	r3, [sp, #4]
 853 0006 DB68     		ldr	r3, [r3, #12]
 854 0008 019A     		ldr	r2, [sp, #4]
 855 000a D268     		ldr	r2, [r2, #12]
 856 000c 5269     		ldr	r2, [r2, #20]
 857 000e 42F00102 		orr	r2, r2, #1
 858 0012 5A61     		str	r2, [r3, #20]
 859              		.loc 4 647 0
 860 0014 019B     		ldr	r3, [sp, #4]
 861 0016 DB68     		ldr	r3, [r3, #12]
 862 0018 0022     		movs	r2, #0
 863 001a 1A61     		str	r2, [r3, #16]
 864              		.loc 4 650 0
 865 001c 019B     		ldr	r3, [sp, #4]
 866 001e DB68     		ldr	r3, [r3, #12]
 867 0020 0522     		movs	r2, #5
 868 0022 1A60     		str	r2, [r3]
 869              		.loc 4 651 0
 870 0024 02B0     		add	sp, sp, #8
 871              		.cfi_def_cfa_offset 0
 872              		@ sp needed
 873 0026 7047     		bx	lr
 874              		.cfi_endproc
 875              	.LFE260:
 876              		.size	icu_lld_start_capture, .-icu_lld_start_capture
 877 0028 AFF30080 		.section	.text.icu_lld_wait_capture,"ax",%progbits
 877      AFF30080 
 878              		.align	2
 879              		.p2align 4,,15
 880              		.global	icu_lld_wait_capture
 881              		.thumb
 882              		.thumb_func
 883              		.type	icu_lld_wait_capture, %function
 884              	icu_lld_wait_capture:
 885              	.LFB261:
 886              		.loc 4 665 0
 887              		.cfi_startproc
 888              		@ args = 0, pretend = 0, frame = 8
 889              		@ frame_needed = 0, uses_anonymous_args = 0
 890 0000 00B5     		push	{lr}
 891              		.cfi_def_cfa_offset 4
 892              		.cfi_offset 14, -4
 893 0002 83B0     		sub	sp, sp, #12
 894              		.cfi_def_cfa_offset 16
 895 0004 0190     		str	r0, [sp, #4]
ARM GAS  /tmp/cc4ZxXve.s 			page 17


 896              		.loc 4 669 0
 897 0006 019B     		ldr	r3, [sp, #4]
 898 0008 1B78     		ldrb	r3, [r3]	@ zero_extendqisi2
 899 000a 032B     		cmp	r3, #3
 900 000c 07D1     		bne	.L49
 901              		.loc 4 670 0
 902 000e 0198     		ldr	r0, [sp, #4]
 903 0010 FFF7FEFF 		bl	icu_lld_wait_edge
 904 0014 0346     		mov	r3, r0
 905 0016 002B     		cmp	r3, #0
 906 0018 01D0     		beq	.L49
 907              		.loc 4 671 0
 908 001a 0123     		movs	r3, #1
 909 001c 03E0     		b	.L50
 910              	.L49:
 911              		.loc 4 674 0
 912 001e 0198     		ldr	r0, [sp, #4]
 913 0020 FFF7FEFF 		bl	icu_lld_wait_edge
 914 0024 0346     		mov	r3, r0
 915              	.L50:
 916              		.loc 4 675 0
 917 0026 1846     		mov	r0, r3
 918 0028 03B0     		add	sp, sp, #12
 919              		.cfi_def_cfa_offset 4
 920              		@ sp needed
 921 002a 5DF804FB 		ldr	pc, [sp], #4
 922              		.cfi_endproc
 923              	.LFE261:
 924              		.size	icu_lld_wait_capture, .-icu_lld_wait_capture
 925 002e 00BF     		.section	.text.icu_lld_stop_capture,"ax",%progbits
 926              		.align	2
 927              		.p2align 4,,15
 928              		.global	icu_lld_stop_capture
 929              		.thumb
 930              		.thumb_func
 931              		.type	icu_lld_stop_capture, %function
 932              	icu_lld_stop_capture:
 933              	.LFB262:
 934              		.loc 4 684 0
 935              		.cfi_startproc
 936              		@ args = 0, pretend = 0, frame = 8
 937              		@ frame_needed = 0, uses_anonymous_args = 0
 938              		@ link register save eliminated.
 939 0000 82B0     		sub	sp, sp, #8
 940              		.cfi_def_cfa_offset 8
 941 0002 0190     		str	r0, [sp, #4]
 942              		.loc 4 687 0
 943 0004 019B     		ldr	r3, [sp, #4]
 944 0006 DB68     		ldr	r3, [r3, #12]
 945 0008 0022     		movs	r2, #0
 946 000a 1A60     		str	r2, [r3]
 947              		.loc 4 690 0
 948 000c 019B     		ldr	r3, [sp, #4]
 949 000e DB68     		ldr	r3, [r3, #12]
 950 0010 019A     		ldr	r2, [sp, #4]
 951 0012 D268     		ldr	r2, [r2, #12]
 952 0014 D268     		ldr	r2, [r2, #12]
ARM GAS  /tmp/cc4ZxXve.s 			page 18


 953 0016 22F0FF02 		bic	r2, r2, #255
 954 001a DA60     		str	r2, [r3, #12]
 955              		.loc 4 691 0
 956 001c 02B0     		add	sp, sp, #8
 957              		.cfi_def_cfa_offset 0
 958              		@ sp needed
 959 001e 7047     		bx	lr
 960              		.cfi_endproc
 961              	.LFE262:
 962              		.size	icu_lld_stop_capture, .-icu_lld_stop_capture
 963              		.section	.text.icu_lld_enable_notifications,"ax",%progbits
 964              		.align	2
 965              		.p2align 4,,15
 966              		.global	icu_lld_enable_notifications
 967              		.thumb
 968              		.thumb_func
 969              		.type	icu_lld_enable_notifications, %function
 970              	icu_lld_enable_notifications:
 971              	.LFB263:
 972              		.loc 4 702 0
 973              		.cfi_startproc
 974              		@ args = 0, pretend = 0, frame = 16
 975              		@ frame_needed = 0, uses_anonymous_args = 0
 976              		@ link register save eliminated.
 977 0000 84B0     		sub	sp, sp, #16
 978              		.cfi_def_cfa_offset 16
 979 0002 0190     		str	r0, [sp, #4]
 980              		.loc 4 703 0
 981 0004 019B     		ldr	r3, [sp, #4]
 982 0006 DB68     		ldr	r3, [r3, #12]
 983 0008 DB68     		ldr	r3, [r3, #12]
 984 000a 0393     		str	r3, [sp, #12]
 985              		.loc 4 708 0
 986 000c 039B     		ldr	r3, [sp, #12]
 987 000e DBB2     		uxtb	r3, r3
 988 0010 002B     		cmp	r3, #0
 989 0012 30D1     		bne	.L52
 990              		.loc 4 710 0
 991 0014 019B     		ldr	r3, [sp, #4]
 992 0016 DB68     		ldr	r3, [r3, #12]
 993 0018 0022     		movs	r2, #0
 994 001a 1A61     		str	r2, [r3, #16]
 995              		.loc 4 712 0
 996 001c 019B     		ldr	r3, [sp, #4]
 997 001e 5B68     		ldr	r3, [r3, #4]
 998 0020 1B7D     		ldrb	r3, [r3, #20]	@ zero_extendqisi2
 999 0022 002B     		cmp	r3, #0
 1000 0024 0DD1     		bne	.L54
 1001              		.loc 4 714 0
 1002 0026 039B     		ldr	r3, [sp, #12]
 1003 0028 43F00203 		orr	r3, r3, #2
 1004 002c 0393     		str	r3, [sp, #12]
 1005              		.loc 4 717 0
 1006 002e 019B     		ldr	r3, [sp, #4]
 1007 0030 5B68     		ldr	r3, [r3, #4]
 1008 0032 9B68     		ldr	r3, [r3, #8]
 1009 0034 002B     		cmp	r3, #0
ARM GAS  /tmp/cc4ZxXve.s 			page 19


 1010 0036 11D0     		beq	.L56
 1011              		.loc 4 718 0
 1012 0038 039B     		ldr	r3, [sp, #12]
 1013 003a 43F00403 		orr	r3, r3, #4
 1014 003e 0393     		str	r3, [sp, #12]
 1015 0040 0CE0     		b	.L56
 1016              	.L54:
 1017              		.loc 4 722 0
 1018 0042 039B     		ldr	r3, [sp, #12]
 1019 0044 43F00403 		orr	r3, r3, #4
 1020 0048 0393     		str	r3, [sp, #12]
 1021              		.loc 4 725 0
 1022 004a 019B     		ldr	r3, [sp, #4]
 1023 004c 5B68     		ldr	r3, [r3, #4]
 1024 004e 9B68     		ldr	r3, [r3, #8]
 1025 0050 002B     		cmp	r3, #0
 1026 0052 03D0     		beq	.L56
 1027              		.loc 4 726 0
 1028 0054 039B     		ldr	r3, [sp, #12]
 1029 0056 43F00203 		orr	r3, r3, #2
 1030 005a 0393     		str	r3, [sp, #12]
 1031              	.L56:
 1032              		.loc 4 731 0
 1033 005c 019B     		ldr	r3, [sp, #4]
 1034 005e 5B68     		ldr	r3, [r3, #4]
 1035 0060 1B69     		ldr	r3, [r3, #16]
 1036 0062 002B     		cmp	r3, #0
 1037 0064 03D0     		beq	.L57
 1038              		.loc 4 732 0
 1039 0066 039B     		ldr	r3, [sp, #12]
 1040 0068 43F00103 		orr	r3, r3, #1
 1041 006c 0393     		str	r3, [sp, #12]
 1042              	.L57:
 1043              		.loc 4 735 0
 1044 006e 019B     		ldr	r3, [sp, #4]
 1045 0070 DB68     		ldr	r3, [r3, #12]
 1046 0072 039A     		ldr	r2, [sp, #12]
 1047 0074 DA60     		str	r2, [r3, #12]
 1048              	.L52:
 1049              		.loc 4 737 0
 1050 0076 04B0     		add	sp, sp, #16
 1051              		.cfi_def_cfa_offset 0
 1052              		@ sp needed
 1053 0078 7047     		bx	lr
 1054              		.cfi_endproc
 1055              	.LFE263:
 1056              		.size	icu_lld_enable_notifications, .-icu_lld_enable_notifications
 1057 007a 00BFAFF3 		.section	.text.icu_lld_disable_notifications,"ax",%progbits
 1057      0080
 1058              		.align	2
 1059              		.p2align 4,,15
 1060              		.global	icu_lld_disable_notifications
 1061              		.thumb
 1062              		.thumb_func
 1063              		.type	icu_lld_disable_notifications, %function
 1064              	icu_lld_disable_notifications:
 1065              	.LFB264:
ARM GAS  /tmp/cc4ZxXve.s 			page 20


 1066              		.loc 4 748 0
 1067              		.cfi_startproc
 1068              		@ args = 0, pretend = 0, frame = 8
 1069              		@ frame_needed = 0, uses_anonymous_args = 0
 1070              		@ link register save eliminated.
 1071 0000 82B0     		sub	sp, sp, #8
 1072              		.cfi_def_cfa_offset 8
 1073 0002 0190     		str	r0, [sp, #4]
 1074              		.loc 4 751 0
 1075 0004 019B     		ldr	r3, [sp, #4]
 1076 0006 DB68     		ldr	r3, [r3, #12]
 1077 0008 019A     		ldr	r2, [sp, #4]
 1078 000a D268     		ldr	r2, [r2, #12]
 1079 000c D268     		ldr	r2, [r2, #12]
 1080 000e 22F0FF02 		bic	r2, r2, #255
 1081 0012 DA60     		str	r2, [r3, #12]
 1082              		.loc 4 752 0
 1083 0014 02B0     		add	sp, sp, #8
 1084              		.cfi_def_cfa_offset 0
 1085              		@ sp needed
 1086 0016 7047     		bx	lr
 1087              		.cfi_endproc
 1088              	.LFE264:
 1089              		.size	icu_lld_disable_notifications, .-icu_lld_disable_notifications
 1090 0018 AFF30080 		.text
 1090      AFF30080 
 1091              	.Letext0:
 1092              		.file 5 "/opt/gcc-arm-none-eabi/lib/gcc/arm-none-eabi/4.9.3/include/stddef.h"
 1093              		.file 6 "/opt/gcc-arm-none-eabi/arm-none-eabi/include/machine/_default_types.h"
 1094              		.file 7 "/opt/gcc-arm-none-eabi/arm-none-eabi/include/stdint.h"
 1095              		.file 8 "/home/makkmarci/workspace/CLEAN/ChibiOS/os/rt/ports/ARMCMx/compilers/GCC/chtypes.h"
 1096              		.file 9 "/home/makkmarci/workspace/CLEAN/ChibiOS/os/rt/include/chsystypes.h"
 1097              		.file 10 "/home/makkmarci/workspace/CLEAN/ChibiOS/os/rt/include/chschd.h"
 1098              		.file 11 "/home/makkmarci/workspace/CLEAN/ChibiOS/os/ext/CMSIS/ST/stm32f407xx.h"
 1099              		.file 12 "/home/makkmarci/workspace/CLEAN/ChibiOS/os/rt/ports/ARMCMx/chcore.h"
 1100              		.file 13 "/home/makkmarci/workspace/CLEAN/ChibiOS/os/rt/include/chtm.h"
 1101              		.file 14 "/home/makkmarci/workspace/CLEAN/ChibiOS/os/rt/include/chsem.h"
 1102              		.file 15 "/home/makkmarci/workspace/CLEAN/ChibiOS/os/rt/include/chmtx.h"
 1103              		.file 16 "/home/makkmarci/workspace/CLEAN/ChibiOS/os/hal/include/icu.h"
 1104              		.file 17 "/home/makkmarci/workspace/CLEAN/ChibiOS/os/hal/ports/STM32/LLD/TIMv1/icu_lld.h"
 1105              		.file 18 "/home/makkmarci/workspace/CLEAN/ChibiOS/os/hal/ports/STM32/LLD/TIMv1/stm32_tim.h"
 1106              		.file 19 "/home/makkmarci/workspace/CLEAN/ChibiOS/os/ext/CMSIS/include/core_cm4.h"