ARM GAS  /tmp/cc4ZxXve.s 			page 1


   1              		.syntax unified
   2              		.cpu cortex-m4
   3              		.eabi_attribute 27, 1
   4              		.eabi_attribute 28, 1
   5              		.fpu fpv4-sp-d16
   6              		.eabi_attribute 20, 1
   7              		.eabi_attribute 21, 1
   8              		.eabi_attribute 23, 3
   9              		.eabi_attribute 24, 1
  10              		.eabi_attribute 25, 1
  11              		.eabi_attribute 26, 1
  12              		.eabi_attribute 30, 6
  13              		.eabi_attribute 34, 1
  14              		.eabi_attribute 18, 4
  15              		.thumb
  16              		.file	"icu_lld.c"
  17              		.text
  18              	.Ltext0:
  19              		.cfi_sections	.debug_frame
  20              		.section	.text.port_lock,"ax",%progbits
  21              		.align	2
  22              		.p2align 4,,15
  23              		.thumb
  24              		.thumb_func
  25              		.type	port_lock, %function
  26              	port_lock:
  27              	.LFB116:
  28              		.file 1 "/home/makkmarci/workspace/CLEAN/ChibiOS/os/rt/ports/ARMCMx/chcore_v7m.h"
  29              		.loc 1 444 0
  30              		.cfi_startproc
  31              		@ args = 0, pretend = 0, frame = 8
  32              		@ frame_needed = 0, uses_anonymous_args = 0
  33              		@ link register save eliminated.
  34 0000 82B0     		sub	sp, sp, #8
  35              		.cfi_def_cfa_offset 8
  36 0002 2023     		movs	r3, #32
  37 0004 0193     		str	r3, [sp, #4]
  38              	.LBB6:
  39              	.LBB7:
  40              		.file 2 "/home/makkmarci/workspace/CLEAN/ChibiOS/os/ext/CMSIS/include/core_cmFunc.h"
  41              		.loc 2 546 0
  42 0006 019B     		ldr	r3, [sp, #4]
  43              	@ 546 "/home/makkmarci/workspace/CLEAN/ChibiOS/os/ext/CMSIS/include/core_cmFunc.h" 1
  44 0008 83F31188 		MSR basepri, r3
  45              	@ 0 "" 2
  46              		.thumb
  47              	.LBE7:
  48              	.LBE6:
  49              		.loc 1 451 0
  50 000c 02B0     		add	sp, sp, #8
  51              		.cfi_def_cfa_offset 0
  52              		@ sp needed
  53 000e 7047     		bx	lr
  54              		.cfi_endproc
  55              	.LFE116:
  56              		.size	port_lock, .-port_lock
  57              		.section	.text.port_unlock,"ax",%progbits
ARM GAS  /tmp/cc4ZxXve.s 			page 2


  58              		.align	2
  59              		.p2align 4,,15
  60              		.thumb
  61              		.thumb_func
  62              		.type	port_unlock, %function
  63              	port_unlock:
  64              	.LFB117:
  65              		.loc 1 458 0
  66              		.cfi_startproc
  67              		@ args = 0, pretend = 0, frame = 8
  68              		@ frame_needed = 0, uses_anonymous_args = 0
  69              		@ link register save eliminated.
  70 0000 82B0     		sub	sp, sp, #8
  71              		.cfi_def_cfa_offset 8
  72 0002 0023     		movs	r3, #0
  73 0004 0193     		str	r3, [sp, #4]
  74              	.LBB8:
  75              	.LBB9:
  76              		.loc 2 546 0
  77 0006 019B     		ldr	r3, [sp, #4]
  78              	@ 546 "/home/makkmarci/workspace/CLEAN/ChibiOS/os/ext/CMSIS/include/core_cmFunc.h" 1
  79 0008 83F31188 		MSR basepri, r3
  80              	@ 0 "" 2
  81              		.thumb
  82              	.LBE9:
  83              	.LBE8:
  84              		.loc 1 465 0
  85 000c 02B0     		add	sp, sp, #8
  86              		.cfi_def_cfa_offset 0
  87              		@ sp needed
  88 000e 7047     		bx	lr
  89              		.cfi_endproc
  90              	.LFE117:
  91              		.size	port_unlock, .-port_unlock
  92              		.section	.text.chSysLock,"ax",%progbits
  93              		.align	2
  94              		.p2align 4,,15
  95              		.thumb
  96              		.thumb_func
  97              		.type	chSysLock, %function
  98              	chSysLock:
  99              	.LFB145:
 100              		.file 3 "/home/makkmarci/workspace/CLEAN/ChibiOS/os/rt/include/chsys.h"
 101              		.loc 3 346 0
 102              		.cfi_startproc
 103              		@ args = 0, pretend = 0, frame = 0
 104              		@ frame_needed = 0, uses_anonymous_args = 0
 105 0000 08B5     		push	{r3, lr}
 106              		.cfi_def_cfa_offset 8
 107              		.cfi_offset 3, -8
 108              		.cfi_offset 14, -4
 109              		.loc 3 348 0
 110 0002 FFF7FEFF 		bl	port_lock
 111              		.loc 3 351 0
 112 0006 08BD     		pop	{r3, pc}
 113              		.cfi_endproc
 114              	.LFE145:
ARM GAS  /tmp/cc4ZxXve.s 			page 3


 115              		.size	chSysLock, .-chSysLock
 116              		.section	.text.chSysUnlock,"ax",%progbits
 117              		.align	2
 118              		.p2align 4,,15
 119              		.thumb
 120              		.thumb_func
 121              		.type	chSysUnlock, %function
 122              	chSysUnlock:
 123              	.LFB146:
 124              		.loc 3 358 0
 125              		.cfi_startproc
 126              		@ args = 0, pretend = 0, frame = 0
 127              		@ frame_needed = 0, uses_anonymous_args = 0
 128 0000 08B5     		push	{r3, lr}
 129              		.cfi_def_cfa_offset 8
 130              		.cfi_offset 3, -8
 131              		.cfi_offset 14, -4
 132              		.loc 3 371 0
 133 0002 FFF7FEFF 		bl	port_unlock
 134              		.loc 3 372 0
 135 0006 08BD     		pop	{r3, pc}
 136              		.cfi_endproc
 137              	.LFE146:
 138              		.size	chSysUnlock, .-chSysUnlock
 139              		.global	ICUD2
 140              		.section	.bss.ICUD2,"aw",%nobits
 141              		.align	2
 142              		.type	ICUD2, %object
 143              		.size	ICUD2, 24
 144              	ICUD2:
 145 0000 00000000 		.space	24
 145      00000000 
 145      00000000 
 145      00000000 
 145      00000000 
 146              		.global	ICUD5
 147              		.section	.bss.ICUD5,"aw",%nobits
 148              		.align	2
 149              		.type	ICUD5, %object
 150              		.size	ICUD5, 24
 151              	ICUD5:
 152 0000 00000000 		.space	24
 152      00000000 
 152      00000000 
 152      00000000 
 152      00000000 
 153              		.section	.text.icu_lld_wait_edge,"ax",%progbits
 154              		.align	2
 155              		.p2align 4,,15
 156              		.thumb
 157              		.thumb_func
 158              		.type	icu_lld_wait_edge, %function
 159              	icu_lld_wait_edge:
 160              	.LFB253:
 161              		.file 4 "/home/makkmarci/workspace/CLEAN/ChibiOS/os/hal/ports/STM32/LLD/TIMv1/icu_lld.c"
 162              		.loc 4 105 0
 163              		.cfi_startproc
ARM GAS  /tmp/cc4ZxXve.s 			page 4


 164              		@ args = 0, pretend = 0, frame = 16
 165              		@ frame_needed = 0, uses_anonymous_args = 0
 166 0000 00B5     		push	{lr}
 167              		.cfi_def_cfa_offset 4
 168              		.cfi_offset 14, -4
 169 0002 85B0     		sub	sp, sp, #20
 170              		.cfi_def_cfa_offset 24
 171 0004 0190     		str	r0, [sp, #4]
 172              		.loc 4 111 0
 173 0006 FFF7FEFF 		bl	chSysUnlock
 174              		.loc 4 114 0
 175 000a 019B     		ldr	r3, [sp, #4]
 176 000c 5B68     		ldr	r3, [r3, #4]
 177 000e 1B7D     		ldrb	r3, [r3, #20]	@ zero_extendqisi2
 178 0010 002B     		cmp	r3, #0
 179 0012 0AD1     		bne	.L6
 180              		.loc 4 116 0
 181 0014 00BF     		nop
 182              	.L7:
 183              		.loc 4 116 0 is_stmt 0 discriminator 1
 184 0016 019B     		ldr	r3, [sp, #4]
 185 0018 DB68     		ldr	r3, [r3, #12]
 186 001a 1B69     		ldr	r3, [r3, #16]
 187 001c 0393     		str	r3, [sp, #12]
 188 001e 039B     		ldr	r3, [sp, #12]
 189 0020 03F00303 		and	r3, r3, #3
 190 0024 002B     		cmp	r3, #0
 191 0026 F6D0     		beq	.L7
 192 0028 09E0     		b	.L8
 193              	.L6:
 194              		.loc 4 122 0 is_stmt 1
 195 002a 00BF     		nop
 196              	.L9:
 197              		.loc 4 122 0 is_stmt 0 discriminator 1
 198 002c 019B     		ldr	r3, [sp, #4]
 199 002e DB68     		ldr	r3, [r3, #12]
 200 0030 1B69     		ldr	r3, [r3, #16]
 201 0032 0393     		str	r3, [sp, #12]
 202 0034 039B     		ldr	r3, [sp, #12]
 203 0036 03F00503 		and	r3, r3, #5
 204 003a 002B     		cmp	r3, #0
 205 003c F6D0     		beq	.L9
 206              	.L8:
 207              		.loc 4 128 0 is_stmt 1
 208 003e 039B     		ldr	r3, [sp, #12]
 209 0040 03F00103 		and	r3, r3, #1
 210 0044 002B     		cmp	r3, #0
 211 0046 14BF     		ite	ne
 212 0048 0123     		movne	r3, #1
 213 004a 0023     		moveq	r3, #0
 214 004c 8DF80B30 		strb	r3, [sp, #11]
 215              		.loc 4 131 0
 216 0050 FFF7FEFF 		bl	chSysLock
 217              		.loc 4 134 0
 218 0054 019B     		ldr	r3, [sp, #4]
 219 0056 DB68     		ldr	r3, [r3, #12]
 220 0058 019A     		ldr	r2, [sp, #4]
ARM GAS  /tmp/cc4ZxXve.s 			page 5


 221 005a D268     		ldr	r2, [r2, #12]
 222 005c 1269     		ldr	r2, [r2, #16]
 223 005e 22F00702 		bic	r2, r2, #7
 224 0062 1A61     		str	r2, [r3, #16]
 225              		.loc 4 138 0
 226 0064 9DF80B30 		ldrb	r3, [sp, #11]	@ zero_extendqisi2
 227              		.loc 4 139 0
 228 0068 1846     		mov	r0, r3
 229 006a 05B0     		add	sp, sp, #20
 230              		.cfi_def_cfa_offset 4
 231              		@ sp needed
 232 006c 5DF804FB 		ldr	pc, [sp], #4
 233              		.cfi_endproc
 234              	.LFE253:
 235              		.size	icu_lld_wait_edge, .-icu_lld_wait_edge
 236              		.section	.text.icu_lld_serve_interrupt,"ax",%progbits
 237              		.align	2
 238              		.p2align 4,,15
 239              		.thumb
 240              		.thumb_func
 241              		.type	icu_lld_serve_interrupt, %function
 242              	icu_lld_serve_interrupt:
 243              	.LFB254:
 244              		.loc 4 146 0
 245              		.cfi_startproc
 246              		@ args = 0, pretend = 0, frame = 16
 247              		@ frame_needed = 0, uses_anonymous_args = 0
 248 0000 00B5     		push	{lr}
 249              		.cfi_def_cfa_offset 4
 250              		.cfi_offset 14, -4
 251 0002 85B0     		sub	sp, sp, #20
 252              		.cfi_def_cfa_offset 24
 253 0004 0190     		str	r0, [sp, #4]
 254              		.loc 4 149 0
 255 0006 019B     		ldr	r3, [sp, #4]
 256 0008 DB68     		ldr	r3, [r3, #12]
 257 000a 1B69     		ldr	r3, [r3, #16]
 258 000c 0393     		str	r3, [sp, #12]
 259              		.loc 4 150 0
 260 000e 019B     		ldr	r3, [sp, #4]
 261 0010 DB68     		ldr	r3, [r3, #12]
 262 0012 DB68     		ldr	r3, [r3, #12]
 263 0014 DBB2     		uxtb	r3, r3
 264 0016 039A     		ldr	r2, [sp, #12]
 265 0018 1340     		ands	r3, r3, r2
 266 001a 0393     		str	r3, [sp, #12]
 267              		.loc 4 151 0
 268 001c 019B     		ldr	r3, [sp, #4]
 269 001e DB68     		ldr	r3, [r3, #12]
 270 0020 039A     		ldr	r2, [sp, #12]
 271 0022 D243     		mvns	r2, r2
 272 0024 1A61     		str	r2, [r3, #16]
 273              		.loc 4 152 0
 274 0026 019B     		ldr	r3, [sp, #4]
 275 0028 5B68     		ldr	r3, [r3, #4]
 276 002a 1B7D     		ldrb	r3, [r3, #20]	@ zero_extendqisi2
 277 002c 002B     		cmp	r3, #0
ARM GAS  /tmp/cc4ZxXve.s 			page 6


 278 002e 29D1     		bne	.L12
 279              		.loc 4 153 0
 280 0030 039B     		ldr	r3, [sp, #12]
 281 0032 03F00403 		and	r3, r3, #4
 282 0036 002B     		cmp	r3, #0
 283 0038 0DD0     		beq	.L13
 284              		.loc 4 154 0
 285 003a 019B     		ldr	r3, [sp, #4]
 286 003c 1B78     		ldrb	r3, [r3]	@ zero_extendqisi2
 287 003e 042B     		cmp	r3, #4
 288 0040 09D1     		bne	.L13
 289              		.loc 4 154 0 is_stmt 0 discriminator 1
 290 0042 019B     		ldr	r3, [sp, #4]
 291 0044 5B68     		ldr	r3, [r3, #4]
 292 0046 9B68     		ldr	r3, [r3, #8]
 293 0048 002B     		cmp	r3, #0
 294 004a 04D0     		beq	.L13
 295              		.loc 4 154 0 discriminator 2
 296 004c 019B     		ldr	r3, [sp, #4]
 297 004e 5B68     		ldr	r3, [r3, #4]
 298 0050 9B68     		ldr	r3, [r3, #8]
 299 0052 0198     		ldr	r0, [sp, #4]
 300 0054 9847     		blx	r3
 301              	.L13:
 302              		.loc 4 155 0 is_stmt 1
 303 0056 039B     		ldr	r3, [sp, #12]
 304 0058 03F00203 		and	r3, r3, #2
 305 005c 002B     		cmp	r3, #0
 306 005e 3AD0     		beq	.L16
 307              		.loc 4 156 0
 308 0060 019B     		ldr	r3, [sp, #4]
 309 0062 1B78     		ldrb	r3, [r3]	@ zero_extendqisi2
 310 0064 042B     		cmp	r3, #4
 311 0066 09D1     		bne	.L15
 312              		.loc 4 156 0 is_stmt 0 discriminator 1
 313 0068 019B     		ldr	r3, [sp, #4]
 314 006a 5B68     		ldr	r3, [r3, #4]
 315 006c DB68     		ldr	r3, [r3, #12]
 316 006e 002B     		cmp	r3, #0
 317 0070 04D0     		beq	.L15
 318              		.loc 4 156 0 discriminator 3
 319 0072 019B     		ldr	r3, [sp, #4]
 320 0074 5B68     		ldr	r3, [r3, #4]
 321 0076 DB68     		ldr	r3, [r3, #12]
 322 0078 0198     		ldr	r0, [sp, #4]
 323 007a 9847     		blx	r3
 324              	.L15:
 325              		.loc 4 156 0 discriminator 5
 326 007c 019B     		ldr	r3, [sp, #4]
 327 007e 0422     		movs	r2, #4
 328 0080 1A70     		strb	r2, [r3]
 329 0082 28E0     		b	.L16
 330              	.L12:
 331              		.loc 4 159 0 is_stmt 1
 332 0084 039B     		ldr	r3, [sp, #12]
 333 0086 03F00203 		and	r3, r3, #2
 334 008a 002B     		cmp	r3, #0
ARM GAS  /tmp/cc4ZxXve.s 			page 7


 335 008c 0DD0     		beq	.L17
 336              		.loc 4 160 0
 337 008e 019B     		ldr	r3, [sp, #4]
 338 0090 1B78     		ldrb	r3, [r3]	@ zero_extendqisi2
 339 0092 042B     		cmp	r3, #4
 340 0094 09D1     		bne	.L17
 341              		.loc 4 160 0 is_stmt 0 discriminator 1
 342 0096 019B     		ldr	r3, [sp, #4]
 343 0098 5B68     		ldr	r3, [r3, #4]
 344 009a 9B68     		ldr	r3, [r3, #8]
 345 009c 002B     		cmp	r3, #0
 346 009e 04D0     		beq	.L17
 347              		.loc 4 160 0 discriminator 2
 348 00a0 019B     		ldr	r3, [sp, #4]
 349 00a2 5B68     		ldr	r3, [r3, #4]
 350 00a4 9B68     		ldr	r3, [r3, #8]
 351 00a6 0198     		ldr	r0, [sp, #4]
 352 00a8 9847     		blx	r3
 353              	.L17:
 354              		.loc 4 161 0 is_stmt 1
 355 00aa 039B     		ldr	r3, [sp, #12]
 356 00ac 03F00403 		and	r3, r3, #4
 357 00b0 002B     		cmp	r3, #0
 358 00b2 10D0     		beq	.L16
 359              		.loc 4 162 0
 360 00b4 019B     		ldr	r3, [sp, #4]
 361 00b6 1B78     		ldrb	r3, [r3]	@ zero_extendqisi2
 362 00b8 042B     		cmp	r3, #4
 363 00ba 09D1     		bne	.L18
 364              		.loc 4 162 0 is_stmt 0 discriminator 1
 365 00bc 019B     		ldr	r3, [sp, #4]
 366 00be 5B68     		ldr	r3, [r3, #4]
 367 00c0 DB68     		ldr	r3, [r3, #12]
 368 00c2 002B     		cmp	r3, #0
 369 00c4 04D0     		beq	.L18
 370              		.loc 4 162 0 discriminator 3
 371 00c6 019B     		ldr	r3, [sp, #4]
 372 00c8 5B68     		ldr	r3, [r3, #4]
 373 00ca DB68     		ldr	r3, [r3, #12]
 374 00cc 0198     		ldr	r0, [sp, #4]
 375 00ce 9847     		blx	r3
 376              	.L18:
 377              		.loc 4 162 0 discriminator 5
 378 00d0 019B     		ldr	r3, [sp, #4]
 379 00d2 0422     		movs	r2, #4
 380 00d4 1A70     		strb	r2, [r3]
 381              	.L16:
 382              		.loc 4 164 0 is_stmt 1
 383 00d6 039B     		ldr	r3, [sp, #12]
 384 00d8 03F00103 		and	r3, r3, #1
 385 00dc 002B     		cmp	r3, #0
 386 00de 07D0     		beq	.L11
 387              		.loc 4 165 0
 388 00e0 019B     		ldr	r3, [sp, #4]
 389 00e2 5B68     		ldr	r3, [r3, #4]
 390 00e4 1B69     		ldr	r3, [r3, #16]
 391 00e6 0198     		ldr	r0, [sp, #4]
ARM GAS  /tmp/cc4ZxXve.s 			page 8


 392 00e8 9847     		blx	r3
 393 00ea 019B     		ldr	r3, [sp, #4]
 394 00ec 0322     		movs	r2, #3
 395 00ee 1A70     		strb	r2, [r3]
 396              	.L11:
 397              		.loc 4 166 0
 398 00f0 05B0     		add	sp, sp, #20
 399              		.cfi_def_cfa_offset 4
 400              		@ sp needed
 401 00f2 5DF804FB 		ldr	pc, [sp], #4
 402              		.cfi_endproc
 403              	.LFE254:
 404              		.size	icu_lld_serve_interrupt, .-icu_lld_serve_interrupt
 405 00f6 00BFAFF3 		.section	.text.VectorB0,"ax",%progbits
 405      0080AFF3 
 405      0080
 406              		.align	2
 407              		.p2align 4,,15
 408              		.global	VectorB0
 409              		.thumb
 410              		.thumb_func
 411              		.type	VectorB0, %function
 412              	VectorB0:
 413              	.LFB255:
 414              		.loc 4 226 0
 415              		.cfi_startproc
 416              		@ args = 0, pretend = 0, frame = 0
 417              		@ frame_needed = 0, uses_anonymous_args = 0
 418 0000 08B5     		push	{r3, lr}
 419              		.cfi_def_cfa_offset 8
 420              		.cfi_offset 3, -8
 421              		.cfi_offset 14, -4
 422              		.loc 4 230 0
 423 0002 0348     		ldr	r0, .L21
 424 0004 FFF7FEFF 		bl	icu_lld_serve_interrupt
 425              		.loc 4 232 0
 426 0008 FFF7FEFF 		bl	_port_irq_epilogue
 427              		.loc 4 233 0
 428 000c 08BD     		pop	{r3, pc}
 429              	.L22:
 430 000e 00BF     		.align	2
 431              	.L21:
 432 0010 00000000 		.word	ICUD2
 433              		.cfi_endproc
 434              	.LFE255:
 435              		.size	VectorB0, .-VectorB0
 436 0014 AFF30080 		.section	.text.Vector108,"ax",%progbits
 436      AFF30080 
 436      AFF30080 
 437              		.align	2
 438              		.p2align 4,,15
 439              		.global	Vector108
 440              		.thumb
 441              		.thumb_func
 442              		.type	Vector108, %function
 443              	Vector108:
 444              	.LFB256:
ARM GAS  /tmp/cc4ZxXve.s 			page 9


 445              		.loc 4 292 0
 446              		.cfi_startproc
 447              		@ args = 0, pretend = 0, frame = 0
 448              		@ frame_needed = 0, uses_anonymous_args = 0
 449 0000 08B5     		push	{r3, lr}
 450              		.cfi_def_cfa_offset 8
 451              		.cfi_offset 3, -8
 452              		.cfi_offset 14, -4
 453              		.loc 4 296 0
 454 0002 0348     		ldr	r0, .L24
 455 0004 FFF7FEFF 		bl	icu_lld_serve_interrupt
 456              		.loc 4 298 0
 457 0008 FFF7FEFF 		bl	_port_irq_epilogue
 458              		.loc 4 299 0
 459 000c 08BD     		pop	{r3, pc}
 460              	.L25:
 461 000e 00BF     		.align	2
 462              	.L24:
 463 0010 00000000 		.word	ICUD5
 464              		.cfi_endproc
 465              	.LFE256:
 466              		.size	Vector108, .-Vector108
 467 0014 AFF30080 		.section	.text.icu_lld_init,"ax",%progbits
 467      AFF30080 
 467      AFF30080 
 468              		.align	2
 469              		.p2align 4,,15
 470              		.global	icu_lld_init
 471              		.thumb
 472              		.thumb_func
 473              		.type	icu_lld_init, %function
 474              	icu_lld_init:
 475              	.LFB257:
 476              		.loc 4 375 0
 477              		.cfi_startproc
 478              		@ args = 0, pretend = 0, frame = 0
 479              		@ frame_needed = 0, uses_anonymous_args = 0
 480 0000 08B5     		push	{r3, lr}
 481              		.cfi_def_cfa_offset 8
 482              		.cfi_offset 3, -8
 483              		.cfi_offset 14, -4
 484              		.loc 4 385 0
 485 0002 0748     		ldr	r0, .L27
 486 0004 FFF7FEFF 		bl	icuObjectInit
 487              		.loc 4 386 0
 488 0008 054B     		ldr	r3, .L27
 489 000a 4FF08042 		mov	r2, #1073741824
 490 000e DA60     		str	r2, [r3, #12]
 491              		.loc 4 403 0
 492 0010 0448     		ldr	r0, .L27+4
 493 0012 FFF7FEFF 		bl	icuObjectInit
 494              		.loc 4 404 0
 495 0016 034B     		ldr	r3, .L27+4
 496 0018 034A     		ldr	r2, .L27+8
 497 001a DA60     		str	r2, [r3, #12]
 498              		.loc 4 418 0
 499 001c 08BD     		pop	{r3, pc}
ARM GAS  /tmp/cc4ZxXve.s 			page 10


 500              	.L28:
 501 001e 00BF     		.align	2
 502              	.L27:
 503 0020 00000000 		.word	ICUD2
 504 0024 00000000 		.word	ICUD5
 505 0028 000C0040 		.word	1073744896
 506              		.cfi_endproc
 507              	.LFE257:
 508              		.size	icu_lld_init, .-icu_lld_init
 509 002c AFF30080 		.section	.text.icu_lld_start,"ax",%progbits
 510              		.align	2
 511              		.p2align 4,,15
 512              		.global	icu_lld_start
 513              		.thumb
 514              		.thumb_func
 515              		.type	icu_lld_start, %function
 516              	icu_lld_start:
 517              	.LFB258:
 518              		.loc 4 427 0
 519              		.cfi_startproc
 520              		@ args = 0, pretend = 0, frame = 16
 521              		@ frame_needed = 0, uses_anonymous_args = 0
 522 0000 00B5     		push	{lr}
 523              		.cfi_def_cfa_offset 4
 524              		.cfi_offset 14, -4
 525 0002 85B0     		sub	sp, sp, #20
 526              		.cfi_def_cfa_offset 24
 527 0004 0190     		str	r0, [sp, #4]
 528              		.loc 4 434 0
 529 0006 019B     		ldr	r3, [sp, #4]
 530 0008 1B78     		ldrb	r3, [r3]	@ zero_extendqisi2
 531 000a 012B     		cmp	r3, #1
 532 000c 34D1     		bne	.L30
 533              		.loc 4 450 0
 534 000e 019B     		ldr	r3, [sp, #4]
 535 0010 584A     		ldr	r2, .L40
 536 0012 9342     		cmp	r3, r2
 537 0014 15D1     		bne	.L31
 538              		.loc 4 451 0
 539 0016 584A     		ldr	r2, .L40+4
 540 0018 574B     		ldr	r3, .L40+4
 541 001a 1B6C     		ldr	r3, [r3, #64]
 542 001c 43F00103 		orr	r3, r3, #1
 543 0020 1364     		str	r3, [r2, #64]
 544              		.loc 4 452 0
 545 0022 554A     		ldr	r2, .L40+4
 546 0024 544B     		ldr	r3, .L40+4
 547 0026 1B6A     		ldr	r3, [r3, #32]
 548 0028 43F00103 		orr	r3, r3, #1
 549 002c 1362     		str	r3, [r2, #32]
 550 002e 524B     		ldr	r3, .L40+4
 551 0030 0022     		movs	r2, #0
 552 0032 1A62     		str	r2, [r3, #32]
 553              		.loc 4 453 0
 554 0034 1C20     		movs	r0, #28
 555 0036 0721     		movs	r1, #7
 556 0038 FFF7FEFF 		bl	nvicEnableVector
ARM GAS  /tmp/cc4ZxXve.s 			page 11


 557              		.loc 4 454 0
 558 003c 019B     		ldr	r3, [sp, #4]
 559 003e 4F4A     		ldr	r2, .L40+8
 560 0040 9A60     		str	r2, [r3, #8]
 561              	.L31:
 562              		.loc 4 474 0
 563 0042 019B     		ldr	r3, [sp, #4]
 564 0044 4E4A     		ldr	r2, .L40+12
 565 0046 9342     		cmp	r3, r2
 566 0048 26D1     		bne	.L33
 567              		.loc 4 475 0
 568 004a 4B4A     		ldr	r2, .L40+4
 569 004c 4A4B     		ldr	r3, .L40+4
 570 004e 1B6C     		ldr	r3, [r3, #64]
 571 0050 43F00803 		orr	r3, r3, #8
 572 0054 1364     		str	r3, [r2, #64]
 573              		.loc 4 476 0
 574 0056 484A     		ldr	r2, .L40+4
 575 0058 474B     		ldr	r3, .L40+4
 576 005a 1B6A     		ldr	r3, [r3, #32]
 577 005c 43F00803 		orr	r3, r3, #8
 578 0060 1362     		str	r3, [r2, #32]
 579 0062 454B     		ldr	r3, .L40+4
 580 0064 0022     		movs	r2, #0
 581 0066 1A62     		str	r2, [r3, #32]
 582              		.loc 4 477 0
 583 0068 3220     		movs	r0, #50
 584 006a 0721     		movs	r1, #7
 585 006c FFF7FEFF 		bl	nvicEnableVector
 586              		.loc 4 478 0
 587 0070 019B     		ldr	r3, [sp, #4]
 588 0072 424A     		ldr	r2, .L40+8
 589 0074 9A60     		str	r2, [r3, #8]
 590 0076 0FE0     		b	.L33
 591              	.L30:
 592              		.loc 4 505 0
 593 0078 019B     		ldr	r3, [sp, #4]
 594 007a DB68     		ldr	r3, [r3, #12]
 595 007c 0022     		movs	r2, #0
 596 007e 1A60     		str	r2, [r3]
 597              		.loc 4 506 0
 598 0080 019B     		ldr	r3, [sp, #4]
 599 0082 DB68     		ldr	r3, [r3, #12]
 600 0084 0022     		movs	r2, #0
 601 0086 5A63     		str	r2, [r3, #52]
 602              		.loc 4 507 0
 603 0088 019B     		ldr	r3, [sp, #4]
 604 008a DB68     		ldr	r3, [r3, #12]
 605 008c 0022     		movs	r2, #0
 606 008e 9A63     		str	r2, [r3, #56]
 607              		.loc 4 508 0
 608 0090 019B     		ldr	r3, [sp, #4]
 609 0092 DB68     		ldr	r3, [r3, #12]
 610 0094 0022     		movs	r2, #0
 611 0096 5A62     		str	r2, [r3, #36]
 612              	.L33:
 613              		.loc 4 512 0
ARM GAS  /tmp/cc4ZxXve.s 			page 12


 614 0098 019B     		ldr	r3, [sp, #4]
 615 009a DB68     		ldr	r3, [r3, #12]
 616 009c 0022     		movs	r2, #0
 617 009e 1A61     		str	r2, [r3, #16]
 618              		.loc 4 513 0
 619 00a0 019B     		ldr	r3, [sp, #4]
 620 00a2 DB68     		ldr	r3, [r3, #12]
 621 00a4 019A     		ldr	r2, [sp, #4]
 622 00a6 5268     		ldr	r2, [r2, #4]
 623 00a8 9269     		ldr	r2, [r2, #24]
 624 00aa 22F0FF02 		bic	r2, r2, #255
 625 00ae DA60     		str	r2, [r3, #12]
 626              		.loc 4 515 0
 627 00b0 019B     		ldr	r3, [sp, #4]
 628 00b2 9A68     		ldr	r2, [r3, #8]
 629 00b4 019B     		ldr	r3, [sp, #4]
 630 00b6 5B68     		ldr	r3, [r3, #4]
 631 00b8 5B68     		ldr	r3, [r3, #4]
 632 00ba B2FBF3F3 		udiv	r3, r2, r3
 633 00be 013B     		subs	r3, r3, #1
 634 00c0 0393     		str	r3, [sp, #12]
 635              		.loc 4 519 0
 636 00c2 019B     		ldr	r3, [sp, #4]
 637 00c4 DB68     		ldr	r3, [r3, #12]
 638 00c6 039A     		ldr	r2, [sp, #12]
 639 00c8 9A62     		str	r2, [r3, #40]
 640              		.loc 4 520 0
 641 00ca 019B     		ldr	r3, [sp, #4]
 642 00cc DB68     		ldr	r3, [r3, #12]
 643 00ce 4FF6FF72 		movw	r2, #65535
 644 00d2 DA62     		str	r2, [r3, #44]
 645              		.loc 4 522 0
 646 00d4 019B     		ldr	r3, [sp, #4]
 647 00d6 5B68     		ldr	r3, [r3, #4]
 648 00d8 1B7D     		ldrb	r3, [r3, #20]	@ zero_extendqisi2
 649 00da 002B     		cmp	r3, #0
 650 00dc 23D1     		bne	.L34
 651              		.loc 4 526 0
 652 00de 019B     		ldr	r3, [sp, #4]
 653 00e0 DB68     		ldr	r3, [r3, #12]
 654 00e2 40F20122 		movw	r2, #513
 655 00e6 9A61     		str	r2, [r3, #24]
 656              		.loc 4 530 0
 657 00e8 019B     		ldr	r3, [sp, #4]
 658 00ea DB68     		ldr	r3, [r3, #12]
 659 00ec 5422     		movs	r2, #84
 660 00ee 9A60     		str	r2, [r3, #8]
 661              		.loc 4 535 0
 662 00f0 019B     		ldr	r3, [sp, #4]
 663 00f2 5B68     		ldr	r3, [r3, #4]
 664 00f4 1B78     		ldrb	r3, [r3]	@ zero_extendqisi2
 665 00f6 002B     		cmp	r3, #0
 666 00f8 04D1     		bne	.L35
 667              		.loc 4 536 0
 668 00fa 019B     		ldr	r3, [sp, #4]
 669 00fc DB68     		ldr	r3, [r3, #12]
 670 00fe 3122     		movs	r2, #49
ARM GAS  /tmp/cc4ZxXve.s 			page 13


 671 0100 1A62     		str	r2, [r3, #32]
 672 0102 03E0     		b	.L36
 673              	.L35:
 674              		.loc 4 539 0
 675 0104 019B     		ldr	r3, [sp, #4]
 676 0106 DB68     		ldr	r3, [r3, #12]
 677 0108 1322     		movs	r2, #19
 678 010a 1A62     		str	r2, [r3, #32]
 679              	.L36:
 680              		.loc 4 544 0
 681 010c 019B     		ldr	r3, [sp, #4]
 682 010e DB68     		ldr	r3, [r3, #12]
 683 0110 03F13802 		add	r2, r3, #56
 684 0114 019B     		ldr	r3, [sp, #4]
 685 0116 1A61     		str	r2, [r3, #16]
 686              		.loc 4 545 0
 687 0118 019B     		ldr	r3, [sp, #4]
 688 011a DB68     		ldr	r3, [r3, #12]
 689 011c 03F13402 		add	r2, r3, #52
 690 0120 019B     		ldr	r3, [sp, #4]
 691 0122 5A61     		str	r2, [r3, #20]
 692 0124 22E0     		b	.L29
 693              	.L34:
 694              		.loc 4 551 0
 695 0126 019B     		ldr	r3, [sp, #4]
 696 0128 DB68     		ldr	r3, [r3, #12]
 697 012a 4FF48172 		mov	r2, #258
 698 012e 9A61     		str	r2, [r3, #24]
 699              		.loc 4 555 0
 700 0130 019B     		ldr	r3, [sp, #4]
 701 0132 DB68     		ldr	r3, [r3, #12]
 702 0134 6422     		movs	r2, #100
 703 0136 9A60     		str	r2, [r3, #8]
 704              		.loc 4 560 0
 705 0138 019B     		ldr	r3, [sp, #4]
 706 013a 5B68     		ldr	r3, [r3, #4]
 707 013c 1B78     		ldrb	r3, [r3]	@ zero_extendqisi2
 708 013e 002B     		cmp	r3, #0
 709 0140 04D1     		bne	.L38
 710              		.loc 4 561 0
 711 0142 019B     		ldr	r3, [sp, #4]
 712 0144 DB68     		ldr	r3, [r3, #12]
 713 0146 1322     		movs	r2, #19
 714 0148 1A62     		str	r2, [r3, #32]
 715 014a 03E0     		b	.L39
 716              	.L38:
 717              		.loc 4 564 0
 718 014c 019B     		ldr	r3, [sp, #4]
 719 014e DB68     		ldr	r3, [r3, #12]
 720 0150 3122     		movs	r2, #49
 721 0152 1A62     		str	r2, [r3, #32]
 722              	.L39:
 723              		.loc 4 569 0
 724 0154 019B     		ldr	r3, [sp, #4]
 725 0156 DB68     		ldr	r3, [r3, #12]
 726 0158 03F13402 		add	r2, r3, #52
 727 015c 019B     		ldr	r3, [sp, #4]
ARM GAS  /tmp/cc4ZxXve.s 			page 14


 728 015e 1A61     		str	r2, [r3, #16]
 729              		.loc 4 570 0
 730 0160 019B     		ldr	r3, [sp, #4]
 731 0162 DB68     		ldr	r3, [r3, #12]
 732 0164 03F13802 		add	r2, r3, #56
 733 0168 019B     		ldr	r3, [sp, #4]
 734 016a 5A61     		str	r2, [r3, #20]
 735              	.L29:
 736              		.loc 4 572 0
 737 016c 05B0     		add	sp, sp, #20
 738              		.cfi_def_cfa_offset 4
 739              		@ sp needed
 740 016e 5DF804FB 		ldr	pc, [sp], #4
 741              	.L41:
 742 0172 00BF     		.align	2
 743              	.L40:
 744 0174 00000000 		.word	ICUD2
 745 0178 00380240 		.word	1073887232
 746 017c 00BD0105 		.word	84000000
 747 0180 00000000 		.word	ICUD5
 748              		.cfi_endproc
 749              	.LFE258:
 750              		.size	icu_lld_start, .-icu_lld_start
 751 0184 AFF30080 		.section	.text.icu_lld_stop,"ax",%progbits
 751      AFF30080 
 751      AFF30080 
 752              		.align	2
 753              		.p2align 4,,15
 754              		.global	icu_lld_stop
 755              		.thumb
 756              		.thumb_func
 757              		.type	icu_lld_stop, %function
 758              	icu_lld_stop:
 759              	.LFB259:
 760              		.loc 4 581 0
 761              		.cfi_startproc
 762              		@ args = 0, pretend = 0, frame = 8
 763              		@ frame_needed = 0, uses_anonymous_args = 0
 764 0000 00B5     		push	{lr}
 765              		.cfi_def_cfa_offset 4
 766              		.cfi_offset 14, -4
 767 0002 83B0     		sub	sp, sp, #12
 768              		.cfi_def_cfa_offset 16
 769 0004 0190     		str	r0, [sp, #4]
 770              		.loc 4 583 0
 771 0006 019B     		ldr	r3, [sp, #4]
 772 0008 1B78     		ldrb	r3, [r3]	@ zero_extendqisi2
 773 000a 022B     		cmp	r3, #2
 774 000c 25D1     		bne	.L42
 775              		.loc 4 585 0
 776 000e 019B     		ldr	r3, [sp, #4]
 777 0010 DB68     		ldr	r3, [r3, #12]
 778 0012 0022     		movs	r2, #0
 779 0014 1A60     		str	r2, [r3]
 780              		.loc 4 586 0
 781 0016 019B     		ldr	r3, [sp, #4]
 782 0018 DB68     		ldr	r3, [r3, #12]
ARM GAS  /tmp/cc4ZxXve.s 			page 15


 783 001a 0022     		movs	r2, #0
 784 001c DA60     		str	r2, [r3, #12]
 785              		.loc 4 587 0
 786 001e 019B     		ldr	r3, [sp, #4]
 787 0020 DB68     		ldr	r3, [r3, #12]
 788 0022 0022     		movs	r2, #0
 789 0024 1A61     		str	r2, [r3, #16]
 790              		.loc 4 597 0
 791 0026 019B     		ldr	r3, [sp, #4]
 792 0028 0D4A     		ldr	r2, .L45
 793 002a 9342     		cmp	r3, r2
 794 002c 08D1     		bne	.L44
 795              		.loc 4 598 0
 796 002e 1C20     		movs	r0, #28
 797 0030 FFF7FEFF 		bl	nvicDisableVector
 798              		.loc 4 599 0
 799 0034 0B4A     		ldr	r2, .L45+4
 800 0036 0B4B     		ldr	r3, .L45+4
 801 0038 1B6C     		ldr	r3, [r3, #64]
 802 003a 23F00103 		bic	r3, r3, #1
 803 003e 1364     		str	r3, [r2, #64]
 804              	.L44:
 805              		.loc 4 615 0
 806 0040 019B     		ldr	r3, [sp, #4]
 807 0042 094A     		ldr	r2, .L45+8
 808 0044 9342     		cmp	r3, r2
 809 0046 08D1     		bne	.L42
 810              		.loc 4 616 0
 811 0048 3220     		movs	r0, #50
 812 004a FFF7FEFF 		bl	nvicDisableVector
 813              		.loc 4 617 0
 814 004e 054A     		ldr	r2, .L45+4
 815 0050 044B     		ldr	r3, .L45+4
 816 0052 1B6C     		ldr	r3, [r3, #64]
 817 0054 23F00803 		bic	r3, r3, #8
 818 0058 1364     		str	r3, [r2, #64]
 819              	.L42:
 820              		.loc 4 634 0
 821 005a 03B0     		add	sp, sp, #12
 822              		.cfi_def_cfa_offset 4
 823              		@ sp needed
 824 005c 5DF804FB 		ldr	pc, [sp], #4
 825              	.L46:
 826              		.align	2
 827              	.L45:
 828 0060 00000000 		.word	ICUD2
 829 0064 00380240 		.word	1073887232
 830 0068 00000000 		.word	ICUD5
 831              		.cfi_endproc
 832              	.LFE259:
 833              		.size	icu_lld_stop, .-icu_lld_stop
 834 006c AFF30080 		.section	.text.icu_lld_start_capture,"ax",%progbits
 835              		.align	2
 836              		.p2align 4,,15
 837              		.global	icu_lld_start_capture
 838              		.thumb
 839              		.thumb_func
ARM GAS  /tmp/cc4ZxXve.s 			page 16


 840              		.type	icu_lld_start_capture, %function
 841              	icu_lld_start_capture:
 842              	.LFB260:
 843              		.loc 4 643 0
 844              		.cfi_startproc
 845              		@ args = 0, pretend = 0, frame = 8
 846              		@ frame_needed = 0, uses_anonymous_args = 0
 847              		@ link register save eliminated.
 848 0000 82B0     		sub	sp, sp, #8
 849              		.cfi_def_cfa_offset 8
 850 0002 0190     		str	r0, [sp, #4]
 851              		.loc 4 646 0
 852 0004 019B     		ldr	r3, [sp, #4]
 853 0006 DB68     		ldr	r3, [r3, #12]
 854 0008 019A     		ldr	r2, [sp, #4]
 855 000a D268     		ldr	r2, [r2, #12]
 856 000c 5269     		ldr	r2, [r2, #20]
 857 000e 42F00102 		orr	r2, r2, #1
 858 0012 5A61     		str	r2, [r3, #20]
 859              		.loc 4 647 0
 860 0014 019B     		ldr	r3, [sp, #4]
 861 0016 DB68     		ldr	r3, [r3, #12]
 862 0018 0022     		movs	r2, #0
 863 001a 1A61     		str	r2, [r3, #16]
 864              		.loc 4 650 0
 865 001c 019B     		ldr	r3, [sp, #4]
 866 001e DB68     		ldr	r3, [r3, #12]
 867 0020 0522     		movs	r2, #5
 868 0022 1A60     		str	r2, [r3]
 869              		.loc 4 651 0
 870 0024 02B0     		add	sp, sp, #8
 871              		.cfi_def_cfa_offset 0
 872              		@ sp needed
 873 0026 7047     		bx	lr
 874              		.cfi_endproc
 875              	.LFE260:
 876              		.size	icu_lld_start_capture, .-icu_lld_start_capture
 877 0028 AFF30080 		.section	.text.icu_lld_wait_capture,"ax",%progbits
 877      AFF30080 
 878              		.align	2
 879              		.p2align 4,,15
 880              		.global	icu_lld_wait_capture
 881              		.thumb
 882              		.thumb_func
 883              		.type	icu_lld_wait_capture, %function
 884              	icu_lld_wait_capture:
 885              	.LFB261:
 886              		.loc 4 665 0
 887              		.cfi_startproc
 888              		@ args = 0, pretend = 0, frame = 8
 889              		@ frame_needed = 0, uses_anonymous_args = 0
 890 0000 00B5     		push	{lr}
 891              		.cfi_def_cfa_offset 4
 892              		.cfi_offset 14, -4
 893 0002 83B0     		sub	sp, sp, #12
 894              		.cfi_def_cfa_offset 16
 895 0004 0190     		str	r0, [sp, #4]
ARM GAS  /tmp/cc4ZxXve.s 			page 17


 896              		.loc 4 669 0
 897 0006 019B     		ldr	r3, [sp, #4]
 898 0008 1B78     		ldrb	r3, [r3]	@ zero_extendqisi2
 899 000a 032B     		cmp	r3, #3
 900 000c 07D1     		bne	.L49
 901              		.loc 4 670 0
 902 000e 0198     		ldr	r0, [sp, #4]
 903 0010 FFF7FEFF 		bl	icu_lld_wait_edge
 904 0014 0346     		mov	r3, r0
 905 0016 002B     		cmp	r3, #0
 906 0018 01D0     		beq	.L49
 907              		.loc 4 671 0
 908 001a 0123     		movs	r3, #1
 909 001c 03E0     		b	.L50
 910              	.L49:
 911              		.loc 4 674 0
 912 001e 0198     		ldr	r0, [sp, #4]
 913 0020 FFF7FEFF 		bl	icu_lld_wait_edge
 914 0024 0346     		mov	r3, r0
 915              	.L50:
 916              		.loc 4 675 0
 917 0026 1846     		mov	r0, r3
 918 0028 03B0     		add	sp, sp, #12
 919              		.cfi_def_cfa_offset 4
 920              		@ sp needed
 921 002a 5DF804FB 		ldr	pc, [sp], #4
 922              		.cfi_endproc
 923              	.LFE261:
 924              		.size	icu_lld_wait_capture, .-icu_lld_wait_capture
 925 002e 00BF     		.section	.text.icu_lld_stop_capture,"ax",%progbits
 926              		.align	2
 927              		.p2align 4,,15
 928              		.global	icu_lld_stop_capture
 929              		.thumb
 930              		.thumb_func
 931              		.type	icu_lld_stop_capture, %function
 932              	icu_lld_stop_capture:
 933              	.LFB262:
 934              		.loc 4 684 0
 935              		.cfi_startproc
 936              		@ args = 0, pretend = 0, frame = 8
 937              		@ frame_needed = 0, uses_anonymous_args = 0
 938              		@ link register save eliminated.
 939 0000 82B0     		sub	sp, sp, #8
 940              		.cfi_def_cfa_offset 8
 941 0002 0190     		str	r0, [sp, #4]
 942              		.loc 4 687 0
 943 0004 019B     		ldr	r3, [sp, #4]
 944 0006 DB68     		ldr	r3, [r3, #12]
 945 0008 0022     		movs	r2, #0
 946 000a 1A60     		str	r2, [r3]
 947              		.loc 4 690 0
 948 000c 019B     		ldr	r3, [sp, #4]
 949 000e DB68     		ldr	r3, [r3, #12]
 950 0010 019A     		ldr	r2, [sp, #4]
 951 0012 D268     		ldr	r2, [r2, #12]
 952 0014 D268     		ldr	r2, [r2, #12]
ARM GAS  /tmp/cc4ZxXve.s 			page 18


 953 0016 22F0FF02 		bic	r2, r2, #255
 954 001a DA60     		str	r2, [r3, #12]
 955              		.loc 4 691 0
 956 001c 02B0     		add	sp, sp, #8
 957              		.cfi_def_cfa_offset 0
 958              		@ sp needed
 959 001e 7047     		bx	lr
 960              		.cfi_endproc
 961              	.LFE262:
 962              		.size	icu_lld_stop_capture, .-icu_lld_stop_capture
 963              		.section	.text.icu_lld_enable_notifications,"ax",%progbits
 964              		.align	2
 965              		.p2align 4,,15
 966              		.global	icu_lld_enable_notifications
 967              		.thumb
 968              		.thumb_func
 969              		.type	icu_lld_enable_notifications, %function
 970              	icu_lld_enable_notifications:
 971              	.LFB263:
 972              		.loc 4 702 0
 973              		.cfi_startproc
 974              		@ args = 0, pretend = 0, frame = 16
 975              		@ frame_needed = 0, uses_anonymous_args = 0
 976              		@ link register save eliminated.
 977 0000 84B0     		sub	sp, sp, #16
 978              		.cfi_def_cfa_offset 16
 979 0002 0190     		str	r0, [sp, #4]
 980              		.loc 4 703 0
 981 0004 019B     		ldr	r3, [sp, #4]
 982 0006 DB68     		ldr	r3, [r3, #12]
 983 0008 DB68     		ldr	r3, [r3, #12]
 984 000a 0393     		str	r3, [sp, #12]
 985              		.loc 4 708 0
 986 000c 039B     		ldr	r3, [sp, #12]
 987 000e DBB2     		uxtb	r3, r3
 988 0010 002B     		cmp	r3, #0
 989 0012 30D1     		bne	.L52
 990              		.loc 4 710 0
 991 0014 019B     		ldr	r3, [sp, #4]
 992 0016 DB68     		ldr	r3, [r3, #12]
 993 0018 0022     		movs	r2, #0
 994 001a 1A61     		str	r2, [r3, #16]
 995              		.loc 4 712 0
 996 001c 019B     		ldr	r3, [sp, #4]
 997 001e 5B68     		ldr	r3, [r3, #4]
 998 0020 1B7D     		ldrb	r3, [r3, #20]	@ zero_extendqisi2
 999 0022 002B     		cmp	r3, #0
 1000 0024 0DD1     		bne	.L54
 1001              		.loc 4 714 0
 1002 0026 039B     		ldr	r3, [sp, #12]
 1003 0028 43F00203 		orr	r3, r3, #2
 1004 002c 0393     		str	r3, [sp, #12]
 1005              		.loc 4 717 0
 1006 002e 019B     		ldr	r3, [sp, #4]
 1007 0030 5B68     		ldr	r3, [r3, #4]
 1008 0032 9B68     		ldr	r3, [r3, #8]
 1009 0034 002B     		cmp	r3, #0
ARM GAS  /tmp/cc4ZxXve.s 			page 19


 1010 0036 11D0     		beq	.L56
 1011              		.loc 4 718 0
 1012 0038 039B     		ldr	r3, [sp, #12]
 1013 003a 43F00403 		orr	r3, r3, #4
 1014 003e 0393     		str	r3, [sp, #12]
 1015 0040 0CE0     		b	.L56
 1016              	.L54:
 1017              		.loc 4 722 0
 1018 0042 039B     		ldr	r3, [sp, #12]
 1019 0044 43F00403 		orr	r3, r3, #4
 1020 0048 0393     		str	r3, [sp, #12]
 1021              		.loc 4 725 0
 1022 004a 019B     		ldr	r3, [sp, #4]
 1023 004c 5B68     		ldr	r3, [r3, #4]
 1024 004e 9B68     		ldr	r3, [r3, #8]
 1025 0050 002B     		cmp	r3, #0
 1026 0052 03D0     		beq	.L56
 1027              		.loc 4 726 0
 1028 0054 039B     		ldr	r3, [sp, #12]
 1029 0056 43F00203 		orr	r3, r3, #2
 1030 005a 0393     		str	r3, [sp, #12]
 1031              	.L56:
 1032              		.loc 4 731 0
 1033 005c 019B     		ldr	r3, [sp, #4]
 1034 005e 5B68     		ldr	r3, [r3, #4]
 1035 0060 1B69     		ldr	r3, [r3, #16]
 1036 0062 002B     		cmp	r3, #0
 1037 0064 03D0     		beq	.L57
 1038              		.loc 4 732 0
 1039 0066 039B     		ldr	r3, [sp, #12]
 1040 0068 43F00103 		orr	r3, r3, #1
 1041 006c 0393     		str	r3, [sp, #12]
 1042              	.L57:
 1043              		.loc 4 735 0
 1044 006e 019B     		ldr	r3, [sp, #4]
 1045 0070 DB68     		ldr	r3, [r3, #12]
 1046 0072 039A     		ldr	r2, [sp, #12]
 1047 0074 DA60     		str	r2, [r3, #12]
 1048              	.L52:
 1049              		.loc 4 737 0
 1050 0076 04B0     		add	sp, sp, #16
 1051              		.cfi_def_cfa_offset 0
 1052              		@ sp needed
 1053 0078 7047     		bx	lr
 1054              		.cfi_endproc
 1055              	.LFE263:
 1056              		.size	icu_lld_enable_notifications, .-icu_lld_enable_notifications
 1057 007a 00BFAFF3 		.section	.text.icu_lld_disable_notifications,"ax",%progbits
 1057      0080
 1058              		.align	2
 1059              		.p2align 4,,15
 1060              		.global	icu_lld_disable_notifications
 1061              		.thumb
 1062              		.thumb_func
 1063              		.type	icu_lld_disable_notifications, %function
 1064              	icu_lld_disable_notifications:
 1065              	.LFB264:
ARM GAS  /tmp/cc4ZxXve.s 			page 20


 1066              		.loc 4 748 0
 1067              		.cfi_startproc
 1068              		@ args = 0, pretend = 0, frame = 8
 1069              		@ frame_needed = 0, uses_anonymous_args = 0
 1070              		@ link register save eliminated.
 1071 0000 82B0     		sub	sp, sp, #8
 1072              		.cfi_def_cfa_offset 8
 1073 0002 0190     		str	r0, [sp, #4]
 1074              		.loc 4 751 0
 1075 0004 019B     		ldr	r3, [sp, #4]
 1076 0006 DB68     		ldr	r3, [r3, #12]
 1077 0008 019A     		ldr	r2, [sp, #4]
 1078 000a D268     		ldr	r2, [r2, #12]
 1079 000c D268     		ldr	r2, [r2, #12]
 1080 000e 22F0FF02 		bic	r2, r2, #255
 1081 0012 DA60     		str	r2, [r3, #12]
 1082              		.loc 4 752 0
 1083 0014 02B0     		add	sp, sp, #8
 1084              		.cfi_def_cfa_offset 0
 1085              		@ sp needed
 1086 0016 7047     		bx	lr
 1087              		.cfi_endproc
 1088              	.LFE264:
 1089              		.size	icu_lld_disable_notifications, .-icu_lld_disable_notifications
 1090 0018 AFF30080 		.text
 1090      AFF30080 
 1091              	.Letext0:
 1092              		.file 5 "/opt/gcc-arm-none-eabi/lib/gcc/arm-none-eabi/4.9.3/include/stddef.h"
 1093              		.file 6 "/opt/gcc-arm-none-eabi/arm-none-eabi/include/machine/_default_types.h"
 1094              		.file 7 "/opt/gcc-arm-none-eabi/arm-none-eabi/include/stdint.h"
 1095              		.file 8 "/home/makkmarci/workspace/CLEAN/ChibiOS/os/rt/ports/ARMCMx/compilers/GCC/chtypes.h"
 1096              		.file 9 "/home/makkmarci/workspace/CLEAN/ChibiOS/os/rt/include/chsystypes.h"
 1097              		.file 10 "/home/makkmarci/workspace/CLEAN/ChibiOS/os/rt/include/chschd.h"
 1098              		.file 11 "/home/makkmarci/workspace/CLEAN/ChibiOS/os/ext/CMSIS/ST/stm32f407xx.h"
 1099              		.file 12 "/home/makkmarci/workspace/CLEAN/ChibiOS/os/rt/ports/ARMCMx/chcore.h"
 1100              		.file 13 "/home/makkmarci/workspace/CLEAN/ChibiOS/os/rt/include/chtm.h"
 1101              		.file 14 "/home/makkmarci/workspace/CLEAN/ChibiOS/os/rt/include/chsem.h"
 1102              		.file 15 "/home/makkmarci/workspace/CLEAN/ChibiOS/os/rt/include/chmtx.h"
 1103              		.file 16 "/home/makkmarci/workspace/CLEAN/ChibiOS/os/hal/include/icu.h"
 1104              		.file 17 "/home/makkmarci/workspace/CLEAN/ChibiOS/os/hal/ports/STM32/LLD/TIMv1/icu_lld.h"
 1105              		.file 18 "/home/makkmarci/workspace/CLEAN/ChibiOS/os/hal/ports/STM32/LLD/TIMv1/stm32_tim.h"
 1106              		.file 19 "/home/makkmarci/workspace/CLEAN/ChibiOS/os/ext/CMSIS/include/core_cm4.h"
 1107              		.section	.debug_info,"",%progbits
 1108              	.Ldebug_info0:
 1109 0000 4E0E0000 		.4byte	0xe4e
 1110 0004 0400     		.2byte	0x4
 1111 0006 00000000 		.4byte	.Ldebug_abbrev0
 1112 000a 04       		.byte	0x4
 1113 000b 01       		.uleb128 0x1
 1114 000c 29040000 		.4byte	.LASF188
 1115 0010 01       		.byte	0x1
 1116 0011 4C000000 		.4byte	.LASF189
 1117 0015 00000000 		.4byte	.Ldebug_ranges0+0
 1118 0019 00000000 		.4byte	0
 1119 001d 00000000 		.4byte	.Ldebug_line0
 1120 0021 02       		.uleb128 0x2
 1121 0022 04       		.byte	0x4
ARM GAS  /tmp/cc4ZxXve.s 			page 21


 1122 0023 05       		.byte	0x5
 1123 0024 696E7400 		.ascii	"int\000"
 1124 0028 03       		.uleb128 0x3
 1125 0029 28000000 		.4byte	.LASF2
 1126 002d 05       		.byte	0x5
 1127 002e D4       		.byte	0xd4
 1128 002f 33000000 		.4byte	0x33
 1129 0033 04       		.uleb128 0x4
 1130 0034 04       		.byte	0x4
 1131 0035 07       		.byte	0x7
 1132 0036 7E020000 		.4byte	.LASF0
 1133 003a 04       		.uleb128 0x4
 1134 003b 01       		.byte	0x1
 1135 003c 06       		.byte	0x6
 1136 003d A6010000 		.4byte	.LASF1
 1137 0041 03       		.uleb128 0x3
 1138 0042 BB000000 		.4byte	.LASF3
 1139 0046 06       		.byte	0x6
 1140 0047 1D       		.byte	0x1d
 1141 0048 4C000000 		.4byte	0x4c
 1142 004c 04       		.uleb128 0x4
 1143 004d 01       		.byte	0x1
 1144 004e 08       		.byte	0x8
 1145 004f 68060000 		.4byte	.LASF4
 1146 0053 04       		.uleb128 0x4
 1147 0054 02       		.byte	0x2
 1148 0055 05       		.byte	0x5
 1149 0056 90060000 		.4byte	.LASF5
 1150 005a 04       		.uleb128 0x4
 1151 005b 02       		.byte	0x2
 1152 005c 07       		.byte	0x7
 1153 005d 81010000 		.4byte	.LASF6
 1154 0061 03       		.uleb128 0x3
 1155 0062 83030000 		.4byte	.LASF7
 1156 0066 06       		.byte	0x6
 1157 0067 3F       		.byte	0x3f
 1158 0068 6C000000 		.4byte	0x6c
 1159 006c 04       		.uleb128 0x4
 1160 006d 04       		.byte	0x4
 1161 006e 05       		.byte	0x5
 1162 006f E8010000 		.4byte	.LASF8
 1163 0073 03       		.uleb128 0x3
 1164 0074 BB070000 		.4byte	.LASF9
 1165 0078 06       		.byte	0x6
 1166 0079 41       		.byte	0x41
 1167 007a 7E000000 		.4byte	0x7e
 1168 007e 04       		.uleb128 0x4
 1169 007f 04       		.byte	0x4
 1170 0080 07       		.byte	0x7
 1171 0081 52070000 		.4byte	.LASF10
 1172 0085 04       		.uleb128 0x4
 1173 0086 08       		.byte	0x8
 1174 0087 05       		.byte	0x5
 1175 0088 55020000 		.4byte	.LASF11
 1176 008c 03       		.uleb128 0x3
 1177 008d DB050000 		.4byte	.LASF12
 1178 0091 06       		.byte	0x6
ARM GAS  /tmp/cc4ZxXve.s 			page 22


 1179 0092 5B       		.byte	0x5b
 1180 0093 97000000 		.4byte	0x97
 1181 0097 04       		.uleb128 0x4
 1182 0098 08       		.byte	0x8
 1183 0099 07       		.byte	0x7
 1184 009a 06010000 		.4byte	.LASF13
 1185 009e 03       		.uleb128 0x3
 1186 009f 8A080000 		.4byte	.LASF14
 1187 00a3 07       		.byte	0x7
 1188 00a4 15       		.byte	0x15
 1189 00a5 41000000 		.4byte	0x41
 1190 00a9 03       		.uleb128 0x3
 1191 00aa 60060000 		.4byte	.LASF15
 1192 00ae 07       		.byte	0x7
 1193 00af 2C       		.byte	0x2c
 1194 00b0 61000000 		.4byte	0x61
 1195 00b4 03       		.uleb128 0x3
 1196 00b5 2A070000 		.4byte	.LASF16
 1197 00b9 07       		.byte	0x7
 1198 00ba 2D       		.byte	0x2d
 1199 00bb 73000000 		.4byte	0x73
 1200 00bf 03       		.uleb128 0x3
 1201 00c0 9B000000 		.4byte	.LASF17
 1202 00c4 07       		.byte	0x7
 1203 00c5 39       		.byte	0x39
 1204 00c6 8C000000 		.4byte	0x8c
 1205 00ca 05       		.uleb128 0x5
 1206 00cb A9000000 		.4byte	0xa9
 1207 00cf 05       		.uleb128 0x5
 1208 00d0 B4000000 		.4byte	0xb4
 1209 00d4 03       		.uleb128 0x3
 1210 00d5 14080000 		.4byte	.LASF18
 1211 00d9 08       		.byte	0x8
 1212 00da 46       		.byte	0x46
 1213 00db B4000000 		.4byte	0xb4
 1214 00df 03       		.uleb128 0x3
 1215 00e0 AD080000 		.4byte	.LASF19
 1216 00e4 08       		.byte	0x8
 1217 00e5 49       		.byte	0x49
 1218 00e6 9E000000 		.4byte	0x9e
 1219 00ea 03       		.uleb128 0x3
 1220 00eb 04020000 		.4byte	.LASF20
 1221 00ef 08       		.byte	0x8
 1222 00f0 4A       		.byte	0x4a
 1223 00f1 9E000000 		.4byte	0x9e
 1224 00f5 03       		.uleb128 0x3
 1225 00f6 E6050000 		.4byte	.LASF21
 1226 00fa 08       		.byte	0x8
 1227 00fb 4B       		.byte	0x4b
 1228 00fc 9E000000 		.4byte	0x9e
 1229 0100 03       		.uleb128 0x3
 1230 0101 37060000 		.4byte	.LASF22
 1231 0105 08       		.byte	0x8
 1232 0106 4D       		.byte	0x4d
 1233 0107 B4000000 		.4byte	0xb4
 1234 010b 03       		.uleb128 0x3
 1235 010c 16030000 		.4byte	.LASF23
ARM GAS  /tmp/cc4ZxXve.s 			page 23


 1236 0110 08       		.byte	0x8
 1237 0111 4E       		.byte	0x4e
 1238 0112 A9000000 		.4byte	0xa9
 1239 0116 03       		.uleb128 0x3
 1240 0117 77030000 		.4byte	.LASF24
 1241 011b 08       		.byte	0x8
 1242 011c 50       		.byte	0x50
 1243 011d B4000000 		.4byte	0xb4
 1244 0121 03       		.uleb128 0x3
 1245 0122 78020000 		.4byte	.LASF25
 1246 0126 08       		.byte	0x8
 1247 0127 52       		.byte	0x52
 1248 0128 A9000000 		.4byte	0xa9
 1249 012c 03       		.uleb128 0x3
 1250 012d 9D070000 		.4byte	.LASF26
 1251 0131 09       		.byte	0x9
 1252 0132 33       		.byte	0x33
 1253 0133 B4000000 		.4byte	0xb4
 1254 0137 03       		.uleb128 0x3
 1255 0138 88070000 		.4byte	.LASF27
 1256 013c 09       		.byte	0x9
 1257 013d 3F       		.byte	0x3f
 1258 013e 42010000 		.4byte	0x142
 1259 0142 06       		.uleb128 0x6
 1260 0143 D3020000 		.4byte	.LASF47
 1261 0147 44       		.byte	0x44
 1262 0148 0A       		.byte	0xa
 1263 0149 C2       		.byte	0xc2
 1264 014a 2F020000 		.4byte	0x22f
 1265 014e 07       		.uleb128 0x7
 1266 014f 62050000 		.4byte	.LASF28
 1267 0153 0A       		.byte	0xa
 1268 0154 C3       		.byte	0xc3
 1269 0155 3A020000 		.4byte	0x23a
 1270 0159 00       		.byte	0
 1271 015a 07       		.uleb128 0x7
 1272 015b 20060000 		.4byte	.LASF29
 1273 015f 0A       		.byte	0xa
 1274 0160 C5       		.byte	0xc5
 1275 0161 3A020000 		.4byte	0x23a
 1276 0165 04       		.byte	0x4
 1277 0166 07       		.uleb128 0x7
 1278 0167 7A010000 		.4byte	.LASF30
 1279 016b 0A       		.byte	0xa
 1280 016c C7       		.byte	0xc7
 1281 016d 00010000 		.4byte	0x100
 1282 0171 08       		.byte	0x8
 1283 0172 07       		.uleb128 0x7
 1284 0173 12090000 		.4byte	.LASF31
 1285 0177 0A       		.byte	0xa
 1286 0178 C8       		.byte	0xc8
 1287 0179 25060000 		.4byte	0x625
 1288 017d 0C       		.byte	0xc
 1289 017e 07       		.uleb128 0x7
 1290 017f 0D020000 		.4byte	.LASF32
 1291 0183 0A       		.byte	0xa
 1292 0184 CA       		.byte	0xca
ARM GAS  /tmp/cc4ZxXve.s 			page 24


 1293 0185 3A020000 		.4byte	0x23a
 1294 0189 10       		.byte	0x10
 1295 018a 07       		.uleb128 0x7
 1296 018b 7A050000 		.4byte	.LASF33
 1297 018f 0A       		.byte	0xa
 1298 0190 CB       		.byte	0xcb
 1299 0191 3A020000 		.4byte	0x23a
 1300 0195 14       		.byte	0x14
 1301 0196 07       		.uleb128 0x7
 1302 0197 99080000 		.4byte	.LASF34
 1303 019b 0A       		.byte	0xa
 1304 019c D2       		.byte	0xd2
 1305 019d 6A080000 		.4byte	0x86a
 1306 01a1 18       		.byte	0x18
 1307 01a2 07       		.uleb128 0x7
 1308 01a3 9A060000 		.4byte	.LASF35
 1309 01a7 0A       		.byte	0xa
 1310 01a8 DD       		.byte	0xdd
 1311 01a9 EA000000 		.4byte	0xea
 1312 01ad 1C       		.byte	0x1c
 1313 01ae 07       		.uleb128 0x7
 1314 01af BA060000 		.4byte	.LASF36
 1315 01b3 0A       		.byte	0xa
 1316 01b4 E1       		.byte	0xe1
 1317 01b5 DF000000 		.4byte	0xdf
 1318 01b9 1D       		.byte	0x1d
 1319 01ba 07       		.uleb128 0x7
 1320 01bb 42080000 		.4byte	.LASF37
 1321 01bf 0A       		.byte	0xa
 1322 01c0 E6       		.byte	0xe6
 1323 01c1 F5000000 		.4byte	0xf5
 1324 01c5 1E       		.byte	0x1e
 1325 01c6 08       		.uleb128 0x8
 1326 01c7 705F7500 		.ascii	"p_u\000"
 1327 01cb 0A       		.byte	0xa
 1328 01cc 3101     		.2byte	0x131
 1329 01ce A5070000 		.4byte	0x7a5
 1330 01d2 20       		.byte	0x20
 1331 01d3 09       		.uleb128 0x9
 1332 01d4 EC030000 		.4byte	.LASF38
 1333 01d8 0A       		.byte	0xa
 1334 01d9 3601     		.2byte	0x136
 1335 01db 40020000 		.4byte	0x240
 1336 01df 24       		.byte	0x24
 1337 01e0 09       		.uleb128 0x9
 1338 01e1 AE020000 		.4byte	.LASF39
 1339 01e5 0A       		.byte	0xa
 1340 01e6 3C01     		.2byte	0x13c
 1341 01e8 64020000 		.4byte	0x264
 1342 01ec 28       		.byte	0x28
 1343 01ed 09       		.uleb128 0x9
 1344 01ee D7080000 		.4byte	.LASF40
 1345 01f2 0A       		.byte	0xa
 1346 01f3 4001     		.2byte	0x140
 1347 01f5 0B010000 		.4byte	0x10b
 1348 01f9 30       		.byte	0x30
 1349 01fa 09       		.uleb128 0x9
ARM GAS  /tmp/cc4ZxXve.s 			page 25


 1350 01fb 15070000 		.4byte	.LASF41
 1351 01ff 0A       		.byte	0xa
 1352 0200 4601     		.2byte	0x146
 1353 0202 16010000 		.4byte	0x116
 1354 0206 34       		.byte	0x34
 1355 0207 09       		.uleb128 0x9
 1356 0208 86060000 		.4byte	.LASF42
 1357 020c 0A       		.byte	0xa
 1358 020d 4D01     		.2byte	0x14d
 1359 020f 64080000 		.4byte	0x864
 1360 0213 38       		.byte	0x38
 1361 0214 09       		.uleb128 0x9
 1362 0215 A7070000 		.4byte	.LASF43
 1363 0219 0A       		.byte	0xa
 1364 021a 5101     		.2byte	0x151
 1365 021c 00010000 		.4byte	0x100
 1366 0220 3C       		.byte	0x3c
 1367 0221 09       		.uleb128 0x9
 1368 0222 2F020000 		.4byte	.LASF44
 1369 0226 0A       		.byte	0xa
 1370 0227 5801     		.2byte	0x158
 1371 0229 17030000 		.4byte	0x317
 1372 022d 40       		.byte	0x40
 1373 022e 00       		.byte	0
 1374 022f 03       		.uleb128 0x3
 1375 0230 FF030000 		.4byte	.LASF45
 1376 0234 09       		.byte	0x9
 1377 0235 44       		.byte	0x44
 1378 0236 3A020000 		.4byte	0x23a
 1379 023a 0A       		.uleb128 0xa
 1380 023b 04       		.byte	0x4
 1381 023c 37010000 		.4byte	0x137
 1382 0240 03       		.uleb128 0x3
 1383 0241 B7030000 		.4byte	.LASF46
 1384 0245 09       		.byte	0x9
 1385 0246 49       		.byte	0x49
 1386 0247 4B020000 		.4byte	0x24b
 1387 024b 06       		.uleb128 0x6
 1388 024c 42070000 		.4byte	.LASF48
 1389 0250 04       		.byte	0x4
 1390 0251 0A       		.byte	0xa
 1391 0252 B0       		.byte	0xb0
 1392 0253 64020000 		.4byte	0x264
 1393 0257 07       		.uleb128 0x7
 1394 0258 62050000 		.4byte	.LASF28
 1395 025c 0A       		.byte	0xa
 1396 025d B1       		.byte	0xb1
 1397 025e 3A020000 		.4byte	0x23a
 1398 0262 00       		.byte	0
 1399 0263 00       		.byte	0
 1400 0264 03       		.uleb128 0x3
 1401 0265 29080000 		.4byte	.LASF49
 1402 0269 09       		.byte	0x9
 1403 026a 50       		.byte	0x50
 1404 026b 6F020000 		.4byte	0x26f
 1405 026f 06       		.uleb128 0x6
 1406 0270 D1000000 		.4byte	.LASF50
ARM GAS  /tmp/cc4ZxXve.s 			page 26


 1407 0274 08       		.byte	0x8
 1408 0275 0A       		.byte	0xa
 1409 0276 B7       		.byte	0xb7
 1410 0277 94020000 		.4byte	0x294
 1411 027b 07       		.uleb128 0x7
 1412 027c 62050000 		.4byte	.LASF28
 1413 0280 0A       		.byte	0xa
 1414 0281 B8       		.byte	0xb8
 1415 0282 3A020000 		.4byte	0x23a
 1416 0286 00       		.byte	0
 1417 0287 07       		.uleb128 0x7
 1418 0288 20060000 		.4byte	.LASF29
 1419 028c 0A       		.byte	0xa
 1420 028d B9       		.byte	0xb9
 1421 028e 3A020000 		.4byte	0x23a
 1422 0292 04       		.byte	0x4
 1423 0293 00       		.byte	0
 1424 0294 03       		.uleb128 0x3
 1425 0295 16000000 		.4byte	.LASF51
 1426 0299 09       		.byte	0x9
 1427 029a 57       		.byte	0x57
 1428 029b 9F020000 		.4byte	0x29f
 1429 029f 0B       		.uleb128 0xb
 1430 02a0 69030000 		.4byte	.LASF52
 1431 02a4 1C       		.byte	0x1c
 1432 02a5 0A       		.byte	0xa
 1433 02a6 9001     		.2byte	0x190
 1434 02a8 FB020000 		.4byte	0x2fb
 1435 02ac 09       		.uleb128 0x9
 1436 02ad 3A070000 		.4byte	.LASF53
 1437 02b1 0A       		.byte	0xa
 1438 02b2 9101     		.2byte	0x191
 1439 02b4 64020000 		.4byte	0x264
 1440 02b8 00       		.byte	0
 1441 02b9 09       		.uleb128 0x9
 1442 02ba AC060000 		.4byte	.LASF54
 1443 02be 0A       		.byte	0xa
 1444 02bf 9201     		.2byte	0x192
 1445 02c1 00010000 		.4byte	0x100
 1446 02c5 08       		.byte	0x8
 1447 02c6 09       		.uleb128 0x9
 1448 02c7 89050000 		.4byte	.LASF55
 1449 02cb 0A       		.byte	0xa
 1450 02cc 9401     		.2byte	0x194
 1451 02ce 25060000 		.4byte	0x625
 1452 02d2 0C       		.byte	0xc
 1453 02d3 09       		.uleb128 0x9
 1454 02d4 27020000 		.4byte	.LASF56
 1455 02d8 0A       		.byte	0xa
 1456 02d9 9701     		.2byte	0x197
 1457 02db 3A020000 		.4byte	0x23a
 1458 02df 10       		.byte	0x10
 1459 02e0 09       		.uleb128 0x9
 1460 02e1 02080000 		.4byte	.LASF57
 1461 02e5 0A       		.byte	0xa
 1462 02e6 9801     		.2byte	0x198
 1463 02e8 3A020000 		.4byte	0x23a
ARM GAS  /tmp/cc4ZxXve.s 			page 27


 1464 02ec 14       		.byte	0x14
 1465 02ed 09       		.uleb128 0x9
 1466 02ee C8050000 		.4byte	.LASF58
 1467 02f2 0A       		.byte	0xa
 1468 02f3 9B01     		.2byte	0x19b
 1469 02f5 3A020000 		.4byte	0x23a
 1470 02f9 18       		.byte	0x18
 1471 02fa 00       		.byte	0
 1472 02fb 03       		.uleb128 0x3
 1473 02fc B2070000 		.4byte	.LASF59
 1474 0300 09       		.byte	0x9
 1475 0301 5C       		.byte	0x5c
 1476 0302 06030000 		.4byte	0x306
 1477 0306 0A       		.uleb128 0xa
 1478 0307 04       		.byte	0x4
 1479 0308 0C030000 		.4byte	0x30c
 1480 030c 0C       		.uleb128 0xc
 1481 030d 17030000 		.4byte	0x317
 1482 0311 0D       		.uleb128 0xd
 1483 0312 17030000 		.4byte	0x317
 1484 0316 00       		.byte	0
 1485 0317 0E       		.uleb128 0xe
 1486 0318 04       		.byte	0x4
 1487 0319 03       		.uleb128 0x3
 1488 031a C6030000 		.4byte	.LASF60
 1489 031e 09       		.byte	0x9
 1490 031f 61       		.byte	0x61
 1491 0320 24030000 		.4byte	0x324
 1492 0324 0B       		.uleb128 0xb
 1493 0325 F2060000 		.4byte	.LASF61
 1494 0329 14       		.byte	0x14
 1495 032a 0A       		.byte	0xa
 1496 032b 6B01     		.2byte	0x16b
 1497 032d 73030000 		.4byte	0x373
 1498 0331 09       		.uleb128 0x9
 1499 0332 8B020000 		.4byte	.LASF62
 1500 0336 0A       		.byte	0xa
 1501 0337 6C01     		.2byte	0x16c
 1502 0339 7C080000 		.4byte	0x87c
 1503 033d 00       		.byte	0
 1504 033e 09       		.uleb128 0x9
 1505 033f 40020000 		.4byte	.LASF63
 1506 0343 0A       		.byte	0xa
 1507 0344 6D01     		.2byte	0x16d
 1508 0346 7C080000 		.4byte	0x87c
 1509 034a 04       		.byte	0x4
 1510 034b 09       		.uleb128 0x9
 1511 034c A5020000 		.4byte	.LASF64
 1512 0350 0A       		.byte	0xa
 1513 0351 6E01     		.2byte	0x16e
 1514 0353 2C010000 		.4byte	0x12c
 1515 0357 08       		.byte	0x8
 1516 0358 09       		.uleb128 0x9
 1517 0359 18090000 		.4byte	.LASF65
 1518 035d 0A       		.byte	0xa
 1519 035e 6F01     		.2byte	0x16f
 1520 0360 FB020000 		.4byte	0x2fb
ARM GAS  /tmp/cc4ZxXve.s 			page 28


 1521 0364 0C       		.byte	0xc
 1522 0365 09       		.uleb128 0x9
 1523 0366 1C080000 		.4byte	.LASF66
 1524 036a 0A       		.byte	0xa
 1525 036b 7101     		.2byte	0x171
 1526 036d 17030000 		.4byte	0x317
 1527 0371 10       		.byte	0x10
 1528 0372 00       		.byte	0
 1529 0373 03       		.uleb128 0x3
 1530 0374 3E010000 		.4byte	.LASF67
 1531 0378 09       		.byte	0x9
 1532 0379 66       		.byte	0x66
 1533 037a 7E030000 		.4byte	0x37e
 1534 037e 0B       		.uleb128 0xb
 1535 037f 12040000 		.4byte	.LASF68
 1536 0383 10       		.byte	0x10
 1537 0384 0A       		.byte	0xa
 1538 0385 7B01     		.2byte	0x17b
 1539 0387 C0030000 		.4byte	0x3c0
 1540 038b 09       		.uleb128 0x9
 1541 038c 8B020000 		.4byte	.LASF62
 1542 0390 0A       		.byte	0xa
 1543 0391 7C01     		.2byte	0x17c
 1544 0393 7C080000 		.4byte	0x87c
 1545 0397 00       		.byte	0
 1546 0398 09       		.uleb128 0x9
 1547 0399 40020000 		.4byte	.LASF63
 1548 039d 0A       		.byte	0xa
 1549 039e 7E01     		.2byte	0x17e
 1550 03a0 7C080000 		.4byte	0x87c
 1551 03a4 04       		.byte	0x4
 1552 03a5 09       		.uleb128 0x9
 1553 03a6 A5020000 		.4byte	.LASF64
 1554 03aa 0A       		.byte	0xa
 1555 03ab 8001     		.2byte	0x180
 1556 03ad 2C010000 		.4byte	0x12c
 1557 03b1 08       		.byte	0x8
 1558 03b2 09       		.uleb128 0x9
 1559 03b3 9A020000 		.4byte	.LASF69
 1560 03b7 0A       		.byte	0xa
 1561 03b8 8201     		.2byte	0x182
 1562 03ba 82080000 		.4byte	0x882
 1563 03be 0C       		.byte	0xc
 1564 03bf 00       		.byte	0
 1565 03c0 03       		.uleb128 0x3
 1566 03c1 E2000000 		.4byte	.LASF70
 1567 03c5 09       		.byte	0x9
 1568 03c6 6B       		.byte	0x6b
 1569 03c7 CB030000 		.4byte	0x3cb
 1570 03cb 0B       		.uleb128 0xb
 1571 03cc 4A060000 		.4byte	.LASF71
 1572 03d0 04       		.byte	0x4
 1573 03d1 0A       		.byte	0xa
 1574 03d2 A201     		.2byte	0x1a2
 1575 03d4 E6030000 		.4byte	0x3e6
 1576 03d8 09       		.uleb128 0x9
 1577 03d9 D4070000 		.4byte	.LASF72
ARM GAS  /tmp/cc4ZxXve.s 			page 29


 1578 03dd 0A       		.byte	0xa
 1579 03de AA01     		.2byte	0x1aa
 1580 03e0 87080000 		.4byte	0x887
 1581 03e4 00       		.byte	0
 1582 03e5 00       		.byte	0
 1583 03e6 03       		.uleb128 0x3
 1584 03e7 25030000 		.4byte	.LASF73
 1585 03eb 09       		.byte	0x9
 1586 03ec 70       		.byte	0x70
 1587 03ed F1030000 		.4byte	0x3f1
 1588 03f1 0F       		.uleb128 0xf
 1589 03f2 DE010000 		.4byte	.LASF74
 1590 03f6 D801     		.2byte	0x1d8
 1591 03f8 0A       		.byte	0xa
 1592 03f9 C201     		.2byte	0x1c2
 1593 03fb 4D040000 		.4byte	0x44d
 1594 03ff 09       		.uleb128 0x9
 1595 0400 4F020000 		.4byte	.LASF75
 1596 0404 0A       		.byte	0xa
 1597 0405 C601     		.2byte	0x1c6
 1598 0407 94020000 		.4byte	0x294
 1599 040b 00       		.byte	0
 1600 040c 09       		.uleb128 0x9
 1601 040d 48020000 		.4byte	.LASF76
 1602 0411 0A       		.byte	0xa
 1603 0412 CA01     		.2byte	0x1ca
 1604 0414 73030000 		.4byte	0x373
 1605 0418 1C       		.byte	0x1c
 1606 0419 08       		.uleb128 0x8
 1607 041a 64626700 		.ascii	"dbg\000"
 1608 041e 0A       		.byte	0xa
 1609 041f CE01     		.2byte	0x1ce
 1610 0421 C0030000 		.4byte	0x3c0
 1611 0425 2C       		.byte	0x2c
 1612 0426 09       		.uleb128 0x9
 1613 0427 26010000 		.4byte	.LASF77
 1614 042b 0A       		.byte	0xa
 1615 042c D201     		.2byte	0x1d2
 1616 042e 37010000 		.4byte	0x137
 1617 0432 30       		.byte	0x30
 1618 0433 08       		.uleb128 0x8
 1619 0434 746D00   		.ascii	"tm\000"
 1620 0437 0A       		.byte	0xa
 1621 0438 D701     		.2byte	0x1d7
 1622 043a 9A070000 		.4byte	0x79a
 1623 043e 74       		.byte	0x74
 1624 043f 09       		.uleb128 0x9
 1625 0440 69020000 		.4byte	.LASF78
 1626 0444 0A       		.byte	0xa
 1627 0445 E301     		.2byte	0x1e3
 1628 0447 8C080000 		.4byte	0x88c
 1629 044b 78       		.byte	0x78
 1630 044c 00       		.byte	0
 1631 044d 04       		.uleb128 0x4
 1632 044e 04       		.byte	0x4
 1633 044f 07       		.byte	0x7
 1634 0450 F6030000 		.4byte	.LASF79
ARM GAS  /tmp/cc4ZxXve.s 			page 30


 1635 0454 10       		.uleb128 0x10
 1636 0455 B4000000 		.4byte	0xb4
 1637 0459 64040000 		.4byte	0x464
 1638 045d 11       		.uleb128 0x11
 1639 045e 4D040000 		.4byte	0x44d
 1640 0462 01       		.byte	0x1
 1641 0463 00       		.byte	0
 1642 0464 10       		.uleb128 0x10
 1643 0465 B4000000 		.4byte	0xb4
 1644 0469 74040000 		.4byte	0x474
 1645 046d 11       		.uleb128 0x11
 1646 046e 4D040000 		.4byte	0x44d
 1647 0472 03       		.byte	0x3
 1648 0473 00       		.byte	0
 1649 0474 12       		.uleb128 0x12
 1650 0475 88       		.byte	0x88
 1651 0476 0B       		.byte	0xb
 1652 0477 6702     		.2byte	0x267
 1653 0479 03060000 		.4byte	0x603
 1654 047d 08       		.uleb128 0x8
 1655 047e 435200   		.ascii	"CR\000"
 1656 0481 0B       		.byte	0xb
 1657 0482 6902     		.2byte	0x269
 1658 0484 CF000000 		.4byte	0xcf
 1659 0488 00       		.byte	0
 1660 0489 09       		.uleb128 0x9
 1661 048a 15020000 		.4byte	.LASF80
 1662 048e 0B       		.byte	0xb
 1663 048f 6A02     		.2byte	0x26a
 1664 0491 CF000000 		.4byte	0xcf
 1665 0495 04       		.byte	0x4
 1666 0496 09       		.uleb128 0x9
 1667 0497 A8080000 		.4byte	.LASF81
 1668 049b 0B       		.byte	0xb
 1669 049c 6B02     		.2byte	0x26b
 1670 049e CF000000 		.4byte	0xcf
 1671 04a2 08       		.byte	0x8
 1672 04a3 08       		.uleb128 0x8
 1673 04a4 43495200 		.ascii	"CIR\000"
 1674 04a8 0B       		.byte	0xb
 1675 04a9 6C02     		.2byte	0x26c
 1676 04ab CF000000 		.4byte	0xcf
 1677 04af 0C       		.byte	0xc
 1678 04b0 09       		.uleb128 0x9
 1679 04b1 B2010000 		.4byte	.LASF82
 1680 04b5 0B       		.byte	0xb
 1681 04b6 6D02     		.2byte	0x26d
 1682 04b8 CF000000 		.4byte	0xcf
 1683 04bc 10       		.byte	0x10
 1684 04bd 09       		.uleb128 0x9
 1685 04be 7F070000 		.4byte	.LASF83
 1686 04c2 0B       		.byte	0xb
 1687 04c3 6E02     		.2byte	0x26e
 1688 04c5 CF000000 		.4byte	0xcf
 1689 04c9 14       		.byte	0x14
 1690 04ca 09       		.uleb128 0x9
 1691 04cb 1C030000 		.4byte	.LASF84
ARM GAS  /tmp/cc4ZxXve.s 			page 31


 1692 04cf 0B       		.byte	0xb
 1693 04d0 6F02     		.2byte	0x26f
 1694 04d2 CF000000 		.4byte	0xcf
 1695 04d6 18       		.byte	0x18
 1696 04d7 09       		.uleb128 0x9
 1697 04d8 EE050000 		.4byte	.LASF85
 1698 04dc 0B       		.byte	0xb
 1699 04dd 7002     		.2byte	0x270
 1700 04df B4000000 		.4byte	0xb4
 1701 04e3 1C       		.byte	0x1c
 1702 04e4 09       		.uleb128 0x9
 1703 04e5 D2050000 		.4byte	.LASF86
 1704 04e9 0B       		.byte	0xb
 1705 04ea 7102     		.2byte	0x271
 1706 04ec CF000000 		.4byte	0xcf
 1707 04f0 20       		.byte	0x20
 1708 04f1 09       		.uleb128 0x9
 1709 04f2 F1010000 		.4byte	.LASF87
 1710 04f6 0B       		.byte	0xb
 1711 04f7 7202     		.2byte	0x272
 1712 04f9 CF000000 		.4byte	0xcf
 1713 04fd 24       		.byte	0x24
 1714 04fe 09       		.uleb128 0x9
 1715 04ff F8050000 		.4byte	.LASF88
 1716 0503 0B       		.byte	0xb
 1717 0504 7302     		.2byte	0x273
 1718 0506 54040000 		.4byte	0x454
 1719 050a 28       		.byte	0x28
 1720 050b 09       		.uleb128 0x9
 1721 050c A0080000 		.4byte	.LASF89
 1722 0510 0B       		.byte	0xb
 1723 0511 7402     		.2byte	0x274
 1724 0513 CF000000 		.4byte	0xcf
 1725 0517 30       		.byte	0x30
 1726 0518 09       		.uleb128 0x9
 1727 0519 3B030000 		.4byte	.LASF90
 1728 051d 0B       		.byte	0xb
 1729 051e 7502     		.2byte	0x275
 1730 0520 CF000000 		.4byte	0xcf
 1731 0524 34       		.byte	0x34
 1732 0525 09       		.uleb128 0x9
 1733 0526 72050000 		.4byte	.LASF91
 1734 052a 0B       		.byte	0xb
 1735 052b 7602     		.2byte	0x276
 1736 052d CF000000 		.4byte	0xcf
 1737 0531 38       		.byte	0x38
 1738 0532 09       		.uleb128 0x9
 1739 0533 02060000 		.4byte	.LASF92
 1740 0537 0B       		.byte	0xb
 1741 0538 7702     		.2byte	0x277
 1742 053a B4000000 		.4byte	0xb4
 1743 053e 3C       		.byte	0x3c
 1744 053f 09       		.uleb128 0x9
 1745 0540 E5070000 		.4byte	.LASF93
 1746 0544 0B       		.byte	0xb
 1747 0545 7802     		.2byte	0x278
 1748 0547 CF000000 		.4byte	0xcf
ARM GAS  /tmp/cc4ZxXve.s 			page 32


 1749 054b 40       		.byte	0x40
 1750 054c 09       		.uleb128 0x9
 1751 054d D5060000 		.4byte	.LASF94
 1752 0551 0B       		.byte	0xb
 1753 0552 7902     		.2byte	0x279
 1754 0554 CF000000 		.4byte	0xcf
 1755 0558 44       		.byte	0x44
 1756 0559 09       		.uleb128 0x9
 1757 055a 0C060000 		.4byte	.LASF95
 1758 055e 0B       		.byte	0xb
 1759 055f 7A02     		.2byte	0x27a
 1760 0561 54040000 		.4byte	0x454
 1761 0565 48       		.byte	0x48
 1762 0566 09       		.uleb128 0x9
 1763 0567 70010000 		.4byte	.LASF96
 1764 056b 0B       		.byte	0xb
 1765 056c 7B02     		.2byte	0x27b
 1766 056e CF000000 		.4byte	0xcf
 1767 0572 50       		.byte	0x50
 1768 0573 09       		.uleb128 0x9
 1769 0574 8F050000 		.4byte	.LASF97
 1770 0578 0B       		.byte	0xb
 1771 0579 7C02     		.2byte	0x27c
 1772 057b CF000000 		.4byte	0xcf
 1773 057f 54       		.byte	0x54
 1774 0580 09       		.uleb128 0x9
 1775 0581 A2060000 		.4byte	.LASF98
 1776 0585 0B       		.byte	0xb
 1777 0586 7D02     		.2byte	0x27d
 1778 0588 CF000000 		.4byte	0xcf
 1779 058c 58       		.byte	0x58
 1780 058d 09       		.uleb128 0x9
 1781 058e 16060000 		.4byte	.LASF99
 1782 0592 0B       		.byte	0xb
 1783 0593 7E02     		.2byte	0x27e
 1784 0595 B4000000 		.4byte	0xb4
 1785 0599 5C       		.byte	0x5c
 1786 059a 09       		.uleb128 0x9
 1787 059b FA010000 		.4byte	.LASF100
 1788 059f 0B       		.byte	0xb
 1789 05a0 7F02     		.2byte	0x27f
 1790 05a2 CF000000 		.4byte	0xcf
 1791 05a6 60       		.byte	0x60
 1792 05a7 09       		.uleb128 0x9
 1793 05a8 59030000 		.4byte	.LASF101
 1794 05ac 0B       		.byte	0xb
 1795 05ad 8002     		.2byte	0x280
 1796 05af CF000000 		.4byte	0xcf
 1797 05b3 64       		.byte	0x64
 1798 05b4 09       		.uleb128 0x9
 1799 05b5 20070000 		.4byte	.LASF102
 1800 05b9 0B       		.byte	0xb
 1801 05ba 8102     		.2byte	0x281
 1802 05bc 54040000 		.4byte	0x454
 1803 05c0 68       		.byte	0x68
 1804 05c1 09       		.uleb128 0x9
 1805 05c2 5E080000 		.4byte	.LASF103
ARM GAS  /tmp/cc4ZxXve.s 			page 33


 1806 05c6 0B       		.byte	0xb
 1807 05c7 8202     		.2byte	0x282
 1808 05c9 CF000000 		.4byte	0xcf
 1809 05cd 70       		.byte	0x70
 1810 05ce 08       		.uleb128 0x8
 1811 05cf 43535200 		.ascii	"CSR\000"
 1812 05d3 0B       		.byte	0xb
 1813 05d4 8302     		.2byte	0x283
 1814 05d6 CF000000 		.4byte	0xcf
 1815 05da 74       		.byte	0x74
 1816 05db 09       		.uleb128 0x9
 1817 05dc 27060000 		.4byte	.LASF104
 1818 05e0 0B       		.byte	0xb
 1819 05e1 8402     		.2byte	0x284
 1820 05e3 54040000 		.4byte	0x454
 1821 05e7 78       		.byte	0x78
 1822 05e8 09       		.uleb128 0x9
 1823 05e9 23080000 		.4byte	.LASF105
 1824 05ed 0B       		.byte	0xb
 1825 05ee 8502     		.2byte	0x285
 1826 05f0 CF000000 		.4byte	0xcf
 1827 05f4 80       		.byte	0x80
 1828 05f5 09       		.uleb128 0x9
 1829 05f6 0B030000 		.4byte	.LASF106
 1830 05fa 0B       		.byte	0xb
 1831 05fb 8602     		.2byte	0x286
 1832 05fd CF000000 		.4byte	0xcf
 1833 0601 84       		.byte	0x84
 1834 0602 00       		.byte	0
 1835 0603 13       		.uleb128 0x13
 1836 0604 C7020000 		.4byte	.LASF107
 1837 0608 0B       		.byte	0xb
 1838 0609 8802     		.2byte	0x288
 1839 060b 74040000 		.4byte	0x474
 1840 060f 03       		.uleb128 0x3
 1841 0610 37020000 		.4byte	.LASF108
 1842 0614 0C       		.byte	0xc
 1843 0615 65       		.byte	0x65
 1844 0616 17030000 		.4byte	0x317
 1845 061a 03       		.uleb128 0x3
 1846 061b 97030000 		.4byte	.LASF109
 1847 061f 0C       		.byte	0xc
 1848 0620 6D       		.byte	0x6d
 1849 0621 BF000000 		.4byte	0xbf
 1850 0625 06       		.uleb128 0x6
 1851 0626 FA070000 		.4byte	.LASF110
 1852 062a 04       		.byte	0x4
 1853 062b 0C       		.byte	0xc
 1854 062c 89       		.byte	0x89
 1855 062d 3E060000 		.4byte	0x63e
 1856 0631 14       		.uleb128 0x14
 1857 0632 72313300 		.ascii	"r13\000"
 1858 0636 0C       		.byte	0xc
 1859 0637 8A       		.byte	0x8a
 1860 0638 7F070000 		.4byte	0x77f
 1861 063c 00       		.byte	0
 1862 063d 00       		.byte	0
ARM GAS  /tmp/cc4ZxXve.s 			page 34


 1863 063e 06       		.uleb128 0x6
 1864 063f C5000000 		.4byte	.LASF111
 1865 0643 64       		.byte	0x64
 1866 0644 01       		.byte	0x1
 1867 0645 F4       		.byte	0xf4
 1868 0646 7F070000 		.4byte	0x77f
 1869 064a 14       		.uleb128 0x14
 1870 064b 73313600 		.ascii	"s16\000"
 1871 064f 01       		.byte	0x1
 1872 0650 F6       		.byte	0xf6
 1873 0651 0F060000 		.4byte	0x60f
 1874 0655 00       		.byte	0
 1875 0656 14       		.uleb128 0x14
 1876 0657 73313700 		.ascii	"s17\000"
 1877 065b 01       		.byte	0x1
 1878 065c F7       		.byte	0xf7
 1879 065d 0F060000 		.4byte	0x60f
 1880 0661 04       		.byte	0x4
 1881 0662 14       		.uleb128 0x14
 1882 0663 73313800 		.ascii	"s18\000"
 1883 0667 01       		.byte	0x1
 1884 0668 F8       		.byte	0xf8
 1885 0669 0F060000 		.4byte	0x60f
 1886 066d 08       		.byte	0x8
 1887 066e 14       		.uleb128 0x14
 1888 066f 73313900 		.ascii	"s19\000"
 1889 0673 01       		.byte	0x1
 1890 0674 F9       		.byte	0xf9
 1891 0675 0F060000 		.4byte	0x60f
 1892 0679 0C       		.byte	0xc
 1893 067a 14       		.uleb128 0x14
 1894 067b 73323000 		.ascii	"s20\000"
 1895 067f 01       		.byte	0x1
 1896 0680 FA       		.byte	0xfa
 1897 0681 0F060000 		.4byte	0x60f
 1898 0685 10       		.byte	0x10
 1899 0686 14       		.uleb128 0x14
 1900 0687 73323100 		.ascii	"s21\000"
 1901 068b 01       		.byte	0x1
 1902 068c FB       		.byte	0xfb
 1903 068d 0F060000 		.4byte	0x60f
 1904 0691 14       		.byte	0x14
 1905 0692 14       		.uleb128 0x14
 1906 0693 73323200 		.ascii	"s22\000"
 1907 0697 01       		.byte	0x1
 1908 0698 FC       		.byte	0xfc
 1909 0699 0F060000 		.4byte	0x60f
 1910 069d 18       		.byte	0x18
 1911 069e 14       		.uleb128 0x14
 1912 069f 73323300 		.ascii	"s23\000"
 1913 06a3 01       		.byte	0x1
 1914 06a4 FD       		.byte	0xfd
 1915 06a5 0F060000 		.4byte	0x60f
 1916 06a9 1C       		.byte	0x1c
 1917 06aa 14       		.uleb128 0x14
 1918 06ab 73323400 		.ascii	"s24\000"
 1919 06af 01       		.byte	0x1
ARM GAS  /tmp/cc4ZxXve.s 			page 35


 1920 06b0 FE       		.byte	0xfe
 1921 06b1 0F060000 		.4byte	0x60f
 1922 06b5 20       		.byte	0x20
 1923 06b6 14       		.uleb128 0x14
 1924 06b7 73323500 		.ascii	"s25\000"
 1925 06bb 01       		.byte	0x1
 1926 06bc FF       		.byte	0xff
 1927 06bd 0F060000 		.4byte	0x60f
 1928 06c1 24       		.byte	0x24
 1929 06c2 08       		.uleb128 0x8
 1930 06c3 73323600 		.ascii	"s26\000"
 1931 06c7 01       		.byte	0x1
 1932 06c8 0001     		.2byte	0x100
 1933 06ca 0F060000 		.4byte	0x60f
 1934 06ce 28       		.byte	0x28
 1935 06cf 08       		.uleb128 0x8
 1936 06d0 73323700 		.ascii	"s27\000"
 1937 06d4 01       		.byte	0x1
 1938 06d5 0101     		.2byte	0x101
 1939 06d7 0F060000 		.4byte	0x60f
 1940 06db 2C       		.byte	0x2c
 1941 06dc 08       		.uleb128 0x8
 1942 06dd 73323800 		.ascii	"s28\000"
 1943 06e1 01       		.byte	0x1
 1944 06e2 0201     		.2byte	0x102
 1945 06e4 0F060000 		.4byte	0x60f
 1946 06e8 30       		.byte	0x30
 1947 06e9 08       		.uleb128 0x8
 1948 06ea 73323900 		.ascii	"s29\000"
 1949 06ee 01       		.byte	0x1
 1950 06ef 0301     		.2byte	0x103
 1951 06f1 0F060000 		.4byte	0x60f
 1952 06f5 34       		.byte	0x34
 1953 06f6 08       		.uleb128 0x8
 1954 06f7 73333000 		.ascii	"s30\000"
 1955 06fb 01       		.byte	0x1
 1956 06fc 0401     		.2byte	0x104
 1957 06fe 0F060000 		.4byte	0x60f
 1958 0702 38       		.byte	0x38
 1959 0703 08       		.uleb128 0x8
 1960 0704 73333100 		.ascii	"s31\000"
 1961 0708 01       		.byte	0x1
 1962 0709 0501     		.2byte	0x105
 1963 070b 0F060000 		.4byte	0x60f
 1964 070f 3C       		.byte	0x3c
 1965 0710 08       		.uleb128 0x8
 1966 0711 723400   		.ascii	"r4\000"
 1967 0714 01       		.byte	0x1
 1968 0715 0701     		.2byte	0x107
 1969 0717 0F060000 		.4byte	0x60f
 1970 071b 40       		.byte	0x40
 1971 071c 08       		.uleb128 0x8
 1972 071d 723500   		.ascii	"r5\000"
 1973 0720 01       		.byte	0x1
 1974 0721 0801     		.2byte	0x108
 1975 0723 0F060000 		.4byte	0x60f
 1976 0727 44       		.byte	0x44
ARM GAS  /tmp/cc4ZxXve.s 			page 36


 1977 0728 08       		.uleb128 0x8
 1978 0729 723600   		.ascii	"r6\000"
 1979 072c 01       		.byte	0x1
 1980 072d 0901     		.2byte	0x109
 1981 072f 0F060000 		.4byte	0x60f
 1982 0733 48       		.byte	0x48
 1983 0734 08       		.uleb128 0x8
 1984 0735 723700   		.ascii	"r7\000"
 1985 0738 01       		.byte	0x1
 1986 0739 0A01     		.2byte	0x10a
 1987 073b 0F060000 		.4byte	0x60f
 1988 073f 4C       		.byte	0x4c
 1989 0740 08       		.uleb128 0x8
 1990 0741 723800   		.ascii	"r8\000"
 1991 0744 01       		.byte	0x1
 1992 0745 0B01     		.2byte	0x10b
 1993 0747 0F060000 		.4byte	0x60f
 1994 074b 50       		.byte	0x50
 1995 074c 08       		.uleb128 0x8
 1996 074d 723900   		.ascii	"r9\000"
 1997 0750 01       		.byte	0x1
 1998 0751 0C01     		.2byte	0x10c
 1999 0753 0F060000 		.4byte	0x60f
 2000 0757 54       		.byte	0x54
 2001 0758 08       		.uleb128 0x8
 2002 0759 72313000 		.ascii	"r10\000"
 2003 075d 01       		.byte	0x1
 2004 075e 0D01     		.2byte	0x10d
 2005 0760 0F060000 		.4byte	0x60f
 2006 0764 58       		.byte	0x58
 2007 0765 08       		.uleb128 0x8
 2008 0766 72313100 		.ascii	"r11\000"
 2009 076a 01       		.byte	0x1
 2010 076b 0E01     		.2byte	0x10e
 2011 076d 0F060000 		.4byte	0x60f
 2012 0771 5C       		.byte	0x5c
 2013 0772 08       		.uleb128 0x8
 2014 0773 6C7200   		.ascii	"lr\000"
 2015 0776 01       		.byte	0x1
 2016 0777 0F01     		.2byte	0x10f
 2017 0779 0F060000 		.4byte	0x60f
 2018 077d 60       		.byte	0x60
 2019 077e 00       		.byte	0
 2020 077f 0A       		.uleb128 0xa
 2021 0780 04       		.byte	0x4
 2022 0781 3E060000 		.4byte	0x63e
 2023 0785 15       		.uleb128 0x15
 2024 0786 04       		.byte	0x4
 2025 0787 0D       		.byte	0xd
 2026 0788 38       		.byte	0x38
 2027 0789 9A070000 		.4byte	0x79a
 2028 078d 07       		.uleb128 0x7
 2029 078e DE070000 		.4byte	.LASF112
 2030 0792 0D       		.byte	0xd
 2031 0793 3C       		.byte	0x3c
 2032 0794 D4000000 		.4byte	0xd4
 2033 0798 00       		.byte	0
ARM GAS  /tmp/cc4ZxXve.s 			page 37


 2034 0799 00       		.byte	0
 2035 079a 03       		.uleb128 0x3
 2036 079b A2050000 		.4byte	.LASF113
 2037 079f 0D       		.byte	0xd
 2038 07a0 3D       		.byte	0x3d
 2039 07a1 85070000 		.4byte	0x785
 2040 07a5 16       		.uleb128 0x16
 2041 07a6 04       		.byte	0x4
 2042 07a7 0A       		.byte	0xa
 2043 07a8 FA       		.byte	0xfa
 2044 07a9 02080000 		.4byte	0x802
 2045 07ad 17       		.uleb128 0x17
 2046 07ae 82050000 		.4byte	.LASF114
 2047 07b2 0A       		.byte	0xa
 2048 07b3 0101     		.2byte	0x101
 2049 07b5 0B010000 		.4byte	0x10b
 2050 07b9 17       		.uleb128 0x17
 2051 07ba 1D010000 		.4byte	.LASF115
 2052 07be 0A       		.byte	0xa
 2053 07bf 0801     		.2byte	0x108
 2054 07c1 0B010000 		.4byte	0x10b
 2055 07c5 17       		.uleb128 0x17
 2056 07c6 92080000 		.4byte	.LASF116
 2057 07ca 0A       		.byte	0xa
 2058 07cb 0F01     		.2byte	0x10f
 2059 07cd 17030000 		.4byte	0x317
 2060 07d1 17       		.uleb128 0x17
 2061 07d2 3E050000 		.4byte	.LASF117
 2062 07d6 0A       		.byte	0xa
 2063 07d7 1601     		.2byte	0x116
 2064 07d9 02080000 		.4byte	0x802
 2065 07dd 17       		.uleb128 0x17
 2066 07de 93020000 		.4byte	.LASF118
 2067 07e2 0A       		.byte	0xa
 2068 07e3 1E01     		.2byte	0x11e
 2069 07e5 2D080000 		.4byte	0x82d
 2070 07e9 17       		.uleb128 0x17
 2071 07ea 33070000 		.4byte	.LASF119
 2072 07ee 0A       		.byte	0xa
 2073 07ef 2701     		.2byte	0x127
 2074 07f1 64080000 		.4byte	0x864
 2075 07f5 17       		.uleb128 0x17
 2076 07f6 B3060000 		.4byte	.LASF120
 2077 07fa 0A       		.byte	0xa
 2078 07fb 2F01     		.2byte	0x12f
 2079 07fd 16010000 		.4byte	0x116
 2080 0801 00       		.byte	0
 2081 0802 0A       		.uleb128 0xa
 2082 0803 04       		.byte	0x4
 2083 0804 2F020000 		.4byte	0x22f
 2084 0808 06       		.uleb128 0x6
 2085 0809 03070000 		.4byte	.LASF121
 2086 080d 0C       		.byte	0xc
 2087 080e 0E       		.byte	0xe
 2088 080f 34       		.byte	0x34
 2089 0810 2D080000 		.4byte	0x82d
 2090 0814 07       		.uleb128 0x7
ARM GAS  /tmp/cc4ZxXve.s 			page 38


 2091 0815 B5080000 		.4byte	.LASF122
 2092 0819 0E       		.byte	0xe
 2093 081a 35       		.byte	0x35
 2094 081b 64020000 		.4byte	0x264
 2095 081f 00       		.byte	0
 2096 0820 07       		.uleb128 0x7
 2097 0821 80060000 		.4byte	.LASF123
 2098 0825 0E       		.byte	0xe
 2099 0826 37       		.byte	0x37
 2100 0827 21010000 		.4byte	0x121
 2101 082b 08       		.byte	0x8
 2102 082c 00       		.byte	0
 2103 082d 0A       		.uleb128 0xa
 2104 082e 04       		.byte	0x4
 2105 082f 08080000 		.4byte	0x808
 2106 0833 06       		.uleb128 0x6
 2107 0834 39080000 		.4byte	.LASF124
 2108 0838 10       		.byte	0x10
 2109 0839 0F       		.byte	0xf
 2110 083a 39       		.byte	0x39
 2111 083b 64080000 		.4byte	0x864
 2112 083f 07       		.uleb128 0x7
 2113 0840 BB010000 		.4byte	.LASF125
 2114 0844 0F       		.byte	0xf
 2115 0845 3A       		.byte	0x3a
 2116 0846 64020000 		.4byte	0x264
 2117 084a 00       		.byte	0
 2118 084b 07       		.uleb128 0x7
 2119 084c 03090000 		.4byte	.LASF126
 2120 0850 0F       		.byte	0xf
 2121 0851 3C       		.byte	0x3c
 2122 0852 3A020000 		.4byte	0x23a
 2123 0856 08       		.byte	0x8
 2124 0857 07       		.uleb128 0x7
 2125 0858 96070000 		.4byte	.LASF127
 2126 085c 0F       		.byte	0xf
 2127 085d 3E       		.byte	0x3e
 2128 085e A7080000 		.4byte	0x8a7
 2129 0862 0C       		.byte	0xc
 2130 0863 00       		.byte	0
 2131 0864 0A       		.uleb128 0xa
 2132 0865 04       		.byte	0x4
 2133 0866 33080000 		.4byte	0x833
 2134 086a 0A       		.uleb128 0xa
 2135 086b 04       		.byte	0x4
 2136 086c 70080000 		.4byte	0x870
 2137 0870 18       		.uleb128 0x18
 2138 0871 75080000 		.4byte	0x875
 2139 0875 04       		.uleb128 0x4
 2140 0876 01       		.byte	0x1
 2141 0877 08       		.byte	0x8
 2142 0878 64070000 		.4byte	.LASF128
 2143 087c 0A       		.uleb128 0xa
 2144 087d 04       		.byte	0x4
 2145 087e 19030000 		.4byte	0x319
 2146 0882 05       		.uleb128 0x5
 2147 0883 2C010000 		.4byte	0x12c
ARM GAS  /tmp/cc4ZxXve.s 			page 39


 2148 0887 05       		.uleb128 0x5
 2149 0888 6A080000 		.4byte	0x86a
 2150 088c 10       		.uleb128 0x10
 2151 088d 1A060000 		.4byte	0x61a
 2152 0891 9C080000 		.4byte	0x89c
 2153 0895 11       		.uleb128 0x11
 2154 0896 4D040000 		.4byte	0x44d
 2155 089a 2B       		.byte	0x2b
 2156 089b 00       		.byte	0
 2157 089c 03       		.uleb128 0x3
 2158 089d FB080000 		.4byte	.LASF129
 2159 08a1 0F       		.byte	0xf
 2160 08a2 34       		.byte	0x34
 2161 08a3 33080000 		.4byte	0x833
 2162 08a7 0A       		.uleb128 0xa
 2163 08a8 04       		.byte	0x4
 2164 08a9 9C080000 		.4byte	0x89c
 2165 08ad 0A       		.uleb128 0xa
 2166 08ae 04       		.byte	0x4
 2167 08af CF000000 		.4byte	0xcf
 2168 08b3 04       		.uleb128 0x4
 2169 08b4 01       		.byte	0x1
 2170 08b5 02       		.byte	0x2
 2171 08b6 5A060000 		.4byte	.LASF130
 2172 08ba 19       		.uleb128 0x19
 2173 08bb 01       		.byte	0x1
 2174 08bc 10       		.byte	0x10
 2175 08bd 31       		.byte	0x31
 2176 08be E1080000 		.4byte	0x8e1
 2177 08c2 1A       		.uleb128 0x1a
 2178 08c3 63080000 		.4byte	.LASF131
 2179 08c7 00       		.sleb128 0
 2180 08c8 1A       		.uleb128 0x1a
 2181 08c9 99050000 		.4byte	.LASF132
 2182 08cd 01       		.sleb128 1
 2183 08ce 1A       		.uleb128 0x1a
 2184 08cf 8D030000 		.4byte	.LASF133
 2185 08d3 02       		.sleb128 2
 2186 08d4 1A       		.uleb128 0x1a
 2187 08d5 A4000000 		.4byte	.LASF134
 2188 08d9 03       		.sleb128 3
 2189 08da 1A       		.uleb128 0x1a
 2190 08db B0000000 		.4byte	.LASF135
 2191 08df 04       		.sleb128 4
 2192 08e0 00       		.byte	0
 2193 08e1 03       		.uleb128 0x3
 2194 08e2 FB000000 		.4byte	.LASF136
 2195 08e6 10       		.byte	0x10
 2196 08e7 37       		.byte	0x37
 2197 08e8 BA080000 		.4byte	0x8ba
 2198 08ec 03       		.uleb128 0x3
 2199 08ed 31030000 		.4byte	.LASF137
 2200 08f1 10       		.byte	0x10
 2201 08f2 3C       		.byte	0x3c
 2202 08f3 F7080000 		.4byte	0x8f7
 2203 08f7 0B       		.uleb128 0xb
 2204 08f8 31030000 		.4byte	.LASF137
ARM GAS  /tmp/cc4ZxXve.s 			page 40


 2205 08fc 18       		.byte	0x18
 2206 08fd 11       		.byte	0x11
 2207 08fe 3101     		.2byte	0x131
 2208 0900 53090000 		.4byte	0x953
 2209 0904 09       		.uleb128 0x9
 2210 0905 D8010000 		.4byte	.LASF138
 2211 0909 11       		.byte	0x11
 2212 090a 3501     		.2byte	0x135
 2213 090c E1080000 		.4byte	0x8e1
 2214 0910 00       		.byte	0
 2215 0911 09       		.uleb128 0x9
 2216 0912 73070000 		.4byte	.LASF139
 2217 0916 11       		.byte	0x11
 2218 0917 3901     		.2byte	0x139
 2219 0919 530B0000 		.4byte	0xb53
 2220 091d 04       		.byte	0x4
 2221 091e 09       		.uleb128 0x9
 2222 091f DD080000 		.4byte	.LASF140
 2223 0923 11       		.byte	0x11
 2224 0924 4101     		.2byte	0x141
 2225 0926 B4000000 		.4byte	0xb4
 2226 092a 08       		.byte	0x8
 2227 092b 08       		.uleb128 0x8
 2228 092c 74696D00 		.ascii	"tim\000"
 2229 0930 11       		.byte	0x11
 2230 0931 4501     		.2byte	0x145
 2231 0933 5E0B0000 		.4byte	0xb5e
 2232 0937 0C       		.byte	0xc
 2233 0938 09       		.uleb128 0x9
 2234 0939 F5080000 		.4byte	.LASF141
 2235 093d 11       		.byte	0x11
 2236 093e 4901     		.2byte	0x149
 2237 0940 AD080000 		.4byte	0x8ad
 2238 0944 10       		.byte	0x10
 2239 0945 09       		.uleb128 0x9
 2240 0946 63030000 		.4byte	.LASF142
 2241 094a 11       		.byte	0x11
 2242 094b 4D01     		.2byte	0x14d
 2243 094d AD080000 		.4byte	0x8ad
 2244 0951 14       		.byte	0x14
 2245 0952 00       		.byte	0
 2246 0953 03       		.uleb128 0x3
 2247 0954 B9020000 		.4byte	.LASF143
 2248 0958 10       		.byte	0x10
 2249 0959 43       		.byte	0x43
 2250 095a 5E090000 		.4byte	0x95e
 2251 095e 0A       		.uleb128 0xa
 2252 095f 04       		.byte	0x4
 2253 0960 64090000 		.4byte	0x964
 2254 0964 0C       		.uleb128 0xc
 2255 0965 6F090000 		.4byte	0x96f
 2256 0969 0D       		.uleb128 0xd
 2257 096a 6F090000 		.4byte	0x96f
 2258 096e 00       		.byte	0
 2259 096f 0A       		.uleb128 0xa
 2260 0970 04       		.byte	0x4
 2261 0971 EC080000 		.4byte	0x8ec
ARM GAS  /tmp/cc4ZxXve.s 			page 41


 2262 0975 12       		.uleb128 0x12
 2263 0976 60       		.byte	0x60
 2264 0977 12       		.byte	0x12
 2265 0978 9E01     		.2byte	0x19e
 2266 097a 810A0000 		.4byte	0xa81
 2267 097e 08       		.uleb128 0x8
 2268 097f 43523100 		.ascii	"CR1\000"
 2269 0983 12       		.byte	0x12
 2270 0984 9F01     		.2byte	0x19f
 2271 0986 CF000000 		.4byte	0xcf
 2272 098a 00       		.byte	0
 2273 098b 08       		.uleb128 0x8
 2274 098c 43523200 		.ascii	"CR2\000"
 2275 0990 12       		.byte	0x12
 2276 0991 A001     		.2byte	0x1a0
 2277 0993 CF000000 		.4byte	0xcf
 2278 0997 04       		.byte	0x4
 2279 0998 09       		.uleb128 0x9
 2280 0999 6E070000 		.4byte	.LASF144
 2281 099d 12       		.byte	0x12
 2282 099e A101     		.2byte	0x1a1
 2283 09a0 CF000000 		.4byte	0xcf
 2284 09a4 08       		.byte	0x8
 2285 09a5 09       		.uleb128 0x9
 2286 09a6 23000000 		.4byte	.LASF145
 2287 09aa 12       		.byte	0x12
 2288 09ab A201     		.2byte	0x1a2
 2289 09ad CF000000 		.4byte	0xcf
 2290 09b1 0C       		.byte	0xc
 2291 09b2 08       		.uleb128 0x8
 2292 09b3 535200   		.ascii	"SR\000"
 2293 09b6 12       		.byte	0x12
 2294 09b7 A301     		.2byte	0x1a3
 2295 09b9 CF000000 		.4byte	0xcf
 2296 09bd 10       		.byte	0x10
 2297 09be 08       		.uleb128 0x8
 2298 09bf 45475200 		.ascii	"EGR\000"
 2299 09c3 12       		.byte	0x12
 2300 09c4 A401     		.2byte	0x1a4
 2301 09c6 CF000000 		.4byte	0xcf
 2302 09ca 14       		.byte	0x14
 2303 09cb 09       		.uleb128 0x9
 2304 09cc 94010000 		.4byte	.LASF146
 2305 09d0 12       		.byte	0x12
 2306 09d1 A501     		.2byte	0x1a5
 2307 09d3 CF000000 		.4byte	0xcf
 2308 09d7 18       		.byte	0x18
 2309 09d8 09       		.uleb128 0x9
 2310 09d9 9A010000 		.4byte	.LASF147
 2311 09dd 12       		.byte	0x12
 2312 09de A601     		.2byte	0x1a6
 2313 09e0 CF000000 		.4byte	0xcf
 2314 09e4 1C       		.byte	0x1c
 2315 09e5 09       		.uleb128 0x9
 2316 09e6 91070000 		.4byte	.LASF148
 2317 09ea 12       		.byte	0x12
 2318 09eb A701     		.2byte	0x1a7
ARM GAS  /tmp/cc4ZxXve.s 			page 42


 2319 09ed CF000000 		.4byte	0xcf
 2320 09f1 20       		.byte	0x20
 2321 09f2 08       		.uleb128 0x8
 2322 09f3 434E5400 		.ascii	"CNT\000"
 2323 09f7 12       		.byte	0x12
 2324 09f8 A801     		.2byte	0x1a8
 2325 09fa CF000000 		.4byte	0xcf
 2326 09fe 24       		.byte	0x24
 2327 09ff 08       		.uleb128 0x8
 2328 0a00 50534300 		.ascii	"PSC\000"
 2329 0a04 12       		.byte	0x12
 2330 0a05 A901     		.2byte	0x1a9
 2331 0a07 CF000000 		.4byte	0xcf
 2332 0a0b 28       		.byte	0x28
 2333 0a0c 08       		.uleb128 0x8
 2334 0a0d 41525200 		.ascii	"ARR\000"
 2335 0a11 12       		.byte	0x12
 2336 0a12 AA01     		.2byte	0x1aa
 2337 0a14 CF000000 		.4byte	0xcf
 2338 0a18 2C       		.byte	0x2c
 2339 0a19 08       		.uleb128 0x8
 2340 0a1a 52435200 		.ascii	"RCR\000"
 2341 0a1e 12       		.byte	0x12
 2342 0a1f AB01     		.2byte	0x1ab
 2343 0a21 CF000000 		.4byte	0xcf
 2344 0a25 30       		.byte	0x30
 2345 0a26 08       		.uleb128 0x8
 2346 0a27 43435200 		.ascii	"CCR\000"
 2347 0a2b 12       		.byte	0x12
 2348 0a2c AC01     		.2byte	0x1ac
 2349 0a2e 810A0000 		.4byte	0xa81
 2350 0a32 34       		.byte	0x34
 2351 0a33 09       		.uleb128 0x9
 2352 0a34 61010000 		.4byte	.LASF149
 2353 0a38 12       		.byte	0x12
 2354 0a39 AD01     		.2byte	0x1ad
 2355 0a3b CF000000 		.4byte	0xcf
 2356 0a3f 44       		.byte	0x44
 2357 0a40 08       		.uleb128 0x8
 2358 0a41 44435200 		.ascii	"DCR\000"
 2359 0a45 12       		.byte	0x12
 2360 0a46 AE01     		.2byte	0x1ae
 2361 0a48 CF000000 		.4byte	0xcf
 2362 0a4c 48       		.byte	0x48
 2363 0a4d 09       		.uleb128 0x9
 2364 0a4e 7A070000 		.4byte	.LASF150
 2365 0a52 12       		.byte	0x12
 2366 0a53 AF01     		.2byte	0x1af
 2367 0a55 CF000000 		.4byte	0xcf
 2368 0a59 4C       		.byte	0x4c
 2369 0a5a 08       		.uleb128 0x8
 2370 0a5b 4F5200   		.ascii	"OR\000"
 2371 0a5e 12       		.byte	0x12
 2372 0a5f B001     		.2byte	0x1b0
 2373 0a61 CF000000 		.4byte	0xcf
 2374 0a65 50       		.byte	0x50
 2375 0a66 09       		.uleb128 0x9
ARM GAS  /tmp/cc4ZxXve.s 			page 43


 2376 0a67 A0010000 		.4byte	.LASF151
 2377 0a6b 12       		.byte	0x12
 2378 0a6c B101     		.2byte	0x1b1
 2379 0a6e CF000000 		.4byte	0xcf
 2380 0a72 54       		.byte	0x54
 2381 0a73 09       		.uleb128 0x9
 2382 0a74 10070000 		.4byte	.LASF152
 2383 0a78 12       		.byte	0x12
 2384 0a79 B201     		.2byte	0x1b2
 2385 0a7b 860A0000 		.4byte	0xa86
 2386 0a7f 58       		.byte	0x58
 2387 0a80 00       		.byte	0
 2388 0a81 05       		.uleb128 0x5
 2389 0a82 64040000 		.4byte	0x464
 2390 0a86 05       		.uleb128 0x5
 2391 0a87 54040000 		.4byte	0x454
 2392 0a8b 13       		.uleb128 0x13
 2393 0a8c 4D030000 		.4byte	.LASF153
 2394 0a90 12       		.byte	0x12
 2395 0a91 B301     		.2byte	0x1b3
 2396 0a93 75090000 		.4byte	0x975
 2397 0a97 19       		.uleb128 0x19
 2398 0a98 01       		.byte	0x1
 2399 0a99 11       		.byte	0x11
 2400 0a9a EE       		.byte	0xee
 2401 0a9b AC0A0000 		.4byte	0xaac
 2402 0a9f 1A       		.uleb128 0x1a
 2403 0aa0 00000000 		.4byte	.LASF154
 2404 0aa4 00       		.sleb128 0
 2405 0aa5 1A       		.uleb128 0x1a
 2406 0aa6 B3050000 		.4byte	.LASF155
 2407 0aaa 01       		.sleb128 1
 2408 0aab 00       		.byte	0
 2409 0aac 03       		.uleb128 0x3
 2410 0aad 76060000 		.4byte	.LASF156
 2411 0ab1 11       		.byte	0x11
 2412 0ab2 F1       		.byte	0xf1
 2413 0ab3 970A0000 		.4byte	0xa97
 2414 0ab7 03       		.uleb128 0x3
 2415 0ab8 0A080000 		.4byte	.LASF157
 2416 0abc 11       		.byte	0x11
 2417 0abd F6       		.byte	0xf6
 2418 0abe B4000000 		.4byte	0xb4
 2419 0ac2 19       		.uleb128 0x19
 2420 0ac3 01       		.byte	0x1
 2421 0ac4 11       		.byte	0x11
 2422 0ac5 FB       		.byte	0xfb
 2423 0ac6 D70A0000 		.4byte	0xad7
 2424 0aca 1A       		.uleb128 0x1a
 2425 0acb 6E080000 		.4byte	.LASF158
 2426 0acf 00       		.sleb128 0
 2427 0ad0 1A       		.uleb128 0x1a
 2428 0ad1 7C080000 		.4byte	.LASF159
 2429 0ad5 01       		.sleb128 1
 2430 0ad6 00       		.byte	0
 2431 0ad7 03       		.uleb128 0x3
 2432 0ad8 DD060000 		.4byte	.LASF160
ARM GAS  /tmp/cc4ZxXve.s 			page 44


 2433 0adc 11       		.byte	0x11
 2434 0add FE       		.byte	0xfe
 2435 0ade C20A0000 		.4byte	0xac2
 2436 0ae2 12       		.uleb128 0x12
 2437 0ae3 1C       		.byte	0x1c
 2438 0ae4 11       		.byte	0x11
 2439 0ae5 0901     		.2byte	0x109
 2440 0ae7 470B0000 		.4byte	0xb47
 2441 0aeb 09       		.uleb128 0x9
 2442 0aec 69070000 		.4byte	.LASF161
 2443 0af0 11       		.byte	0x11
 2444 0af1 0D01     		.2byte	0x10d
 2445 0af3 AC0A0000 		.4byte	0xaac
 2446 0af7 00       		.byte	0
 2447 0af8 09       		.uleb128 0x9
 2448 0af9 66010000 		.4byte	.LASF162
 2449 0afd 11       		.byte	0x11
 2450 0afe 1301     		.2byte	0x113
 2451 0b00 B70A0000 		.4byte	0xab7
 2452 0b04 04       		.byte	0x4
 2453 0b05 09       		.uleb128 0x9
 2454 0b06 69050000 		.4byte	.LASF163
 2455 0b0a 11       		.byte	0x11
 2456 0b0b 1701     		.2byte	0x117
 2457 0b0d 53090000 		.4byte	0x953
 2458 0b11 08       		.byte	0x8
 2459 0b12 09       		.uleb128 0x9
 2460 0b13 DD020000 		.4byte	.LASF164
 2461 0b17 11       		.byte	0x11
 2462 0b18 1B01     		.2byte	0x11b
 2463 0b1a 53090000 		.4byte	0x953
 2464 0b1e 0C       		.byte	0xc
 2465 0b1f 09       		.uleb128 0x9
 2466 0b20 FF020000 		.4byte	.LASF165
 2467 0b24 11       		.byte	0x11
 2468 0b25 1F01     		.2byte	0x11f
 2469 0b27 53090000 		.4byte	0x953
 2470 0b2b 10       		.byte	0x10
 2471 0b2c 09       		.uleb128 0x9
 2472 0b2d EA060000 		.4byte	.LASF166
 2473 0b31 11       		.byte	0x11
 2474 0b32 2501     		.2byte	0x125
 2475 0b34 D70A0000 		.4byte	0xad7
 2476 0b38 14       		.byte	0x14
 2477 0b39 09       		.uleb128 0x9
 2478 0b3a 20090000 		.4byte	.LASF167
 2479 0b3e 11       		.byte	0x11
 2480 0b3f 2B01     		.2byte	0x12b
 2481 0b41 B4000000 		.4byte	0xb4
 2482 0b45 18       		.byte	0x18
 2483 0b46 00       		.byte	0
 2484 0b47 13       		.uleb128 0x13
 2485 0b48 1D020000 		.4byte	.LASF168
 2486 0b4c 11       		.byte	0x11
 2487 0b4d 2C01     		.2byte	0x12c
 2488 0b4f E20A0000 		.4byte	0xae2
 2489 0b53 0A       		.uleb128 0xa
ARM GAS  /tmp/cc4ZxXve.s 			page 45


 2490 0b54 04       		.byte	0x4
 2491 0b55 590B0000 		.4byte	0xb59
 2492 0b59 18       		.uleb128 0x18
 2493 0b5a 470B0000 		.4byte	0xb47
 2494 0b5e 0A       		.uleb128 0xa
 2495 0b5f 04       		.byte	0x4
 2496 0b60 8B0A0000 		.4byte	0xa8b
 2497 0b64 1B       		.uleb128 0x1b
 2498 0b65 C6070000 		.4byte	.LASF190
 2499 0b69 02       		.byte	0x2
 2500 0b6a 2002     		.2byte	0x220
 2501 0b6c 03       		.byte	0x3
 2502 0b6d 7E0B0000 		.4byte	0xb7e
 2503 0b71 1C       		.uleb128 0x1c
 2504 0b72 63020000 		.4byte	.LASF191
 2505 0b76 02       		.byte	0x2
 2506 0b77 2002     		.2byte	0x220
 2507 0b79 B4000000 		.4byte	0xb4
 2508 0b7d 00       		.byte	0
 2509 0b7e 1D       		.uleb128 0x1d
 2510 0b7f F1000000 		.4byte	.LASF169
 2511 0b83 01       		.byte	0x1
 2512 0b84 BC01     		.2byte	0x1bc
 2513 0b86 00000000 		.4byte	.LFB116
 2514 0b8a 10000000 		.4byte	.LFE116-.LFB116
 2515 0b8e 01       		.uleb128 0x1
 2516 0b8f 9C       		.byte	0x9c
 2517 0b90 AE0B0000 		.4byte	0xbae
 2518 0b94 1E       		.uleb128 0x1e
 2519 0b95 640B0000 		.4byte	0xb64
 2520 0b99 06000000 		.4byte	.LBB6
 2521 0b9d 06000000 		.4byte	.LBE6-.LBB6
 2522 0ba1 01       		.byte	0x1
 2523 0ba2 BF01     		.2byte	0x1bf
 2524 0ba4 1F       		.uleb128 0x1f
 2525 0ba5 710B0000 		.4byte	0xb71
 2526 0ba9 02       		.uleb128 0x2
 2527 0baa 91       		.byte	0x91
 2528 0bab 7C       		.sleb128 -4
 2529 0bac 00       		.byte	0
 2530 0bad 00       		.byte	0
 2531 0bae 1D       		.uleb128 0x1d
 2532 0baf CC010000 		.4byte	.LASF170
 2533 0bb3 01       		.byte	0x1
 2534 0bb4 CA01     		.2byte	0x1ca
 2535 0bb6 00000000 		.4byte	.LFB117
 2536 0bba 10000000 		.4byte	.LFE117-.LFB117
 2537 0bbe 01       		.uleb128 0x1
 2538 0bbf 9C       		.byte	0x9c
 2539 0bc0 DE0B0000 		.4byte	0xbde
 2540 0bc4 1E       		.uleb128 0x1e
 2541 0bc5 640B0000 		.4byte	0xb64
 2542 0bc9 06000000 		.4byte	.LBB8
 2543 0bcd 06000000 		.4byte	.LBE8-.LBB8
 2544 0bd1 01       		.byte	0x1
 2545 0bd2 CD01     		.2byte	0x1cd
 2546 0bd4 1F       		.uleb128 0x1f
ARM GAS  /tmp/cc4ZxXve.s 			page 46


 2547 0bd5 710B0000 		.4byte	0xb71
 2548 0bd9 02       		.uleb128 0x2
 2549 0bda 91       		.byte	0x91
 2550 0bdb 7C       		.sleb128 -4
 2551 0bdc 00       		.byte	0
 2552 0bdd 00       		.byte	0
 2553 0bde 20       		.uleb128 0x20
 2554 0bdf CB060000 		.4byte	.LASF192
 2555 0be3 03       		.byte	0x3
 2556 0be4 5A01     		.2byte	0x15a
 2557 0be6 00000000 		.4byte	.LFB145
 2558 0bea 08000000 		.4byte	.LFE145-.LFB145
 2559 0bee 01       		.uleb128 0x1
 2560 0bef 9C       		.byte	0x9c
 2561 0bf0 21       		.uleb128 0x21
 2562 0bf1 CB080000 		.4byte	.LASF171
 2563 0bf5 03       		.byte	0x3
 2564 0bf6 6601     		.2byte	0x166
 2565 0bf8 00000000 		.4byte	.LFB146
 2566 0bfc 08000000 		.4byte	.LFE146-.LFB146
 2567 0c00 01       		.uleb128 0x1
 2568 0c01 9C       		.byte	0x9c
 2569 0c02 100C0000 		.4byte	0xc10
 2570 0c06 22       		.uleb128 0x22
 2571 0c07 C2060000 		.4byte	.LASF178
 2572 0c0b 200C0000 		.4byte	0xc20
 2573 0c0f 00       		.byte	0
 2574 0c10 10       		.uleb128 0x10
 2575 0c11 75080000 		.4byte	0x875
 2576 0c15 200C0000 		.4byte	0xc20
 2577 0c19 11       		.uleb128 0x11
 2578 0c1a 4D040000 		.4byte	0x44d
 2579 0c1e 0B       		.byte	0xb
 2580 0c1f 00       		.byte	0
 2581 0c20 18       		.uleb128 0x18
 2582 0c21 100C0000 		.4byte	0xc10
 2583 0c25 23       		.uleb128 0x23
 2584 0c26 E3080000 		.4byte	.LASF193
 2585 0c2a 04       		.byte	0x4
 2586 0c2b 69       		.byte	0x69
 2587 0c2c B3080000 		.4byte	0x8b3
 2588 0c30 00000000 		.4byte	.LFB253
 2589 0c34 70000000 		.4byte	.LFE253-.LFB253
 2590 0c38 01       		.uleb128 0x1
 2591 0c39 9C       		.byte	0x9c
 2592 0c3a 680C0000 		.4byte	0xc68
 2593 0c3e 24       		.uleb128 0x24
 2594 0c3f 45060000 		.4byte	.LASF174
 2595 0c43 04       		.byte	0x4
 2596 0c44 69       		.byte	0x69
 2597 0c45 6F090000 		.4byte	0x96f
 2598 0c49 02       		.uleb128 0x2
 2599 0c4a 91       		.byte	0x91
 2600 0c4b 6C       		.sleb128 -20
 2601 0c4c 25       		.uleb128 0x25
 2602 0c4d 737200   		.ascii	"sr\000"
 2603 0c50 04       		.byte	0x4
ARM GAS  /tmp/cc4ZxXve.s 			page 47


 2604 0c51 6A       		.byte	0x6a
 2605 0c52 B4000000 		.4byte	0xb4
 2606 0c56 02       		.uleb128 0x2
 2607 0c57 91       		.byte	0x91
 2608 0c58 74       		.sleb128 -12
 2609 0c59 26       		.uleb128 0x26
 2610 0c5a 0B090000 		.4byte	.LASF172
 2611 0c5e 04       		.byte	0x4
 2612 0c5f 6B       		.byte	0x6b
 2613 0c60 B3080000 		.4byte	0x8b3
 2614 0c64 02       		.uleb128 0x2
 2615 0c65 91       		.byte	0x91
 2616 0c66 73       		.sleb128 -13
 2617 0c67 00       		.byte	0
 2618 0c68 27       		.uleb128 0x27
 2619 0c69 E7020000 		.4byte	.LASF173
 2620 0c6d 04       		.byte	0x4
 2621 0c6e 92       		.byte	0x92
 2622 0c6f 00000000 		.4byte	.LFB254
 2623 0c73 F6000000 		.4byte	.LFE254-.LFB254
 2624 0c77 01       		.uleb128 0x1
 2625 0c78 9C       		.byte	0x9c
 2626 0c79 990C0000 		.4byte	0xc99
 2627 0c7d 24       		.uleb128 0x24
 2628 0c7e 45060000 		.4byte	.LASF174
 2629 0c82 04       		.byte	0x4
 2630 0c83 92       		.byte	0x92
 2631 0c84 6F090000 		.4byte	0x96f
 2632 0c88 02       		.uleb128 0x2
 2633 0c89 91       		.byte	0x91
 2634 0c8a 6C       		.sleb128 -20
 2635 0c8b 25       		.uleb128 0x25
 2636 0c8c 737200   		.ascii	"sr\000"
 2637 0c8f 04       		.byte	0x4
 2638 0c90 93       		.byte	0x93
 2639 0c91 B4000000 		.4byte	0xb4
 2640 0c95 02       		.uleb128 0x2
 2641 0c96 91       		.byte	0x91
 2642 0c97 74       		.sleb128 -12
 2643 0c98 00       		.byte	0
 2644 0c99 28       		.uleb128 0x28
 2645 0c9a C3010000 		.4byte	.LASF175
 2646 0c9e 04       		.byte	0x4
 2647 0c9f E2       		.byte	0xe2
 2648 0ca0 00000000 		.4byte	.LFB255
 2649 0ca4 14000000 		.4byte	.LFE255-.LFB255
 2650 0ca8 01       		.uleb128 0x1
 2651 0ca9 9C       		.byte	0x9c
 2652 0caa 29       		.uleb128 0x29
 2653 0cab 43030000 		.4byte	.LASF176
 2654 0caf 04       		.byte	0x4
 2655 0cb0 2401     		.2byte	0x124
 2656 0cb2 00000000 		.4byte	.LFB256
 2657 0cb6 14000000 		.4byte	.LFE256-.LFB256
 2658 0cba 01       		.uleb128 0x1
 2659 0cbb 9C       		.byte	0x9c
 2660 0cbc 29       		.uleb128 0x29
ARM GAS  /tmp/cc4ZxXve.s 			page 48


 2661 0cbd 31010000 		.4byte	.LASF177
 2662 0cc1 04       		.byte	0x4
 2663 0cc2 7701     		.2byte	0x177
 2664 0cc4 00000000 		.4byte	.LFB257
 2665 0cc8 2C000000 		.4byte	.LFE257-.LFB257
 2666 0ccc 01       		.uleb128 0x1
 2667 0ccd 9C       		.byte	0x9c
 2668 0cce 2A       		.uleb128 0x2a
 2669 0ccf BD080000 		.4byte	.LASF179
 2670 0cd3 04       		.byte	0x4
 2671 0cd4 AB01     		.2byte	0x1ab
 2672 0cd6 00000000 		.4byte	.LFB258
 2673 0cda 84010000 		.4byte	.LFE258-.LFB258
 2674 0cde 01       		.uleb128 0x1
 2675 0cdf 9C       		.byte	0x9c
 2676 0ce0 0C0D0000 		.4byte	0xd0c
 2677 0ce4 2B       		.uleb128 0x2b
 2678 0ce5 45060000 		.4byte	.LASF174
 2679 0ce9 04       		.byte	0x4
 2680 0cea AB01     		.2byte	0x1ab
 2681 0cec 6F090000 		.4byte	0x96f
 2682 0cf0 02       		.uleb128 0x2
 2683 0cf1 91       		.byte	0x91
 2684 0cf2 6C       		.sleb128 -20
 2685 0cf3 2C       		.uleb128 0x2c
 2686 0cf4 70736300 		.ascii	"psc\000"
 2687 0cf8 04       		.byte	0x4
 2688 0cf9 AC01     		.2byte	0x1ac
 2689 0cfb B4000000 		.4byte	0xb4
 2690 0cff 02       		.uleb128 0x2
 2691 0d00 91       		.byte	0x91
 2692 0d01 74       		.sleb128 -12
 2693 0d02 22       		.uleb128 0x22
 2694 0d03 C2060000 		.4byte	.LASF178
 2695 0d07 1C0D0000 		.4byte	0xd1c
 2696 0d0b 00       		.byte	0
 2697 0d0c 10       		.uleb128 0x10
 2698 0d0d 75080000 		.4byte	0x875
 2699 0d11 1C0D0000 		.4byte	0xd1c
 2700 0d15 11       		.uleb128 0x11
 2701 0d16 4D040000 		.4byte	0x44d
 2702 0d1a 0D       		.byte	0xd
 2703 0d1b 00       		.byte	0
 2704 0d1c 18       		.uleb128 0x18
 2705 0d1d 0C0D0000 		.4byte	0xd0c
 2706 0d21 2A       		.uleb128 0x2a
 2707 0d22 ED070000 		.4byte	.LASF180
 2708 0d26 04       		.byte	0x4
 2709 0d27 4502     		.2byte	0x245
 2710 0d29 00000000 		.4byte	.LFB259
 2711 0d2d 6C000000 		.4byte	.LFE259-.LFB259
 2712 0d31 01       		.uleb128 0x1
 2713 0d32 9C       		.byte	0x9c
 2714 0d33 470D0000 		.4byte	0xd47
 2715 0d37 2B       		.uleb128 0x2b
 2716 0d38 45060000 		.4byte	.LASF174
 2717 0d3c 04       		.byte	0x4
ARM GAS  /tmp/cc4ZxXve.s 			page 49


 2718 0d3d 4502     		.2byte	0x245
 2719 0d3f 6F090000 		.4byte	0x96f
 2720 0d43 02       		.uleb128 0x2
 2721 0d44 91       		.byte	0x91
 2722 0d45 74       		.sleb128 -12
 2723 0d46 00       		.byte	0
 2724 0d47 2D       		.uleb128 0x2d
 2725 0d48 D6030000 		.4byte	.LASF181
 2726 0d4c 04       		.byte	0x4
 2727 0d4d 8302     		.2byte	0x283
 2728 0d4f 00000000 		.4byte	.LFB260
 2729 0d53 28000000 		.4byte	.LFE260-.LFB260
 2730 0d57 01       		.uleb128 0x1
 2731 0d58 9C       		.byte	0x9c
 2732 0d59 6D0D0000 		.4byte	0xd6d
 2733 0d5d 2B       		.uleb128 0x2b
 2734 0d5e 45060000 		.4byte	.LASF174
 2735 0d62 04       		.byte	0x4
 2736 0d63 8302     		.2byte	0x283
 2737 0d65 6F090000 		.4byte	0x96f
 2738 0d69 02       		.uleb128 0x2
 2739 0d6a 91       		.byte	0x91
 2740 0d6b 7C       		.sleb128 -4
 2741 0d6c 00       		.byte	0
 2742 0d6d 2E       		.uleb128 0x2e
 2743 0d6e 49080000 		.4byte	.LASF194
 2744 0d72 04       		.byte	0x4
 2745 0d73 9902     		.2byte	0x299
 2746 0d75 B3080000 		.4byte	0x8b3
 2747 0d79 00000000 		.4byte	.LFB261
 2748 0d7d 2E000000 		.4byte	.LFE261-.LFB261
 2749 0d81 01       		.uleb128 0x1
 2750 0d82 9C       		.byte	0x9c
 2751 0d83 970D0000 		.4byte	0xd97
 2752 0d87 2B       		.uleb128 0x2b
 2753 0d88 45060000 		.4byte	.LASF174
 2754 0d8c 04       		.byte	0x4
 2755 0d8d 9902     		.2byte	0x299
 2756 0d8f 6F090000 		.4byte	0x96f
 2757 0d93 02       		.uleb128 0x2
 2758 0d94 91       		.byte	0x91
 2759 0d95 74       		.sleb128 -12
 2760 0d96 00       		.byte	0
 2761 0d97 2D       		.uleb128 0x2d
 2762 0d98 A2030000 		.4byte	.LASF182
 2763 0d9c 04       		.byte	0x4
 2764 0d9d AC02     		.2byte	0x2ac
 2765 0d9f 00000000 		.4byte	.LFB262
 2766 0da3 20000000 		.4byte	.LFE262-.LFB262
 2767 0da7 01       		.uleb128 0x1
 2768 0da8 9C       		.byte	0x9c
 2769 0da9 BD0D0000 		.4byte	0xdbd
 2770 0dad 2B       		.uleb128 0x2b
 2771 0dae 45060000 		.4byte	.LASF174
 2772 0db2 04       		.byte	0x4
 2773 0db3 AC02     		.2byte	0x2ac
 2774 0db5 6F090000 		.4byte	0x96f
ARM GAS  /tmp/cc4ZxXve.s 			page 50


 2775 0db9 02       		.uleb128 0x2
 2776 0dba 91       		.byte	0x91
 2777 0dbb 7C       		.sleb128 -4
 2778 0dbc 00       		.byte	0
 2779 0dbd 2D       		.uleb128 0x2d
 2780 0dbe 2F000000 		.4byte	.LASF183
 2781 0dc2 04       		.byte	0x4
 2782 0dc3 BE02     		.2byte	0x2be
 2783 0dc5 00000000 		.4byte	.LFB263
 2784 0dc9 7A000000 		.4byte	.LFE263-.LFB263
 2785 0dcd 01       		.uleb128 0x1
 2786 0dce 9C       		.byte	0x9c
 2787 0dcf F20D0000 		.4byte	0xdf2
 2788 0dd3 2B       		.uleb128 0x2b
 2789 0dd4 45060000 		.4byte	.LASF174
 2790 0dd8 04       		.byte	0x4
 2791 0dd9 BE02     		.2byte	0x2be
 2792 0ddb 6F090000 		.4byte	0x96f
 2793 0ddf 02       		.uleb128 0x2
 2794 0de0 91       		.byte	0x91
 2795 0de1 74       		.sleb128 -12
 2796 0de2 2F       		.uleb128 0x2f
 2797 0de3 20090000 		.4byte	.LASF167
 2798 0de7 04       		.byte	0x4
 2799 0de8 BF02     		.2byte	0x2bf
 2800 0dea B4000000 		.4byte	0xb4
 2801 0dee 02       		.uleb128 0x2
 2802 0def 91       		.byte	0x91
 2803 0df0 7C       		.sleb128 -4
 2804 0df1 00       		.byte	0
 2805 0df2 2D       		.uleb128 0x2d
 2806 0df3 44050000 		.4byte	.LASF184
 2807 0df7 04       		.byte	0x4
 2808 0df8 EC02     		.2byte	0x2ec
 2809 0dfa 00000000 		.4byte	.LFB264
 2810 0dfe 18000000 		.4byte	.LFE264-.LFB264
 2811 0e02 01       		.uleb128 0x1
 2812 0e03 9C       		.byte	0x9c
 2813 0e04 180E0000 		.4byte	0xe18
 2814 0e08 2B       		.uleb128 0x2b
 2815 0e09 45060000 		.4byte	.LASF174
 2816 0e0d 04       		.byte	0x4
 2817 0e0e EC02     		.2byte	0x2ec
 2818 0e10 6F090000 		.4byte	0x96f
 2819 0e14 02       		.uleb128 0x2
 2820 0e15 91       		.byte	0x91
 2821 0e16 7C       		.sleb128 -4
 2822 0e17 00       		.byte	0
 2823 0e18 30       		.uleb128 0x30
 2824 0e19 54010000 		.4byte	.LASF185
 2825 0e1d 13       		.byte	0x13
 2826 0e1e A706     		.2byte	0x6a7
 2827 0e20 CA000000 		.4byte	0xca
 2828 0e24 31       		.uleb128 0x31
 2829 0e25 636800   		.ascii	"ch\000"
 2830 0e28 0A       		.byte	0xa
 2831 0e29 0902     		.2byte	0x209
ARM GAS  /tmp/cc4ZxXve.s 			page 51


 2832 0e2b E6030000 		.4byte	0x3e6
 2833 0e2f 32       		.uleb128 0x32
 2834 0e30 31060000 		.4byte	.LASF186
 2835 0e34 04       		.byte	0x4
 2836 0e35 36       		.byte	0x36
 2837 0e36 EC080000 		.4byte	0x8ec
 2838 0e3a 05       		.uleb128 0x5
 2839 0e3b 03       		.byte	0x3
 2840 0e3c 00000000 		.4byte	ICUD2
 2841 0e40 32       		.uleb128 0x32
 2842 0e41 3F060000 		.4byte	.LASF187
 2843 0e45 04       		.byte	0x4
 2844 0e46 4E       		.byte	0x4e
 2845 0e47 EC080000 		.4byte	0x8ec
 2846 0e4b 05       		.uleb128 0x5
 2847 0e4c 03       		.byte	0x3
 2848 0e4d 00000000 		.4byte	ICUD5
 2849 0e51 00       		.byte	0
 2850              		.section	.debug_abbrev,"",%progbits
 2851              	.Ldebug_abbrev0:
 2852 0000 01       		.uleb128 0x1
 2853 0001 11       		.uleb128 0x11
 2854 0002 01       		.byte	0x1
 2855 0003 25       		.uleb128 0x25
 2856 0004 0E       		.uleb128 0xe
 2857 0005 13       		.uleb128 0x13
 2858 0006 0B       		.uleb128 0xb
 2859 0007 03       		.uleb128 0x3
 2860 0008 0E       		.uleb128 0xe
 2861 0009 55       		.uleb128 0x55
 2862 000a 17       		.uleb128 0x17
 2863 000b 11       		.uleb128 0x11
 2864 000c 01       		.uleb128 0x1
 2865 000d 10       		.uleb128 0x10
 2866 000e 17       		.uleb128 0x17
 2867 000f 00       		.byte	0
 2868 0010 00       		.byte	0
 2869 0011 02       		.uleb128 0x2
 2870 0012 24       		.uleb128 0x24
 2871 0013 00       		.byte	0
 2872 0014 0B       		.uleb128 0xb
 2873 0015 0B       		.uleb128 0xb
 2874 0016 3E       		.uleb128 0x3e
 2875 0017 0B       		.uleb128 0xb
 2876 0018 03       		.uleb128 0x3
 2877 0019 08       		.uleb128 0x8
 2878 001a 00       		.byte	0
 2879 001b 00       		.byte	0
 2880 001c 03       		.uleb128 0x3
 2881 001d 16       		.uleb128 0x16
 2882 001e 00       		.byte	0
 2883 001f 03       		.uleb128 0x3
 2884 0020 0E       		.uleb128 0xe
 2885 0021 3A       		.uleb128 0x3a
 2886 0022 0B       		.uleb128 0xb
 2887 0023 3B       		.uleb128 0x3b
 2888 0024 0B       		.uleb128 0xb
ARM GAS  /tmp/cc4ZxXve.s 			page 52


 2889 0025 49       		.uleb128 0x49
 2890 0026 13       		.uleb128 0x13
 2891 0027 00       		.byte	0
 2892 0028 00       		.byte	0
 2893 0029 04       		.uleb128 0x4
 2894 002a 24       		.uleb128 0x24
 2895 002b 00       		.byte	0
 2896 002c 0B       		.uleb128 0xb
 2897 002d 0B       		.uleb128 0xb
 2898 002e 3E       		.uleb128 0x3e
 2899 002f 0B       		.uleb128 0xb
 2900 0030 03       		.uleb128 0x3
 2901 0031 0E       		.uleb128 0xe
 2902 0032 00       		.byte	0
 2903 0033 00       		.byte	0
 2904 0034 05       		.uleb128 0x5
 2905 0035 35       		.uleb128 0x35
 2906 0036 00       		.byte	0
 2907 0037 49       		.uleb128 0x49
 2908 0038 13       		.uleb128 0x13
 2909 0039 00       		.byte	0
 2910 003a 00       		.byte	0
 2911 003b 06       		.uleb128 0x6
 2912 003c 13       		.uleb128 0x13
 2913 003d 01       		.byte	0x1
 2914 003e 03       		.uleb128 0x3
 2915 003f 0E       		.uleb128 0xe
 2916 0040 0B       		.uleb128 0xb
 2917 0041 0B       		.uleb128 0xb
 2918 0042 3A       		.uleb128 0x3a
 2919 0043 0B       		.uleb128 0xb
 2920 0044 3B       		.uleb128 0x3b
 2921 0045 0B       		.uleb128 0xb
 2922 0046 01       		.uleb128 0x1
 2923 0047 13       		.uleb128 0x13
 2924 0048 00       		.byte	0
 2925 0049 00       		.byte	0
 2926 004a 07       		.uleb128 0x7
 2927 004b 0D       		.uleb128 0xd
 2928 004c 00       		.byte	0
 2929 004d 03       		.uleb128 0x3
 2930 004e 0E       		.uleb128 0xe
 2931 004f 3A       		.uleb128 0x3a
 2932 0050 0B       		.uleb128 0xb
 2933 0051 3B       		.uleb128 0x3b
 2934 0052 0B       		.uleb128 0xb
 2935 0053 49       		.uleb128 0x49
 2936 0054 13       		.uleb128 0x13
 2937 0055 38       		.uleb128 0x38
 2938 0056 0B       		.uleb128 0xb
 2939 0057 00       		.byte	0
 2940 0058 00       		.byte	0
 2941 0059 08       		.uleb128 0x8
 2942 005a 0D       		.uleb128 0xd
 2943 005b 00       		.byte	0
 2944 005c 03       		.uleb128 0x3
 2945 005d 08       		.uleb128 0x8
ARM GAS  /tmp/cc4ZxXve.s 			page 53


 2946 005e 3A       		.uleb128 0x3a
 2947 005f 0B       		.uleb128 0xb
 2948 0060 3B       		.uleb128 0x3b
 2949 0061 05       		.uleb128 0x5
 2950 0062 49       		.uleb128 0x49
 2951 0063 13       		.uleb128 0x13
 2952 0064 38       		.uleb128 0x38
 2953 0065 0B       		.uleb128 0xb
 2954 0066 00       		.byte	0
 2955 0067 00       		.byte	0
 2956 0068 09       		.uleb128 0x9
 2957 0069 0D       		.uleb128 0xd
 2958 006a 00       		.byte	0
 2959 006b 03       		.uleb128 0x3
 2960 006c 0E       		.uleb128 0xe
 2961 006d 3A       		.uleb128 0x3a
 2962 006e 0B       		.uleb128 0xb
 2963 006f 3B       		.uleb128 0x3b
 2964 0070 05       		.uleb128 0x5
 2965 0071 49       		.uleb128 0x49
 2966 0072 13       		.uleb128 0x13
 2967 0073 38       		.uleb128 0x38
 2968 0074 0B       		.uleb128 0xb
 2969 0075 00       		.byte	0
 2970 0076 00       		.byte	0
 2971 0077 0A       		.uleb128 0xa
 2972 0078 0F       		.uleb128 0xf
 2973 0079 00       		.byte	0
 2974 007a 0B       		.uleb128 0xb
 2975 007b 0B       		.uleb128 0xb
 2976 007c 49       		.uleb128 0x49
 2977 007d 13       		.uleb128 0x13
 2978 007e 00       		.byte	0
 2979 007f 00       		.byte	0
 2980 0080 0B       		.uleb128 0xb
 2981 0081 13       		.uleb128 0x13
 2982 0082 01       		.byte	0x1
 2983 0083 03       		.uleb128 0x3
 2984 0084 0E       		.uleb128 0xe
 2985 0085 0B       		.uleb128 0xb
 2986 0086 0B       		.uleb128 0xb
 2987 0087 3A       		.uleb128 0x3a
 2988 0088 0B       		.uleb128 0xb
 2989 0089 3B       		.uleb128 0x3b
 2990 008a 05       		.uleb128 0x5
 2991 008b 01       		.uleb128 0x1
 2992 008c 13       		.uleb128 0x13
 2993 008d 00       		.byte	0
 2994 008e 00       		.byte	0
 2995 008f 0C       		.uleb128 0xc
 2996 0090 15       		.uleb128 0x15
 2997 0091 01       		.byte	0x1
 2998 0092 27       		.uleb128 0x27
 2999 0093 19       		.uleb128 0x19
 3000 0094 01       		.uleb128 0x1
 3001 0095 13       		.uleb128 0x13
 3002 0096 00       		.byte	0
ARM GAS  /tmp/cc4ZxXve.s 			page 54


 3003 0097 00       		.byte	0
 3004 0098 0D       		.uleb128 0xd
 3005 0099 05       		.uleb128 0x5
 3006 009a 00       		.byte	0
 3007 009b 49       		.uleb128 0x49
 3008 009c 13       		.uleb128 0x13
 3009 009d 00       		.byte	0
 3010 009e 00       		.byte	0
 3011 009f 0E       		.uleb128 0xe
 3012 00a0 0F       		.uleb128 0xf
 3013 00a1 00       		.byte	0
 3014 00a2 0B       		.uleb128 0xb
 3015 00a3 0B       		.uleb128 0xb
 3016 00a4 00       		.byte	0
 3017 00a5 00       		.byte	0
 3018 00a6 0F       		.uleb128 0xf
 3019 00a7 13       		.uleb128 0x13
 3020 00a8 01       		.byte	0x1
 3021 00a9 03       		.uleb128 0x3
 3022 00aa 0E       		.uleb128 0xe
 3023 00ab 0B       		.uleb128 0xb
 3024 00ac 05       		.uleb128 0x5
 3025 00ad 3A       		.uleb128 0x3a
 3026 00ae 0B       		.uleb128 0xb
 3027 00af 3B       		.uleb128 0x3b
 3028 00b0 05       		.uleb128 0x5
 3029 00b1 01       		.uleb128 0x1
 3030 00b2 13       		.uleb128 0x13
 3031 00b3 00       		.byte	0
 3032 00b4 00       		.byte	0
 3033 00b5 10       		.uleb128 0x10
 3034 00b6 01       		.uleb128 0x1
 3035 00b7 01       		.byte	0x1
 3036 00b8 49       		.uleb128 0x49
 3037 00b9 13       		.uleb128 0x13
 3038 00ba 01       		.uleb128 0x1
 3039 00bb 13       		.uleb128 0x13
 3040 00bc 00       		.byte	0
 3041 00bd 00       		.byte	0
 3042 00be 11       		.uleb128 0x11
 3043 00bf 21       		.uleb128 0x21
 3044 00c0 00       		.byte	0
 3045 00c1 49       		.uleb128 0x49
 3046 00c2 13       		.uleb128 0x13
 3047 00c3 2F       		.uleb128 0x2f
 3048 00c4 0B       		.uleb128 0xb
 3049 00c5 00       		.byte	0
 3050 00c6 00       		.byte	0
 3051 00c7 12       		.uleb128 0x12
 3052 00c8 13       		.uleb128 0x13
 3053 00c9 01       		.byte	0x1
 3054 00ca 0B       		.uleb128 0xb
 3055 00cb 0B       		.uleb128 0xb
 3056 00cc 3A       		.uleb128 0x3a
 3057 00cd 0B       		.uleb128 0xb
 3058 00ce 3B       		.uleb128 0x3b
 3059 00cf 05       		.uleb128 0x5
ARM GAS  /tmp/cc4ZxXve.s 			page 55


 3060 00d0 01       		.uleb128 0x1
 3061 00d1 13       		.uleb128 0x13
 3062 00d2 00       		.byte	0
 3063 00d3 00       		.byte	0
 3064 00d4 13       		.uleb128 0x13
 3065 00d5 16       		.uleb128 0x16
 3066 00d6 00       		.byte	0
 3067 00d7 03       		.uleb128 0x3
 3068 00d8 0E       		.uleb128 0xe
 3069 00d9 3A       		.uleb128 0x3a
 3070 00da 0B       		.uleb128 0xb
 3071 00db 3B       		.uleb128 0x3b
 3072 00dc 05       		.uleb128 0x5
 3073 00dd 49       		.uleb128 0x49
 3074 00de 13       		.uleb128 0x13
 3075 00df 00       		.byte	0
 3076 00e0 00       		.byte	0
 3077 00e1 14       		.uleb128 0x14
 3078 00e2 0D       		.uleb128 0xd
 3079 00e3 00       		.byte	0
 3080 00e4 03       		.uleb128 0x3
 3081 00e5 08       		.uleb128 0x8
 3082 00e6 3A       		.uleb128 0x3a
 3083 00e7 0B       		.uleb128 0xb
 3084 00e8 3B       		.uleb128 0x3b
 3085 00e9 0B       		.uleb128 0xb
 3086 00ea 49       		.uleb128 0x49
 3087 00eb 13       		.uleb128 0x13
 3088 00ec 38       		.uleb128 0x38
 3089 00ed 0B       		.uleb128 0xb
 3090 00ee 00       		.byte	0
 3091 00ef 00       		.byte	0
 3092 00f0 15       		.uleb128 0x15
 3093 00f1 13       		.uleb128 0x13
 3094 00f2 01       		.byte	0x1
 3095 00f3 0B       		.uleb128 0xb
 3096 00f4 0B       		.uleb128 0xb
 3097 00f5 3A       		.uleb128 0x3a
 3098 00f6 0B       		.uleb128 0xb
 3099 00f7 3B       		.uleb128 0x3b
 3100 00f8 0B       		.uleb128 0xb
 3101 00f9 01       		.uleb128 0x1
 3102 00fa 13       		.uleb128 0x13
 3103 00fb 00       		.byte	0
 3104 00fc 00       		.byte	0
 3105 00fd 16       		.uleb128 0x16
 3106 00fe 17       		.uleb128 0x17
 3107 00ff 01       		.byte	0x1
 3108 0100 0B       		.uleb128 0xb
 3109 0101 0B       		.uleb128 0xb
 3110 0102 3A       		.uleb128 0x3a
 3111 0103 0B       		.uleb128 0xb
 3112 0104 3B       		.uleb128 0x3b
 3113 0105 0B       		.uleb128 0xb
 3114 0106 01       		.uleb128 0x1
 3115 0107 13       		.uleb128 0x13
 3116 0108 00       		.byte	0
ARM GAS  /tmp/cc4ZxXve.s 			page 56


 3117 0109 00       		.byte	0
 3118 010a 17       		.uleb128 0x17
 3119 010b 0D       		.uleb128 0xd
 3120 010c 00       		.byte	0
 3121 010d 03       		.uleb128 0x3
 3122 010e 0E       		.uleb128 0xe
 3123 010f 3A       		.uleb128 0x3a
 3124 0110 0B       		.uleb128 0xb
 3125 0111 3B       		.uleb128 0x3b
 3126 0112 05       		.uleb128 0x5
 3127 0113 49       		.uleb128 0x49
 3128 0114 13       		.uleb128 0x13
 3129 0115 00       		.byte	0
 3130 0116 00       		.byte	0
 3131 0117 18       		.uleb128 0x18
 3132 0118 26       		.uleb128 0x26
 3133 0119 00       		.byte	0
 3134 011a 49       		.uleb128 0x49
 3135 011b 13       		.uleb128 0x13
 3136 011c 00       		.byte	0
 3137 011d 00       		.byte	0
 3138 011e 19       		.uleb128 0x19
 3139 011f 04       		.uleb128 0x4
 3140 0120 01       		.byte	0x1
 3141 0121 0B       		.uleb128 0xb
 3142 0122 0B       		.uleb128 0xb
 3143 0123 3A       		.uleb128 0x3a
 3144 0124 0B       		.uleb128 0xb
 3145 0125 3B       		.uleb128 0x3b
 3146 0126 0B       		.uleb128 0xb
 3147 0127 01       		.uleb128 0x1
 3148 0128 13       		.uleb128 0x13
 3149 0129 00       		.byte	0
 3150 012a 00       		.byte	0
 3151 012b 1A       		.uleb128 0x1a
 3152 012c 28       		.uleb128 0x28
 3153 012d 00       		.byte	0
 3154 012e 03       		.uleb128 0x3
 3155 012f 0E       		.uleb128 0xe
 3156 0130 1C       		.uleb128 0x1c
 3157 0131 0D       		.uleb128 0xd
 3158 0132 00       		.byte	0
 3159 0133 00       		.byte	0
 3160 0134 1B       		.uleb128 0x1b
 3161 0135 2E       		.uleb128 0x2e
 3162 0136 01       		.byte	0x1
 3163 0137 03       		.uleb128 0x3
 3164 0138 0E       		.uleb128 0xe
 3165 0139 3A       		.uleb128 0x3a
 3166 013a 0B       		.uleb128 0xb
 3167 013b 3B       		.uleb128 0x3b
 3168 013c 05       		.uleb128 0x5
 3169 013d 27       		.uleb128 0x27
 3170 013e 19       		.uleb128 0x19
 3171 013f 20       		.uleb128 0x20
 3172 0140 0B       		.uleb128 0xb
 3173 0141 01       		.uleb128 0x1
ARM GAS  /tmp/cc4ZxXve.s 			page 57


 3174 0142 13       		.uleb128 0x13
 3175 0143 00       		.byte	0
 3176 0144 00       		.byte	0
 3177 0145 1C       		.uleb128 0x1c
 3178 0146 05       		.uleb128 0x5
 3179 0147 00       		.byte	0
 3180 0148 03       		.uleb128 0x3
 3181 0149 0E       		.uleb128 0xe
 3182 014a 3A       		.uleb128 0x3a
 3183 014b 0B       		.uleb128 0xb
 3184 014c 3B       		.uleb128 0x3b
 3185 014d 05       		.uleb128 0x5
 3186 014e 49       		.uleb128 0x49
 3187 014f 13       		.uleb128 0x13
 3188 0150 00       		.byte	0
 3189 0151 00       		.byte	0
 3190 0152 1D       		.uleb128 0x1d
 3191 0153 2E       		.uleb128 0x2e
 3192 0154 01       		.byte	0x1
 3193 0155 03       		.uleb128 0x3
 3194 0156 0E       		.uleb128 0xe
 3195 0157 3A       		.uleb128 0x3a
 3196 0158 0B       		.uleb128 0xb
 3197 0159 3B       		.uleb128 0x3b
 3198 015a 05       		.uleb128 0x5
 3199 015b 27       		.uleb128 0x27
 3200 015c 19       		.uleb128 0x19
 3201 015d 11       		.uleb128 0x11
 3202 015e 01       		.uleb128 0x1
 3203 015f 12       		.uleb128 0x12
 3204 0160 06       		.uleb128 0x6
 3205 0161 40       		.uleb128 0x40
 3206 0162 18       		.uleb128 0x18
 3207 0163 9742     		.uleb128 0x2117
 3208 0165 19       		.uleb128 0x19
 3209 0166 01       		.uleb128 0x1
 3210 0167 13       		.uleb128 0x13
 3211 0168 00       		.byte	0
 3212 0169 00       		.byte	0
 3213 016a 1E       		.uleb128 0x1e
 3214 016b 1D       		.uleb128 0x1d
 3215 016c 01       		.byte	0x1
 3216 016d 31       		.uleb128 0x31
 3217 016e 13       		.uleb128 0x13
 3218 016f 11       		.uleb128 0x11
 3219 0170 01       		.uleb128 0x1
 3220 0171 12       		.uleb128 0x12
 3221 0172 06       		.uleb128 0x6
 3222 0173 58       		.uleb128 0x58
 3223 0174 0B       		.uleb128 0xb
 3224 0175 59       		.uleb128 0x59
 3225 0176 05       		.uleb128 0x5
 3226 0177 00       		.byte	0
 3227 0178 00       		.byte	0
 3228 0179 1F       		.uleb128 0x1f
 3229 017a 05       		.uleb128 0x5
 3230 017b 00       		.byte	0
ARM GAS  /tmp/cc4ZxXve.s 			page 58


 3231 017c 31       		.uleb128 0x31
 3232 017d 13       		.uleb128 0x13
 3233 017e 02       		.uleb128 0x2
 3234 017f 18       		.uleb128 0x18
 3235 0180 00       		.byte	0
 3236 0181 00       		.byte	0
 3237 0182 20       		.uleb128 0x20
 3238 0183 2E       		.uleb128 0x2e
 3239 0184 00       		.byte	0
 3240 0185 03       		.uleb128 0x3
 3241 0186 0E       		.uleb128 0xe
 3242 0187 3A       		.uleb128 0x3a
 3243 0188 0B       		.uleb128 0xb
 3244 0189 3B       		.uleb128 0x3b
 3245 018a 05       		.uleb128 0x5
 3246 018b 27       		.uleb128 0x27
 3247 018c 19       		.uleb128 0x19
 3248 018d 11       		.uleb128 0x11
 3249 018e 01       		.uleb128 0x1
 3250 018f 12       		.uleb128 0x12
 3251 0190 06       		.uleb128 0x6
 3252 0191 40       		.uleb128 0x40
 3253 0192 18       		.uleb128 0x18
 3254 0193 9642     		.uleb128 0x2116
 3255 0195 19       		.uleb128 0x19
 3256 0196 00       		.byte	0
 3257 0197 00       		.byte	0
 3258 0198 21       		.uleb128 0x21
 3259 0199 2E       		.uleb128 0x2e
 3260 019a 01       		.byte	0x1
 3261 019b 03       		.uleb128 0x3
 3262 019c 0E       		.uleb128 0xe
 3263 019d 3A       		.uleb128 0x3a
 3264 019e 0B       		.uleb128 0xb
 3265 019f 3B       		.uleb128 0x3b
 3266 01a0 05       		.uleb128 0x5
 3267 01a1 27       		.uleb128 0x27
 3268 01a2 19       		.uleb128 0x19
 3269 01a3 11       		.uleb128 0x11
 3270 01a4 01       		.uleb128 0x1
 3271 01a5 12       		.uleb128 0x12
 3272 01a6 06       		.uleb128 0x6
 3273 01a7 40       		.uleb128 0x40
 3274 01a8 18       		.uleb128 0x18
 3275 01a9 9642     		.uleb128 0x2116
 3276 01ab 19       		.uleb128 0x19
 3277 01ac 01       		.uleb128 0x1
 3278 01ad 13       		.uleb128 0x13
 3279 01ae 00       		.byte	0
 3280 01af 00       		.byte	0
 3281 01b0 22       		.uleb128 0x22
 3282 01b1 34       		.uleb128 0x34
 3283 01b2 00       		.byte	0
 3284 01b3 03       		.uleb128 0x3
 3285 01b4 0E       		.uleb128 0xe
 3286 01b5 49       		.uleb128 0x49
 3287 01b6 13       		.uleb128 0x13
ARM GAS  /tmp/cc4ZxXve.s 			page 59


 3288 01b7 34       		.uleb128 0x34
 3289 01b8 19       		.uleb128 0x19
 3290 01b9 00       		.byte	0
 3291 01ba 00       		.byte	0
 3292 01bb 23       		.uleb128 0x23
 3293 01bc 2E       		.uleb128 0x2e
 3294 01bd 01       		.byte	0x1
 3295 01be 03       		.uleb128 0x3
 3296 01bf 0E       		.uleb128 0xe
 3297 01c0 3A       		.uleb128 0x3a
 3298 01c1 0B       		.uleb128 0xb
 3299 01c2 3B       		.uleb128 0x3b
 3300 01c3 0B       		.uleb128 0xb
 3301 01c4 27       		.uleb128 0x27
 3302 01c5 19       		.uleb128 0x19
 3303 01c6 49       		.uleb128 0x49
 3304 01c7 13       		.uleb128 0x13
 3305 01c8 11       		.uleb128 0x11
 3306 01c9 01       		.uleb128 0x1
 3307 01ca 12       		.uleb128 0x12
 3308 01cb 06       		.uleb128 0x6
 3309 01cc 40       		.uleb128 0x40
 3310 01cd 18       		.uleb128 0x18
 3311 01ce 9642     		.uleb128 0x2116
 3312 01d0 19       		.uleb128 0x19
 3313 01d1 01       		.uleb128 0x1
 3314 01d2 13       		.uleb128 0x13
 3315 01d3 00       		.byte	0
 3316 01d4 00       		.byte	0
 3317 01d5 24       		.uleb128 0x24
 3318 01d6 05       		.uleb128 0x5
 3319 01d7 00       		.byte	0
 3320 01d8 03       		.uleb128 0x3
 3321 01d9 0E       		.uleb128 0xe
 3322 01da 3A       		.uleb128 0x3a
 3323 01db 0B       		.uleb128 0xb
 3324 01dc 3B       		.uleb128 0x3b
 3325 01dd 0B       		.uleb128 0xb
 3326 01de 49       		.uleb128 0x49
 3327 01df 13       		.uleb128 0x13
 3328 01e0 02       		.uleb128 0x2
 3329 01e1 18       		.uleb128 0x18
 3330 01e2 00       		.byte	0
 3331 01e3 00       		.byte	0
 3332 01e4 25       		.uleb128 0x25
 3333 01e5 34       		.uleb128 0x34
 3334 01e6 00       		.byte	0
 3335 01e7 03       		.uleb128 0x3
 3336 01e8 08       		.uleb128 0x8
 3337 01e9 3A       		.uleb128 0x3a
 3338 01ea 0B       		.uleb128 0xb
 3339 01eb 3B       		.uleb128 0x3b
 3340 01ec 0B       		.uleb128 0xb
 3341 01ed 49       		.uleb128 0x49
 3342 01ee 13       		.uleb128 0x13
 3343 01ef 02       		.uleb128 0x2
 3344 01f0 18       		.uleb128 0x18
ARM GAS  /tmp/cc4ZxXve.s 			page 60


 3345 01f1 00       		.byte	0
 3346 01f2 00       		.byte	0
 3347 01f3 26       		.uleb128 0x26
 3348 01f4 34       		.uleb128 0x34
 3349 01f5 00       		.byte	0
 3350 01f6 03       		.uleb128 0x3
 3351 01f7 0E       		.uleb128 0xe
 3352 01f8 3A       		.uleb128 0x3a
 3353 01f9 0B       		.uleb128 0xb
 3354 01fa 3B       		.uleb128 0x3b
 3355 01fb 0B       		.uleb128 0xb
 3356 01fc 49       		.uleb128 0x49
 3357 01fd 13       		.uleb128 0x13
 3358 01fe 02       		.uleb128 0x2
 3359 01ff 18       		.uleb128 0x18
 3360 0200 00       		.byte	0
 3361 0201 00       		.byte	0
 3362 0202 27       		.uleb128 0x27
 3363 0203 2E       		.uleb128 0x2e
 3364 0204 01       		.byte	0x1
 3365 0205 03       		.uleb128 0x3
 3366 0206 0E       		.uleb128 0xe
 3367 0207 3A       		.uleb128 0x3a
 3368 0208 0B       		.uleb128 0xb
 3369 0209 3B       		.uleb128 0x3b
 3370 020a 0B       		.uleb128 0xb
 3371 020b 27       		.uleb128 0x27
 3372 020c 19       		.uleb128 0x19
 3373 020d 11       		.uleb128 0x11
 3374 020e 01       		.uleb128 0x1
 3375 020f 12       		.uleb128 0x12
 3376 0210 06       		.uleb128 0x6
 3377 0211 40       		.uleb128 0x40
 3378 0212 18       		.uleb128 0x18
 3379 0213 9642     		.uleb128 0x2116
 3380 0215 19       		.uleb128 0x19
 3381 0216 01       		.uleb128 0x1
 3382 0217 13       		.uleb128 0x13
 3383 0218 00       		.byte	0
 3384 0219 00       		.byte	0
 3385 021a 28       		.uleb128 0x28
 3386 021b 2E       		.uleb128 0x2e
 3387 021c 00       		.byte	0
 3388 021d 3F       		.uleb128 0x3f
 3389 021e 19       		.uleb128 0x19
 3390 021f 03       		.uleb128 0x3
 3391 0220 0E       		.uleb128 0xe
 3392 0221 3A       		.uleb128 0x3a
 3393 0222 0B       		.uleb128 0xb
 3394 0223 3B       		.uleb128 0x3b
 3395 0224 0B       		.uleb128 0xb
 3396 0225 27       		.uleb128 0x27
 3397 0226 19       		.uleb128 0x19
 3398 0227 11       		.uleb128 0x11
 3399 0228 01       		.uleb128 0x1
 3400 0229 12       		.uleb128 0x12
 3401 022a 06       		.uleb128 0x6
ARM GAS  /tmp/cc4ZxXve.s 			page 61


 3402 022b 40       		.uleb128 0x40
 3403 022c 18       		.uleb128 0x18
 3404 022d 9642     		.uleb128 0x2116
 3405 022f 19       		.uleb128 0x19
 3406 0230 00       		.byte	0
 3407 0231 00       		.byte	0
 3408 0232 29       		.uleb128 0x29
 3409 0233 2E       		.uleb128 0x2e
 3410 0234 00       		.byte	0
 3411 0235 3F       		.uleb128 0x3f
 3412 0236 19       		.uleb128 0x19
 3413 0237 03       		.uleb128 0x3
 3414 0238 0E       		.uleb128 0xe
 3415 0239 3A       		.uleb128 0x3a
 3416 023a 0B       		.uleb128 0xb
 3417 023b 3B       		.uleb128 0x3b
 3418 023c 05       		.uleb128 0x5
 3419 023d 27       		.uleb128 0x27
 3420 023e 19       		.uleb128 0x19
 3421 023f 11       		.uleb128 0x11
 3422 0240 01       		.uleb128 0x1
 3423 0241 12       		.uleb128 0x12
 3424 0242 06       		.uleb128 0x6
 3425 0243 40       		.uleb128 0x40
 3426 0244 18       		.uleb128 0x18
 3427 0245 9642     		.uleb128 0x2116
 3428 0247 19       		.uleb128 0x19
 3429 0248 00       		.byte	0
 3430 0249 00       		.byte	0
 3431 024a 2A       		.uleb128 0x2a
 3432 024b 2E       		.uleb128 0x2e
 3433 024c 01       		.byte	0x1
 3434 024d 3F       		.uleb128 0x3f
 3435 024e 19       		.uleb128 0x19
 3436 024f 03       		.uleb128 0x3
 3437 0250 0E       		.uleb128 0xe
 3438 0251 3A       		.uleb128 0x3a
 3439 0252 0B       		.uleb128 0xb
 3440 0253 3B       		.uleb128 0x3b
 3441 0254 05       		.uleb128 0x5
 3442 0255 27       		.uleb128 0x27
 3443 0256 19       		.uleb128 0x19
 3444 0257 11       		.uleb128 0x11
 3445 0258 01       		.uleb128 0x1
 3446 0259 12       		.uleb128 0x12
 3447 025a 06       		.uleb128 0x6
 3448 025b 40       		.uleb128 0x40
 3449 025c 18       		.uleb128 0x18
 3450 025d 9642     		.uleb128 0x2116
 3451 025f 19       		.uleb128 0x19
 3452 0260 01       		.uleb128 0x1
 3453 0261 13       		.uleb128 0x13
 3454 0262 00       		.byte	0
 3455 0263 00       		.byte	0
 3456 0264 2B       		.uleb128 0x2b
 3457 0265 05       		.uleb128 0x5
 3458 0266 00       		.byte	0
ARM GAS  /tmp/cc4ZxXve.s 			page 62


 3459 0267 03       		.uleb128 0x3
 3460 0268 0E       		.uleb128 0xe
 3461 0269 3A       		.uleb128 0x3a
 3462 026a 0B       		.uleb128 0xb
 3463 026b 3B       		.uleb128 0x3b
 3464 026c 05       		.uleb128 0x5
 3465 026d 49       		.uleb128 0x49
 3466 026e 13       		.uleb128 0x13
 3467 026f 02       		.uleb128 0x2
 3468 0270 18       		.uleb128 0x18
 3469 0271 00       		.byte	0
 3470 0272 00       		.byte	0
 3471 0273 2C       		.uleb128 0x2c
 3472 0274 34       		.uleb128 0x34
 3473 0275 00       		.byte	0
 3474 0276 03       		.uleb128 0x3
 3475 0277 08       		.uleb128 0x8
 3476 0278 3A       		.uleb128 0x3a
 3477 0279 0B       		.uleb128 0xb
 3478 027a 3B       		.uleb128 0x3b
 3479 027b 05       		.uleb128 0x5
 3480 027c 49       		.uleb128 0x49
 3481 027d 13       		.uleb128 0x13
 3482 027e 02       		.uleb128 0x2
 3483 027f 18       		.uleb128 0x18
 3484 0280 00       		.byte	0
 3485 0281 00       		.byte	0
 3486 0282 2D       		.uleb128 0x2d
 3487 0283 2E       		.uleb128 0x2e
 3488 0284 01       		.byte	0x1
 3489 0285 3F       		.uleb128 0x3f
 3490 0286 19       		.uleb128 0x19
 3491 0287 03       		.uleb128 0x3
 3492 0288 0E       		.uleb128 0xe
 3493 0289 3A       		.uleb128 0x3a
 3494 028a 0B       		.uleb128 0xb
 3495 028b 3B       		.uleb128 0x3b
 3496 028c 05       		.uleb128 0x5
 3497 028d 27       		.uleb128 0x27
 3498 028e 19       		.uleb128 0x19
 3499 028f 11       		.uleb128 0x11
 3500 0290 01       		.uleb128 0x1
 3501 0291 12       		.uleb128 0x12
 3502 0292 06       		.uleb128 0x6
 3503 0293 40       		.uleb128 0x40
 3504 0294 18       		.uleb128 0x18
 3505 0295 9742     		.uleb128 0x2117
 3506 0297 19       		.uleb128 0x19
 3507 0298 01       		.uleb128 0x1
 3508 0299 13       		.uleb128 0x13
 3509 029a 00       		.byte	0
 3510 029b 00       		.byte	0
 3511 029c 2E       		.uleb128 0x2e
 3512 029d 2E       		.uleb128 0x2e
 3513 029e 01       		.byte	0x1
 3514 029f 3F       		.uleb128 0x3f
 3515 02a0 19       		.uleb128 0x19
ARM GAS  /tmp/cc4ZxXve.s 			page 63


 3516 02a1 03       		.uleb128 0x3
 3517 02a2 0E       		.uleb128 0xe
 3518 02a3 3A       		.uleb128 0x3a
 3519 02a4 0B       		.uleb128 0xb
 3520 02a5 3B       		.uleb128 0x3b
 3521 02a6 05       		.uleb128 0x5
 3522 02a7 27       		.uleb128 0x27
 3523 02a8 19       		.uleb128 0x19
 3524 02a9 49       		.uleb128 0x49
 3525 02aa 13       		.uleb128 0x13
 3526 02ab 11       		.uleb128 0x11
 3527 02ac 01       		.uleb128 0x1
 3528 02ad 12       		.uleb128 0x12
 3529 02ae 06       		.uleb128 0x6
 3530 02af 40       		.uleb128 0x40
 3531 02b0 18       		.uleb128 0x18
 3532 02b1 9642     		.uleb128 0x2116
 3533 02b3 19       		.uleb128 0x19
 3534 02b4 01       		.uleb128 0x1
 3535 02b5 13       		.uleb128 0x13
 3536 02b6 00       		.byte	0
 3537 02b7 00       		.byte	0
 3538 02b8 2F       		.uleb128 0x2f
 3539 02b9 34       		.uleb128 0x34
 3540 02ba 00       		.byte	0
 3541 02bb 03       		.uleb128 0x3
 3542 02bc 0E       		.uleb128 0xe
 3543 02bd 3A       		.uleb128 0x3a
 3544 02be 0B       		.uleb128 0xb
 3545 02bf 3B       		.uleb128 0x3b
 3546 02c0 05       		.uleb128 0x5
 3547 02c1 49       		.uleb128 0x49
 3548 02c2 13       		.uleb128 0x13
 3549 02c3 02       		.uleb128 0x2
 3550 02c4 18       		.uleb128 0x18
 3551 02c5 00       		.byte	0
 3552 02c6 00       		.byte	0
 3553 02c7 30       		.uleb128 0x30
 3554 02c8 34       		.uleb128 0x34
 3555 02c9 00       		.byte	0
 3556 02ca 03       		.uleb128 0x3
 3557 02cb 0E       		.uleb128 0xe
 3558 02cc 3A       		.uleb128 0x3a
 3559 02cd 0B       		.uleb128 0xb
 3560 02ce 3B       		.uleb128 0x3b
 3561 02cf 05       		.uleb128 0x5
 3562 02d0 49       		.uleb128 0x49
 3563 02d1 13       		.uleb128 0x13
 3564 02d2 3F       		.uleb128 0x3f
 3565 02d3 19       		.uleb128 0x19
 3566 02d4 3C       		.uleb128 0x3c
 3567 02d5 19       		.uleb128 0x19
 3568 02d6 00       		.byte	0
 3569 02d7 00       		.byte	0
 3570 02d8 31       		.uleb128 0x31
 3571 02d9 34       		.uleb128 0x34
 3572 02da 00       		.byte	0
ARM GAS  /tmp/cc4ZxXve.s 			page 64


 3573 02db 03       		.uleb128 0x3
 3574 02dc 08       		.uleb128 0x8
 3575 02dd 3A       		.uleb128 0x3a
 3576 02de 0B       		.uleb128 0xb
 3577 02df 3B       		.uleb128 0x3b
 3578 02e0 05       		.uleb128 0x5
 3579 02e1 49       		.uleb128 0x49
 3580 02e2 13       		.uleb128 0x13
 3581 02e3 3F       		.uleb128 0x3f
 3582 02e4 19       		.uleb128 0x19
 3583 02e5 3C       		.uleb128 0x3c
 3584 02e6 19       		.uleb128 0x19
 3585 02e7 00       		.byte	0
 3586 02e8 00       		.byte	0
 3587 02e9 32       		.uleb128 0x32
 3588 02ea 34       		.uleb128 0x34
 3589 02eb 00       		.byte	0
 3590 02ec 03       		.uleb128 0x3
 3591 02ed 0E       		.uleb128 0xe
 3592 02ee 3A       		.uleb128 0x3a
 3593 02ef 0B       		.uleb128 0xb
 3594 02f0 3B       		.uleb128 0x3b
 3595 02f1 0B       		.uleb128 0xb
 3596 02f2 49       		.uleb128 0x49
 3597 02f3 13       		.uleb128 0x13
 3598 02f4 3F       		.uleb128 0x3f
 3599 02f5 19       		.uleb128 0x19
 3600 02f6 02       		.uleb128 0x2
 3601 02f7 18       		.uleb128 0x18
 3602 02f8 00       		.byte	0
 3603 02f9 00       		.byte	0
 3604 02fa 00       		.byte	0
 3605              		.section	.debug_aranges,"",%progbits
 3606 0000 94000000 		.4byte	0x94
 3607 0004 0200     		.2byte	0x2
 3608 0006 00000000 		.4byte	.Ldebug_info0
 3609 000a 04       		.byte	0x4
 3610 000b 00       		.byte	0
 3611 000c 0000     		.2byte	0
 3612 000e 0000     		.2byte	0
 3613 0010 00000000 		.4byte	.LFB116
 3614 0014 10000000 		.4byte	.LFE116-.LFB116
 3615 0018 00000000 		.4byte	.LFB117
 3616 001c 10000000 		.4byte	.LFE117-.LFB117
 3617 0020 00000000 		.4byte	.LFB145
 3618 0024 08000000 		.4byte	.LFE145-.LFB145
 3619 0028 00000000 		.4byte	.LFB146
 3620 002c 08000000 		.4byte	.LFE146-.LFB146
 3621 0030 00000000 		.4byte	.LFB253
 3622 0034 70000000 		.4byte	.LFE253-.LFB253
 3623 0038 00000000 		.4byte	.LFB254
 3624 003c F6000000 		.4byte	.LFE254-.LFB254
 3625 0040 00000000 		.4byte	.LFB255
 3626 0044 14000000 		.4byte	.LFE255-.LFB255
 3627 0048 00000000 		.4byte	.LFB256
 3628 004c 14000000 		.4byte	.LFE256-.LFB256
 3629 0050 00000000 		.4byte	.LFB257
ARM GAS  /tmp/cc4ZxXve.s 			page 65


 3630 0054 2C000000 		.4byte	.LFE257-.LFB257
 3631 0058 00000000 		.4byte	.LFB258
 3632 005c 84010000 		.4byte	.LFE258-.LFB258
 3633 0060 00000000 		.4byte	.LFB259
 3634 0064 6C000000 		.4byte	.LFE259-.LFB259
 3635 0068 00000000 		.4byte	.LFB260
 3636 006c 28000000 		.4byte	.LFE260-.LFB260
 3637 0070 00000000 		.4byte	.LFB261
 3638 0074 2E000000 		.4byte	.LFE261-.LFB261
 3639 0078 00000000 		.4byte	.LFB262
 3640 007c 20000000 		.4byte	.LFE262-.LFB262
 3641 0080 00000000 		.4byte	.LFB263
 3642 0084 7A000000 		.4byte	.LFE263-.LFB263
 3643 0088 00000000 		.4byte	.LFB264
 3644 008c 18000000 		.4byte	.LFE264-.LFB264
 3645 0090 00000000 		.4byte	0
 3646 0094 00000000 		.4byte	0
 3647              		.section	.debug_ranges,"",%progbits
 3648              	.Ldebug_ranges0:
 3649 0000 00000000 		.4byte	.LFB116
 3650 0004 10000000 		.4byte	.LFE116
 3651 0008 00000000 		.4byte	.LFB117
 3652 000c 10000000 		.4byte	.LFE117
 3653 0010 00000000 		.4byte	.LFB145
 3654 0014 08000000 		.4byte	.LFE145
 3655 0018 00000000 		.4byte	.LFB146
 3656 001c 08000000 		.4byte	.LFE146
 3657 0020 00000000 		.4byte	.LFB253
 3658 0024 70000000 		.4byte	.LFE253
 3659 0028 00000000 		.4byte	.LFB254
 3660 002c F6000000 		.4byte	.LFE254
 3661 0030 00000000 		.4byte	.LFB255
 3662 0034 14000000 		.4byte	.LFE255
 3663 0038 00000000 		.4byte	.LFB256
 3664 003c 14000000 		.4byte	.LFE256
 3665 0040 00000000 		.4byte	.LFB257
 3666 0044 2C000000 		.4byte	.LFE257
 3667 0048 00000000 		.4byte	.LFB258
 3668 004c 84010000 		.4byte	.LFE258
 3669 0050 00000000 		.4byte	.LFB259
 3670 0054 6C000000 		.4byte	.LFE259
 3671 0058 00000000 		.4byte	.LFB260
 3672 005c 28000000 		.4byte	.LFE260
 3673 0060 00000000 		.4byte	.LFB261
 3674 0064 2E000000 		.4byte	.LFE261
 3675 0068 00000000 		.4byte	.LFB262
 3676 006c 20000000 		.4byte	.LFE262
 3677 0070 00000000 		.4byte	.LFB263
 3678 0074 7A000000 		.4byte	.LFE263
 3679 0078 00000000 		.4byte	.LFB264
 3680 007c 18000000 		.4byte	.LFE264
 3681 0080 00000000 		.4byte	0
 3682 0084 00000000 		.4byte	0
 3683              		.section	.debug_line,"",%progbits
 3684              	.Ldebug_line0:
 3685 0000 61050000 		.section	.debug_str,"MS",%progbits,1
 3685      02005903 
ARM GAS  /tmp/cc4ZxXve.s 			page 66


 3685      00000201 
 3685      FB0E0D00 
 3685      01010101 
 3686              	.LASF154:
 3687 0000 4943555F 		.ascii	"ICU_INPUT_ACTIVE_HIGH\000"
 3687      494E5055 
 3687      545F4143 
 3687      54495645 
 3687      5F484947 
 3688              	.LASF51:
 3689 0016 72656164 		.ascii	"ready_list_t\000"
 3689      795F6C69 
 3689      73745F74 
 3689      00
 3690              	.LASF145:
 3691 0023 44494552 		.ascii	"DIER\000"
 3691      00
 3692              	.LASF2:
 3693 0028 73697A65 		.ascii	"size_t\000"
 3693      5F7400
 3694              	.LASF183:
 3695 002f 6963755F 		.ascii	"icu_lld_enable_notifications\000"
 3695      6C6C645F 
 3695      656E6162 
 3695      6C655F6E 
 3695      6F746966 
 3696              	.LASF189:
 3697 004c 2F686F6D 		.ascii	"/home/makkmarci/workspace/CLEAN/ChibiOS/os/hal/port"
 3697      652F6D61 
 3697      6B6B6D61 
 3697      7263692F 
 3697      776F726B 
 3698 007f 732F5354 		.ascii	"s/STM32/LLD/TIMv1/icu_lld.c\000"
 3698      4D33322F 
 3698      4C4C442F 
 3698      54494D76 
 3698      312F6963 
 3699              	.LASF17:
 3700 009b 75696E74 		.ascii	"uint64_t\000"
 3700      36345F74 
 3700      00
 3701              	.LASF134:
 3702 00a4 4943555F 		.ascii	"ICU_WAITING\000"
 3702      57414954 
 3702      494E4700 
 3703              	.LASF135:
 3704 00b0 4943555F 		.ascii	"ICU_ACTIVE\000"
 3704      41435449 
 3704      564500
 3705              	.LASF3:
 3706 00bb 5F5F7569 		.ascii	"__uint8_t\000"
 3706      6E74385F 
 3706      7400
 3707              	.LASF111:
 3708 00c5 706F7274 		.ascii	"port_intctx\000"
 3708      5F696E74 
 3708      63747800 
ARM GAS  /tmp/cc4ZxXve.s 			page 67


 3709              	.LASF50:
 3710 00d1 63685F74 		.ascii	"ch_threads_queue\000"
 3710      68726561 
 3710      64735F71 
 3710      75657565 
 3710      00
 3711              	.LASF70:
 3712 00e2 73797374 		.ascii	"system_debug_t\000"
 3712      656D5F64 
 3712      65627567 
 3712      5F7400
 3713              	.LASF169:
 3714 00f1 706F7274 		.ascii	"port_lock\000"
 3714      5F6C6F63 
 3714      6B00
 3715              	.LASF136:
 3716 00fb 69637573 		.ascii	"icustate_t\000"
 3716      74617465 
 3716      5F7400
 3717              	.LASF13:
 3718 0106 6C6F6E67 		.ascii	"long long unsigned int\000"
 3718      206C6F6E 
 3718      6720756E 
 3718      7369676E 
 3718      65642069 
 3719              	.LASF115:
 3720 011d 65786974 		.ascii	"exitcode\000"
 3720      636F6465 
 3720      00
 3721              	.LASF77:
 3722 0126 6D61696E 		.ascii	"mainthread\000"
 3722      74687265 
 3722      616400
 3723              	.LASF177:
 3724 0131 6963755F 		.ascii	"icu_lld_init\000"
 3724      6C6C645F 
 3724      696E6974 
 3724      00
 3725              	.LASF67:
 3726 013e 76697274 		.ascii	"virtual_timers_list_t\000"
 3726      75616C5F 
 3726      74696D65 
 3726      72735F6C 
 3726      6973745F 
 3727              	.LASF185:
 3728 0154 49544D5F 		.ascii	"ITM_RxBuffer\000"
 3728      52784275 
 3728      66666572 
 3728      00
 3729              	.LASF149:
 3730 0161 42445452 		.ascii	"BDTR\000"
 3730      00
 3731              	.LASF162:
 3732 0166 66726571 		.ascii	"frequency\000"
 3732      75656E63 
 3732      7900
 3733              	.LASF96:
ARM GAS  /tmp/cc4ZxXve.s 			page 68


 3734 0170 41484231 		.ascii	"AHB1LPENR\000"
 3734      4C50454E 
 3734      5200
 3735              	.LASF30:
 3736 017a 705F7072 		.ascii	"p_prio\000"
 3736      696F00
 3737              	.LASF6:
 3738 0181 73686F72 		.ascii	"short unsigned int\000"
 3738      7420756E 
 3738      7369676E 
 3738      65642069 
 3738      6E7400
 3739              	.LASF146:
 3740 0194 43434D52 		.ascii	"CCMR1\000"
 3740      3100
 3741              	.LASF147:
 3742 019a 43434D52 		.ascii	"CCMR2\000"
 3742      3200
 3743              	.LASF151:
 3744 01a0 43434D52 		.ascii	"CCMR3\000"
 3744      3300
 3745              	.LASF1:
 3746 01a6 7369676E 		.ascii	"signed char\000"
 3746      65642063 
 3746      68617200 
 3747              	.LASF82:
 3748 01b2 41484231 		.ascii	"AHB1RSTR\000"
 3748      52535452 
 3748      00
 3749              	.LASF125:
 3750 01bb 6D5F7175 		.ascii	"m_queue\000"
 3750      65756500 
 3751              	.LASF175:
 3752 01c3 56656374 		.ascii	"VectorB0\000"
 3752      6F724230 
 3752      00
 3753              	.LASF170:
 3754 01cc 706F7274 		.ascii	"port_unlock\000"
 3754      5F756E6C 
 3754      6F636B00 
 3755              	.LASF138:
 3756 01d8 73746174 		.ascii	"state\000"
 3756      6500
 3757              	.LASF74:
 3758 01de 63685F73 		.ascii	"ch_system\000"
 3758      79737465 
 3758      6D00
 3759              	.LASF8:
 3760 01e8 6C6F6E67 		.ascii	"long int\000"
 3760      20696E74 
 3760      00
 3761              	.LASF87:
 3762 01f1 41504232 		.ascii	"APB2RSTR\000"
 3762      52535452 
 3762      00
 3763              	.LASF100:
 3764 01fa 41504231 		.ascii	"APB1LPENR\000"
ARM GAS  /tmp/cc4ZxXve.s 			page 69


 3764      4C50454E 
 3764      5200
 3765              	.LASF20:
 3766 0204 74737461 		.ascii	"tstate_t\000"
 3766      74655F74 
 3766      00
 3767              	.LASF32:
 3768 020d 705F6E65 		.ascii	"p_newer\000"
 3768      77657200 
 3769              	.LASF80:
 3770 0215 504C4C43 		.ascii	"PLLCFGR\000"
 3770      46475200 
 3771              	.LASF168:
 3772 021d 49435543 		.ascii	"ICUConfig\000"
 3772      6F6E6669 
 3772      6700
 3773              	.LASF56:
 3774 0227 725F6E65 		.ascii	"r_newer\000"
 3774      77657200 
 3775              	.LASF44:
 3776 022f 705F6D70 		.ascii	"p_mpool\000"
 3776      6F6F6C00 
 3777              	.LASF108:
 3778 0237 72656761 		.ascii	"regarm_t\000"
 3778      726D5F74 
 3778      00
 3779              	.LASF63:
 3780 0240 76745F70 		.ascii	"vt_prev\000"
 3780      72657600 
 3781              	.LASF76:
 3782 0248 76746C69 		.ascii	"vtlist\000"
 3782      737400
 3783              	.LASF75:
 3784 024f 726C6973 		.ascii	"rlist\000"
 3784      7400
 3785              	.LASF11:
 3786 0255 6C6F6E67 		.ascii	"long long int\000"
 3786      206C6F6E 
 3786      6720696E 
 3786      7400
 3787              	.LASF191:
 3788 0263 76616C75 		.ascii	"value\000"
 3788      6500
 3789              	.LASF78:
 3790 0269 69646C65 		.ascii	"idle_thread_wa\000"
 3790      5F746872 
 3790      6561645F 
 3790      776100
 3791              	.LASF25:
 3792 0278 636E745F 		.ascii	"cnt_t\000"
 3792      7400
 3793              	.LASF0:
 3794 027e 756E7369 		.ascii	"unsigned int\000"
 3794      676E6564 
 3794      20696E74 
 3794      00
 3795              	.LASF62:
ARM GAS  /tmp/cc4ZxXve.s 			page 70


 3796 028b 76745F6E 		.ascii	"vt_next\000"
 3796      65787400 
 3797              	.LASF118:
 3798 0293 77747365 		.ascii	"wtsemp\000"
 3798      6D7000
 3799              	.LASF69:
 3800 029a 76745F73 		.ascii	"vt_systime\000"
 3800      79737469 
 3800      6D6500
 3801              	.LASF64:
 3802 02a5 76745F64 		.ascii	"vt_delta\000"
 3802      656C7461 
 3802      00
 3803              	.LASF39:
 3804 02ae 705F6D73 		.ascii	"p_msgqueue\000"
 3804      67717565 
 3804      756500
 3805              	.LASF143:
 3806 02b9 69637563 		.ascii	"icucallback_t\000"
 3806      616C6C62 
 3806      61636B5F 
 3806      7400
 3807              	.LASF107:
 3808 02c7 5243435F 		.ascii	"RCC_TypeDef\000"
 3808      54797065 
 3808      44656600 
 3809              	.LASF47:
 3810 02d3 63685F74 		.ascii	"ch_thread\000"
 3810      68726561 
 3810      6400
 3811              	.LASF164:
 3812 02dd 70657269 		.ascii	"period_cb\000"
 3812      6F645F63 
 3812      6200
 3813              	.LASF173:
 3814 02e7 6963755F 		.ascii	"icu_lld_serve_interrupt\000"
 3814      6C6C645F 
 3814      73657276 
 3814      655F696E 
 3814      74657272 
 3815              	.LASF165:
 3816 02ff 6F766572 		.ascii	"overflow_cb\000"
 3816      666C6F77 
 3816      5F636200 
 3817              	.LASF106:
 3818 030b 504C4C49 		.ascii	"PLLI2SCFGR\000"
 3818      32534346 
 3818      475200
 3819              	.LASF23:
 3820 0316 6D73675F 		.ascii	"msg_t\000"
 3820      7400
 3821              	.LASF84:
 3822 031c 41484233 		.ascii	"AHB3RSTR\000"
 3822      52535452 
 3822      00
 3823              	.LASF73:
 3824 0325 63685F73 		.ascii	"ch_system_t\000"
ARM GAS  /tmp/cc4ZxXve.s 			page 71


 3824      79737465 
 3824      6D5F7400 
 3825              	.LASF137:
 3826 0331 49435544 		.ascii	"ICUDriver\000"
 3826      72697665 
 3826      7200
 3827              	.LASF90:
 3828 033b 41484232 		.ascii	"AHB2ENR\000"
 3828      454E5200 
 3829              	.LASF176:
 3830 0343 56656374 		.ascii	"Vector108\000"
 3830      6F723130 
 3830      3800
 3831              	.LASF153:
 3832 034d 73746D33 		.ascii	"stm32_tim_t\000"
 3832      325F7469 
 3832      6D5F7400 
 3833              	.LASF101:
 3834 0359 41504232 		.ascii	"APB2LPENR\000"
 3834      4C50454E 
 3834      5200
 3835              	.LASF142:
 3836 0363 70636372 		.ascii	"pccrp\000"
 3836      7000
 3837              	.LASF52:
 3838 0369 63685F72 		.ascii	"ch_ready_list\000"
 3838      65616479 
 3838      5F6C6973 
 3838      7400
 3839              	.LASF24:
 3840 0377 6576656E 		.ascii	"eventmask_t\000"
 3840      746D6173 
 3840      6B5F7400 
 3841              	.LASF7:
 3842 0383 5F5F696E 		.ascii	"__int32_t\000"
 3842      7433325F 
 3842      7400
 3843              	.LASF133:
 3844 038d 4943555F 		.ascii	"ICU_READY\000"
 3844      52454144 
 3844      5900
 3845              	.LASF109:
 3846 0397 73746B61 		.ascii	"stkalign_t\000"
 3846      6C69676E 
 3846      5F7400
 3847              	.LASF182:
 3848 03a2 6963755F 		.ascii	"icu_lld_stop_capture\000"
 3848      6C6C645F 
 3848      73746F70 
 3848      5F636170 
 3848      74757265 
 3849              	.LASF46:
 3850 03b7 74687265 		.ascii	"threads_list_t\000"
 3850      6164735F 
 3850      6C697374 
 3850      5F7400
 3851              	.LASF60:
ARM GAS  /tmp/cc4ZxXve.s 			page 72


 3852 03c6 76697274 		.ascii	"virtual_timer_t\000"
 3852      75616C5F 
 3852      74696D65 
 3852      725F7400 
 3853              	.LASF181:
 3854 03d6 6963755F 		.ascii	"icu_lld_start_capture\000"
 3854      6C6C645F 
 3854      73746172 
 3854      745F6361 
 3854      70747572 
 3855              	.LASF38:
 3856 03ec 705F7761 		.ascii	"p_waiting\000"
 3856      6974696E 
 3856      6700
 3857              	.LASF79:
 3858 03f6 73697A65 		.ascii	"sizetype\000"
 3858      74797065 
 3858      00
 3859              	.LASF45:
 3860 03ff 74687265 		.ascii	"thread_reference_t\000"
 3860      61645F72 
 3860      65666572 
 3860      656E6365 
 3860      5F7400
 3861              	.LASF68:
 3862 0412 63685F76 		.ascii	"ch_virtual_timers_list\000"
 3862      69727475 
 3862      616C5F74 
 3862      696D6572 
 3862      735F6C69 
 3863              	.LASF188:
 3864 0429 474E5520 		.ascii	"GNU C 4.9.3 20150303 (release) [ARM/embedded-4_9-br"
 3864      4320342E 
 3864      392E3320 
 3864      32303135 
 3864      30333033 
 3865 045c 616E6368 		.ascii	"anch revision 221220] -mcpu=cortex-m4 -mfloat-abi=h"
 3865      20726576 
 3865      6973696F 
 3865      6E203232 
 3865      31323230 
 3866 048f 61726420 		.ascii	"ard -mfpu=fpv4-sp-d16 -mno-thumb-interwork -mthumb "
 3866      2D6D6670 
 3866      753D6670 
 3866      76342D73 
 3866      702D6431 
 3867 04c2 2D676764 		.ascii	"-ggdb -fomit-frame-pointer -falign-functions=16 -ff"
 3867      62202D66 
 3867      6F6D6974 
 3867      2D667261 
 3867      6D652D70 
 3868 04f5 756E6374 		.ascii	"unction-sections -fdata-sections -fno-common -fsing"
 3868      696F6E2D 
 3868      73656374 
 3868      696F6E73 
 3868      202D6664 
 3869 0528 6C652D70 		.ascii	"le-precision-constant\000"
ARM GAS  /tmp/cc4ZxXve.s 			page 73


 3869      72656369 
 3869      73696F6E 
 3869      2D636F6E 
 3869      7374616E 
 3870              	.LASF117:
 3871 053e 77747472 		.ascii	"wttrp\000"
 3871      7000
 3872              	.LASF184:
 3873 0544 6963755F 		.ascii	"icu_lld_disable_notifications\000"
 3873      6C6C645F 
 3873      64697361 
 3873      626C655F 
 3873      6E6F7469 
 3874              	.LASF28:
 3875 0562 705F6E65 		.ascii	"p_next\000"
 3875      787400
 3876              	.LASF163:
 3877 0569 77696474 		.ascii	"width_cb\000"
 3877      685F6362 
 3877      00
 3878              	.LASF91:
 3879 0572 41484233 		.ascii	"AHB3ENR\000"
 3879      454E5200 
 3880              	.LASF33:
 3881 057a 705F6F6C 		.ascii	"p_older\000"
 3881      64657200 
 3882              	.LASF114:
 3883 0582 7264796D 		.ascii	"rdymsg\000"
 3883      736700
 3884              	.LASF55:
 3885 0589 725F6374 		.ascii	"r_ctx\000"
 3885      7800
 3886              	.LASF97:
 3887 058f 41484232 		.ascii	"AHB2LPENR\000"
 3887      4C50454E 
 3887      5200
 3888              	.LASF132:
 3889 0599 4943555F 		.ascii	"ICU_STOP\000"
 3889      53544F50 
 3889      00
 3890              	.LASF113:
 3891 05a2 746D5F63 		.ascii	"tm_calibration_t\000"
 3891      616C6962 
 3891      72617469 
 3891      6F6E5F74 
 3891      00
 3892              	.LASF155:
 3893 05b3 4943555F 		.ascii	"ICU_INPUT_ACTIVE_LOW\000"
 3893      494E5055 
 3893      545F4143 
 3893      54495645 
 3893      5F4C4F57 
 3894              	.LASF58:
 3895 05c8 725F6375 		.ascii	"r_current\000"
 3895      7272656E 
 3895      7400
 3896              	.LASF86:
ARM GAS  /tmp/cc4ZxXve.s 			page 74


 3897 05d2 41504231 		.ascii	"APB1RSTR\000"
 3897      52535452 
 3897      00
 3898              	.LASF12:
 3899 05db 5F5F7569 		.ascii	"__uint64_t\000"
 3899      6E743634 
 3899      5F7400
 3900              	.LASF21:
 3901 05e6 74726566 		.ascii	"trefs_t\000"
 3901      735F7400 
 3902              	.LASF85:
 3903 05ee 52455345 		.ascii	"RESERVED0\000"
 3903      52564544 
 3903      3000
 3904              	.LASF88:
 3905 05f8 52455345 		.ascii	"RESERVED1\000"
 3905      52564544 
 3905      3100
 3906              	.LASF92:
 3907 0602 52455345 		.ascii	"RESERVED2\000"
 3907      52564544 
 3907      3200
 3908              	.LASF95:
 3909 060c 52455345 		.ascii	"RESERVED3\000"
 3909      52564544 
 3909      3300
 3910              	.LASF99:
 3911 0616 52455345 		.ascii	"RESERVED4\000"
 3911      52564544 
 3911      3400
 3912              	.LASF29:
 3913 0620 705F7072 		.ascii	"p_prev\000"
 3913      657600
 3914              	.LASF104:
 3915 0627 52455345 		.ascii	"RESERVED6\000"
 3915      52564544 
 3915      3600
 3916              	.LASF186:
 3917 0631 49435544 		.ascii	"ICUD2\000"
 3917      3200
 3918              	.LASF22:
 3919 0637 74707269 		.ascii	"tprio_t\000"
 3919      6F5F7400 
 3920              	.LASF187:
 3921 063f 49435544 		.ascii	"ICUD5\000"
 3921      3500
 3922              	.LASF174:
 3923 0645 69637570 		.ascii	"icup\000"
 3923      00
 3924              	.LASF71:
 3925 064a 63685F73 		.ascii	"ch_system_debug\000"
 3925      79737465 
 3925      6D5F6465 
 3925      62756700 
 3926              	.LASF130:
 3927 065a 5F426F6F 		.ascii	"_Bool\000"
 3927      6C00
ARM GAS  /tmp/cc4ZxXve.s 			page 75


 3928              	.LASF15:
 3929 0660 696E7433 		.ascii	"int32_t\000"
 3929      325F7400 
 3930              	.LASF4:
 3931 0668 756E7369 		.ascii	"unsigned char\000"
 3931      676E6564 
 3931      20636861 
 3931      7200
 3932              	.LASF156:
 3933 0676 6963756D 		.ascii	"icumode_t\000"
 3933      6F64655F 
 3933      7400
 3934              	.LASF123:
 3935 0680 735F636E 		.ascii	"s_cnt\000"
 3935      7400
 3936              	.LASF42:
 3937 0686 705F6D74 		.ascii	"p_mtxlist\000"
 3937      786C6973 
 3937      7400
 3938              	.LASF5:
 3939 0690 73686F72 		.ascii	"short int\000"
 3939      7420696E 
 3939      7400
 3940              	.LASF35:
 3941 069a 705F7374 		.ascii	"p_state\000"
 3941      61746500 
 3942              	.LASF98:
 3943 06a2 41484233 		.ascii	"AHB3LPENR\000"
 3943      4C50454E 
 3943      5200
 3944              	.LASF54:
 3945 06ac 725F7072 		.ascii	"r_prio\000"
 3945      696F00
 3946              	.LASF120:
 3947 06b3 65776D61 		.ascii	"ewmask\000"
 3947      736B00
 3948              	.LASF36:
 3949 06ba 705F666C 		.ascii	"p_flags\000"
 3949      61677300 
 3950              	.LASF178:
 3951 06c2 5F5F6675 		.ascii	"__func__\000"
 3951      6E635F5F 
 3951      00
 3952              	.LASF192:
 3953 06cb 63685379 		.ascii	"chSysLock\000"
 3953      734C6F63 
 3953      6B00
 3954              	.LASF94:
 3955 06d5 41504232 		.ascii	"APB2ENR\000"
 3955      454E5200 
 3956              	.LASF160:
 3957 06dd 69637563 		.ascii	"icuchannel_t\000"
 3957      68616E6E 
 3957      656C5F74 
 3957      00
 3958              	.LASF166:
 3959 06ea 6368616E 		.ascii	"channel\000"
ARM GAS  /tmp/cc4ZxXve.s 			page 76


 3959      6E656C00 
 3960              	.LASF61:
 3961 06f2 63685F76 		.ascii	"ch_virtual_timer\000"
 3961      69727475 
 3961      616C5F74 
 3961      696D6572 
 3961      00
 3962              	.LASF121:
 3963 0703 63685F73 		.ascii	"ch_semaphore\000"
 3963      656D6170 
 3963      686F7265 
 3963      00
 3964              	.LASF152:
 3965 0710 43435852 		.ascii	"CCXR\000"
 3965      00
 3966              	.LASF41:
 3967 0715 705F6570 		.ascii	"p_epending\000"
 3967      656E6469 
 3967      6E6700
 3968              	.LASF102:
 3969 0720 52455345 		.ascii	"RESERVED5\000"
 3969      52564544 
 3969      3500
 3970              	.LASF16:
 3971 072a 75696E74 		.ascii	"uint32_t\000"
 3971      33325F74 
 3971      00
 3972              	.LASF119:
 3973 0733 77746D74 		.ascii	"wtmtxp\000"
 3973      787000
 3974              	.LASF53:
 3975 073a 725F7175 		.ascii	"r_queue\000"
 3975      65756500 
 3976              	.LASF48:
 3977 0742 63685F74 		.ascii	"ch_threads_list\000"
 3977      68726561 
 3977      64735F6C 
 3977      69737400 
 3978              	.LASF10:
 3979 0752 6C6F6E67 		.ascii	"long unsigned int\000"
 3979      20756E73 
 3979      69676E65 
 3979      6420696E 
 3979      7400
 3980              	.LASF128:
 3981 0764 63686172 		.ascii	"char\000"
 3981      00
 3982              	.LASF161:
 3983 0769 6D6F6465 		.ascii	"mode\000"
 3983      00
 3984              	.LASF144:
 3985 076e 534D4352 		.ascii	"SMCR\000"
 3985      00
 3986              	.LASF139:
 3987 0773 636F6E66 		.ascii	"config\000"
 3987      696700
 3988              	.LASF150:
ARM GAS  /tmp/cc4ZxXve.s 			page 77


 3989 077a 444D4152 		.ascii	"DMAR\000"
 3989      00
 3990              	.LASF83:
 3991 077f 41484232 		.ascii	"AHB2RSTR\000"
 3991      52535452 
 3991      00
 3992              	.LASF27:
 3993 0788 74687265 		.ascii	"thread_t\000"
 3993      61645F74 
 3993      00
 3994              	.LASF148:
 3995 0791 43434552 		.ascii	"CCER\000"
 3995      00
 3996              	.LASF127:
 3997 0796 6D5F6E65 		.ascii	"m_next\000"
 3997      787400
 3998              	.LASF26:
 3999 079d 73797374 		.ascii	"systime_t\000"
 3999      696D655F 
 3999      7400
 4000              	.LASF43:
 4001 07a7 705F7265 		.ascii	"p_realprio\000"
 4001      616C7072 
 4001      696F00
 4002              	.LASF59:
 4003 07b2 76746675 		.ascii	"vtfunc_t\000"
 4003      6E635F74 
 4003      00
 4004              	.LASF9:
 4005 07bb 5F5F7569 		.ascii	"__uint32_t\000"
 4005      6E743332 
 4005      5F7400
 4006              	.LASF190:
 4007 07c6 5F5F7365 		.ascii	"__set_BASEPRI\000"
 4007      745F4241 
 4007      53455052 
 4007      4900
 4008              	.LASF72:
 4009 07d4 70616E69 		.ascii	"panic_msg\000"
 4009      635F6D73 
 4009      6700
 4010              	.LASF112:
 4011 07de 6F666673 		.ascii	"offset\000"
 4011      657400
 4012              	.LASF93:
 4013 07e5 41504231 		.ascii	"APB1ENR\000"
 4013      454E5200 
 4014              	.LASF180:
 4015 07ed 6963755F 		.ascii	"icu_lld_stop\000"
 4015      6C6C645F 
 4015      73746F70 
 4015      00
 4016              	.LASF110:
 4017 07fa 636F6E74 		.ascii	"context\000"
 4017      65787400 
 4018              	.LASF57:
 4019 0802 725F6F6C 		.ascii	"r_older\000"
ARM GAS  /tmp/cc4ZxXve.s 			page 78


 4019      64657200 
 4020              	.LASF157:
 4021 080a 69637566 		.ascii	"icufreq_t\000"
 4021      7265715F 
 4021      7400
 4022              	.LASF18:
 4023 0814 7274636E 		.ascii	"rtcnt_t\000"
 4023      745F7400 
 4024              	.LASF66:
 4025 081c 76745F70 		.ascii	"vt_par\000"
 4025      617200
 4026              	.LASF105:
 4027 0823 53534347 		.ascii	"SSCGR\000"
 4027      5200
 4028              	.LASF49:
 4029 0829 74687265 		.ascii	"threads_queue_t\000"
 4029      6164735F 
 4029      71756575 
 4029      655F7400 
 4030              	.LASF124:
 4031 0839 63685F6D 		.ascii	"ch_mutex\000"
 4031      75746578 
 4031      00
 4032              	.LASF37:
 4033 0842 705F7265 		.ascii	"p_refs\000"
 4033      667300
 4034              	.LASF194:
 4035 0849 6963755F 		.ascii	"icu_lld_wait_capture\000"
 4035      6C6C645F 
 4035      77616974 
 4035      5F636170 
 4035      74757265 
 4036              	.LASF103:
 4037 085e 42444352 		.ascii	"BDCR\000"
 4037      00
 4038              	.LASF131:
 4039 0863 4943555F 		.ascii	"ICU_UNINIT\000"
 4039      554E494E 
 4039      495400
 4040              	.LASF158:
 4041 086e 4943555F 		.ascii	"ICU_CHANNEL_1\000"
 4041      4348414E 
 4041      4E454C5F 
 4041      3100
 4042              	.LASF159:
 4043 087c 4943555F 		.ascii	"ICU_CHANNEL_2\000"
 4043      4348414E 
 4043      4E454C5F 
 4043      3200
 4044              	.LASF14:
 4045 088a 75696E74 		.ascii	"uint8_t\000"
 4045      385F7400 
 4046              	.LASF116:
 4047 0892 77746F62 		.ascii	"wtobjp\000"
 4047      6A7000
 4048              	.LASF34:
 4049 0899 705F6E61 		.ascii	"p_name\000"
ARM GAS  /tmp/cc4ZxXve.s 			page 79


 4049      6D6500
 4050              	.LASF89:
 4051 08a0 41484231 		.ascii	"AHB1ENR\000"
 4051      454E5200 
 4052              	.LASF81:
 4053 08a8 43464752 		.ascii	"CFGR\000"
 4053      00
 4054              	.LASF19:
 4055 08ad 746D6F64 		.ascii	"tmode_t\000"
 4055      655F7400 
 4056              	.LASF122:
 4057 08b5 735F7175 		.ascii	"s_queue\000"
 4057      65756500 
 4058              	.LASF179:
 4059 08bd 6963755F 		.ascii	"icu_lld_start\000"
 4059      6C6C645F 
 4059      73746172 
 4059      7400
 4060              	.LASF171:
 4061 08cb 63685379 		.ascii	"chSysUnlock\000"
 4061      73556E6C 
 4061      6F636B00 
 4062              	.LASF40:
 4063 08d7 705F6D73 		.ascii	"p_msg\000"
 4063      6700
 4064              	.LASF140:
 4065 08dd 636C6F63 		.ascii	"clock\000"
 4065      6B00
 4066              	.LASF193:
 4067 08e3 6963755F 		.ascii	"icu_lld_wait_edge\000"
 4067      6C6C645F 
 4067      77616974 
 4067      5F656467 
 4067      6500
 4068              	.LASF141:
 4069 08f5 77636372 		.ascii	"wccrp\000"
 4069      7000
 4070              	.LASF129:
 4071 08fb 6D757465 		.ascii	"mutex_t\000"
 4071      785F7400 
 4072              	.LASF126:
 4073 0903 6D5F6F77 		.ascii	"m_owner\000"
 4073      6E657200 
 4074              	.LASF172:
 4075 090b 72657375 		.ascii	"result\000"
 4075      6C7400
 4076              	.LASF31:
 4077 0912 705F6374 		.ascii	"p_ctx\000"
 4077      7800
 4078              	.LASF65:
 4079 0918 76745F66 		.ascii	"vt_func\000"
 4079      756E6300 
 4080              	.LASF167:
 4081 0920 64696572 		.ascii	"dier\000"
 4081      00
 4082              		.ident	"GCC: (GNU Tools for ARM Embedded Processors) 4.9.3 20150303 (release) [ARM/embedded-4_9-br
ARM GAS  /tmp/cc4ZxXve.s 			page 80


DEFINED SYMBOLS
                            *ABS*:00000000 icu_lld.c
     /tmp/cc4ZxXve.s:21     .text.port_lock:00000000 $t
     /tmp/cc4ZxXve.s:26     .text.port_lock:00000000 port_lock
     /tmp/cc4ZxXve.s:58     .text.port_unlock:00000000 $t
     /tmp/cc4ZxXve.s:63     .text.port_unlock:00000000 port_unlock
     /tmp/cc4ZxXve.s:93     .text.chSysLock:00000000 $t
     /tmp/cc4ZxXve.s:98     .text.chSysLock:00000000 chSysLock
     /tmp/cc4ZxXve.s:117    .text.chSysUnlock:00000000 $t
     /tmp/cc4ZxXve.s:122    .text.chSysUnlock:00000000 chSysUnlock
     /tmp/cc4ZxXve.s:144    .bss.ICUD2:00000000 ICUD2
     /tmp/cc4ZxXve.s:141    .bss.ICUD2:00000000 $d
     /tmp/cc4ZxXve.s:151    .bss.ICUD5:00000000 ICUD5
     /tmp/cc4ZxXve.s:148    .bss.ICUD5:00000000 $d
     /tmp/cc4ZxXve.s:154    .text.icu_lld_wait_edge:00000000 $t
     /tmp/cc4ZxXve.s:159    .text.icu_lld_wait_edge:00000000 icu_lld_wait_edge
     /tmp/cc4ZxXve.s:237    .text.icu_lld_serve_interrupt:00000000 $t
     /tmp/cc4ZxXve.s:242    .text.icu_lld_serve_interrupt:00000000 icu_lld_serve_interrupt
     /tmp/cc4ZxXve.s:406    .text.VectorB0:00000000 $t
     /tmp/cc4ZxXve.s:412    .text.VectorB0:00000000 VectorB0
     /tmp/cc4ZxXve.s:432    .text.VectorB0:00000010 $d
     /tmp/cc4ZxXve.s:437    .text.Vector108:00000000 $t
     /tmp/cc4ZxXve.s:443    .text.Vector108:00000000 Vector108
     /tmp/cc4ZxXve.s:463    .text.Vector108:00000010 $d
     /tmp/cc4ZxXve.s:468    .text.icu_lld_init:00000000 $t
     /tmp/cc4ZxXve.s:474    .text.icu_lld_init:00000000 icu_lld_init
     /tmp/cc4ZxXve.s:503    .text.icu_lld_init:00000020 $d
     /tmp/cc4ZxXve.s:510    .text.icu_lld_start:00000000 $t
     /tmp/cc4ZxXve.s:516    .text.icu_lld_start:00000000 icu_lld_start
     /tmp/cc4ZxXve.s:744    .text.icu_lld_start:00000174 $d
     /tmp/cc4ZxXve.s:752    .text.icu_lld_stop:00000000 $t
     /tmp/cc4ZxXve.s:758    .text.icu_lld_stop:00000000 icu_lld_stop
     /tmp/cc4ZxXve.s:828    .text.icu_lld_stop:00000060 $d
     /tmp/cc4ZxXve.s:835    .text.icu_lld_start_capture:00000000 $t
     /tmp/cc4ZxXve.s:841    .text.icu_lld_start_capture:00000000 icu_lld_start_capture
     /tmp/cc4ZxXve.s:878    .text.icu_lld_wait_capture:00000000 $t
     /tmp/cc4ZxXve.s:884    .text.icu_lld_wait_capture:00000000 icu_lld_wait_capture
     /tmp/cc4ZxXve.s:926    .text.icu_lld_stop_capture:00000000 $t
     /tmp/cc4ZxXve.s:932    .text.icu_lld_stop_capture:00000000 icu_lld_stop_capture
     /tmp/cc4ZxXve.s:964    .text.icu_lld_enable_notifications:00000000 $t
     /tmp/cc4ZxXve.s:970    .text.icu_lld_enable_notifications:00000000 icu_lld_enable_notifications
     /tmp/cc4ZxXve.s:1058   .text.icu_lld_disable_notifications:00000000 $t
     /tmp/cc4ZxXve.s:1064   .text.icu_lld_disable_notifications:00000000 icu_lld_disable_notifications
                     .debug_frame:00000010 $d
     /tmp/cc4ZxXve.s:436    .text.VectorB0:00000014 $t
     /tmp/cc4ZxXve.s:467    .text.Vector108:00000014 $t
     /tmp/cc4ZxXve.s:509    .text.icu_lld_init:0000002c $t
     /tmp/cc4ZxXve.s:751    .text.icu_lld_start:00000184 $t
     /tmp/cc4ZxXve.s:834    .text.icu_lld_stop:0000006c $t

UNDEFINED SYMBOLS
_port_irq_epilogue
icuObjectInit
nvicEnableVector
nvicDisableVector
