ARM GAS  /tmp/ccuuv0Qj.s 			page 1


   1              		.syntax unified
   2              		.cpu cortex-m4
   3              		.eabi_attribute 27, 1
   4              		.eabi_attribute 28, 1
   5              		.fpu fpv4-sp-d16
   6              		.eabi_attribute 20, 1
   7              		.eabi_attribute 21, 1
   8              		.eabi_attribute 23, 3
   9              		.eabi_attribute 24, 1
  10              		.eabi_attribute 25, 1
  11              		.eabi_attribute 26, 1
  12              		.eabi_attribute 30, 6
  13              		.eabi_attribute 34, 1
  14              		.eabi_attribute 18, 4
  15              		.thumb
  16              		.file	"lis302dl.c"
  17              		.text
  18              	.Ltext0:
  19              		.cfi_sections	.debug_frame
  20              		.section	.bss.txbuf,"aw",%nobits
  21              		.align	2
  22              		.type	txbuf, %object
  23              		.size	txbuf, 2
  24              	txbuf:
  25 0000 0000     		.space	2
  26 0002 0000     		.section	.bss.rxbuf,"aw",%nobits
  27              		.align	2
  28              		.type	rxbuf, %object
  29              		.size	rxbuf, 2
  30              	rxbuf:
  31 0000 0000     		.space	2
  32 0002 0000     		.section	.text.lis302dlReadRegister,"ax",%progbits
  33              		.align	2
  34              		.p2align 4,,15
  35              		.global	lis302dlReadRegister
  36              		.thumb
  37              		.thumb_func
  38              		.type	lis302dlReadRegister, %function
  39              	lis302dlReadRegister:
  40              	.LFB253:
  41              		.file 1 "/home/makkmarci/workspace/CLEAN/ChibiOS/os/various/devices_lib/accel/lis302dl.c"
  42              		.loc 1 59 0
  43              		.cfi_startproc
  44              		@ args = 0, pretend = 0, frame = 8
  45              		@ frame_needed = 0, uses_anonymous_args = 0
  46 0000 00B5     		push	{lr}
  47              		.cfi_def_cfa_offset 4
  48              		.cfi_offset 14, -4
  49 0002 83B0     		sub	sp, sp, #12
  50              		.cfi_def_cfa_offset 16
  51 0004 0190     		str	r0, [sp, #4]
  52 0006 0B46     		mov	r3, r1
  53 0008 8DF80330 		strb	r3, [sp, #3]
  54              		.loc 1 61 0
  55 000c 0198     		ldr	r0, [sp, #4]
  56 000e FFF7FEFF 		bl	spiSelect
  57              		.loc 1 62 0
ARM GAS  /tmp/ccuuv0Qj.s 			page 2


  58 0012 9DF80330 		ldrb	r3, [sp, #3]
  59 0016 63F07F03 		orn	r3, r3, #127
  60 001a DAB2     		uxtb	r2, r3
  61 001c 094B     		ldr	r3, .L3
  62 001e 1A70     		strb	r2, [r3]
  63              		.loc 1 63 0
  64 0020 084B     		ldr	r3, .L3
  65 0022 FF22     		movs	r2, #255
  66 0024 5A70     		strb	r2, [r3, #1]
  67              		.loc 1 64 0
  68 0026 0198     		ldr	r0, [sp, #4]
  69 0028 0221     		movs	r1, #2
  70 002a 064A     		ldr	r2, .L3
  71 002c 064B     		ldr	r3, .L3+4
  72 002e FFF7FEFF 		bl	spiExchange
  73              		.loc 1 65 0
  74 0032 0198     		ldr	r0, [sp, #4]
  75 0034 FFF7FEFF 		bl	spiUnselect
  76              		.loc 1 66 0
  77 0038 034B     		ldr	r3, .L3+4
  78 003a 5B78     		ldrb	r3, [r3, #1]	@ zero_extendqisi2
  79              		.loc 1 67 0
  80 003c 1846     		mov	r0, r3
  81 003e 03B0     		add	sp, sp, #12
  82              		.cfi_def_cfa_offset 4
  83              		@ sp needed
  84 0040 5DF804FB 		ldr	pc, [sp], #4
  85              	.L4:
  86              		.align	2
  87              	.L3:
  88 0044 00000000 		.word	txbuf
  89 0048 00000000 		.word	rxbuf
  90              		.cfi_endproc
  91              	.LFE253:
  92              		.size	lis302dlReadRegister, .-lis302dlReadRegister
  93 004c AFF30080 		.section	.text.lis302dlWriteRegister,"ax",%progbits
  94              		.align	2
  95              		.p2align 4,,15
  96              		.global	lis302dlWriteRegister
  97              		.thumb
  98              		.thumb_func
  99              		.type	lis302dlWriteRegister, %function
 100              	lis302dlWriteRegister:
 101              	.LFB254:
 102              		.loc 1 77 0
 103              		.cfi_startproc
 104              		@ args = 0, pretend = 0, frame = 8
 105              		@ frame_needed = 0, uses_anonymous_args = 0
 106 0000 00B5     		push	{lr}
 107              		.cfi_def_cfa_offset 4
 108              		.cfi_offset 14, -4
 109 0002 83B0     		sub	sp, sp, #12
 110              		.cfi_def_cfa_offset 16
 111 0004 0190     		str	r0, [sp, #4]
 112 0006 0B46     		mov	r3, r1
 113 0008 8DF80330 		strb	r3, [sp, #3]
 114 000c 1346     		mov	r3, r2
ARM GAS  /tmp/ccuuv0Qj.s 			page 3


 115 000e 8DF80230 		strb	r3, [sp, #2]
 116              		.loc 1 79 0
 117 0012 9DF80330 		ldrb	r3, [sp, #3]	@ zero_extendqisi2
 118 0016 0F3B     		subs	r3, r3, #15
 119 0018 302B     		cmp	r3, #48
 120 001a 79D8     		bhi	.L11
 121 001c 01A2     		adr	r2, .L8
 122 001e 52F823F0 		ldr	pc, [r2, r3, lsl #2]
 123 0022 00BF     		.p2align 2
 124              	.L8:
 125 0024 11010000 		.word	.L11+1
 126 0028 11010000 		.word	.L11+1
 127 002c 11010000 		.word	.L11+1
 128 0030 11010000 		.word	.L11+1
 129 0034 11010000 		.word	.L11+1
 130 0038 11010000 		.word	.L11+1
 131 003c 11010000 		.word	.L11+1
 132 0040 11010000 		.word	.L11+1
 133 0044 11010000 		.word	.L11+1
 134 0048 11010000 		.word	.L11+1
 135 004c 11010000 		.word	.L11+1
 136 0050 11010000 		.word	.L11+1
 137 0054 11010000 		.word	.L11+1
 138 0058 11010000 		.word	.L11+1
 139 005c 11010000 		.word	.L11+1
 140 0060 11010000 		.word	.L11+1
 141 0064 11010000 		.word	.L11+1
 142 0068 E9000000 		.word	.L9+1
 143 006c E9000000 		.word	.L9+1
 144 0070 E9000000 		.word	.L9+1
 145 0074 11010000 		.word	.L11+1
 146 0078 11010000 		.word	.L11+1
 147 007c 11010000 		.word	.L11+1
 148 0080 11010000 		.word	.L11+1
 149 0084 11010000 		.word	.L11+1
 150 0088 11010000 		.word	.L11+1
 151 008c 11010000 		.word	.L11+1
 152 0090 11010000 		.word	.L11+1
 153 0094 11010000 		.word	.L11+1
 154 0098 11010000 		.word	.L11+1
 155 009c 11010000 		.word	.L11+1
 156 00a0 11010000 		.word	.L11+1
 157 00a4 11010000 		.word	.L11+1
 158 00a8 E9000000 		.word	.L9+1
 159 00ac 11010000 		.word	.L11+1
 160 00b0 E9000000 		.word	.L9+1
 161 00b4 E9000000 		.word	.L9+1
 162 00b8 E9000000 		.word	.L9+1
 163 00bc 11010000 		.word	.L11+1
 164 00c0 E9000000 		.word	.L9+1
 165 00c4 E9000000 		.word	.L9+1
 166 00c8 E9000000 		.word	.L9+1
 167 00cc 11010000 		.word	.L11+1
 168 00d0 11010000 		.word	.L11+1
 169 00d4 E9000000 		.word	.L9+1
 170 00d8 E9000000 		.word	.L9+1
 171 00dc E9000000 		.word	.L9+1
ARM GAS  /tmp/ccuuv0Qj.s 			page 4


 172 00e0 E9000000 		.word	.L9+1
 173 00e4 E9000000 		.word	.L9+1
 174              		.p2align 1
 175              	.L9:
 176              		.loc 1 110 0
 177 00e8 0198     		ldr	r0, [sp, #4]
 178 00ea FFF7FEFF 		bl	spiSelect
 179              		.loc 1 111 0
 180 00ee 0A4A     		ldr	r2, .L12
 181 00f0 9DF80330 		ldrb	r3, [sp, #3]
 182 00f4 1370     		strb	r3, [r2]
 183              		.loc 1 112 0
 184 00f6 084A     		ldr	r2, .L12
 185 00f8 9DF80230 		ldrb	r3, [sp, #2]
 186 00fc 5370     		strb	r3, [r2, #1]
 187              		.loc 1 113 0
 188 00fe 0198     		ldr	r0, [sp, #4]
 189 0100 0221     		movs	r1, #2
 190 0102 054A     		ldr	r2, .L12
 191 0104 FFF7FEFF 		bl	spiSend
 192              		.loc 1 114 0
 193 0108 0198     		ldr	r0, [sp, #4]
 194 010a FFF7FEFF 		bl	spiUnselect
 195 010e 00E0     		b	.L5
 196              	.L11:
 197              		.loc 1 94 0
 198 0110 00BF     		nop
 199              	.L5:
 200              		.loc 1 116 0
 201 0112 03B0     		add	sp, sp, #12
 202              		.cfi_def_cfa_offset 4
 203              		@ sp needed
 204 0114 5DF804FB 		ldr	pc, [sp], #4
 205              	.L13:
 206              		.align	2
 207              	.L12:
 208 0118 00000000 		.word	txbuf
 209              		.cfi_endproc
 210              	.LFE254:
 211              		.size	lis302dlWriteRegister, .-lis302dlWriteRegister
 212 011c AFF30080 		.text
 213              	.Letext0:
 214              		.file 2 "/opt/gcc-arm-none-eabi/lib/gcc/arm-none-eabi/4.9.3/include/stddef.h"
 215              		.file 3 "/opt/gcc-arm-none-eabi/arm-none-eabi/include/machine/_default_types.h"
 216              		.file 4 "/opt/gcc-arm-none-eabi/arm-none-eabi/include/stdint.h"
 217              		.file 5 "/home/makkmarci/workspace/CLEAN/ChibiOS/os/rt/ports/ARMCMx/compilers/GCC/chtypes.h"
 218              		.file 6 "/home/makkmarci/workspace/CLEAN/ChibiOS/os/rt/include/chsystypes.h"
 219              		.file 7 "/home/makkmarci/workspace/CLEAN/ChibiOS/os/rt/include/chschd.h"
 220              		.file 8 "/home/makkmarci/workspace/CLEAN/ChibiOS/os/ext/CMSIS/ST/stm32f407xx.h"
 221              		.file 9 "/home/makkmarci/workspace/CLEAN/ChibiOS/os/rt/ports/ARMCMx/chcore.h"
 222              		.file 10 "/home/makkmarci/workspace/CLEAN/ChibiOS/os/rt/ports/ARMCMx/chcore_v7m.h"
 223              		.file 11 "/home/makkmarci/workspace/CLEAN/ChibiOS/os/rt/include/chtm.h"
 224              		.file 12 "/home/makkmarci/workspace/CLEAN/ChibiOS/os/rt/include/chsem.h"
 225              		.file 13 "/home/makkmarci/workspace/CLEAN/ChibiOS/os/rt/include/chmtx.h"
 226              		.file 14 "/home/makkmarci/workspace/CLEAN/ChibiOS/os/hal/ports/STM32/STM32F4xx/stm32_dma.h"
 227              		.file 15 "/home/makkmarci/workspace/CLEAN/ChibiOS/os/hal/ports/STM32/LLD/GPIOv2/pal_lld.h"
 228              		.file 16 "/home/makkmarci/workspace/CLEAN/ChibiOS/os/hal/include/spi.h"
ARM GAS  /tmp/ccuuv0Qj.s 			page 5


 229              		.file 17 "/home/makkmarci/workspace/CLEAN/ChibiOS/os/hal/ports/STM32/LLD/SPIv1/spi_lld.h"
 230              		.file 18 "/home/makkmarci/workspace/CLEAN/ChibiOS/os/ext/CMSIS/include/core_cm4.h"