ARM GAS  /tmp/ccu0elQ7.s 			page 1


   1              		.syntax unified
   2              		.cpu cortex-m4
   3              		.eabi_attribute 27, 1
   4              		.eabi_attribute 28, 1
   5              		.fpu fpv4-sp-d16
   6              		.eabi_attribute 20, 1
   7              		.eabi_attribute 21, 1
   8              		.eabi_attribute 23, 3
   9              		.eabi_attribute 24, 1
  10              		.eabi_attribute 25, 1
  11              		.eabi_attribute 26, 1
  12              		.eabi_attribute 30, 6
  13              		.eabi_attribute 34, 1
  14              		.eabi_attribute 18, 4
  15              		.thumb
  16              		.file	"main.c"
  17              		.text
  18              	.Ltext0:
  19              		.cfi_sections	.debug_frame
  20              		.section	.text.port_enable,"ax",%progbits
  21              		.align	2
  22              		.p2align 4,,15
  23              		.thumb
  24              		.thumb_func
  25              		.type	port_enable, %function
  26              	port_enable:
  27              	.LFB122:
  28              		.file 1 "/home/makkmarci/workspace/CLEAN/ChibiOS/os/rt/ports/ARMCMx/chcore_v7m.h"
  29              		.loc 1 518 0
  30              		.cfi_startproc
  31              		@ args = 0, pretend = 0, frame = 8
  32              		@ frame_needed = 0, uses_anonymous_args = 0
  33              		@ link register save eliminated.
  34 0000 82B0     		sub	sp, sp, #8
  35              		.cfi_def_cfa_offset 8
  36 0002 0023     		movs	r3, #0
  37 0004 0193     		str	r3, [sp, #4]
  38              	.LBB6:
  39              	.LBB7:
  40              		.file 2 "/home/makkmarci/workspace/CLEAN/ChibiOS/os/ext/CMSIS/include/core_cmFunc.h"
  41              		.loc 2 546 0
  42 0006 019B     		ldr	r3, [sp, #4]
  43              	@ 546 "/home/makkmarci/workspace/CLEAN/ChibiOS/os/ext/CMSIS/include/core_cmFunc.h" 1
  44 0008 83F31188 		MSR basepri, r3
  45              	@ 0 "" 2
  46              		.thumb
  47              	.LBE7:
  48              	.LBE6:
  49              	.LBB8:
  50              	.LBB9:
  51              		.loc 2 331 0
  52              	@ 331 "/home/makkmarci/workspace/CLEAN/ChibiOS/os/ext/CMSIS/include/core_cmFunc.h" 1
  53 000c 62B6     		cpsie i
  54              	@ 0 "" 2
  55              		.thumb
  56              	.LBE9:
  57              	.LBE8:
ARM GAS  /tmp/ccu0elQ7.s 			page 2


  58              		.loc 1 524 0
  59 000e 02B0     		add	sp, sp, #8
  60              		.cfi_def_cfa_offset 0
  61              		@ sp needed
  62 0010 7047     		bx	lr
  63              		.cfi_endproc
  64              	.LFE122:
  65              		.size	port_enable, .-port_enable
  66 0012 00BFAFF3 		.section	.text.chSysEnable,"ax",%progbits
  66      0080AFF3 
  66      0080AFF3 
  66      0080
  67              		.align	2
  68              		.p2align 4,,15
  69              		.thumb
  70              		.thumb_func
  71              		.type	chSysEnable, %function
  72              	chSysEnable:
  73              	.LFB144:
  74              		.file 3 "/home/makkmarci/workspace/CLEAN/ChibiOS/os/rt/include/chsys.h"
  75              		.loc 3 335 0
  76              		.cfi_startproc
  77              		@ args = 0, pretend = 0, frame = 0
  78              		@ frame_needed = 0, uses_anonymous_args = 0
  79 0000 08B5     		push	{r3, lr}
  80              		.cfi_def_cfa_offset 8
  81              		.cfi_offset 3, -8
  82              		.cfi_offset 14, -4
  83              		.loc 3 338 0
  84 0002 FFF7FEFF 		bl	port_enable
  85              		.loc 3 339 0
  86 0006 08BD     		pop	{r3, pc}
  87              		.cfi_endproc
  88              	.LFE144:
  89              		.size	chSysEnable, .-chSysEnable
  90              		.section	.text.osalSysEnable,"ax",%progbits
  91              		.align	2
  92              		.p2align 4,,15
  93              		.thumb
  94              		.thumb_func
  95              		.type	osalSysEnable, %function
  96              	osalSysEnable:
  97              	.LFB219:
  98              		.file 4 "/home/makkmarci/workspace/CLEAN/ChibiOS/os/hal/osal/rt/osal.h"
  99              		.loc 4 434 0
 100              		.cfi_startproc
 101              		@ args = 0, pretend = 0, frame = 0
 102              		@ frame_needed = 0, uses_anonymous_args = 0
 103 0000 08B5     		push	{r3, lr}
 104              		.cfi_def_cfa_offset 8
 105              		.cfi_offset 3, -8
 106              		.cfi_offset 14, -4
 107              		.loc 4 436 0
 108 0002 FFF7FEFF 		bl	chSysEnable
 109              		.loc 4 437 0
 110 0006 08BD     		pop	{r3, pc}
 111              		.cfi_endproc
ARM GAS  /tmp/ccu0elQ7.s 			page 3


 112              	.LFE219:
 113              		.size	osalSysEnable, .-osalSysEnable
 114              		.section	.text.osalThreadSleep,"ax",%progbits
 115              		.align	2
 116              		.p2align 4,,15
 117              		.thumb
 118              		.thumb_func
 119              		.type	osalThreadSleep, %function
 120              	osalThreadSleep:
 121              	.LFB232:
 122              		.loc 4 625 0
 123              		.cfi_startproc
 124              		@ args = 0, pretend = 0, frame = 8
 125              		@ frame_needed = 0, uses_anonymous_args = 0
 126 0000 00B5     		push	{lr}
 127              		.cfi_def_cfa_offset 4
 128              		.cfi_offset 14, -4
 129 0002 83B0     		sub	sp, sp, #12
 130              		.cfi_def_cfa_offset 16
 131 0004 0190     		str	r0, [sp, #4]
 132              		.loc 4 627 0
 133 0006 0198     		ldr	r0, [sp, #4]
 134 0008 FFF7FEFF 		bl	chThdSleep
 135              		.loc 4 628 0
 136 000c 03B0     		add	sp, sp, #12
 137              		.cfi_def_cfa_offset 4
 138              		@ sp needed
 139 000e 5DF804FB 		ldr	pc, [sp], #4
 140              		.cfi_endproc
 141              	.LFE232:
 142              		.size	osalThreadSleep, .-osalThreadSleep
 143 0012 00BFAFF3 		.section	.bss.waThread1,"aw",%nobits
 143      0080AFF3 
 143      0080AFF3 
 143      0080
 144              		.align	3
 145              		.type	waThread1, %object
 146              		.size	waThread1, 464
 147              	waThread1:
 148 0000 00000000 		.space	464
 148      00000000 
 148      00000000 
 148      00000000 
 148      00000000 
 149              		.section	.rodata
 150              		.align	2
 151              	.LC0:
 152 0000 626C696E 		.ascii	"blinker\000"
 152      6B657200 
 153              		.section	.text.Thread1,"ax",%progbits
 154              		.align	2
 155              		.p2align 4,,15
 156              		.thumb
 157              		.thumb_func
 158              		.type	Thread1, %function
 159              	Thread1:
 160              	.LFB253:
ARM GAS  /tmp/ccu0elQ7.s 			page 4


 161              		.file 5 "main.c"
 162              		.loc 5 30 0
 163              		.cfi_startproc
 164              		@ args = 0, pretend = 0, frame = 8
 165              		@ frame_needed = 0, uses_anonymous_args = 0
 166 0000 00B5     		push	{lr}
 167              		.cfi_def_cfa_offset 4
 168              		.cfi_offset 14, -4
 169 0002 83B0     		sub	sp, sp, #12
 170              		.cfi_def_cfa_offset 16
 171 0004 0190     		str	r0, [sp, #4]
 172              		.loc 5 33 0
 173 0006 0A4B     		ldr	r3, .L7
 174 0008 9B69     		ldr	r3, [r3, #24]
 175 000a 0A4A     		ldr	r2, .L7+4
 176 000c 9A61     		str	r2, [r3, #24]
 177              	.L6:
 178              		.loc 5 35 0 discriminator 1
 179 000e 0A4B     		ldr	r3, .L7+8
 180 0010 4FF48052 		mov	r2, #4096
 181 0014 1A83     		strh	r2, [r3, #24]	@ movhi
 182              		.loc 5 36 0 discriminator 1
 183 0016 4FF4FA70 		mov	r0, #500
 184 001a FFF7FEFF 		bl	chThdSleep
 185              		.loc 5 37 0 discriminator 1
 186 001e 064B     		ldr	r3, .L7+8
 187 0020 4FF48052 		mov	r2, #4096
 188 0024 5A83     		strh	r2, [r3, #26]	@ movhi
 189              		.loc 5 38 0 discriminator 1
 190 0026 4FF4FA70 		mov	r0, #500
 191 002a FFF7FEFF 		bl	chThdSleep
 192              		.loc 5 39 0 discriminator 1
 193 002e EEE7     		b	.L6
 194              	.L8:
 195              		.align	2
 196              	.L7:
 197 0030 00000000 		.word	ch
 198 0034 00000000 		.word	.LC0
 199 0038 000C0240 		.word	1073875968
 200              		.cfi_endproc
 201              	.LFE253:
 202              		.size	Thread1, .-Thread1
 203 003c AFF30080 		.section	.text.startBlinker,"ax",%progbits
 204              		.align	2
 205              		.p2align 4,,15
 206              		.global	startBlinker
 207              		.thumb
 208              		.thumb_func
 209              		.type	startBlinker, %function
 210              	startBlinker:
 211              	.LFB254:
 212              		.loc 5 45 0
 213              		.cfi_startproc
 214              		@ args = 0, pretend = 0, frame = 0
 215              		@ frame_needed = 0, uses_anonymous_args = 0
 216 0000 00B5     		push	{lr}
 217              		.cfi_def_cfa_offset 4
ARM GAS  /tmp/ccu0elQ7.s 			page 5


 218              		.cfi_offset 14, -4
 219 0002 83B0     		sub	sp, sp, #12
 220              		.cfi_def_cfa_offset 16
 221              		.loc 5 46 0
 222 0004 0023     		movs	r3, #0
 223 0006 0093     		str	r3, [sp]
 224 0008 0448     		ldr	r0, .L10
 225 000a 4FF4E871 		mov	r1, #464
 226 000e 4A22     		movs	r2, #74
 227 0010 034B     		ldr	r3, .L10+4
 228 0012 FFF7FEFF 		bl	chThdCreateStatic
 229              		.loc 5 48 0
 230 0016 03B0     		add	sp, sp, #12
 231              		.cfi_def_cfa_offset 4
 232              		@ sp needed
 233 0018 5DF804FB 		ldr	pc, [sp], #4
 234              	.L11:
 235              		.align	2
 236              	.L10:
 237 001c 00000000 		.word	waThread1
 238 0020 00000000 		.word	Thread1
 239              		.cfi_endproc
 240              	.LFE254:
 241              		.size	startBlinker, .-startBlinker
 242 0024 AFF30080 		.section	.rodata
 242      AFF30080 
 242      AFF30080 
 243              		.align	2
 244              	.LC1:
 245 0008 48656C6C 		.ascii	"Hello World!\015\012\000"
 245      6F20576F 
 245      726C6421 
 245      0D0A00
 246 0017 00       		.section	.text.main,"ax",%progbits
 247              		.align	2
 248              		.p2align 4,,15
 249              		.global	main
 250              		.thumb
 251              		.thumb_func
 252              		.type	main, %function
 253              	main:
 254              	.LFB255:
 255              		.loc 5 50 0
 256              		.cfi_startproc
 257              		@ args = 0, pretend = 0, frame = 0
 258              		@ frame_needed = 0, uses_anonymous_args = 0
 259 0000 10B5     		push	{r4, lr}
 260              		.cfi_def_cfa_offset 8
 261              		.cfi_offset 4, -8
 262              		.cfi_offset 14, -4
 263              		.loc 5 57 0
 264 0002 FFF7FEFF 		bl	halInit
 265              		.loc 5 58 0
 266 0006 FFF7FEFF 		bl	chSysInit
 267              		.loc 5 62 0
 268 000a FFF7FEFF 		bl	osalSysEnable
 269              		.loc 5 64 0
ARM GAS  /tmp/ccu0elQ7.s 			page 6


 270 000e FFF7FEFF 		bl	startBlinker
 271              		.loc 5 70 0
 272 0012 1548     		ldr	r0, .L14
 273 0014 0021     		movs	r1, #0
 274 0016 FFF7FEFF 		bl	sdStart
 275              		.loc 5 71 0
 276 001a 1448     		ldr	r0, .L14+4
 277 001c 0421     		movs	r1, #4
 278 001e 40F28232 		movw	r2, #898
 279 0022 FFF7FEFF 		bl	_pal_lld_setgroupmode
 280              		.loc 5 72 0
 281 0026 1148     		ldr	r0, .L14+4
 282 0028 0821     		movs	r1, #8
 283 002a 40F28232 		movw	r2, #898
 284 002e FFF7FEFF 		bl	_pal_lld_setgroupmode
 285              	.L13:
 286              		.loc 5 79 0 discriminator 1
 287 0032 0D4B     		ldr	r3, .L14
 288 0034 1B68     		ldr	r3, [r3]
 289 0036 9C69     		ldr	r4, [r3, #24]
 290 0038 0B48     		ldr	r0, .L14
 291 003a 0D49     		ldr	r1, .L14+8
 292 003c 0E22     		movs	r2, #14
 293 003e 4FF0FF33 		mov	r3, #-1
 294 0042 A047     		blx	r4
 295              		.loc 5 81 0 discriminator 1
 296 0044 0B4B     		ldr	r3, .L14+12
 297 0046 4FF40052 		mov	r2, #8192
 298 004a 1A83     		strh	r2, [r3, #24]	@ movhi
 299              		.loc 5 82 0 discriminator 1
 300 004c 4FF4FA70 		mov	r0, #500
 301 0050 FFF7FEFF 		bl	osalThreadSleep
 302              		.loc 5 83 0 discriminator 1
 303 0054 074B     		ldr	r3, .L14+12
 304 0056 4FF40052 		mov	r2, #8192
 305 005a 5A83     		strh	r2, [r3, #26]	@ movhi
 306              		.loc 5 84 0 discriminator 1
 307 005c 4FF4FA70 		mov	r0, #500
 308 0060 FFF7FEFF 		bl	osalThreadSleep
 309              		.loc 5 85 0 discriminator 1
 310 0064 E5E7     		b	.L13
 311              	.L15:
 312 0066 00BF     		.align	2
 313              	.L14:
 314 0068 00000000 		.word	SD2
 315 006c 00000240 		.word	1073872896
 316 0070 08000000 		.word	.LC1
 317 0074 000C0240 		.word	1073875968
 318              		.cfi_endproc
 319              	.LFE255:
 320              		.size	main, .-main
 321 0078 AFF30080 		.text
 321      AFF30080 
 322              	.Letext0:
 323              		.file 6 "/opt/gcc-arm-none-eabi/lib/gcc/arm-none-eabi/4.9.3/include/stddef.h"
 324              		.file 7 "/opt/gcc-arm-none-eabi/arm-none-eabi/include/machine/_default_types.h"
 325              		.file 8 "/opt/gcc-arm-none-eabi/arm-none-eabi/include/stdint.h"
ARM GAS  /tmp/ccu0elQ7.s 			page 7


 326              		.file 9 "/home/makkmarci/workspace/CLEAN/ChibiOS/os/rt/ports/ARMCMx/compilers/GCC/chtypes.h"
 327              		.file 10 "/home/makkmarci/workspace/CLEAN/ChibiOS/os/rt/include/chsystypes.h"
 328              		.file 11 "/home/makkmarci/workspace/CLEAN/ChibiOS/os/rt/include/chschd.h"
 329              		.file 12 "/home/makkmarci/workspace/CLEAN/ChibiOS/os/ext/CMSIS/ST/stm32f407xx.h"
 330              		.file 13 "/home/makkmarci/workspace/CLEAN/ChibiOS/os/rt/ports/ARMCMx/chcore.h"
 331              		.file 14 "/home/makkmarci/workspace/CLEAN/ChibiOS/os/rt/include/chtm.h"
 332              		.file 15 "/home/makkmarci/workspace/CLEAN/ChibiOS/os/rt/include/chsem.h"
 333              		.file 16 "/home/makkmarci/workspace/CLEAN/ChibiOS/os/rt/include/chmtx.h"
 334              		.file 17 "/home/makkmarci/workspace/CLEAN/ChibiOS/os/rt/include/chevents.h"
 335              		.file 18 "/home/makkmarci/workspace/CLEAN/ChibiOS/os/rt/include/chqueues.h"
 336              		.file 19 "/home/makkmarci/workspace/CLEAN/ChibiOS/os/hal/ports/STM32/LLD/GPIOv2/pal_lld.h"
 337              		.file 20 "/home/makkmarci/workspace/CLEAN/ChibiOS/os/hal/include/serial.h"
 338              		.file 21 "/home/makkmarci/workspace/CLEAN/ChibiOS/os/hal/ports/STM32/LLD/USARTv1/serial_lld.h"
 339              		.file 22 "/home/makkmarci/workspace/CLEAN/ChibiOS/os/ext/CMSIS/include/core_cm4.h"