ARM GAS  /tmp/ccu0elQ7.s 			page 1


   1              		.syntax unified
   2              		.cpu cortex-m4
   3              		.eabi_attribute 27, 1
   4              		.eabi_attribute 28, 1
   5              		.fpu fpv4-sp-d16
   6              		.eabi_attribute 20, 1
   7              		.eabi_attribute 21, 1
   8              		.eabi_attribute 23, 3
   9              		.eabi_attribute 24, 1
  10              		.eabi_attribute 25, 1
  11              		.eabi_attribute 26, 1
  12              		.eabi_attribute 30, 6
  13              		.eabi_attribute 34, 1
  14              		.eabi_attribute 18, 4
  15              		.thumb
  16              		.file	"main.c"
  17              		.text
  18              	.Ltext0:
  19              		.cfi_sections	.debug_frame
  20              		.section	.text.port_enable,"ax",%progbits
  21              		.align	2
  22              		.p2align 4,,15
  23              		.thumb
  24              		.thumb_func
  25              		.type	port_enable, %function
  26              	port_enable:
  27              	.LFB122:
  28              		.file 1 "/home/makkmarci/workspace/CLEAN/ChibiOS/os/rt/ports/ARMCMx/chcore_v7m.h"
  29              		.loc 1 518 0
  30              		.cfi_startproc
  31              		@ args = 0, pretend = 0, frame = 8
  32              		@ frame_needed = 0, uses_anonymous_args = 0
  33              		@ link register save eliminated.
  34 0000 82B0     		sub	sp, sp, #8
  35              		.cfi_def_cfa_offset 8
  36 0002 0023     		movs	r3, #0
  37 0004 0193     		str	r3, [sp, #4]
  38              	.LBB6:
  39              	.LBB7:
  40              		.file 2 "/home/makkmarci/workspace/CLEAN/ChibiOS/os/ext/CMSIS/include/core_cmFunc.h"
  41              		.loc 2 546 0
  42 0006 019B     		ldr	r3, [sp, #4]
  43              	@ 546 "/home/makkmarci/workspace/CLEAN/ChibiOS/os/ext/CMSIS/include/core_cmFunc.h" 1
  44 0008 83F31188 		MSR basepri, r3
  45              	@ 0 "" 2
  46              		.thumb
  47              	.LBE7:
  48              	.LBE6:
  49              	.LBB8:
  50              	.LBB9:
  51              		.loc 2 331 0
  52              	@ 331 "/home/makkmarci/workspace/CLEAN/ChibiOS/os/ext/CMSIS/include/core_cmFunc.h" 1
  53 000c 62B6     		cpsie i
  54              	@ 0 "" 2
  55              		.thumb
  56              	.LBE9:
  57              	.LBE8:
ARM GAS  /tmp/ccu0elQ7.s 			page 2


  58              		.loc 1 524 0
  59 000e 02B0     		add	sp, sp, #8
  60              		.cfi_def_cfa_offset 0
  61              		@ sp needed
  62 0010 7047     		bx	lr
  63              		.cfi_endproc
  64              	.LFE122:
  65              		.size	port_enable, .-port_enable
  66 0012 00BFAFF3 		.section	.text.chSysEnable,"ax",%progbits
  66      0080AFF3 
  66      0080AFF3 
  66      0080
  67              		.align	2
  68              		.p2align 4,,15
  69              		.thumb
  70              		.thumb_func
  71              		.type	chSysEnable, %function
  72              	chSysEnable:
  73              	.LFB144:
  74              		.file 3 "/home/makkmarci/workspace/CLEAN/ChibiOS/os/rt/include/chsys.h"
  75              		.loc 3 335 0
  76              		.cfi_startproc
  77              		@ args = 0, pretend = 0, frame = 0
  78              		@ frame_needed = 0, uses_anonymous_args = 0
  79 0000 08B5     		push	{r3, lr}
  80              		.cfi_def_cfa_offset 8
  81              		.cfi_offset 3, -8
  82              		.cfi_offset 14, -4
  83              		.loc 3 338 0
  84 0002 FFF7FEFF 		bl	port_enable
  85              		.loc 3 339 0
  86 0006 08BD     		pop	{r3, pc}
  87              		.cfi_endproc
  88              	.LFE144:
  89              		.size	chSysEnable, .-chSysEnable
  90              		.section	.text.osalSysEnable,"ax",%progbits
  91              		.align	2
  92              		.p2align 4,,15
  93              		.thumb
  94              		.thumb_func
  95              		.type	osalSysEnable, %function
  96              	osalSysEnable:
  97              	.LFB219:
  98              		.file 4 "/home/makkmarci/workspace/CLEAN/ChibiOS/os/hal/osal/rt/osal.h"
  99              		.loc 4 434 0
 100              		.cfi_startproc
 101              		@ args = 0, pretend = 0, frame = 0
 102              		@ frame_needed = 0, uses_anonymous_args = 0
 103 0000 08B5     		push	{r3, lr}
 104              		.cfi_def_cfa_offset 8
 105              		.cfi_offset 3, -8
 106              		.cfi_offset 14, -4
 107              		.loc 4 436 0
 108 0002 FFF7FEFF 		bl	chSysEnable
 109              		.loc 4 437 0
 110 0006 08BD     		pop	{r3, pc}
 111              		.cfi_endproc
ARM GAS  /tmp/ccu0elQ7.s 			page 3


 112              	.LFE219:
 113              		.size	osalSysEnable, .-osalSysEnable
 114              		.section	.text.osalThreadSleep,"ax",%progbits
 115              		.align	2
 116              		.p2align 4,,15
 117              		.thumb
 118              		.thumb_func
 119              		.type	osalThreadSleep, %function
 120              	osalThreadSleep:
 121              	.LFB232:
 122              		.loc 4 625 0
 123              		.cfi_startproc
 124              		@ args = 0, pretend = 0, frame = 8
 125              		@ frame_needed = 0, uses_anonymous_args = 0
 126 0000 00B5     		push	{lr}
 127              		.cfi_def_cfa_offset 4
 128              		.cfi_offset 14, -4
 129 0002 83B0     		sub	sp, sp, #12
 130              		.cfi_def_cfa_offset 16
 131 0004 0190     		str	r0, [sp, #4]
 132              		.loc 4 627 0
 133 0006 0198     		ldr	r0, [sp, #4]
 134 0008 FFF7FEFF 		bl	chThdSleep
 135              		.loc 4 628 0
 136 000c 03B0     		add	sp, sp, #12
 137              		.cfi_def_cfa_offset 4
 138              		@ sp needed
 139 000e 5DF804FB 		ldr	pc, [sp], #4
 140              		.cfi_endproc
 141              	.LFE232:
 142              		.size	osalThreadSleep, .-osalThreadSleep
 143 0012 00BFAFF3 		.section	.bss.waThread1,"aw",%nobits
 143      0080AFF3 
 143      0080AFF3 
 143      0080
 144              		.align	3
 145              		.type	waThread1, %object
 146              		.size	waThread1, 464
 147              	waThread1:
 148 0000 00000000 		.space	464
 148      00000000 
 148      00000000 
 148      00000000 
 148      00000000 
 149              		.section	.rodata
 150              		.align	2
 151              	.LC0:
 152 0000 626C696E 		.ascii	"blinker\000"
 152      6B657200 
 153              		.section	.text.Thread1,"ax",%progbits
 154              		.align	2
 155              		.p2align 4,,15
 156              		.thumb
 157              		.thumb_func
 158              		.type	Thread1, %function
 159              	Thread1:
 160              	.LFB253:
ARM GAS  /tmp/ccu0elQ7.s 			page 4


 161              		.file 5 "main.c"
 162              		.loc 5 30 0
 163              		.cfi_startproc
 164              		@ args = 0, pretend = 0, frame = 8
 165              		@ frame_needed = 0, uses_anonymous_args = 0
 166 0000 00B5     		push	{lr}
 167              		.cfi_def_cfa_offset 4
 168              		.cfi_offset 14, -4
 169 0002 83B0     		sub	sp, sp, #12
 170              		.cfi_def_cfa_offset 16
 171 0004 0190     		str	r0, [sp, #4]
 172              		.loc 5 33 0
 173 0006 0A4B     		ldr	r3, .L7
 174 0008 9B69     		ldr	r3, [r3, #24]
 175 000a 0A4A     		ldr	r2, .L7+4
 176 000c 9A61     		str	r2, [r3, #24]
 177              	.L6:
 178              		.loc 5 35 0 discriminator 1
 179 000e 0A4B     		ldr	r3, .L7+8
 180 0010 4FF48052 		mov	r2, #4096
 181 0014 1A83     		strh	r2, [r3, #24]	@ movhi
 182              		.loc 5 36 0 discriminator 1
 183 0016 4FF4FA70 		mov	r0, #500
 184 001a FFF7FEFF 		bl	chThdSleep
 185              		.loc 5 37 0 discriminator 1
 186 001e 064B     		ldr	r3, .L7+8
 187 0020 4FF48052 		mov	r2, #4096
 188 0024 5A83     		strh	r2, [r3, #26]	@ movhi
 189              		.loc 5 38 0 discriminator 1
 190 0026 4FF4FA70 		mov	r0, #500
 191 002a FFF7FEFF 		bl	chThdSleep
 192              		.loc 5 39 0 discriminator 1
 193 002e EEE7     		b	.L6
 194              	.L8:
 195              		.align	2
 196              	.L7:
 197 0030 00000000 		.word	ch
 198 0034 00000000 		.word	.LC0
 199 0038 000C0240 		.word	1073875968
 200              		.cfi_endproc
 201              	.LFE253:
 202              		.size	Thread1, .-Thread1
 203 003c AFF30080 		.section	.text.startBlinker,"ax",%progbits
 204              		.align	2
 205              		.p2align 4,,15
 206              		.global	startBlinker
 207              		.thumb
 208              		.thumb_func
 209              		.type	startBlinker, %function
 210              	startBlinker:
 211              	.LFB254:
 212              		.loc 5 45 0
 213              		.cfi_startproc
 214              		@ args = 0, pretend = 0, frame = 0
 215              		@ frame_needed = 0, uses_anonymous_args = 0
 216 0000 00B5     		push	{lr}
 217              		.cfi_def_cfa_offset 4
ARM GAS  /tmp/ccu0elQ7.s 			page 5


 218              		.cfi_offset 14, -4
 219 0002 83B0     		sub	sp, sp, #12
 220              		.cfi_def_cfa_offset 16
 221              		.loc 5 46 0
 222 0004 0023     		movs	r3, #0
 223 0006 0093     		str	r3, [sp]
 224 0008 0448     		ldr	r0, .L10
 225 000a 4FF4E871 		mov	r1, #464
 226 000e 4A22     		movs	r2, #74
 227 0010 034B     		ldr	r3, .L10+4
 228 0012 FFF7FEFF 		bl	chThdCreateStatic
 229              		.loc 5 48 0
 230 0016 03B0     		add	sp, sp, #12
 231              		.cfi_def_cfa_offset 4
 232              		@ sp needed
 233 0018 5DF804FB 		ldr	pc, [sp], #4
 234              	.L11:
 235              		.align	2
 236              	.L10:
 237 001c 00000000 		.word	waThread1
 238 0020 00000000 		.word	Thread1
 239              		.cfi_endproc
 240              	.LFE254:
 241              		.size	startBlinker, .-startBlinker
 242 0024 AFF30080 		.section	.rodata
 242      AFF30080 
 242      AFF30080 
 243              		.align	2
 244              	.LC1:
 245 0008 48656C6C 		.ascii	"Hello World!\015\012\000"
 245      6F20576F 
 245      726C6421 
 245      0D0A00
 246 0017 00       		.section	.text.main,"ax",%progbits
 247              		.align	2
 248              		.p2align 4,,15
 249              		.global	main
 250              		.thumb
 251              		.thumb_func
 252              		.type	main, %function
 253              	main:
 254              	.LFB255:
 255              		.loc 5 50 0
 256              		.cfi_startproc
 257              		@ args = 0, pretend = 0, frame = 0
 258              		@ frame_needed = 0, uses_anonymous_args = 0
 259 0000 10B5     		push	{r4, lr}
 260              		.cfi_def_cfa_offset 8
 261              		.cfi_offset 4, -8
 262              		.cfi_offset 14, -4
 263              		.loc 5 57 0
 264 0002 FFF7FEFF 		bl	halInit
 265              		.loc 5 58 0
 266 0006 FFF7FEFF 		bl	chSysInit
 267              		.loc 5 62 0
 268 000a FFF7FEFF 		bl	osalSysEnable
 269              		.loc 5 64 0
ARM GAS  /tmp/ccu0elQ7.s 			page 6


 270 000e FFF7FEFF 		bl	startBlinker
 271              		.loc 5 70 0
 272 0012 1548     		ldr	r0, .L14
 273 0014 0021     		movs	r1, #0
 274 0016 FFF7FEFF 		bl	sdStart
 275              		.loc 5 71 0
 276 001a 1448     		ldr	r0, .L14+4
 277 001c 0421     		movs	r1, #4
 278 001e 40F28232 		movw	r2, #898
 279 0022 FFF7FEFF 		bl	_pal_lld_setgroupmode
 280              		.loc 5 72 0
 281 0026 1148     		ldr	r0, .L14+4
 282 0028 0821     		movs	r1, #8
 283 002a 40F28232 		movw	r2, #898
 284 002e FFF7FEFF 		bl	_pal_lld_setgroupmode
 285              	.L13:
 286              		.loc 5 79 0 discriminator 1
 287 0032 0D4B     		ldr	r3, .L14
 288 0034 1B68     		ldr	r3, [r3]
 289 0036 9C69     		ldr	r4, [r3, #24]
 290 0038 0B48     		ldr	r0, .L14
 291 003a 0D49     		ldr	r1, .L14+8
 292 003c 0E22     		movs	r2, #14
 293 003e 4FF0FF33 		mov	r3, #-1
 294 0042 A047     		blx	r4
 295              		.loc 5 81 0 discriminator 1
 296 0044 0B4B     		ldr	r3, .L14+12
 297 0046 4FF40052 		mov	r2, #8192
 298 004a 1A83     		strh	r2, [r3, #24]	@ movhi
 299              		.loc 5 82 0 discriminator 1
 300 004c 4FF4FA70 		mov	r0, #500
 301 0050 FFF7FEFF 		bl	osalThreadSleep
 302              		.loc 5 83 0 discriminator 1
 303 0054 074B     		ldr	r3, .L14+12
 304 0056 4FF40052 		mov	r2, #8192
 305 005a 5A83     		strh	r2, [r3, #26]	@ movhi
 306              		.loc 5 84 0 discriminator 1
 307 005c 4FF4FA70 		mov	r0, #500
 308 0060 FFF7FEFF 		bl	osalThreadSleep
 309              		.loc 5 85 0 discriminator 1
 310 0064 E5E7     		b	.L13
 311              	.L15:
 312 0066 00BF     		.align	2
 313              	.L14:
 314 0068 00000000 		.word	SD2
 315 006c 00000240 		.word	1073872896
 316 0070 08000000 		.word	.LC1
 317 0074 000C0240 		.word	1073875968
 318              		.cfi_endproc
 319              	.LFE255:
 320              		.size	main, .-main
 321 0078 AFF30080 		.text
 321      AFF30080 
 322              	.Letext0:
 323              		.file 6 "/opt/gcc-arm-none-eabi/lib/gcc/arm-none-eabi/4.9.3/include/stddef.h"
 324              		.file 7 "/opt/gcc-arm-none-eabi/arm-none-eabi/include/machine/_default_types.h"
 325              		.file 8 "/opt/gcc-arm-none-eabi/arm-none-eabi/include/stdint.h"
ARM GAS  /tmp/ccu0elQ7.s 			page 7


 326              		.file 9 "/home/makkmarci/workspace/CLEAN/ChibiOS/os/rt/ports/ARMCMx/compilers/GCC/chtypes.h"
 327              		.file 10 "/home/makkmarci/workspace/CLEAN/ChibiOS/os/rt/include/chsystypes.h"
 328              		.file 11 "/home/makkmarci/workspace/CLEAN/ChibiOS/os/rt/include/chschd.h"
 329              		.file 12 "/home/makkmarci/workspace/CLEAN/ChibiOS/os/ext/CMSIS/ST/stm32f407xx.h"
 330              		.file 13 "/home/makkmarci/workspace/CLEAN/ChibiOS/os/rt/ports/ARMCMx/chcore.h"
 331              		.file 14 "/home/makkmarci/workspace/CLEAN/ChibiOS/os/rt/include/chtm.h"
 332              		.file 15 "/home/makkmarci/workspace/CLEAN/ChibiOS/os/rt/include/chsem.h"
 333              		.file 16 "/home/makkmarci/workspace/CLEAN/ChibiOS/os/rt/include/chmtx.h"
 334              		.file 17 "/home/makkmarci/workspace/CLEAN/ChibiOS/os/rt/include/chevents.h"
 335              		.file 18 "/home/makkmarci/workspace/CLEAN/ChibiOS/os/rt/include/chqueues.h"
 336              		.file 19 "/home/makkmarci/workspace/CLEAN/ChibiOS/os/hal/ports/STM32/LLD/GPIOv2/pal_lld.h"
 337              		.file 20 "/home/makkmarci/workspace/CLEAN/ChibiOS/os/hal/include/serial.h"
 338              		.file 21 "/home/makkmarci/workspace/CLEAN/ChibiOS/os/hal/ports/STM32/LLD/USARTv1/serial_lld.h"
 339              		.file 22 "/home/makkmarci/workspace/CLEAN/ChibiOS/os/ext/CMSIS/include/core_cm4.h"
 340              		.section	.debug_info,"",%progbits
 341              	.Ldebug_info0:
 342 0000 050D0000 		.4byte	0xd05
 343 0004 0400     		.2byte	0x4
 344 0006 00000000 		.4byte	.Ldebug_abbrev0
 345 000a 04       		.byte	0x4
 346 000b 01       		.uleb128 0x1
 347 000c 7C030000 		.4byte	.LASF166
 348 0010 01       		.byte	0x1
 349 0011 CA040000 		.4byte	.LASF167
 350 0015 82020000 		.4byte	.LASF168
 351 0019 00000000 		.4byte	.Ldebug_ranges0+0
 352 001d 00000000 		.4byte	0
 353 0021 00000000 		.4byte	.Ldebug_line0
 354 0025 02       		.uleb128 0x2
 355 0026 04       		.byte	0x4
 356 0027 05       		.byte	0x5
 357 0028 696E7400 		.ascii	"int\000"
 358 002c 03       		.uleb128 0x3
 359 002d 0D000000 		.4byte	.LASF2
 360 0031 06       		.byte	0x6
 361 0032 D4       		.byte	0xd4
 362 0033 37000000 		.4byte	0x37
 363 0037 04       		.uleb128 0x4
 364 0038 04       		.byte	0x4
 365 0039 07       		.byte	0x7
 366 003a EC010000 		.4byte	.LASF0
 367 003e 04       		.uleb128 0x4
 368 003f 01       		.byte	0x1
 369 0040 06       		.byte	0x6
 370 0041 FA000000 		.4byte	.LASF1
 371 0045 03       		.uleb128 0x3
 372 0046 24000000 		.4byte	.LASF3
 373 004a 07       		.byte	0x7
 374 004b 1D       		.byte	0x1d
 375 004c 50000000 		.4byte	0x50
 376 0050 04       		.uleb128 0x4
 377 0051 01       		.byte	0x1
 378 0052 08       		.byte	0x8
 379 0053 65050000 		.4byte	.LASF4
 380 0057 04       		.uleb128 0x4
 381 0058 02       		.byte	0x2
 382 0059 05       		.byte	0x5
ARM GAS  /tmp/ccu0elQ7.s 			page 8


 383 005a 92050000 		.4byte	.LASF5
 384 005e 03       		.uleb128 0x3
 385 005f 66060000 		.4byte	.LASF6
 386 0063 07       		.byte	0x7
 387 0064 2B       		.byte	0x2b
 388 0065 69000000 		.4byte	0x69
 389 0069 04       		.uleb128 0x4
 390 006a 02       		.byte	0x2
 391 006b 07       		.byte	0x7
 392 006c 46020000 		.4byte	.LASF7
 393 0070 03       		.uleb128 0x3
 394 0071 F3020000 		.4byte	.LASF8
 395 0075 07       		.byte	0x7
 396 0076 3F       		.byte	0x3f
 397 0077 7B000000 		.4byte	0x7b
 398 007b 04       		.uleb128 0x4
 399 007c 04       		.byte	0x4
 400 007d 05       		.byte	0x5
 401 007e 37010000 		.4byte	.LASF9
 402 0082 03       		.uleb128 0x3
 403 0083 9F060000 		.4byte	.LASF10
 404 0087 07       		.byte	0x7
 405 0088 41       		.byte	0x41
 406 0089 8D000000 		.4byte	0x8d
 407 008d 04       		.uleb128 0x4
 408 008e 04       		.byte	0x4
 409 008f 07       		.byte	0x7
 410 0090 30060000 		.4byte	.LASF11
 411 0094 04       		.uleb128 0x4
 412 0095 08       		.byte	0x8
 413 0096 05       		.byte	0x5
 414 0097 EC000000 		.4byte	.LASF12
 415 009b 03       		.uleb128 0x3
 416 009c F0040000 		.4byte	.LASF13
 417 00a0 07       		.byte	0x7
 418 00a1 5B       		.byte	0x5b
 419 00a2 A6000000 		.4byte	0xa6
 420 00a6 04       		.uleb128 0x4
 421 00a7 08       		.byte	0x8
 422 00a8 07       		.byte	0x7
 423 00a9 63000000 		.4byte	.LASF14
 424 00ad 03       		.uleb128 0x3
 425 00ae 66070000 		.4byte	.LASF15
 426 00b2 08       		.byte	0x8
 427 00b3 15       		.byte	0x15
 428 00b4 45000000 		.4byte	0x45
 429 00b8 03       		.uleb128 0x3
 430 00b9 01020000 		.4byte	.LASF16
 431 00bd 08       		.byte	0x8
 432 00be 21       		.byte	0x21
 433 00bf 5E000000 		.4byte	0x5e
 434 00c3 03       		.uleb128 0x3
 435 00c4 5D050000 		.4byte	.LASF17
 436 00c8 08       		.byte	0x8
 437 00c9 2C       		.byte	0x2c
 438 00ca 70000000 		.4byte	0x70
 439 00ce 03       		.uleb128 0x3
ARM GAS  /tmp/ccu0elQ7.s 			page 9


 440 00cf 20070000 		.4byte	.LASF18
 441 00d3 08       		.byte	0x8
 442 00d4 2D       		.byte	0x2d
 443 00d5 82000000 		.4byte	0x82
 444 00d9 03       		.uleb128 0x3
 445 00da 1B000000 		.4byte	.LASF19
 446 00de 08       		.byte	0x8
 447 00df 39       		.byte	0x39
 448 00e0 9B000000 		.4byte	0x9b
 449 00e4 05       		.uleb128 0x5
 450 00e5 C3000000 		.4byte	0xc3
 451 00e9 05       		.uleb128 0x5
 452 00ea CE000000 		.4byte	0xce
 453 00ee 03       		.uleb128 0x3
 454 00ef FF060000 		.4byte	.LASF20
 455 00f3 09       		.byte	0x9
 456 00f4 46       		.byte	0x46
 457 00f5 CE000000 		.4byte	0xce
 458 00f9 03       		.uleb128 0x3
 459 00fa C5020000 		.4byte	.LASF21
 460 00fe 09       		.byte	0x9
 461 00ff 49       		.byte	0x49
 462 0100 AD000000 		.4byte	0xad
 463 0104 03       		.uleb128 0x3
 464 0105 40010000 		.4byte	.LASF22
 465 0109 09       		.byte	0x9
 466 010a 4A       		.byte	0x4a
 467 010b AD000000 		.4byte	0xad
 468 010f 03       		.uleb128 0x3
 469 0110 18050000 		.4byte	.LASF23
 470 0114 09       		.byte	0x9
 471 0115 4B       		.byte	0x4b
 472 0116 AD000000 		.4byte	0xad
 473 011a 03       		.uleb128 0x3
 474 011b 37050000 		.4byte	.LASF24
 475 011f 09       		.byte	0x9
 476 0120 4D       		.byte	0x4d
 477 0121 CE000000 		.4byte	0xce
 478 0125 03       		.uleb128 0x3
 479 0126 6D020000 		.4byte	.LASF25
 480 012a 09       		.byte	0x9
 481 012b 4E       		.byte	0x4e
 482 012c C3000000 		.4byte	0xc3
 483 0130 03       		.uleb128 0x3
 484 0131 DB020000 		.4byte	.LASF26
 485 0135 09       		.byte	0x9
 486 0136 50       		.byte	0x50
 487 0137 CE000000 		.4byte	0xce
 488 013b 03       		.uleb128 0x3
 489 013c 13070000 		.4byte	.LASF27
 490 0140 09       		.byte	0x9
 491 0141 51       		.byte	0x51
 492 0142 CE000000 		.4byte	0xce
 493 0146 03       		.uleb128 0x3
 494 0147 E0010000 		.4byte	.LASF28
 495 014b 09       		.byte	0x9
 496 014c 52       		.byte	0x52
ARM GAS  /tmp/ccu0elQ7.s 			page 10


 497 014d C3000000 		.4byte	0xc3
 498 0151 03       		.uleb128 0x3
 499 0152 81060000 		.4byte	.LASF29
 500 0156 0A       		.byte	0xa
 501 0157 33       		.byte	0x33
 502 0158 CE000000 		.4byte	0xce
 503 015c 03       		.uleb128 0x3
 504 015d 71060000 		.4byte	.LASF30
 505 0161 0A       		.byte	0xa
 506 0162 3F       		.byte	0x3f
 507 0163 67010000 		.4byte	0x167
 508 0167 06       		.uleb128 0x6
 509 0168 59020000 		.4byte	.LASF50
 510 016c 44       		.byte	0x44
 511 016d 0B       		.byte	0xb
 512 016e C2       		.byte	0xc2
 513 016f 54020000 		.4byte	0x254
 514 0173 07       		.uleb128 0x7
 515 0174 B2050000 		.4byte	.LASF31
 516 0178 0B       		.byte	0xb
 517 0179 C3       		.byte	0xc3
 518 017a 5F020000 		.4byte	0x25f
 519 017e 00       		.byte	0
 520 017f 07       		.uleb128 0x7
 521 0180 30050000 		.4byte	.LASF32
 522 0184 0B       		.byte	0xb
 523 0185 C5       		.byte	0xc5
 524 0186 5F020000 		.4byte	0x25f
 525 018a 04       		.byte	0x4
 526 018b 07       		.uleb128 0x7
 527 018c D5000000 		.4byte	.LASF33
 528 0190 0B       		.byte	0xb
 529 0191 C7       		.byte	0xc7
 530 0192 1A010000 		.4byte	0x11a
 531 0196 08       		.byte	0x8
 532 0197 07       		.uleb128 0x7
 533 0198 C1070000 		.4byte	.LASF34
 534 019c 0B       		.byte	0xb
 535 019d C8       		.byte	0xc8
 536 019e FE040000 		.4byte	0x4fe
 537 01a2 0C       		.byte	0xc
 538 01a3 07       		.uleb128 0x7
 539 01a4 6D010000 		.4byte	.LASF35
 540 01a8 0B       		.byte	0xb
 541 01a9 CA       		.byte	0xca
 542 01aa 5F020000 		.4byte	0x25f
 543 01ae 10       		.byte	0x10
 544 01af 07       		.uleb128 0x7
 545 01b0 A4040000 		.4byte	.LASF36
 546 01b4 0B       		.byte	0xb
 547 01b5 CB       		.byte	0xcb
 548 01b6 5F020000 		.4byte	0x25f
 549 01ba 14       		.byte	0x14
 550 01bb 07       		.uleb128 0x7
 551 01bc C1050000 		.4byte	.LASF37
 552 01c0 0B       		.byte	0xb
 553 01c1 D2       		.byte	0xd2
ARM GAS  /tmp/ccu0elQ7.s 			page 11


 554 01c2 43070000 		.4byte	0x743
 555 01c6 18       		.byte	0x18
 556 01c7 07       		.uleb128 0x7
 557 01c8 9C050000 		.4byte	.LASF38
 558 01cc 0B       		.byte	0xb
 559 01cd DD       		.byte	0xdd
 560 01ce 04010000 		.4byte	0x104
 561 01d2 1C       		.byte	0x1c
 562 01d3 07       		.uleb128 0x7
 563 01d4 B9050000 		.4byte	.LASF39
 564 01d8 0B       		.byte	0xb
 565 01d9 E1       		.byte	0xe1
 566 01da F9000000 		.4byte	0xf9
 567 01de 1D       		.byte	0x1d
 568 01df 07       		.uleb128 0x7
 569 01e0 C3040000 		.4byte	.LASF40
 570 01e4 0B       		.byte	0xb
 571 01e5 E6       		.byte	0xe6
 572 01e6 0F010000 		.4byte	0x10f
 573 01ea 1E       		.byte	0x1e
 574 01eb 08       		.uleb128 0x8
 575 01ec 705F7500 		.ascii	"p_u\000"
 576 01f0 0B       		.byte	0xb
 577 01f1 3101     		.2byte	0x131
 578 01f3 7E060000 		.4byte	0x67e
 579 01f7 20       		.byte	0x20
 580 01f8 09       		.uleb128 0x9
 581 01f9 DE070000 		.4byte	.LASF41
 582 01fd 0B       		.byte	0xb
 583 01fe 3601     		.2byte	0x136
 584 0200 65020000 		.4byte	0x265
 585 0204 24       		.byte	0x24
 586 0205 09       		.uleb128 0x9
 587 0206 2A020000 		.4byte	.LASF42
 588 020a 0B       		.byte	0xb
 589 020b 3C01     		.2byte	0x13c
 590 020d 89020000 		.4byte	0x289
 591 0211 28       		.byte	0x28
 592 0212 09       		.uleb128 0x9
 593 0213 A0070000 		.4byte	.LASF43
 594 0217 0B       		.byte	0xb
 595 0218 4001     		.2byte	0x140
 596 021a 25010000 		.4byte	0x125
 597 021e 30       		.byte	0x30
 598 021f 09       		.uleb128 0x9
 599 0220 F2050000 		.4byte	.LASF44
 600 0224 0B       		.byte	0xb
 601 0225 4601     		.2byte	0x146
 602 0227 30010000 		.4byte	0x130
 603 022b 34       		.byte	0x34
 604 022c 09       		.uleb128 0x9
 605 022d 88050000 		.4byte	.LASF45
 606 0231 0B       		.byte	0xb
 607 0232 4D01     		.2byte	0x14d
 608 0234 3D070000 		.4byte	0x73d
 609 0238 38       		.byte	0x38
 610 0239 09       		.uleb128 0x9
ARM GAS  /tmp/ccu0elQ7.s 			page 12


 611 023a 8B060000 		.4byte	.LASF46
 612 023e 0B       		.byte	0xb
 613 023f 5101     		.2byte	0x151
 614 0241 1A010000 		.4byte	0x11a
 615 0245 3C       		.byte	0x3c
 616 0246 09       		.uleb128 0x9
 617 0247 10010000 		.4byte	.LASF47
 618 024b 0B       		.byte	0xb
 619 024c 5801     		.2byte	0x158
 620 024e 3C030000 		.4byte	0x33c
 621 0252 40       		.byte	0x40
 622 0253 00       		.byte	0
 623 0254 03       		.uleb128 0x3
 624 0255 6E070000 		.4byte	.LASF48
 625 0259 0A       		.byte	0xa
 626 025a 44       		.byte	0x44
 627 025b 5F020000 		.4byte	0x25f
 628 025f 0A       		.uleb128 0xa
 629 0260 04       		.byte	0x4
 630 0261 5C010000 		.4byte	0x15c
 631 0265 03       		.uleb128 0x3
 632 0266 1A030000 		.4byte	.LASF49
 633 026a 0A       		.byte	0xa
 634 026b 49       		.byte	0x49
 635 026c 70020000 		.4byte	0x270
 636 0270 06       		.uleb128 0x6
 637 0271 20060000 		.4byte	.LASF51
 638 0275 04       		.byte	0x4
 639 0276 0B       		.byte	0xb
 640 0277 B0       		.byte	0xb0
 641 0278 89020000 		.4byte	0x289
 642 027c 07       		.uleb128 0x7
 643 027d B2050000 		.4byte	.LASF31
 644 0281 0B       		.byte	0xb
 645 0282 B1       		.byte	0xb1
 646 0283 5F020000 		.4byte	0x25f
 647 0287 00       		.byte	0
 648 0288 00       		.byte	0
 649 0289 03       		.uleb128 0x3
 650 028a D0050000 		.4byte	.LASF52
 651 028e 0A       		.byte	0xa
 652 028f 50       		.byte	0x50
 653 0290 94020000 		.4byte	0x294
 654 0294 06       		.uleb128 0x6
 655 0295 C4000000 		.4byte	.LASF53
 656 0299 08       		.byte	0x8
 657 029a 0B       		.byte	0xb
 658 029b B7       		.byte	0xb7
 659 029c B9020000 		.4byte	0x2b9
 660 02a0 07       		.uleb128 0x7
 661 02a1 B2050000 		.4byte	.LASF31
 662 02a5 0B       		.byte	0xb
 663 02a6 B8       		.byte	0xb8
 664 02a7 5F020000 		.4byte	0x25f
 665 02ab 00       		.byte	0
 666 02ac 07       		.uleb128 0x7
 667 02ad 30050000 		.4byte	.LASF32
ARM GAS  /tmp/ccu0elQ7.s 			page 13


 668 02b1 0B       		.byte	0xb
 669 02b2 B9       		.byte	0xb9
 670 02b3 5F020000 		.4byte	0x25f
 671 02b7 04       		.byte	0x4
 672 02b8 00       		.byte	0
 673 02b9 03       		.uleb128 0x3
 674 02ba 00000000 		.4byte	.LASF54
 675 02be 0A       		.byte	0xa
 676 02bf 57       		.byte	0x57
 677 02c0 C4020000 		.4byte	0x2c4
 678 02c4 0B       		.uleb128 0xb
 679 02c5 CD020000 		.4byte	.LASF55
 680 02c9 1C       		.byte	0x1c
 681 02ca 0B       		.byte	0xb
 682 02cb 9001     		.2byte	0x190
 683 02cd 20030000 		.4byte	0x320
 684 02d1 09       		.uleb128 0x9
 685 02d2 18060000 		.4byte	.LASF56
 686 02d6 0B       		.byte	0xb
 687 02d7 9101     		.2byte	0x191
 688 02d9 89020000 		.4byte	0x289
 689 02dd 00       		.byte	0
 690 02de 09       		.uleb128 0x9
 691 02df A4050000 		.4byte	.LASF57
 692 02e3 0B       		.byte	0xb
 693 02e4 9201     		.2byte	0x192
 694 02e6 1A010000 		.4byte	0x11a
 695 02ea 08       		.byte	0x8
 696 02eb 09       		.uleb128 0x9
 697 02ec AC040000 		.4byte	.LASF58
 698 02f0 0B       		.byte	0xb
 699 02f1 9401     		.2byte	0x194
 700 02f3 FE040000 		.4byte	0x4fe
 701 02f7 0C       		.byte	0xc
 702 02f8 09       		.uleb128 0x9
 703 02f9 85010000 		.4byte	.LASF59
 704 02fd 0B       		.byte	0xb
 705 02fe 9701     		.2byte	0x197
 706 0300 5F020000 		.4byte	0x25f
 707 0304 10       		.byte	0x10
 708 0305 09       		.uleb128 0x9
 709 0306 D1040000 		.4byte	.LASF60
 710 030a 0B       		.byte	0xb
 711 030b 9801     		.2byte	0x198
 712 030d 5F020000 		.4byte	0x25f
 713 0311 14       		.byte	0x14
 714 0312 09       		.uleb128 0x9
 715 0313 42060000 		.4byte	.LASF61
 716 0317 0B       		.byte	0xb
 717 0318 9B01     		.2byte	0x19b
 718 031a 5F020000 		.4byte	0x25f
 719 031e 18       		.byte	0x18
 720 031f 00       		.byte	0
 721 0320 03       		.uleb128 0x3
 722 0321 96060000 		.4byte	.LASF62
 723 0325 0A       		.byte	0xa
 724 0326 5C       		.byte	0x5c
ARM GAS  /tmp/ccu0elQ7.s 			page 14


 725 0327 2B030000 		.4byte	0x32b
 726 032b 0A       		.uleb128 0xa
 727 032c 04       		.byte	0x4
 728 032d 31030000 		.4byte	0x331
 729 0331 0C       		.uleb128 0xc
 730 0332 3C030000 		.4byte	0x33c
 731 0336 0D       		.uleb128 0xd
 732 0337 3C030000 		.4byte	0x33c
 733 033b 00       		.byte	0
 734 033c 0E       		.uleb128 0xe
 735 033d 04       		.byte	0x4
 736 033e 03       		.uleb128 0x3
 737 033f 20050000 		.4byte	.LASF63
 738 0343 0A       		.byte	0xa
 739 0344 61       		.byte	0x61
 740 0345 49030000 		.4byte	0x349
 741 0349 0B       		.uleb128 0xb
 742 034a EE060000 		.4byte	.LASF64
 743 034e 14       		.byte	0x14
 744 034f 0B       		.byte	0xb
 745 0350 6B01     		.2byte	0x16b
 746 0352 98030000 		.4byte	0x398
 747 0356 09       		.uleb128 0x9
 748 0357 F9010000 		.4byte	.LASF65
 749 035b 0B       		.byte	0xb
 750 035c 6C01     		.2byte	0x16c
 751 035e 55070000 		.4byte	0x755
 752 0362 00       		.byte	0
 753 0363 09       		.uleb128 0x9
 754 0364 96010000 		.4byte	.LASF66
 755 0368 0B       		.byte	0xb
 756 0369 6D01     		.2byte	0x16d
 757 036b 55070000 		.4byte	0x755
 758 036f 04       		.byte	0x4
 759 0370 09       		.uleb128 0x9
 760 0371 21020000 		.4byte	.LASF67
 761 0375 0B       		.byte	0xb
 762 0376 6E01     		.2byte	0x16e
 763 0378 51010000 		.4byte	0x151
 764 037c 08       		.byte	0x8
 765 037d 09       		.uleb128 0x9
 766 037e C7070000 		.4byte	.LASF68
 767 0382 0B       		.byte	0xb
 768 0383 6F01     		.2byte	0x16f
 769 0385 20030000 		.4byte	0x320
 770 0389 0C       		.byte	0xc
 771 038a 09       		.uleb128 0x9
 772 038b 0C070000 		.4byte	.LASF69
 773 038f 0B       		.byte	0xb
 774 0390 7101     		.2byte	0x171
 775 0392 3C030000 		.4byte	0x33c
 776 0396 10       		.byte	0x10
 777 0397 00       		.byte	0
 778 0398 03       		.uleb128 0x3
 779 0399 94000000 		.4byte	.LASF70
 780 039d 0A       		.byte	0xa
 781 039e 66       		.byte	0x66
ARM GAS  /tmp/ccu0elQ7.s 			page 15


 782 039f A3030000 		.4byte	0x3a3
 783 03a3 0B       		.uleb128 0xb
 784 03a4 65030000 		.4byte	.LASF71
 785 03a8 10       		.byte	0x10
 786 03a9 0B       		.byte	0xb
 787 03aa 7B01     		.2byte	0x17b
 788 03ac E5030000 		.4byte	0x3e5
 789 03b0 09       		.uleb128 0x9
 790 03b1 F9010000 		.4byte	.LASF65
 791 03b5 0B       		.byte	0xb
 792 03b6 7C01     		.2byte	0x17c
 793 03b8 55070000 		.4byte	0x755
 794 03bc 00       		.byte	0
 795 03bd 09       		.uleb128 0x9
 796 03be 96010000 		.4byte	.LASF66
 797 03c2 0B       		.byte	0xb
 798 03c3 7E01     		.2byte	0x17e
 799 03c5 55070000 		.4byte	0x755
 800 03c9 04       		.byte	0x4
 801 03ca 09       		.uleb128 0x9
 802 03cb 21020000 		.4byte	.LASF67
 803 03cf 0B       		.byte	0xb
 804 03d0 8001     		.2byte	0x180
 805 03d2 51010000 		.4byte	0x151
 806 03d6 08       		.byte	0x8
 807 03d7 09       		.uleb128 0x9
 808 03d8 95070000 		.4byte	.LASF72
 809 03dc 0B       		.byte	0xb
 810 03dd 8201     		.2byte	0x182
 811 03df 5B070000 		.4byte	0x75b
 812 03e3 0C       		.byte	0xc
 813 03e4 00       		.byte	0
 814 03e5 03       		.uleb128 0x3
 815 03e6 41000000 		.4byte	.LASF73
 816 03ea 0A       		.byte	0xa
 817 03eb 6B       		.byte	0x6b
 818 03ec F0030000 		.4byte	0x3f0
 819 03f0 0B       		.uleb128 0xb
 820 03f1 47050000 		.4byte	.LASF74
 821 03f5 04       		.byte	0x4
 822 03f6 0B       		.byte	0xb
 823 03f7 A201     		.2byte	0x1a2
 824 03f9 0B040000 		.4byte	0x40b
 825 03fd 09       		.uleb128 0x9
 826 03fe B8060000 		.4byte	.LASF75
 827 0402 0B       		.byte	0xb
 828 0403 AA01     		.2byte	0x1aa
 829 0405 60070000 		.4byte	0x760
 830 0409 00       		.byte	0
 831 040a 00       		.byte	0
 832 040b 03       		.uleb128 0x3
 833 040c E2060000 		.4byte	.LASF76
 834 0410 0A       		.byte	0xa
 835 0411 70       		.byte	0x70
 836 0412 16040000 		.4byte	0x416
 837 0416 0F       		.uleb128 0xf
 838 0417 2D010000 		.4byte	.LASF77
ARM GAS  /tmp/ccu0elQ7.s 			page 16


 839 041b D801     		.2byte	0x1d8
 840 041d 0B       		.byte	0xb
 841 041e C201     		.2byte	0x1c2
 842 0420 72040000 		.4byte	0x472
 843 0424 09       		.uleb128 0x9
 844 0425 53070000 		.4byte	.LASF78
 845 0429 0B       		.byte	0xb
 846 042a C601     		.2byte	0x1c6
 847 042c B9020000 		.4byte	0x2b9
 848 0430 00       		.byte	0
 849 0431 09       		.uleb128 0x9
 850 0432 20010000 		.4byte	.LASF79
 851 0436 0B       		.byte	0xb
 852 0437 CA01     		.2byte	0x1ca
 853 0439 98030000 		.4byte	0x398
 854 043d 1C       		.byte	0x1c
 855 043e 08       		.uleb128 0x8
 856 043f 64626700 		.ascii	"dbg\000"
 857 0443 0B       		.byte	0xb
 858 0444 CE01     		.2byte	0x1ce
 859 0446 E5030000 		.4byte	0x3e5
 860 044a 2C       		.byte	0x2c
 861 044b 09       		.uleb128 0x9
 862 044c 89000000 		.4byte	.LASF80
 863 0450 0B       		.byte	0xb
 864 0451 D201     		.2byte	0x1d2
 865 0453 5C010000 		.4byte	0x15c
 866 0457 30       		.byte	0x30
 867 0458 08       		.uleb128 0x8
 868 0459 746D00   		.ascii	"tm\000"
 869 045c 0B       		.byte	0xb
 870 045d D701     		.2byte	0x1d7
 871 045f 73060000 		.4byte	0x673
 872 0463 74       		.byte	0x74
 873 0464 09       		.uleb128 0x9
 874 0465 D1010000 		.4byte	.LASF81
 875 0469 0B       		.byte	0xb
 876 046a E301     		.2byte	0x1e3
 877 046c 65070000 		.4byte	0x765
 878 0470 78       		.byte	0x78
 879 0471 00       		.byte	0
 880 0472 04       		.uleb128 0x4
 881 0473 04       		.byte	0x4
 882 0474 07       		.byte	0x7
 883 0475 5C030000 		.4byte	.LASF82
 884 0479 10       		.uleb128 0x10
 885 047a 1C       		.byte	0x1c
 886 047b 0C       		.byte	0xc
 887 047c 0903     		.2byte	0x309
 888 047e DC040000 		.4byte	0x4dc
 889 0482 08       		.uleb128 0x8
 890 0483 535200   		.ascii	"SR\000"
 891 0486 0C       		.byte	0xc
 892 0487 0B03     		.2byte	0x30b
 893 0489 E9000000 		.4byte	0xe9
 894 048d 00       		.byte	0
 895 048e 08       		.uleb128 0x8
ARM GAS  /tmp/ccu0elQ7.s 			page 17


 896 048f 445200   		.ascii	"DR\000"
 897 0492 0C       		.byte	0xc
 898 0493 0C03     		.2byte	0x30c
 899 0495 E9000000 		.4byte	0xe9
 900 0499 04       		.byte	0x4
 901 049a 08       		.uleb128 0x8
 902 049b 42525200 		.ascii	"BRR\000"
 903 049f 0C       		.byte	0xc
 904 04a0 0D03     		.2byte	0x30d
 905 04a2 E9000000 		.4byte	0xe9
 906 04a6 08       		.byte	0x8
 907 04a7 08       		.uleb128 0x8
 908 04a8 43523100 		.ascii	"CR1\000"
 909 04ac 0C       		.byte	0xc
 910 04ad 0E03     		.2byte	0x30e
 911 04af E9000000 		.4byte	0xe9
 912 04b3 0C       		.byte	0xc
 913 04b4 08       		.uleb128 0x8
 914 04b5 43523200 		.ascii	"CR2\000"
 915 04b9 0C       		.byte	0xc
 916 04ba 0F03     		.2byte	0x30f
 917 04bc E9000000 		.4byte	0xe9
 918 04c0 10       		.byte	0x10
 919 04c1 08       		.uleb128 0x8
 920 04c2 43523300 		.ascii	"CR3\000"
 921 04c6 0C       		.byte	0xc
 922 04c7 1003     		.2byte	0x310
 923 04c9 E9000000 		.4byte	0xe9
 924 04cd 14       		.byte	0x14
 925 04ce 09       		.uleb128 0x9
 926 04cf 0B010000 		.4byte	.LASF83
 927 04d3 0C       		.byte	0xc
 928 04d4 1103     		.2byte	0x311
 929 04d6 E9000000 		.4byte	0xe9
 930 04da 18       		.byte	0x18
 931 04db 00       		.byte	0
 932 04dc 11       		.uleb128 0x11
 933 04dd B0020000 		.4byte	.LASF84
 934 04e1 0C       		.byte	0xc
 935 04e2 1203     		.2byte	0x312
 936 04e4 79040000 		.4byte	0x479
 937 04e8 03       		.uleb128 0x3
 938 04e9 8D010000 		.4byte	.LASF85
 939 04ed 0D       		.byte	0xd
 940 04ee 65       		.byte	0x65
 941 04ef 3C030000 		.4byte	0x33c
 942 04f3 03       		.uleb128 0x3
 943 04f4 07030000 		.4byte	.LASF86
 944 04f8 0D       		.byte	0xd
 945 04f9 6D       		.byte	0x6d
 946 04fa D9000000 		.4byte	0xd9
 947 04fe 06       		.uleb128 0x6
 948 04ff DA060000 		.4byte	.LASF87
 949 0503 04       		.byte	0x4
 950 0504 0D       		.byte	0xd
 951 0505 89       		.byte	0x89
 952 0506 17050000 		.4byte	0x517
ARM GAS  /tmp/ccu0elQ7.s 			page 18


 953 050a 12       		.uleb128 0x12
 954 050b 72313300 		.ascii	"r13\000"
 955 050f 0D       		.byte	0xd
 956 0510 8A       		.byte	0x8a
 957 0511 58060000 		.4byte	0x658
 958 0515 00       		.byte	0
 959 0516 00       		.byte	0
 960 0517 06       		.uleb128 0x6
 961 0518 35000000 		.4byte	.LASF88
 962 051c 64       		.byte	0x64
 963 051d 01       		.byte	0x1
 964 051e F4       		.byte	0xf4
 965 051f 58060000 		.4byte	0x658
 966 0523 12       		.uleb128 0x12
 967 0524 73313600 		.ascii	"s16\000"
 968 0528 01       		.byte	0x1
 969 0529 F6       		.byte	0xf6
 970 052a E8040000 		.4byte	0x4e8
 971 052e 00       		.byte	0
 972 052f 12       		.uleb128 0x12
 973 0530 73313700 		.ascii	"s17\000"
 974 0534 01       		.byte	0x1
 975 0535 F7       		.byte	0xf7
 976 0536 E8040000 		.4byte	0x4e8
 977 053a 04       		.byte	0x4
 978 053b 12       		.uleb128 0x12
 979 053c 73313800 		.ascii	"s18\000"
 980 0540 01       		.byte	0x1
 981 0541 F8       		.byte	0xf8
 982 0542 E8040000 		.4byte	0x4e8
 983 0546 08       		.byte	0x8
 984 0547 12       		.uleb128 0x12
 985 0548 73313900 		.ascii	"s19\000"
 986 054c 01       		.byte	0x1
 987 054d F9       		.byte	0xf9
 988 054e E8040000 		.4byte	0x4e8
 989 0552 0C       		.byte	0xc
 990 0553 12       		.uleb128 0x12
 991 0554 73323000 		.ascii	"s20\000"
 992 0558 01       		.byte	0x1
 993 0559 FA       		.byte	0xfa
 994 055a E8040000 		.4byte	0x4e8
 995 055e 10       		.byte	0x10
 996 055f 12       		.uleb128 0x12
 997 0560 73323100 		.ascii	"s21\000"
 998 0564 01       		.byte	0x1
 999 0565 FB       		.byte	0xfb
 1000 0566 E8040000 		.4byte	0x4e8
 1001 056a 14       		.byte	0x14
 1002 056b 12       		.uleb128 0x12
 1003 056c 73323200 		.ascii	"s22\000"
 1004 0570 01       		.byte	0x1
 1005 0571 FC       		.byte	0xfc
 1006 0572 E8040000 		.4byte	0x4e8
 1007 0576 18       		.byte	0x18
 1008 0577 12       		.uleb128 0x12
 1009 0578 73323300 		.ascii	"s23\000"
ARM GAS  /tmp/ccu0elQ7.s 			page 19


 1010 057c 01       		.byte	0x1
 1011 057d FD       		.byte	0xfd
 1012 057e E8040000 		.4byte	0x4e8
 1013 0582 1C       		.byte	0x1c
 1014 0583 12       		.uleb128 0x12
 1015 0584 73323400 		.ascii	"s24\000"
 1016 0588 01       		.byte	0x1
 1017 0589 FE       		.byte	0xfe
 1018 058a E8040000 		.4byte	0x4e8
 1019 058e 20       		.byte	0x20
 1020 058f 12       		.uleb128 0x12
 1021 0590 73323500 		.ascii	"s25\000"
 1022 0594 01       		.byte	0x1
 1023 0595 FF       		.byte	0xff
 1024 0596 E8040000 		.4byte	0x4e8
 1025 059a 24       		.byte	0x24
 1026 059b 08       		.uleb128 0x8
 1027 059c 73323600 		.ascii	"s26\000"
 1028 05a0 01       		.byte	0x1
 1029 05a1 0001     		.2byte	0x100
 1030 05a3 E8040000 		.4byte	0x4e8
 1031 05a7 28       		.byte	0x28
 1032 05a8 08       		.uleb128 0x8
 1033 05a9 73323700 		.ascii	"s27\000"
 1034 05ad 01       		.byte	0x1
 1035 05ae 0101     		.2byte	0x101
 1036 05b0 E8040000 		.4byte	0x4e8
 1037 05b4 2C       		.byte	0x2c
 1038 05b5 08       		.uleb128 0x8
 1039 05b6 73323800 		.ascii	"s28\000"
 1040 05ba 01       		.byte	0x1
 1041 05bb 0201     		.2byte	0x102
 1042 05bd E8040000 		.4byte	0x4e8
 1043 05c1 30       		.byte	0x30
 1044 05c2 08       		.uleb128 0x8
 1045 05c3 73323900 		.ascii	"s29\000"
 1046 05c7 01       		.byte	0x1
 1047 05c8 0301     		.2byte	0x103
 1048 05ca E8040000 		.4byte	0x4e8
 1049 05ce 34       		.byte	0x34
 1050 05cf 08       		.uleb128 0x8
 1051 05d0 73333000 		.ascii	"s30\000"
 1052 05d4 01       		.byte	0x1
 1053 05d5 0401     		.2byte	0x104
 1054 05d7 E8040000 		.4byte	0x4e8
 1055 05db 38       		.byte	0x38
 1056 05dc 08       		.uleb128 0x8
 1057 05dd 73333100 		.ascii	"s31\000"
 1058 05e1 01       		.byte	0x1
 1059 05e2 0501     		.2byte	0x105
 1060 05e4 E8040000 		.4byte	0x4e8
 1061 05e8 3C       		.byte	0x3c
 1062 05e9 08       		.uleb128 0x8
 1063 05ea 723400   		.ascii	"r4\000"
 1064 05ed 01       		.byte	0x1
 1065 05ee 0701     		.2byte	0x107
 1066 05f0 E8040000 		.4byte	0x4e8
ARM GAS  /tmp/ccu0elQ7.s 			page 20


 1067 05f4 40       		.byte	0x40
 1068 05f5 08       		.uleb128 0x8
 1069 05f6 723500   		.ascii	"r5\000"
 1070 05f9 01       		.byte	0x1
 1071 05fa 0801     		.2byte	0x108
 1072 05fc E8040000 		.4byte	0x4e8
 1073 0600 44       		.byte	0x44
 1074 0601 08       		.uleb128 0x8
 1075 0602 723600   		.ascii	"r6\000"
 1076 0605 01       		.byte	0x1
 1077 0606 0901     		.2byte	0x109
 1078 0608 E8040000 		.4byte	0x4e8
 1079 060c 48       		.byte	0x48
 1080 060d 08       		.uleb128 0x8
 1081 060e 723700   		.ascii	"r7\000"
 1082 0611 01       		.byte	0x1
 1083 0612 0A01     		.2byte	0x10a
 1084 0614 E8040000 		.4byte	0x4e8
 1085 0618 4C       		.byte	0x4c
 1086 0619 08       		.uleb128 0x8
 1087 061a 723800   		.ascii	"r8\000"
 1088 061d 01       		.byte	0x1
 1089 061e 0B01     		.2byte	0x10b
 1090 0620 E8040000 		.4byte	0x4e8
 1091 0624 50       		.byte	0x50
 1092 0625 08       		.uleb128 0x8
 1093 0626 723900   		.ascii	"r9\000"
 1094 0629 01       		.byte	0x1
 1095 062a 0C01     		.2byte	0x10c
 1096 062c E8040000 		.4byte	0x4e8
 1097 0630 54       		.byte	0x54
 1098 0631 08       		.uleb128 0x8
 1099 0632 72313000 		.ascii	"r10\000"
 1100 0636 01       		.byte	0x1
 1101 0637 0D01     		.2byte	0x10d
 1102 0639 E8040000 		.4byte	0x4e8
 1103 063d 58       		.byte	0x58
 1104 063e 08       		.uleb128 0x8
 1105 063f 72313100 		.ascii	"r11\000"
 1106 0643 01       		.byte	0x1
 1107 0644 0E01     		.2byte	0x10e
 1108 0646 E8040000 		.4byte	0x4e8
 1109 064a 5C       		.byte	0x5c
 1110 064b 08       		.uleb128 0x8
 1111 064c 6C7200   		.ascii	"lr\000"
 1112 064f 01       		.byte	0x1
 1113 0650 0F01     		.2byte	0x10f
 1114 0652 E8040000 		.4byte	0x4e8
 1115 0656 60       		.byte	0x60
 1116 0657 00       		.byte	0
 1117 0658 0A       		.uleb128 0xa
 1118 0659 04       		.byte	0x4
 1119 065a 17050000 		.4byte	0x517
 1120 065e 13       		.uleb128 0x13
 1121 065f 04       		.byte	0x4
 1122 0660 0E       		.byte	0xe
 1123 0661 38       		.byte	0x38
ARM GAS  /tmp/ccu0elQ7.s 			page 21


 1124 0662 73060000 		.4byte	0x673
 1125 0666 07       		.uleb128 0x7
 1126 0667 C2060000 		.4byte	.LASF89
 1127 066b 0E       		.byte	0xe
 1128 066c 3C       		.byte	0x3c
 1129 066d EE000000 		.4byte	0xee
 1130 0671 00       		.byte	0
 1131 0672 00       		.byte	0
 1132 0673 03       		.uleb128 0x3
 1133 0674 B2040000 		.4byte	.LASF90
 1134 0678 0E       		.byte	0xe
 1135 0679 3D       		.byte	0x3d
 1136 067a 5E060000 		.4byte	0x65e
 1137 067e 14       		.uleb128 0x14
 1138 067f 04       		.byte	0x4
 1139 0680 0B       		.byte	0xb
 1140 0681 FA       		.byte	0xfa
 1141 0682 DB060000 		.4byte	0x6db
 1142 0686 15       		.uleb128 0x15
 1143 0687 14000000 		.4byte	.LASF91
 1144 068b 0B       		.byte	0xb
 1145 068c 0101     		.2byte	0x101
 1146 068e 25010000 		.4byte	0x125
 1147 0692 15       		.uleb128 0x15
 1148 0693 80000000 		.4byte	.LASF92
 1149 0697 0B       		.byte	0xb
 1150 0698 0801     		.2byte	0x108
 1151 069a 25010000 		.4byte	0x125
 1152 069e 15       		.uleb128 0x15
 1153 069f 81070000 		.4byte	.LASF93
 1154 06a3 0B       		.byte	0xb
 1155 06a4 0F01     		.2byte	0x10f
 1156 06a6 3C030000 		.4byte	0x33c
 1157 06aa 15       		.uleb128 0x15
 1158 06ab 91040000 		.4byte	.LASF94
 1159 06af 0B       		.byte	0xb
 1160 06b0 1601     		.2byte	0x116
 1161 06b2 DB060000 		.4byte	0x6db
 1162 06b6 15       		.uleb128 0x15
 1163 06b7 1A020000 		.4byte	.LASF95
 1164 06bb 0B       		.byte	0xb
 1165 06bc 1E01     		.2byte	0x11e
 1166 06be 06070000 		.4byte	0x706
 1167 06c2 15       		.uleb128 0x15
 1168 06c3 11060000 		.4byte	.LASF96
 1169 06c7 0B       		.byte	0xb
 1170 06c8 2701     		.2byte	0x127
 1171 06ca 3D070000 		.4byte	0x73d
 1172 06ce 15       		.uleb128 0x15
 1173 06cf AB050000 		.4byte	.LASF97
 1174 06d3 0B       		.byte	0xb
 1175 06d4 2F01     		.2byte	0x12f
 1176 06d6 30010000 		.4byte	0x130
 1177 06da 00       		.byte	0
 1178 06db 0A       		.uleb128 0xa
 1179 06dc 04       		.byte	0x4
 1180 06dd 54020000 		.4byte	0x254
ARM GAS  /tmp/ccu0elQ7.s 			page 22


 1181 06e1 06       		.uleb128 0x6
 1182 06e2 E5050000 		.4byte	.LASF98
 1183 06e6 0C       		.byte	0xc
 1184 06e7 0F       		.byte	0xf
 1185 06e8 34       		.byte	0x34
 1186 06e9 06070000 		.4byte	0x706
 1187 06ed 07       		.uleb128 0x7
 1188 06ee 75010000 		.4byte	.LASF99
 1189 06f2 0F       		.byte	0xf
 1190 06f3 35       		.byte	0x35
 1191 06f4 89020000 		.4byte	0x289
 1192 06f8 00       		.byte	0
 1193 06f9 07       		.uleb128 0x7
 1194 06fa 3A020000 		.4byte	.LASF100
 1195 06fe 0F       		.byte	0xf
 1196 06ff 37       		.byte	0x37
 1197 0700 46010000 		.4byte	0x146
 1198 0704 08       		.byte	0x8
 1199 0705 00       		.byte	0
 1200 0706 0A       		.uleb128 0xa
 1201 0707 04       		.byte	0x4
 1202 0708 E1060000 		.4byte	0x6e1
 1203 070c 06       		.uleb128 0x6
 1204 070d 39070000 		.4byte	.LASF101
 1205 0711 10       		.byte	0x10
 1206 0712 10       		.byte	0x10
 1207 0713 39       		.byte	0x39
 1208 0714 3D070000 		.4byte	0x73d
 1209 0718 07       		.uleb128 0x7
 1210 0719 18010000 		.4byte	.LASF102
 1211 071d 10       		.byte	0x10
 1212 071e 3A       		.byte	0x3a
 1213 071f 89020000 		.4byte	0x289
 1214 0723 00       		.byte	0
 1215 0724 07       		.uleb128 0x7
 1216 0725 B9070000 		.4byte	.LASF103
 1217 0729 10       		.byte	0x10
 1218 072a 3C       		.byte	0x3c
 1219 072b 5F020000 		.4byte	0x25f
 1220 072f 08       		.byte	0x8
 1221 0730 07       		.uleb128 0x7
 1222 0731 7A060000 		.4byte	.LASF104
 1223 0735 10       		.byte	0x10
 1224 0736 3E       		.byte	0x3e
 1225 0737 80070000 		.4byte	0x780
 1226 073b 0C       		.byte	0xc
 1227 073c 00       		.byte	0
 1228 073d 0A       		.uleb128 0xa
 1229 073e 04       		.byte	0x4
 1230 073f 0C070000 		.4byte	0x70c
 1231 0743 0A       		.uleb128 0xa
 1232 0744 04       		.byte	0x4
 1233 0745 49070000 		.4byte	0x749
 1234 0749 16       		.uleb128 0x16
 1235 074a 4E070000 		.4byte	0x74e
 1236 074e 04       		.uleb128 0x4
 1237 074f 01       		.byte	0x1
ARM GAS  /tmp/ccu0elQ7.s 			page 23


 1238 0750 08       		.byte	0x8
 1239 0751 51060000 		.4byte	.LASF105
 1240 0755 0A       		.uleb128 0xa
 1241 0756 04       		.byte	0x4
 1242 0757 3E030000 		.4byte	0x33e
 1243 075b 05       		.uleb128 0x5
 1244 075c 51010000 		.4byte	0x151
 1245 0760 05       		.uleb128 0x5
 1246 0761 43070000 		.4byte	0x743
 1247 0765 17       		.uleb128 0x17
 1248 0766 F3040000 		.4byte	0x4f3
 1249 076a 75070000 		.4byte	0x775
 1250 076e 18       		.uleb128 0x18
 1251 076f 72040000 		.4byte	0x472
 1252 0773 2B       		.byte	0x2b
 1253 0774 00       		.byte	0
 1254 0775 03       		.uleb128 0x3
 1255 0776 AB010000 		.4byte	.LASF106
 1256 077a 10       		.byte	0x10
 1257 077b 34       		.byte	0x34
 1258 077c 0C070000 		.4byte	0x70c
 1259 0780 0A       		.uleb128 0xa
 1260 0781 04       		.byte	0x4
 1261 0782 75070000 		.4byte	0x775
 1262 0786 03       		.uleb128 0x3
 1263 0787 C9060000 		.4byte	.LASF107
 1264 078b 11       		.byte	0x11
 1265 078c 34       		.byte	0x34
 1266 078d 91070000 		.4byte	0x791
 1267 0791 06       		.uleb128 0x6
 1268 0792 CF070000 		.4byte	.LASF108
 1269 0796 14       		.byte	0x14
 1270 0797 11       		.byte	0x11
 1271 0798 39       		.byte	0x39
 1272 0799 DA070000 		.4byte	0x7da
 1273 079d 07       		.uleb128 0x7
 1274 079e 7A020000 		.4byte	.LASF109
 1275 07a2 11       		.byte	0x11
 1276 07a3 3A       		.byte	0x3a
 1277 07a4 DA070000 		.4byte	0x7da
 1278 07a8 00       		.byte	0
 1279 07a9 07       		.uleb128 0x7
 1280 07aa 73050000 		.4byte	.LASF110
 1281 07ae 11       		.byte	0x11
 1282 07af 3D       		.byte	0x3d
 1283 07b0 5F020000 		.4byte	0x25f
 1284 07b4 04       		.byte	0x4
 1285 07b5 07       		.uleb128 0x7
 1286 07b6 E6040000 		.4byte	.LASF111
 1287 07ba 11       		.byte	0x11
 1288 07bb 3F       		.byte	0x3f
 1289 07bc 30010000 		.4byte	0x130
 1290 07c0 08       		.byte	0x8
 1291 07c1 07       		.uleb128 0x7
 1292 07c2 7F050000 		.4byte	.LASF112
 1293 07c6 11       		.byte	0x11
 1294 07c7 41       		.byte	0x41
ARM GAS  /tmp/ccu0elQ7.s 			page 24


 1295 07c8 3B010000 		.4byte	0x13b
 1296 07cc 0C       		.byte	0xc
 1297 07cd 07       		.uleb128 0x7
 1298 07ce 63020000 		.4byte	.LASF113
 1299 07d2 11       		.byte	0x11
 1300 07d3 43       		.byte	0x43
 1301 07d4 3B010000 		.4byte	0x13b
 1302 07d8 10       		.byte	0x10
 1303 07d9 00       		.byte	0
 1304 07da 0A       		.uleb128 0xa
 1305 07db 04       		.byte	0x4
 1306 07dc 86070000 		.4byte	0x786
 1307 07e0 06       		.uleb128 0x6
 1308 07e1 59070000 		.4byte	.LASF114
 1309 07e5 04       		.byte	0x4
 1310 07e6 11       		.byte	0x11
 1311 07e7 4A       		.byte	0x4a
 1312 07e8 F9070000 		.4byte	0x7f9
 1313 07ec 07       		.uleb128 0x7
 1314 07ed 42070000 		.4byte	.LASF115
 1315 07f1 11       		.byte	0x11
 1316 07f2 4B       		.byte	0x4b
 1317 07f3 DA070000 		.4byte	0x7da
 1318 07f7 00       		.byte	0
 1319 07f8 00       		.byte	0
 1320 07f9 03       		.uleb128 0x3
 1321 07fa C2010000 		.4byte	.LASF116
 1322 07fe 11       		.byte	0x11
 1323 07ff 4E       		.byte	0x4e
 1324 0800 E0070000 		.4byte	0x7e0
 1325 0804 03       		.uleb128 0x3
 1326 0805 42030000 		.4byte	.LASF117
 1327 0809 12       		.byte	0x12
 1328 080a 3F       		.byte	0x3f
 1329 080b 0F080000 		.4byte	0x80f
 1330 080f 06       		.uleb128 0x6
 1331 0810 B9010000 		.4byte	.LASF118
 1332 0814 24       		.byte	0x24
 1333 0815 12       		.byte	0x12
 1334 0816 4D       		.byte	0x4d
 1335 0817 7C080000 		.4byte	0x87c
 1336 081b 07       		.uleb128 0x7
 1337 081c E2000000 		.4byte	.LASF119
 1338 0820 12       		.byte	0x12
 1339 0821 4E       		.byte	0x4e
 1340 0822 89020000 		.4byte	0x289
 1341 0826 00       		.byte	0
 1342 0827 07       		.uleb128 0x7
 1343 0828 07060000 		.4byte	.LASF120
 1344 082c 12       		.byte	0x12
 1345 082d 4F       		.byte	0x4f
 1346 082e 2C000000 		.4byte	0x2c
 1347 0832 08       		.byte	0x8
 1348 0833 07       		.uleb128 0x7
 1349 0834 55010000 		.4byte	.LASF121
 1350 0838 12       		.byte	0x12
 1351 0839 50       		.byte	0x50
ARM GAS  /tmp/ccu0elQ7.s 			page 25


 1352 083a 9E080000 		.4byte	0x89e
 1353 083e 0C       		.byte	0xc
 1354 083f 07       		.uleb128 0x7
 1355 0840 33070000 		.4byte	.LASF122
 1356 0844 12       		.byte	0x12
 1357 0845 51       		.byte	0x51
 1358 0846 9E080000 		.4byte	0x89e
 1359 084a 10       		.byte	0x10
 1360 084b 07       		.uleb128 0x7
 1361 084c 5E010000 		.4byte	.LASF123
 1362 0850 12       		.byte	0x12
 1363 0851 53       		.byte	0x53
 1364 0852 9E080000 		.4byte	0x89e
 1365 0856 14       		.byte	0x14
 1366 0857 07       		.uleb128 0x7
 1367 0858 3F050000 		.4byte	.LASF124
 1368 085c 12       		.byte	0x12
 1369 085d 54       		.byte	0x54
 1370 085e 9E080000 		.4byte	0x89e
 1371 0862 18       		.byte	0x18
 1372 0863 07       		.uleb128 0x7
 1373 0864 4A070000 		.4byte	.LASF125
 1374 0868 12       		.byte	0x12
 1375 0869 55       		.byte	0x55
 1376 086a 7C080000 		.4byte	0x87c
 1377 086e 1C       		.byte	0x1c
 1378 086f 07       		.uleb128 0x7
 1379 0870 66010000 		.4byte	.LASF126
 1380 0874 12       		.byte	0x12
 1381 0875 56       		.byte	0x56
 1382 0876 3C030000 		.4byte	0x33c
 1383 087a 20       		.byte	0x20
 1384 087b 00       		.byte	0
 1385 087c 03       		.uleb128 0x3
 1386 087d FD020000 		.4byte	.LASF127
 1387 0881 12       		.byte	0x12
 1388 0882 42       		.byte	0x42
 1389 0883 87080000 		.4byte	0x887
 1390 0887 0A       		.uleb128 0xa
 1391 0888 04       		.byte	0x4
 1392 0889 8D080000 		.4byte	0x88d
 1393 088d 0C       		.uleb128 0xc
 1394 088e 98080000 		.4byte	0x898
 1395 0892 0D       		.uleb128 0xd
 1396 0893 98080000 		.4byte	0x898
 1397 0897 00       		.byte	0
 1398 0898 0A       		.uleb128 0xa
 1399 0899 04       		.byte	0x4
 1400 089a 04080000 		.4byte	0x804
 1401 089e 0A       		.uleb128 0xa
 1402 089f 04       		.byte	0x4
 1403 08a0 AD000000 		.4byte	0xad
 1404 08a4 03       		.uleb128 0x3
 1405 08a5 2F030000 		.4byte	.LASF128
 1406 08a9 12       		.byte	0x12
 1407 08aa 64       		.byte	0x64
 1408 08ab 04080000 		.4byte	0x804
ARM GAS  /tmp/ccu0elQ7.s 			page 26


 1409 08af 03       		.uleb128 0x3
 1410 08b0 4D030000 		.4byte	.LASF129
 1411 08b4 12       		.byte	0x12
 1412 08b5 71       		.byte	0x71
 1413 08b6 04080000 		.4byte	0x804
 1414 08ba 19       		.uleb128 0x19
 1415 08bb 2C000000 		.4byte	0x2c
 1416 08bf D3080000 		.4byte	0x8d3
 1417 08c3 0D       		.uleb128 0xd
 1418 08c4 3C030000 		.4byte	0x33c
 1419 08c8 0D       		.uleb128 0xd
 1420 08c9 D3080000 		.4byte	0x8d3
 1421 08cd 0D       		.uleb128 0xd
 1422 08ce 2C000000 		.4byte	0x2c
 1423 08d2 00       		.byte	0
 1424 08d3 0A       		.uleb128 0xa
 1425 08d4 04       		.byte	0x4
 1426 08d5 D9080000 		.4byte	0x8d9
 1427 08d9 16       		.uleb128 0x16
 1428 08da AD000000 		.4byte	0xad
 1429 08de 0A       		.uleb128 0xa
 1430 08df 04       		.byte	0x4
 1431 08e0 BA080000 		.4byte	0x8ba
 1432 08e4 19       		.uleb128 0x19
 1433 08e5 2C000000 		.4byte	0x2c
 1434 08e9 FD080000 		.4byte	0x8fd
 1435 08ed 0D       		.uleb128 0xd
 1436 08ee 3C030000 		.4byte	0x33c
 1437 08f2 0D       		.uleb128 0xd
 1438 08f3 9E080000 		.4byte	0x89e
 1439 08f7 0D       		.uleb128 0xd
 1440 08f8 2C000000 		.4byte	0x2c
 1441 08fc 00       		.byte	0
 1442 08fd 0A       		.uleb128 0xa
 1443 08fe 04       		.byte	0x4
 1444 08ff E4080000 		.4byte	0x8e4
 1445 0903 19       		.uleb128 0x19
 1446 0904 25010000 		.4byte	0x125
 1447 0908 17090000 		.4byte	0x917
 1448 090c 0D       		.uleb128 0xd
 1449 090d 3C030000 		.4byte	0x33c
 1450 0911 0D       		.uleb128 0xd
 1451 0912 AD000000 		.4byte	0xad
 1452 0916 00       		.byte	0
 1453 0917 0A       		.uleb128 0xa
 1454 0918 04       		.byte	0x4
 1455 0919 03090000 		.4byte	0x903
 1456 091d 19       		.uleb128 0x19
 1457 091e 25010000 		.4byte	0x125
 1458 0922 2C090000 		.4byte	0x92c
 1459 0926 0D       		.uleb128 0xd
 1460 0927 3C030000 		.4byte	0x33c
 1461 092b 00       		.byte	0
 1462 092c 0A       		.uleb128 0xa
 1463 092d 04       		.byte	0x4
 1464 092e 1D090000 		.4byte	0x91d
 1465 0932 19       		.uleb128 0x19
ARM GAS  /tmp/ccu0elQ7.s 			page 27


 1466 0933 25010000 		.4byte	0x125
 1467 0937 4B090000 		.4byte	0x94b
 1468 093b 0D       		.uleb128 0xd
 1469 093c 3C030000 		.4byte	0x33c
 1470 0940 0D       		.uleb128 0xd
 1471 0941 AD000000 		.4byte	0xad
 1472 0945 0D       		.uleb128 0xd
 1473 0946 51010000 		.4byte	0x151
 1474 094a 00       		.byte	0
 1475 094b 0A       		.uleb128 0xa
 1476 094c 04       		.byte	0x4
 1477 094d 32090000 		.4byte	0x932
 1478 0951 19       		.uleb128 0x19
 1479 0952 25010000 		.4byte	0x125
 1480 0956 65090000 		.4byte	0x965
 1481 095a 0D       		.uleb128 0xd
 1482 095b 3C030000 		.4byte	0x33c
 1483 095f 0D       		.uleb128 0xd
 1484 0960 51010000 		.4byte	0x151
 1485 0964 00       		.byte	0
 1486 0965 0A       		.uleb128 0xa
 1487 0966 04       		.byte	0x4
 1488 0967 51090000 		.4byte	0x951
 1489 096b 19       		.uleb128 0x19
 1490 096c 2C000000 		.4byte	0x2c
 1491 0970 89090000 		.4byte	0x989
 1492 0974 0D       		.uleb128 0xd
 1493 0975 3C030000 		.4byte	0x33c
 1494 0979 0D       		.uleb128 0xd
 1495 097a D3080000 		.4byte	0x8d3
 1496 097e 0D       		.uleb128 0xd
 1497 097f 2C000000 		.4byte	0x2c
 1498 0983 0D       		.uleb128 0xd
 1499 0984 51010000 		.4byte	0x151
 1500 0988 00       		.byte	0
 1501 0989 0A       		.uleb128 0xa
 1502 098a 04       		.byte	0x4
 1503 098b 6B090000 		.4byte	0x96b
 1504 098f 19       		.uleb128 0x19
 1505 0990 2C000000 		.4byte	0x2c
 1506 0994 AD090000 		.4byte	0x9ad
 1507 0998 0D       		.uleb128 0xd
 1508 0999 3C030000 		.4byte	0x33c
 1509 099d 0D       		.uleb128 0xd
 1510 099e 9E080000 		.4byte	0x89e
 1511 09a2 0D       		.uleb128 0xd
 1512 09a3 2C000000 		.4byte	0x2c
 1513 09a7 0D       		.uleb128 0xd
 1514 09a8 51010000 		.4byte	0x151
 1515 09ac 00       		.byte	0
 1516 09ad 0A       		.uleb128 0xa
 1517 09ae 04       		.byte	0x4
 1518 09af 8F090000 		.4byte	0x98f
 1519 09b3 04       		.uleb128 0x4
 1520 09b4 01       		.byte	0x1
 1521 09b5 02       		.byte	0x2
 1522 09b6 57050000 		.4byte	.LASF130
ARM GAS  /tmp/ccu0elQ7.s 			page 28


 1523 09ba 13       		.uleb128 0x13
 1524 09bb 04       		.byte	0x4
 1525 09bc 13       		.byte	0x13
 1526 09bd B3       		.byte	0xb3
 1527 09be DB090000 		.4byte	0x9db
 1528 09c2 12       		.uleb128 0x12
 1529 09c3 73657400 		.ascii	"set\000"
 1530 09c7 13       		.byte	0x13
 1531 09c8 B4       		.byte	0xb4
 1532 09c9 B8000000 		.4byte	0xb8
 1533 09cd 00       		.byte	0
 1534 09ce 07       		.uleb128 0x7
 1535 09cf 8F070000 		.4byte	.LASF131
 1536 09d3 13       		.byte	0x13
 1537 09d4 B5       		.byte	0xb5
 1538 09d5 B8000000 		.4byte	0xb8
 1539 09d9 02       		.byte	0x2
 1540 09da 00       		.byte	0
 1541 09db 14       		.uleb128 0x14
 1542 09dc 04       		.byte	0x4
 1543 09dd 13       		.byte	0x13
 1544 09de B1       		.byte	0xb1
 1545 09df F6090000 		.4byte	0x9f6
 1546 09e3 1A       		.uleb128 0x1a
 1547 09e4 5700     		.ascii	"W\000"
 1548 09e6 13       		.byte	0x13
 1549 09e7 B2       		.byte	0xb2
 1550 09e8 CE000000 		.4byte	0xce
 1551 09ec 1A       		.uleb128 0x1a
 1552 09ed 4800     		.ascii	"H\000"
 1553 09ef 13       		.byte	0x13
 1554 09f0 B6       		.byte	0xb6
 1555 09f1 BA090000 		.4byte	0x9ba
 1556 09f5 00       		.byte	0
 1557 09f6 13       		.uleb128 0x13
 1558 09f7 2C       		.byte	0x2c
 1559 09f8 13       		.byte	0x13
 1560 09f9 A9       		.byte	0xa9
 1561 09fa 830A0000 		.4byte	0xa83
 1562 09fe 07       		.uleb128 0x7
 1563 09ff 5D000000 		.4byte	.LASF132
 1564 0a03 13       		.byte	0x13
 1565 0a04 AB       		.byte	0xab
 1566 0a05 E9000000 		.4byte	0xe9
 1567 0a09 00       		.byte	0
 1568 0a0a 07       		.uleb128 0x7
 1569 0a0b 2E000000 		.4byte	.LASF133
 1570 0a0f 13       		.byte	0x13
 1571 0a10 AC       		.byte	0xac
 1572 0a11 E9000000 		.4byte	0xe9
 1573 0a15 04       		.byte	0x4
 1574 0a16 07       		.uleb128 0x7
 1575 0a17 7D010000 		.4byte	.LASF134
 1576 0a1b 13       		.byte	0x13
 1577 0a1c AD       		.byte	0xad
 1578 0a1d E9000000 		.4byte	0xe9
 1579 0a21 08       		.byte	0x8
ARM GAS  /tmp/ccu0elQ7.s 			page 29


 1580 0a22 07       		.uleb128 0x7
 1581 0a23 7A000000 		.4byte	.LASF135
 1582 0a27 13       		.byte	0x13
 1583 0a28 AE       		.byte	0xae
 1584 0a29 E9000000 		.4byte	0xe9
 1585 0a2d 0C       		.byte	0xc
 1586 0a2e 12       		.uleb128 0x12
 1587 0a2f 49445200 		.ascii	"IDR\000"
 1588 0a33 13       		.byte	0x13
 1589 0a34 AF       		.byte	0xaf
 1590 0a35 E9000000 		.4byte	0xe9
 1591 0a39 10       		.byte	0x10
 1592 0a3a 12       		.uleb128 0x12
 1593 0a3b 4F445200 		.ascii	"ODR\000"
 1594 0a3f 13       		.byte	0x13
 1595 0a40 B0       		.byte	0xb0
 1596 0a41 E9000000 		.4byte	0xe9
 1597 0a45 14       		.byte	0x14
 1598 0a46 07       		.uleb128 0x7
 1599 0a47 06010000 		.4byte	.LASF136
 1600 0a4b 13       		.byte	0x13
 1601 0a4c B7       		.byte	0xb7
 1602 0a4d 830A0000 		.4byte	0xa83
 1603 0a51 18       		.byte	0x18
 1604 0a52 07       		.uleb128 0x7
 1605 0a53 E0050000 		.4byte	.LASF137
 1606 0a57 13       		.byte	0x13
 1607 0a58 B8       		.byte	0xb8
 1608 0a59 E9000000 		.4byte	0xe9
 1609 0a5d 1C       		.byte	0x1c
 1610 0a5e 07       		.uleb128 0x7
 1611 0a5f 09050000 		.4byte	.LASF138
 1612 0a63 13       		.byte	0x13
 1613 0a64 B9       		.byte	0xb9
 1614 0a65 E9000000 		.4byte	0xe9
 1615 0a69 20       		.byte	0x20
 1616 0a6a 07       		.uleb128 0x7
 1617 0a6b FB040000 		.4byte	.LASF139
 1618 0a6f 13       		.byte	0x13
 1619 0a70 BA       		.byte	0xba
 1620 0a71 E9000000 		.4byte	0xe9
 1621 0a75 24       		.byte	0x24
 1622 0a76 12       		.uleb128 0x12
 1623 0a77 42525200 		.ascii	"BRR\000"
 1624 0a7b 13       		.byte	0x13
 1625 0a7c BB       		.byte	0xbb
 1626 0a7d E9000000 		.4byte	0xe9
 1627 0a81 28       		.byte	0x28
 1628 0a82 00       		.byte	0
 1629 0a83 05       		.uleb128 0x5
 1630 0a84 DB090000 		.4byte	0x9db
 1631 0a88 03       		.uleb128 0x3
 1632 0a89 9E010000 		.4byte	.LASF140
 1633 0a8d 13       		.byte	0x13
 1634 0a8e BC       		.byte	0xbc
 1635 0a8f F6090000 		.4byte	0x9f6
 1636 0a93 11       		.uleb128 0x11
ARM GAS  /tmp/ccu0elQ7.s 			page 30


 1637 0a94 50000000 		.4byte	.LASF141
 1638 0a98 13       		.byte	0x13
 1639 0a99 0E01     		.2byte	0x10e
 1640 0a9b CE000000 		.4byte	0xce
 1641 0a9f 1B       		.uleb128 0x1b
 1642 0aa0 01       		.byte	0x1
 1643 0aa1 14       		.byte	0x14
 1644 0aa2 55       		.byte	0x55
 1645 0aa3 BA0A0000 		.4byte	0xaba
 1646 0aa7 1C       		.uleb128 0x1c
 1647 0aa8 FD050000 		.4byte	.LASF142
 1648 0aac 00       		.sleb128 0
 1649 0aad 1C       		.uleb128 0x1c
 1650 0aae C8050000 		.4byte	.LASF143
 1651 0ab2 01       		.sleb128 1
 1652 0ab3 1C       		.uleb128 0x1c
 1653 0ab4 00050000 		.4byte	.LASF144
 1654 0ab8 02       		.sleb128 2
 1655 0ab9 00       		.byte	0
 1656 0aba 03       		.uleb128 0x3
 1657 0abb 29070000 		.4byte	.LASF145
 1658 0abf 14       		.byte	0x14
 1659 0ac0 59       		.byte	0x59
 1660 0ac1 9F0A0000 		.4byte	0xa9f
 1661 0ac5 03       		.uleb128 0x3
 1662 0ac6 97040000 		.4byte	.LASF146
 1663 0aca 14       		.byte	0x14
 1664 0acb 5E       		.byte	0x5e
 1665 0acc D00A0000 		.4byte	0xad0
 1666 0ad0 06       		.uleb128 0x6
 1667 0ad1 97040000 		.4byte	.LASF146
 1668 0ad5 78       		.byte	0x78
 1669 0ad6 14       		.byte	0x14
 1670 0ad7 78       		.byte	0x78
 1671 0ad8 3B0B0000 		.4byte	0xb3b
 1672 0adc 12       		.uleb128 0x12
 1673 0add 766D7400 		.ascii	"vmt\000"
 1674 0ae1 14       		.byte	0x14
 1675 0ae2 7A       		.byte	0x7a
 1676 0ae3 A80B0000 		.4byte	0xba8
 1677 0ae7 00       		.byte	0
 1678 0ae8 07       		.uleb128 0x7
 1679 0ae9 40020000 		.4byte	.LASF147
 1680 0aed 14       		.byte	0x14
 1681 0aee 7B       		.byte	0x7b
 1682 0aef F9070000 		.4byte	0x7f9
 1683 0af3 04       		.byte	0x4
 1684 0af4 07       		.uleb128 0x7
 1685 0af5 27010000 		.4byte	.LASF148
 1686 0af9 14       		.byte	0x14
 1687 0afa 7B       		.byte	0x7b
 1688 0afb BA0A0000 		.4byte	0xaba
 1689 0aff 08       		.byte	0x8
 1690 0b00 07       		.uleb128 0x7
 1691 0b01 88070000 		.4byte	.LASF149
 1692 0b05 14       		.byte	0x14
 1693 0b06 7B       		.byte	0x7b
ARM GAS  /tmp/ccu0elQ7.s 			page 31


 1694 0b07 A4080000 		.4byte	0x8a4
 1695 0b0b 0C       		.byte	0xc
 1696 0b0c 07       		.uleb128 0x7
 1697 0b0d 73020000 		.4byte	.LASF150
 1698 0b11 14       		.byte	0x14
 1699 0b12 7B       		.byte	0x7b
 1700 0b13 AF080000 		.4byte	0x8af
 1701 0b17 30       		.byte	0x30
 1702 0b18 12       		.uleb128 0x12
 1703 0b19 696200   		.ascii	"ib\000"
 1704 0b1c 14       		.byte	0x14
 1705 0b1d 7B       		.byte	0x7b
 1706 0b1e B30B0000 		.4byte	0xbb3
 1707 0b22 54       		.byte	0x54
 1708 0b23 12       		.uleb128 0x12
 1709 0b24 6F6200   		.ascii	"ob\000"
 1710 0b27 14       		.byte	0x14
 1711 0b28 7B       		.byte	0x7b
 1712 0b29 B30B0000 		.4byte	0xbb3
 1713 0b2d 64       		.byte	0x64
 1714 0b2e 07       		.uleb128 0x7
 1715 0b2f E6010000 		.4byte	.LASF151
 1716 0b33 14       		.byte	0x14
 1717 0b34 7B       		.byte	0x7b
 1718 0b35 C30B0000 		.4byte	0xbc3
 1719 0b39 74       		.byte	0x74
 1720 0b3a 00       		.byte	0
 1721 0b3b 06       		.uleb128 0x6
 1722 0b3c 0A020000 		.4byte	.LASF152
 1723 0b40 20       		.byte	0x20
 1724 0b41 14       		.byte	0x14
 1725 0b42 6D       		.byte	0x6d
 1726 0b43 A80B0000 		.4byte	0xba8
 1727 0b47 07       		.uleb128 0x7
 1728 0b48 29030000 		.4byte	.LASF153
 1729 0b4c 14       		.byte	0x14
 1730 0b4d 6E       		.byte	0x6e
 1731 0b4e DE080000 		.4byte	0x8de
 1732 0b52 00       		.byte	0
 1733 0b53 07       		.uleb128 0x7
 1734 0b54 4C060000 		.4byte	.LASF154
 1735 0b58 14       		.byte	0x14
 1736 0b59 6E       		.byte	0x6e
 1737 0b5a FD080000 		.4byte	0x8fd
 1738 0b5e 04       		.byte	0x4
 1739 0b5f 12       		.uleb128 0x12
 1740 0b60 70757400 		.ascii	"put\000"
 1741 0b64 14       		.byte	0x14
 1742 0b65 6E       		.byte	0x6e
 1743 0b66 17090000 		.4byte	0x917
 1744 0b6a 08       		.byte	0x8
 1745 0b6b 12       		.uleb128 0x12
 1746 0b6c 67657400 		.ascii	"get\000"
 1747 0b70 14       		.byte	0x14
 1748 0b71 6E       		.byte	0x6e
 1749 0b72 2C090000 		.4byte	0x92c
 1750 0b76 0C       		.byte	0xc
ARM GAS  /tmp/ccu0elQ7.s 			page 32


 1751 0b77 07       		.uleb128 0x7
 1752 0b78 3D030000 		.4byte	.LASF155
 1753 0b7c 14       		.byte	0x14
 1754 0b7d 6E       		.byte	0x6e
 1755 0b7e 4B090000 		.4byte	0x94b
 1756 0b82 10       		.byte	0x10
 1757 0b83 07       		.uleb128 0x7
 1758 0b84 35020000 		.4byte	.LASF156
 1759 0b88 14       		.byte	0x14
 1760 0b89 6E       		.byte	0x6e
 1761 0b8a 65090000 		.4byte	0x965
 1762 0b8e 14       		.byte	0x14
 1763 0b8f 07       		.uleb128 0x7
 1764 0b90 BE020000 		.4byte	.LASF157
 1765 0b94 14       		.byte	0x14
 1766 0b95 6E       		.byte	0x6e
 1767 0b96 89090000 		.4byte	0x989
 1768 0b9a 18       		.byte	0x18
 1769 0b9b 07       		.uleb128 0x7
 1770 0b9c DC000000 		.4byte	.LASF158
 1771 0ba0 14       		.byte	0x14
 1772 0ba1 6E       		.byte	0x6e
 1773 0ba2 AD090000 		.4byte	0x9ad
 1774 0ba6 1C       		.byte	0x1c
 1775 0ba7 00       		.byte	0
 1776 0ba8 0A       		.uleb128 0xa
 1777 0ba9 04       		.byte	0x4
 1778 0baa AE0B0000 		.4byte	0xbae
 1779 0bae 16       		.uleb128 0x16
 1780 0baf 3B0B0000 		.4byte	0xb3b
 1781 0bb3 17       		.uleb128 0x17
 1782 0bb4 AD000000 		.4byte	0xad
 1783 0bb8 C30B0000 		.4byte	0xbc3
 1784 0bbc 18       		.uleb128 0x18
 1785 0bbd 72040000 		.4byte	0x472
 1786 0bc1 0F       		.byte	0xf
 1787 0bc2 00       		.byte	0
 1788 0bc3 0A       		.uleb128 0xa
 1789 0bc4 04       		.byte	0x4
 1790 0bc5 DC040000 		.4byte	0x4dc
 1791 0bc9 1D       		.uleb128 0x1d
 1792 0bca AA060000 		.4byte	.LASF169
 1793 0bce 02       		.byte	0x2
 1794 0bcf 2002     		.2byte	0x220
 1795 0bd1 03       		.byte	0x3
 1796 0bd2 E30B0000 		.4byte	0xbe3
 1797 0bd6 1E       		.uleb128 0x1e
 1798 0bd7 B3010000 		.4byte	.LASF170
 1799 0bdb 02       		.byte	0x2
 1800 0bdc 2002     		.2byte	0x220
 1801 0bde CE000000 		.4byte	0xce
 1802 0be2 00       		.byte	0
 1803 0be3 1F       		.uleb128 0x1f
 1804 0be4 D9040000 		.4byte	.LASF171
 1805 0be8 02       		.byte	0x2
 1806 0be9 4901     		.2byte	0x149
 1807 0beb 03       		.byte	0x3
ARM GAS  /tmp/ccu0elQ7.s 			page 33


 1808 0bec 20       		.uleb128 0x20
 1809 0bed E7020000 		.4byte	.LASF161
 1810 0bf1 01       		.byte	0x1
 1811 0bf2 0602     		.2byte	0x206
 1812 0bf4 00000000 		.4byte	.LFB122
 1813 0bf8 12000000 		.4byte	.LFE122-.LFB122
 1814 0bfc 01       		.uleb128 0x1
 1815 0bfd 9C       		.byte	0x9c
 1816 0bfe 300C0000 		.4byte	0xc30
 1817 0c02 21       		.uleb128 0x21
 1818 0c03 C90B0000 		.4byte	0xbc9
 1819 0c07 06000000 		.4byte	.LBB6
 1820 0c0b 06000000 		.4byte	.LBE6-.LBB6
 1821 0c0f 01       		.byte	0x1
 1822 0c10 0902     		.2byte	0x209
 1823 0c12 1F0C0000 		.4byte	0xc1f
 1824 0c16 22       		.uleb128 0x22
 1825 0c17 D60B0000 		.4byte	0xbd6
 1826 0c1b 02       		.uleb128 0x2
 1827 0c1c 91       		.byte	0x91
 1828 0c1d 7C       		.sleb128 -4
 1829 0c1e 00       		.byte	0
 1830 0c1f 23       		.uleb128 0x23
 1831 0c20 E30B0000 		.4byte	0xbe3
 1832 0c24 0C000000 		.4byte	.LBB8
 1833 0c28 02000000 		.4byte	.LBE8-.LBB8
 1834 0c2c 01       		.byte	0x1
 1835 0c2d 0B02     		.2byte	0x20b
 1836 0c2f 00       		.byte	0
 1837 0c30 24       		.uleb128 0x24
 1838 0c31 49010000 		.4byte	.LASF159
 1839 0c35 03       		.byte	0x3
 1840 0c36 4F01     		.2byte	0x14f
 1841 0c38 00000000 		.4byte	.LFB144
 1842 0c3c 08000000 		.4byte	.LFE144-.LFB144
 1843 0c40 01       		.uleb128 0x1
 1844 0c41 9C       		.byte	0x9c
 1845 0c42 24       		.uleb128 0x24
 1846 0c43 AB070000 		.4byte	.LASF160
 1847 0c47 04       		.byte	0x4
 1848 0c48 B201     		.2byte	0x1b2
 1849 0c4a 00000000 		.4byte	.LFB219
 1850 0c4e 08000000 		.4byte	.LFE219-.LFB219
 1851 0c52 01       		.uleb128 0x1
 1852 0c53 9C       		.byte	0x9c
 1853 0c54 25       		.uleb128 0x25
 1854 0c55 56060000 		.4byte	.LASF162
 1855 0c59 04       		.byte	0x4
 1856 0c5a 7102     		.2byte	0x271
 1857 0c5c 00000000 		.4byte	.LFB232
 1858 0c60 12000000 		.4byte	.LFE232-.LFB232
 1859 0c64 01       		.uleb128 0x1
 1860 0c65 9C       		.byte	0x9c
 1861 0c66 7A0C0000 		.4byte	0xc7a
 1862 0c6a 26       		.uleb128 0x26
 1863 0c6b 07070000 		.4byte	.LASF164
 1864 0c6f 04       		.byte	0x4
ARM GAS  /tmp/ccu0elQ7.s 			page 34


 1865 0c70 7102     		.2byte	0x271
 1866 0c72 51010000 		.4byte	0x151
 1867 0c76 02       		.uleb128 0x2
 1868 0c77 91       		.byte	0x91
 1869 0c78 74       		.sleb128 -12
 1870 0c79 00       		.byte	0
 1871 0c7a 27       		.uleb128 0x27
 1872 0c7b 12030000 		.4byte	.LASF163
 1873 0c7f 05       		.byte	0x5
 1874 0c80 1E       		.byte	0x1e
 1875 0c81 00000000 		.4byte	.LFB253
 1876 0c85 3C000000 		.4byte	.LFE253-.LFB253
 1877 0c89 01       		.uleb128 0x1
 1878 0c8a 9C       		.byte	0x9c
 1879 0c8b 9E0C0000 		.4byte	0xc9e
 1880 0c8f 28       		.uleb128 0x28
 1881 0c90 61726700 		.ascii	"arg\000"
 1882 0c94 05       		.byte	0x5
 1883 0c95 1E       		.byte	0x1e
 1884 0c96 3C030000 		.4byte	0x33c
 1885 0c9a 02       		.uleb128 0x2
 1886 0c9b 91       		.byte	0x91
 1887 0c9c 74       		.sleb128 -12
 1888 0c9d 00       		.byte	0
 1889 0c9e 29       		.uleb128 0x29
 1890 0c9f B7000000 		.4byte	.LASF172
 1891 0ca3 05       		.byte	0x5
 1892 0ca4 2D       		.byte	0x2d
 1893 0ca5 00000000 		.4byte	.LFB254
 1894 0ca9 24000000 		.4byte	.LFE254-.LFB254
 1895 0cad 01       		.uleb128 0x1
 1896 0cae 9C       		.byte	0x9c
 1897 0caf 2A       		.uleb128 0x2a
 1898 0cb0 A6070000 		.4byte	.LASF173
 1899 0cb4 05       		.byte	0x5
 1900 0cb5 32       		.byte	0x32
 1901 0cb6 25000000 		.4byte	0x25
 1902 0cba 00000000 		.4byte	.LFB255
 1903 0cbe 78000000 		.4byte	.LFE255-.LFB255
 1904 0cc2 01       		.uleb128 0x1
 1905 0cc3 9C       		.byte	0x9c
 1906 0cc4 17       		.uleb128 0x17
 1907 0cc5 F3040000 		.4byte	0x4f3
 1908 0cc9 D40C0000 		.4byte	0xcd4
 1909 0ccd 18       		.uleb128 0x18
 1910 0cce 72040000 		.4byte	0x472
 1911 0cd2 39       		.byte	0x39
 1912 0cd3 00       		.byte	0
 1913 0cd4 2B       		.uleb128 0x2b
 1914 0cd5 0E050000 		.4byte	.LASF174
 1915 0cd9 05       		.byte	0x5
 1916 0cda 1D       		.byte	0x1d
 1917 0cdb C40C0000 		.4byte	0xcc4
 1918 0cdf 05       		.uleb128 0x5
 1919 0ce0 03       		.byte	0x3
 1920 0ce1 00000000 		.4byte	waThread1
 1921 0ce5 2C       		.uleb128 0x2c
ARM GAS  /tmp/ccu0elQ7.s 			page 35


 1922 0ce6 AA000000 		.4byte	.LASF165
 1923 0cea 16       		.byte	0x16
 1924 0ceb A706     		.2byte	0x6a7
 1925 0ced E4000000 		.4byte	0xe4
 1926 0cf1 2D       		.uleb128 0x2d
 1927 0cf2 636800   		.ascii	"ch\000"
 1928 0cf5 0B       		.byte	0xb
 1929 0cf6 0902     		.2byte	0x209
 1930 0cf8 0B040000 		.4byte	0x40b
 1931 0cfc 2D       		.uleb128 0x2d
 1932 0cfd 53443200 		.ascii	"SD2\000"
 1933 0d01 15       		.byte	0x15
 1934 0d02 1201     		.2byte	0x112
 1935 0d04 C50A0000 		.4byte	0xac5
 1936 0d08 00       		.byte	0
 1937              		.section	.debug_abbrev,"",%progbits
 1938              	.Ldebug_abbrev0:
 1939 0000 01       		.uleb128 0x1
 1940 0001 11       		.uleb128 0x11
 1941 0002 01       		.byte	0x1
 1942 0003 25       		.uleb128 0x25
 1943 0004 0E       		.uleb128 0xe
 1944 0005 13       		.uleb128 0x13
 1945 0006 0B       		.uleb128 0xb
 1946 0007 03       		.uleb128 0x3
 1947 0008 0E       		.uleb128 0xe
 1948 0009 1B       		.uleb128 0x1b
 1949 000a 0E       		.uleb128 0xe
 1950 000b 55       		.uleb128 0x55
 1951 000c 17       		.uleb128 0x17
 1952 000d 11       		.uleb128 0x11
 1953 000e 01       		.uleb128 0x1
 1954 000f 10       		.uleb128 0x10
 1955 0010 17       		.uleb128 0x17
 1956 0011 00       		.byte	0
 1957 0012 00       		.byte	0
 1958 0013 02       		.uleb128 0x2
 1959 0014 24       		.uleb128 0x24
 1960 0015 00       		.byte	0
 1961 0016 0B       		.uleb128 0xb
 1962 0017 0B       		.uleb128 0xb
 1963 0018 3E       		.uleb128 0x3e
 1964 0019 0B       		.uleb128 0xb
 1965 001a 03       		.uleb128 0x3
 1966 001b 08       		.uleb128 0x8
 1967 001c 00       		.byte	0
 1968 001d 00       		.byte	0
 1969 001e 03       		.uleb128 0x3
 1970 001f 16       		.uleb128 0x16
 1971 0020 00       		.byte	0
 1972 0021 03       		.uleb128 0x3
 1973 0022 0E       		.uleb128 0xe
 1974 0023 3A       		.uleb128 0x3a
 1975 0024 0B       		.uleb128 0xb
 1976 0025 3B       		.uleb128 0x3b
 1977 0026 0B       		.uleb128 0xb
 1978 0027 49       		.uleb128 0x49
ARM GAS  /tmp/ccu0elQ7.s 			page 36


 1979 0028 13       		.uleb128 0x13
 1980 0029 00       		.byte	0
 1981 002a 00       		.byte	0
 1982 002b 04       		.uleb128 0x4
 1983 002c 24       		.uleb128 0x24
 1984 002d 00       		.byte	0
 1985 002e 0B       		.uleb128 0xb
 1986 002f 0B       		.uleb128 0xb
 1987 0030 3E       		.uleb128 0x3e
 1988 0031 0B       		.uleb128 0xb
 1989 0032 03       		.uleb128 0x3
 1990 0033 0E       		.uleb128 0xe
 1991 0034 00       		.byte	0
 1992 0035 00       		.byte	0
 1993 0036 05       		.uleb128 0x5
 1994 0037 35       		.uleb128 0x35
 1995 0038 00       		.byte	0
 1996 0039 49       		.uleb128 0x49
 1997 003a 13       		.uleb128 0x13
 1998 003b 00       		.byte	0
 1999 003c 00       		.byte	0
 2000 003d 06       		.uleb128 0x6
 2001 003e 13       		.uleb128 0x13
 2002 003f 01       		.byte	0x1
 2003 0040 03       		.uleb128 0x3
 2004 0041 0E       		.uleb128 0xe
 2005 0042 0B       		.uleb128 0xb
 2006 0043 0B       		.uleb128 0xb
 2007 0044 3A       		.uleb128 0x3a
 2008 0045 0B       		.uleb128 0xb
 2009 0046 3B       		.uleb128 0x3b
 2010 0047 0B       		.uleb128 0xb
 2011 0048 01       		.uleb128 0x1
 2012 0049 13       		.uleb128 0x13
 2013 004a 00       		.byte	0
 2014 004b 00       		.byte	0
 2015 004c 07       		.uleb128 0x7
 2016 004d 0D       		.uleb128 0xd
 2017 004e 00       		.byte	0
 2018 004f 03       		.uleb128 0x3
 2019 0050 0E       		.uleb128 0xe
 2020 0051 3A       		.uleb128 0x3a
 2021 0052 0B       		.uleb128 0xb
 2022 0053 3B       		.uleb128 0x3b
 2023 0054 0B       		.uleb128 0xb
 2024 0055 49       		.uleb128 0x49
 2025 0056 13       		.uleb128 0x13
 2026 0057 38       		.uleb128 0x38
 2027 0058 0B       		.uleb128 0xb
 2028 0059 00       		.byte	0
 2029 005a 00       		.byte	0
 2030 005b 08       		.uleb128 0x8
 2031 005c 0D       		.uleb128 0xd
 2032 005d 00       		.byte	0
 2033 005e 03       		.uleb128 0x3
 2034 005f 08       		.uleb128 0x8
 2035 0060 3A       		.uleb128 0x3a
ARM GAS  /tmp/ccu0elQ7.s 			page 37


 2036 0061 0B       		.uleb128 0xb
 2037 0062 3B       		.uleb128 0x3b
 2038 0063 05       		.uleb128 0x5
 2039 0064 49       		.uleb128 0x49
 2040 0065 13       		.uleb128 0x13
 2041 0066 38       		.uleb128 0x38
 2042 0067 0B       		.uleb128 0xb
 2043 0068 00       		.byte	0
 2044 0069 00       		.byte	0
 2045 006a 09       		.uleb128 0x9
 2046 006b 0D       		.uleb128 0xd
 2047 006c 00       		.byte	0
 2048 006d 03       		.uleb128 0x3
 2049 006e 0E       		.uleb128 0xe
 2050 006f 3A       		.uleb128 0x3a
 2051 0070 0B       		.uleb128 0xb
 2052 0071 3B       		.uleb128 0x3b
 2053 0072 05       		.uleb128 0x5
 2054 0073 49       		.uleb128 0x49
 2055 0074 13       		.uleb128 0x13
 2056 0075 38       		.uleb128 0x38
 2057 0076 0B       		.uleb128 0xb
 2058 0077 00       		.byte	0
 2059 0078 00       		.byte	0
 2060 0079 0A       		.uleb128 0xa
 2061 007a 0F       		.uleb128 0xf
 2062 007b 00       		.byte	0
 2063 007c 0B       		.uleb128 0xb
 2064 007d 0B       		.uleb128 0xb
 2065 007e 49       		.uleb128 0x49
 2066 007f 13       		.uleb128 0x13
 2067 0080 00       		.byte	0
 2068 0081 00       		.byte	0
 2069 0082 0B       		.uleb128 0xb
 2070 0083 13       		.uleb128 0x13
 2071 0084 01       		.byte	0x1
 2072 0085 03       		.uleb128 0x3
 2073 0086 0E       		.uleb128 0xe
 2074 0087 0B       		.uleb128 0xb
 2075 0088 0B       		.uleb128 0xb
 2076 0089 3A       		.uleb128 0x3a
 2077 008a 0B       		.uleb128 0xb
 2078 008b 3B       		.uleb128 0x3b
 2079 008c 05       		.uleb128 0x5
 2080 008d 01       		.uleb128 0x1
 2081 008e 13       		.uleb128 0x13
 2082 008f 00       		.byte	0
 2083 0090 00       		.byte	0
 2084 0091 0C       		.uleb128 0xc
 2085 0092 15       		.uleb128 0x15
 2086 0093 01       		.byte	0x1
 2087 0094 27       		.uleb128 0x27
 2088 0095 19       		.uleb128 0x19
 2089 0096 01       		.uleb128 0x1
 2090 0097 13       		.uleb128 0x13
 2091 0098 00       		.byte	0
 2092 0099 00       		.byte	0
ARM GAS  /tmp/ccu0elQ7.s 			page 38


 2093 009a 0D       		.uleb128 0xd
 2094 009b 05       		.uleb128 0x5
 2095 009c 00       		.byte	0
 2096 009d 49       		.uleb128 0x49
 2097 009e 13       		.uleb128 0x13
 2098 009f 00       		.byte	0
 2099 00a0 00       		.byte	0
 2100 00a1 0E       		.uleb128 0xe
 2101 00a2 0F       		.uleb128 0xf
 2102 00a3 00       		.byte	0
 2103 00a4 0B       		.uleb128 0xb
 2104 00a5 0B       		.uleb128 0xb
 2105 00a6 00       		.byte	0
 2106 00a7 00       		.byte	0
 2107 00a8 0F       		.uleb128 0xf
 2108 00a9 13       		.uleb128 0x13
 2109 00aa 01       		.byte	0x1
 2110 00ab 03       		.uleb128 0x3
 2111 00ac 0E       		.uleb128 0xe
 2112 00ad 0B       		.uleb128 0xb
 2113 00ae 05       		.uleb128 0x5
 2114 00af 3A       		.uleb128 0x3a
 2115 00b0 0B       		.uleb128 0xb
 2116 00b1 3B       		.uleb128 0x3b
 2117 00b2 05       		.uleb128 0x5
 2118 00b3 01       		.uleb128 0x1
 2119 00b4 13       		.uleb128 0x13
 2120 00b5 00       		.byte	0
 2121 00b6 00       		.byte	0
 2122 00b7 10       		.uleb128 0x10
 2123 00b8 13       		.uleb128 0x13
 2124 00b9 01       		.byte	0x1
 2125 00ba 0B       		.uleb128 0xb
 2126 00bb 0B       		.uleb128 0xb
 2127 00bc 3A       		.uleb128 0x3a
 2128 00bd 0B       		.uleb128 0xb
 2129 00be 3B       		.uleb128 0x3b
 2130 00bf 05       		.uleb128 0x5
 2131 00c0 01       		.uleb128 0x1
 2132 00c1 13       		.uleb128 0x13
 2133 00c2 00       		.byte	0
 2134 00c3 00       		.byte	0
 2135 00c4 11       		.uleb128 0x11
 2136 00c5 16       		.uleb128 0x16
 2137 00c6 00       		.byte	0
 2138 00c7 03       		.uleb128 0x3
 2139 00c8 0E       		.uleb128 0xe
 2140 00c9 3A       		.uleb128 0x3a
 2141 00ca 0B       		.uleb128 0xb
 2142 00cb 3B       		.uleb128 0x3b
 2143 00cc 05       		.uleb128 0x5
 2144 00cd 49       		.uleb128 0x49
 2145 00ce 13       		.uleb128 0x13
 2146 00cf 00       		.byte	0
 2147 00d0 00       		.byte	0
 2148 00d1 12       		.uleb128 0x12
 2149 00d2 0D       		.uleb128 0xd
ARM GAS  /tmp/ccu0elQ7.s 			page 39


 2150 00d3 00       		.byte	0
 2151 00d4 03       		.uleb128 0x3
 2152 00d5 08       		.uleb128 0x8
 2153 00d6 3A       		.uleb128 0x3a
 2154 00d7 0B       		.uleb128 0xb
 2155 00d8 3B       		.uleb128 0x3b
 2156 00d9 0B       		.uleb128 0xb
 2157 00da 49       		.uleb128 0x49
 2158 00db 13       		.uleb128 0x13
 2159 00dc 38       		.uleb128 0x38
 2160 00dd 0B       		.uleb128 0xb
 2161 00de 00       		.byte	0
 2162 00df 00       		.byte	0
 2163 00e0 13       		.uleb128 0x13
 2164 00e1 13       		.uleb128 0x13
 2165 00e2 01       		.byte	0x1
 2166 00e3 0B       		.uleb128 0xb
 2167 00e4 0B       		.uleb128 0xb
 2168 00e5 3A       		.uleb128 0x3a
 2169 00e6 0B       		.uleb128 0xb
 2170 00e7 3B       		.uleb128 0x3b
 2171 00e8 0B       		.uleb128 0xb
 2172 00e9 01       		.uleb128 0x1
 2173 00ea 13       		.uleb128 0x13
 2174 00eb 00       		.byte	0
 2175 00ec 00       		.byte	0
 2176 00ed 14       		.uleb128 0x14
 2177 00ee 17       		.uleb128 0x17
 2178 00ef 01       		.byte	0x1
 2179 00f0 0B       		.uleb128 0xb
 2180 00f1 0B       		.uleb128 0xb
 2181 00f2 3A       		.uleb128 0x3a
 2182 00f3 0B       		.uleb128 0xb
 2183 00f4 3B       		.uleb128 0x3b
 2184 00f5 0B       		.uleb128 0xb
 2185 00f6 01       		.uleb128 0x1
 2186 00f7 13       		.uleb128 0x13
 2187 00f8 00       		.byte	0
 2188 00f9 00       		.byte	0
 2189 00fa 15       		.uleb128 0x15
 2190 00fb 0D       		.uleb128 0xd
 2191 00fc 00       		.byte	0
 2192 00fd 03       		.uleb128 0x3
 2193 00fe 0E       		.uleb128 0xe
 2194 00ff 3A       		.uleb128 0x3a
 2195 0100 0B       		.uleb128 0xb
 2196 0101 3B       		.uleb128 0x3b
 2197 0102 05       		.uleb128 0x5
 2198 0103 49       		.uleb128 0x49
 2199 0104 13       		.uleb128 0x13
 2200 0105 00       		.byte	0
 2201 0106 00       		.byte	0
 2202 0107 16       		.uleb128 0x16
 2203 0108 26       		.uleb128 0x26
 2204 0109 00       		.byte	0
 2205 010a 49       		.uleb128 0x49
 2206 010b 13       		.uleb128 0x13
ARM GAS  /tmp/ccu0elQ7.s 			page 40


 2207 010c 00       		.byte	0
 2208 010d 00       		.byte	0
 2209 010e 17       		.uleb128 0x17
 2210 010f 01       		.uleb128 0x1
 2211 0110 01       		.byte	0x1
 2212 0111 49       		.uleb128 0x49
 2213 0112 13       		.uleb128 0x13
 2214 0113 01       		.uleb128 0x1
 2215 0114 13       		.uleb128 0x13
 2216 0115 00       		.byte	0
 2217 0116 00       		.byte	0
 2218 0117 18       		.uleb128 0x18
 2219 0118 21       		.uleb128 0x21
 2220 0119 00       		.byte	0
 2221 011a 49       		.uleb128 0x49
 2222 011b 13       		.uleb128 0x13
 2223 011c 2F       		.uleb128 0x2f
 2224 011d 0B       		.uleb128 0xb
 2225 011e 00       		.byte	0
 2226 011f 00       		.byte	0
 2227 0120 19       		.uleb128 0x19
 2228 0121 15       		.uleb128 0x15
 2229 0122 01       		.byte	0x1
 2230 0123 27       		.uleb128 0x27
 2231 0124 19       		.uleb128 0x19
 2232 0125 49       		.uleb128 0x49
 2233 0126 13       		.uleb128 0x13
 2234 0127 01       		.uleb128 0x1
 2235 0128 13       		.uleb128 0x13
 2236 0129 00       		.byte	0
 2237 012a 00       		.byte	0
 2238 012b 1A       		.uleb128 0x1a
 2239 012c 0D       		.uleb128 0xd
 2240 012d 00       		.byte	0
 2241 012e 03       		.uleb128 0x3
 2242 012f 08       		.uleb128 0x8
 2243 0130 3A       		.uleb128 0x3a
 2244 0131 0B       		.uleb128 0xb
 2245 0132 3B       		.uleb128 0x3b
 2246 0133 0B       		.uleb128 0xb
 2247 0134 49       		.uleb128 0x49
 2248 0135 13       		.uleb128 0x13
 2249 0136 00       		.byte	0
 2250 0137 00       		.byte	0
 2251 0138 1B       		.uleb128 0x1b
 2252 0139 04       		.uleb128 0x4
 2253 013a 01       		.byte	0x1
 2254 013b 0B       		.uleb128 0xb
 2255 013c 0B       		.uleb128 0xb
 2256 013d 3A       		.uleb128 0x3a
 2257 013e 0B       		.uleb128 0xb
 2258 013f 3B       		.uleb128 0x3b
 2259 0140 0B       		.uleb128 0xb
 2260 0141 01       		.uleb128 0x1
 2261 0142 13       		.uleb128 0x13
 2262 0143 00       		.byte	0
 2263 0144 00       		.byte	0
ARM GAS  /tmp/ccu0elQ7.s 			page 41


 2264 0145 1C       		.uleb128 0x1c
 2265 0146 28       		.uleb128 0x28
 2266 0147 00       		.byte	0
 2267 0148 03       		.uleb128 0x3
 2268 0149 0E       		.uleb128 0xe
 2269 014a 1C       		.uleb128 0x1c
 2270 014b 0D       		.uleb128 0xd
 2271 014c 00       		.byte	0
 2272 014d 00       		.byte	0
 2273 014e 1D       		.uleb128 0x1d
 2274 014f 2E       		.uleb128 0x2e
 2275 0150 01       		.byte	0x1
 2276 0151 03       		.uleb128 0x3
 2277 0152 0E       		.uleb128 0xe
 2278 0153 3A       		.uleb128 0x3a
 2279 0154 0B       		.uleb128 0xb
 2280 0155 3B       		.uleb128 0x3b
 2281 0156 05       		.uleb128 0x5
 2282 0157 27       		.uleb128 0x27
 2283 0158 19       		.uleb128 0x19
 2284 0159 20       		.uleb128 0x20
 2285 015a 0B       		.uleb128 0xb
 2286 015b 01       		.uleb128 0x1
 2287 015c 13       		.uleb128 0x13
 2288 015d 00       		.byte	0
 2289 015e 00       		.byte	0
 2290 015f 1E       		.uleb128 0x1e
 2291 0160 05       		.uleb128 0x5
 2292 0161 00       		.byte	0
 2293 0162 03       		.uleb128 0x3
 2294 0163 0E       		.uleb128 0xe
 2295 0164 3A       		.uleb128 0x3a
 2296 0165 0B       		.uleb128 0xb
 2297 0166 3B       		.uleb128 0x3b
 2298 0167 05       		.uleb128 0x5
 2299 0168 49       		.uleb128 0x49
 2300 0169 13       		.uleb128 0x13
 2301 016a 00       		.byte	0
 2302 016b 00       		.byte	0
 2303 016c 1F       		.uleb128 0x1f
 2304 016d 2E       		.uleb128 0x2e
 2305 016e 00       		.byte	0
 2306 016f 03       		.uleb128 0x3
 2307 0170 0E       		.uleb128 0xe
 2308 0171 3A       		.uleb128 0x3a
 2309 0172 0B       		.uleb128 0xb
 2310 0173 3B       		.uleb128 0x3b
 2311 0174 05       		.uleb128 0x5
 2312 0175 27       		.uleb128 0x27
 2313 0176 19       		.uleb128 0x19
 2314 0177 20       		.uleb128 0x20
 2315 0178 0B       		.uleb128 0xb
 2316 0179 00       		.byte	0
 2317 017a 00       		.byte	0
 2318 017b 20       		.uleb128 0x20
 2319 017c 2E       		.uleb128 0x2e
 2320 017d 01       		.byte	0x1
ARM GAS  /tmp/ccu0elQ7.s 			page 42


 2321 017e 03       		.uleb128 0x3
 2322 017f 0E       		.uleb128 0xe
 2323 0180 3A       		.uleb128 0x3a
 2324 0181 0B       		.uleb128 0xb
 2325 0182 3B       		.uleb128 0x3b
 2326 0183 05       		.uleb128 0x5
 2327 0184 27       		.uleb128 0x27
 2328 0185 19       		.uleb128 0x19
 2329 0186 11       		.uleb128 0x11
 2330 0187 01       		.uleb128 0x1
 2331 0188 12       		.uleb128 0x12
 2332 0189 06       		.uleb128 0x6
 2333 018a 40       		.uleb128 0x40
 2334 018b 18       		.uleb128 0x18
 2335 018c 9742     		.uleb128 0x2117
 2336 018e 19       		.uleb128 0x19
 2337 018f 01       		.uleb128 0x1
 2338 0190 13       		.uleb128 0x13
 2339 0191 00       		.byte	0
 2340 0192 00       		.byte	0
 2341 0193 21       		.uleb128 0x21
 2342 0194 1D       		.uleb128 0x1d
 2343 0195 01       		.byte	0x1
 2344 0196 31       		.uleb128 0x31
 2345 0197 13       		.uleb128 0x13
 2346 0198 11       		.uleb128 0x11
 2347 0199 01       		.uleb128 0x1
 2348 019a 12       		.uleb128 0x12
 2349 019b 06       		.uleb128 0x6
 2350 019c 58       		.uleb128 0x58
 2351 019d 0B       		.uleb128 0xb
 2352 019e 59       		.uleb128 0x59
 2353 019f 05       		.uleb128 0x5
 2354 01a0 01       		.uleb128 0x1
 2355 01a1 13       		.uleb128 0x13
 2356 01a2 00       		.byte	0
 2357 01a3 00       		.byte	0
 2358 01a4 22       		.uleb128 0x22
 2359 01a5 05       		.uleb128 0x5
 2360 01a6 00       		.byte	0
 2361 01a7 31       		.uleb128 0x31
 2362 01a8 13       		.uleb128 0x13
 2363 01a9 02       		.uleb128 0x2
 2364 01aa 18       		.uleb128 0x18
 2365 01ab 00       		.byte	0
 2366 01ac 00       		.byte	0
 2367 01ad 23       		.uleb128 0x23
 2368 01ae 1D       		.uleb128 0x1d
 2369 01af 00       		.byte	0
 2370 01b0 31       		.uleb128 0x31
 2371 01b1 13       		.uleb128 0x13
 2372 01b2 11       		.uleb128 0x11
 2373 01b3 01       		.uleb128 0x1
 2374 01b4 12       		.uleb128 0x12
 2375 01b5 06       		.uleb128 0x6
 2376 01b6 58       		.uleb128 0x58
 2377 01b7 0B       		.uleb128 0xb
ARM GAS  /tmp/ccu0elQ7.s 			page 43


 2378 01b8 59       		.uleb128 0x59
 2379 01b9 05       		.uleb128 0x5
 2380 01ba 00       		.byte	0
 2381 01bb 00       		.byte	0
 2382 01bc 24       		.uleb128 0x24
 2383 01bd 2E       		.uleb128 0x2e
 2384 01be 00       		.byte	0
 2385 01bf 03       		.uleb128 0x3
 2386 01c0 0E       		.uleb128 0xe
 2387 01c1 3A       		.uleb128 0x3a
 2388 01c2 0B       		.uleb128 0xb
 2389 01c3 3B       		.uleb128 0x3b
 2390 01c4 05       		.uleb128 0x5
 2391 01c5 27       		.uleb128 0x27
 2392 01c6 19       		.uleb128 0x19
 2393 01c7 11       		.uleb128 0x11
 2394 01c8 01       		.uleb128 0x1
 2395 01c9 12       		.uleb128 0x12
 2396 01ca 06       		.uleb128 0x6
 2397 01cb 40       		.uleb128 0x40
 2398 01cc 18       		.uleb128 0x18
 2399 01cd 9642     		.uleb128 0x2116
 2400 01cf 19       		.uleb128 0x19
 2401 01d0 00       		.byte	0
 2402 01d1 00       		.byte	0
 2403 01d2 25       		.uleb128 0x25
 2404 01d3 2E       		.uleb128 0x2e
 2405 01d4 01       		.byte	0x1
 2406 01d5 03       		.uleb128 0x3
 2407 01d6 0E       		.uleb128 0xe
 2408 01d7 3A       		.uleb128 0x3a
 2409 01d8 0B       		.uleb128 0xb
 2410 01d9 3B       		.uleb128 0x3b
 2411 01da 05       		.uleb128 0x5
 2412 01db 27       		.uleb128 0x27
 2413 01dc 19       		.uleb128 0x19
 2414 01dd 11       		.uleb128 0x11
 2415 01de 01       		.uleb128 0x1
 2416 01df 12       		.uleb128 0x12
 2417 01e0 06       		.uleb128 0x6
 2418 01e1 40       		.uleb128 0x40
 2419 01e2 18       		.uleb128 0x18
 2420 01e3 9642     		.uleb128 0x2116
 2421 01e5 19       		.uleb128 0x19
 2422 01e6 01       		.uleb128 0x1
 2423 01e7 13       		.uleb128 0x13
 2424 01e8 00       		.byte	0
 2425 01e9 00       		.byte	0
 2426 01ea 26       		.uleb128 0x26
 2427 01eb 05       		.uleb128 0x5
 2428 01ec 00       		.byte	0
 2429 01ed 03       		.uleb128 0x3
 2430 01ee 0E       		.uleb128 0xe
 2431 01ef 3A       		.uleb128 0x3a
 2432 01f0 0B       		.uleb128 0xb
 2433 01f1 3B       		.uleb128 0x3b
 2434 01f2 05       		.uleb128 0x5
ARM GAS  /tmp/ccu0elQ7.s 			page 44


 2435 01f3 49       		.uleb128 0x49
 2436 01f4 13       		.uleb128 0x13
 2437 01f5 02       		.uleb128 0x2
 2438 01f6 18       		.uleb128 0x18
 2439 01f7 00       		.byte	0
 2440 01f8 00       		.byte	0
 2441 01f9 27       		.uleb128 0x27
 2442 01fa 2E       		.uleb128 0x2e
 2443 01fb 01       		.byte	0x1
 2444 01fc 03       		.uleb128 0x3
 2445 01fd 0E       		.uleb128 0xe
 2446 01fe 3A       		.uleb128 0x3a
 2447 01ff 0B       		.uleb128 0xb
 2448 0200 3B       		.uleb128 0x3b
 2449 0201 0B       		.uleb128 0xb
 2450 0202 27       		.uleb128 0x27
 2451 0203 19       		.uleb128 0x19
 2452 0204 11       		.uleb128 0x11
 2453 0205 01       		.uleb128 0x1
 2454 0206 12       		.uleb128 0x12
 2455 0207 06       		.uleb128 0x6
 2456 0208 40       		.uleb128 0x40
 2457 0209 18       		.uleb128 0x18
 2458 020a 9642     		.uleb128 0x2116
 2459 020c 19       		.uleb128 0x19
 2460 020d 01       		.uleb128 0x1
 2461 020e 13       		.uleb128 0x13
 2462 020f 00       		.byte	0
 2463 0210 00       		.byte	0
 2464 0211 28       		.uleb128 0x28
 2465 0212 05       		.uleb128 0x5
 2466 0213 00       		.byte	0
 2467 0214 03       		.uleb128 0x3
 2468 0215 08       		.uleb128 0x8
 2469 0216 3A       		.uleb128 0x3a
 2470 0217 0B       		.uleb128 0xb
 2471 0218 3B       		.uleb128 0x3b
 2472 0219 0B       		.uleb128 0xb
 2473 021a 49       		.uleb128 0x49
 2474 021b 13       		.uleb128 0x13
 2475 021c 02       		.uleb128 0x2
 2476 021d 18       		.uleb128 0x18
 2477 021e 00       		.byte	0
 2478 021f 00       		.byte	0
 2479 0220 29       		.uleb128 0x29
 2480 0221 2E       		.uleb128 0x2e
 2481 0222 00       		.byte	0
 2482 0223 3F       		.uleb128 0x3f
 2483 0224 19       		.uleb128 0x19
 2484 0225 03       		.uleb128 0x3
 2485 0226 0E       		.uleb128 0xe
 2486 0227 3A       		.uleb128 0x3a
 2487 0228 0B       		.uleb128 0xb
 2488 0229 3B       		.uleb128 0x3b
 2489 022a 0B       		.uleb128 0xb
 2490 022b 27       		.uleb128 0x27
 2491 022c 19       		.uleb128 0x19
ARM GAS  /tmp/ccu0elQ7.s 			page 45


 2492 022d 11       		.uleb128 0x11
 2493 022e 01       		.uleb128 0x1
 2494 022f 12       		.uleb128 0x12
 2495 0230 06       		.uleb128 0x6
 2496 0231 40       		.uleb128 0x40
 2497 0232 18       		.uleb128 0x18
 2498 0233 9642     		.uleb128 0x2116
 2499 0235 19       		.uleb128 0x19
 2500 0236 00       		.byte	0
 2501 0237 00       		.byte	0
 2502 0238 2A       		.uleb128 0x2a
 2503 0239 2E       		.uleb128 0x2e
 2504 023a 00       		.byte	0
 2505 023b 3F       		.uleb128 0x3f
 2506 023c 19       		.uleb128 0x19
 2507 023d 03       		.uleb128 0x3
 2508 023e 0E       		.uleb128 0xe
 2509 023f 3A       		.uleb128 0x3a
 2510 0240 0B       		.uleb128 0xb
 2511 0241 3B       		.uleb128 0x3b
 2512 0242 0B       		.uleb128 0xb
 2513 0243 27       		.uleb128 0x27
 2514 0244 19       		.uleb128 0x19
 2515 0245 49       		.uleb128 0x49
 2516 0246 13       		.uleb128 0x13
 2517 0247 11       		.uleb128 0x11
 2518 0248 01       		.uleb128 0x1
 2519 0249 12       		.uleb128 0x12
 2520 024a 06       		.uleb128 0x6
 2521 024b 40       		.uleb128 0x40
 2522 024c 18       		.uleb128 0x18
 2523 024d 9642     		.uleb128 0x2116
 2524 024f 19       		.uleb128 0x19
 2525 0250 00       		.byte	0
 2526 0251 00       		.byte	0
 2527 0252 2B       		.uleb128 0x2b
 2528 0253 34       		.uleb128 0x34
 2529 0254 00       		.byte	0
 2530 0255 03       		.uleb128 0x3
 2531 0256 0E       		.uleb128 0xe
 2532 0257 3A       		.uleb128 0x3a
 2533 0258 0B       		.uleb128 0xb
 2534 0259 3B       		.uleb128 0x3b
 2535 025a 0B       		.uleb128 0xb
 2536 025b 49       		.uleb128 0x49
 2537 025c 13       		.uleb128 0x13
 2538 025d 02       		.uleb128 0x2
 2539 025e 18       		.uleb128 0x18
 2540 025f 00       		.byte	0
 2541 0260 00       		.byte	0
 2542 0261 2C       		.uleb128 0x2c
 2543 0262 34       		.uleb128 0x34
 2544 0263 00       		.byte	0
 2545 0264 03       		.uleb128 0x3
 2546 0265 0E       		.uleb128 0xe
 2547 0266 3A       		.uleb128 0x3a
 2548 0267 0B       		.uleb128 0xb
ARM GAS  /tmp/ccu0elQ7.s 			page 46


 2549 0268 3B       		.uleb128 0x3b
 2550 0269 05       		.uleb128 0x5
 2551 026a 49       		.uleb128 0x49
 2552 026b 13       		.uleb128 0x13
 2553 026c 3F       		.uleb128 0x3f
 2554 026d 19       		.uleb128 0x19
 2555 026e 3C       		.uleb128 0x3c
 2556 026f 19       		.uleb128 0x19
 2557 0270 00       		.byte	0
 2558 0271 00       		.byte	0
 2559 0272 2D       		.uleb128 0x2d
 2560 0273 34       		.uleb128 0x34
 2561 0274 00       		.byte	0
 2562 0275 03       		.uleb128 0x3
 2563 0276 08       		.uleb128 0x8
 2564 0277 3A       		.uleb128 0x3a
 2565 0278 0B       		.uleb128 0xb
 2566 0279 3B       		.uleb128 0x3b
 2567 027a 05       		.uleb128 0x5
 2568 027b 49       		.uleb128 0x49
 2569 027c 13       		.uleb128 0x13
 2570 027d 3F       		.uleb128 0x3f
 2571 027e 19       		.uleb128 0x19
 2572 027f 3C       		.uleb128 0x3c
 2573 0280 19       		.uleb128 0x19
 2574 0281 00       		.byte	0
 2575 0282 00       		.byte	0
 2576 0283 00       		.byte	0
 2577              		.section	.debug_aranges,"",%progbits
 2578 0000 4C000000 		.4byte	0x4c
 2579 0004 0200     		.2byte	0x2
 2580 0006 00000000 		.4byte	.Ldebug_info0
 2581 000a 04       		.byte	0x4
 2582 000b 00       		.byte	0
 2583 000c 0000     		.2byte	0
 2584 000e 0000     		.2byte	0
 2585 0010 00000000 		.4byte	.LFB122
 2586 0014 12000000 		.4byte	.LFE122-.LFB122
 2587 0018 00000000 		.4byte	.LFB144
 2588 001c 08000000 		.4byte	.LFE144-.LFB144
 2589 0020 00000000 		.4byte	.LFB219
 2590 0024 08000000 		.4byte	.LFE219-.LFB219
 2591 0028 00000000 		.4byte	.LFB232
 2592 002c 12000000 		.4byte	.LFE232-.LFB232
 2593 0030 00000000 		.4byte	.LFB253
 2594 0034 3C000000 		.4byte	.LFE253-.LFB253
 2595 0038 00000000 		.4byte	.LFB254
 2596 003c 24000000 		.4byte	.LFE254-.LFB254
 2597 0040 00000000 		.4byte	.LFB255
 2598 0044 78000000 		.4byte	.LFE255-.LFB255
 2599 0048 00000000 		.4byte	0
 2600 004c 00000000 		.4byte	0
 2601              		.section	.debug_ranges,"",%progbits
 2602              	.Ldebug_ranges0:
 2603 0000 00000000 		.4byte	.LFB122
 2604 0004 12000000 		.4byte	.LFE122
 2605 0008 00000000 		.4byte	.LFB144
ARM GAS  /tmp/ccu0elQ7.s 			page 47


 2606 000c 08000000 		.4byte	.LFE144
 2607 0010 00000000 		.4byte	.LFB219
 2608 0014 08000000 		.4byte	.LFE219
 2609 0018 00000000 		.4byte	.LFB232
 2610 001c 12000000 		.4byte	.LFE232
 2611 0020 00000000 		.4byte	.LFB253
 2612 0024 3C000000 		.4byte	.LFE253
 2613 0028 00000000 		.4byte	.LFB254
 2614 002c 24000000 		.4byte	.LFE254
 2615 0030 00000000 		.4byte	.LFB255
 2616 0034 78000000 		.4byte	.LFE255
 2617 0038 00000000 		.4byte	0
 2618 003c 00000000 		.4byte	0
 2619              		.section	.debug_line,"",%progbits
 2620              	.Ldebug_line0:
 2621 0000 D4040000 		.section	.debug_str,"MS",%progbits,1
 2621      0200FF03 
 2621      00000201 
 2621      FB0E0D00 
 2621      01010101 
 2622              	.LASF54:
 2623 0000 72656164 		.ascii	"ready_list_t\000"
 2623      795F6C69 
 2623      73745F74 
 2623      00
 2624              	.LASF2:
 2625 000d 73697A65 		.ascii	"size_t\000"
 2625      5F7400
 2626              	.LASF91:
 2627 0014 7264796D 		.ascii	"rdymsg\000"
 2627      736700
 2628              	.LASF19:
 2629 001b 75696E74 		.ascii	"uint64_t\000"
 2629      36345F74 
 2629      00
 2630              	.LASF3:
 2631 0024 5F5F7569 		.ascii	"__uint8_t\000"
 2631      6E74385F 
 2631      7400
 2632              	.LASF133:
 2633 002e 4F545950 		.ascii	"OTYPER\000"
 2633      455200
 2634              	.LASF88:
 2635 0035 706F7274 		.ascii	"port_intctx\000"
 2635      5F696E74 
 2635      63747800 
 2636              	.LASF73:
 2637 0041 73797374 		.ascii	"system_debug_t\000"
 2637      656D5F64 
 2637      65627567 
 2637      5F7400
 2638              	.LASF141:
 2639 0050 696F706F 		.ascii	"ioportmask_t\000"
 2639      72746D61 
 2639      736B5F74 
 2639      00
 2640              	.LASF132:
ARM GAS  /tmp/ccu0elQ7.s 			page 48


 2641 005d 4D4F4445 		.ascii	"MODER\000"
 2641      5200
 2642              	.LASF14:
 2643 0063 6C6F6E67 		.ascii	"long long unsigned int\000"
 2643      206C6F6E 
 2643      6720756E 
 2643      7369676E 
 2643      65642069 
 2644              	.LASF135:
 2645 007a 50555044 		.ascii	"PUPDR\000"
 2645      5200
 2646              	.LASF92:
 2647 0080 65786974 		.ascii	"exitcode\000"
 2647      636F6465 
 2647      00
 2648              	.LASF80:
 2649 0089 6D61696E 		.ascii	"mainthread\000"
 2649      74687265 
 2649      616400
 2650              	.LASF70:
 2651 0094 76697274 		.ascii	"virtual_timers_list_t\000"
 2651      75616C5F 
 2651      74696D65 
 2651      72735F6C 
 2651      6973745F 
 2652              	.LASF165:
 2653 00aa 49544D5F 		.ascii	"ITM_RxBuffer\000"
 2653      52784275 
 2653      66666572 
 2653      00
 2654              	.LASF172:
 2655 00b7 73746172 		.ascii	"startBlinker\000"
 2655      74426C69 
 2655      6E6B6572 
 2655      00
 2656              	.LASF53:
 2657 00c4 63685F74 		.ascii	"ch_threads_queue\000"
 2657      68726561 
 2657      64735F71 
 2657      75657565 
 2657      00
 2658              	.LASF33:
 2659 00d5 705F7072 		.ascii	"p_prio\000"
 2659      696F00
 2660              	.LASF158:
 2661 00dc 72656164 		.ascii	"readt\000"
 2661      7400
 2662              	.LASF119:
 2663 00e2 715F7761 		.ascii	"q_waiting\000"
 2663      6974696E 
 2663      6700
 2664              	.LASF12:
 2665 00ec 6C6F6E67 		.ascii	"long long int\000"
 2665      206C6F6E 
 2665      6720696E 
 2665      7400
 2666              	.LASF1:
ARM GAS  /tmp/ccu0elQ7.s 			page 49


 2667 00fa 7369676E 		.ascii	"signed char\000"
 2667      65642063 
 2667      68617200 
 2668              	.LASF136:
 2669 0106 42535252 		.ascii	"BSRR\000"
 2669      00
 2670              	.LASF83:
 2671 010b 47545052 		.ascii	"GTPR\000"
 2671      00
 2672              	.LASF47:
 2673 0110 705F6D70 		.ascii	"p_mpool\000"
 2673      6F6F6C00 
 2674              	.LASF102:
 2675 0118 6D5F7175 		.ascii	"m_queue\000"
 2675      65756500 
 2676              	.LASF79:
 2677 0120 76746C69 		.ascii	"vtlist\000"
 2677      737400
 2678              	.LASF148:
 2679 0127 73746174 		.ascii	"state\000"
 2679      6500
 2680              	.LASF77:
 2681 012d 63685F73 		.ascii	"ch_system\000"
 2681      79737465 
 2681      6D00
 2682              	.LASF9:
 2683 0137 6C6F6E67 		.ascii	"long int\000"
 2683      20696E74 
 2683      00
 2684              	.LASF22:
 2685 0140 74737461 		.ascii	"tstate_t\000"
 2685      74655F74 
 2685      00
 2686              	.LASF159:
 2687 0149 63685379 		.ascii	"chSysEnable\000"
 2687      73456E61 
 2687      626C6500 
 2688              	.LASF121:
 2689 0155 715F6275 		.ascii	"q_buffer\000"
 2689      66666572 
 2689      00
 2690              	.LASF123:
 2691 015e 715F7772 		.ascii	"q_wrptr\000"
 2691      70747200 
 2692              	.LASF126:
 2693 0166 715F6C69 		.ascii	"q_link\000"
 2693      6E6B00
 2694              	.LASF35:
 2695 016d 705F6E65 		.ascii	"p_newer\000"
 2695      77657200 
 2696              	.LASF99:
 2697 0175 735F7175 		.ascii	"s_queue\000"
 2697      65756500 
 2698              	.LASF134:
 2699 017d 4F535045 		.ascii	"OSPEEDR\000"
 2699      45445200 
 2700              	.LASF59:
ARM GAS  /tmp/ccu0elQ7.s 			page 50


 2701 0185 725F6E65 		.ascii	"r_newer\000"
 2701      77657200 
 2702              	.LASF85:
 2703 018d 72656761 		.ascii	"regarm_t\000"
 2703      726D5F74 
 2703      00
 2704              	.LASF66:
 2705 0196 76745F70 		.ascii	"vt_prev\000"
 2705      72657600 
 2706              	.LASF140:
 2707 019e 73746D33 		.ascii	"stm32_gpio_t\000"
 2707      325F6770 
 2707      696F5F74 
 2707      00
 2708              	.LASF106:
 2709 01ab 6D757465 		.ascii	"mutex_t\000"
 2709      785F7400 
 2710              	.LASF170:
 2711 01b3 76616C75 		.ascii	"value\000"
 2711      6500
 2712              	.LASF118:
 2713 01b9 696F5F71 		.ascii	"io_queue\000"
 2713      75657565 
 2713      00
 2714              	.LASF116:
 2715 01c2 6576656E 		.ascii	"event_source_t\000"
 2715      745F736F 
 2715      75726365 
 2715      5F7400
 2716              	.LASF81:
 2717 01d1 69646C65 		.ascii	"idle_thread_wa\000"
 2717      5F746872 
 2717      6561645F 
 2717      776100
 2718              	.LASF28:
 2719 01e0 636E745F 		.ascii	"cnt_t\000"
 2719      7400
 2720              	.LASF151:
 2721 01e6 75736172 		.ascii	"usart\000"
 2721      7400
 2722              	.LASF0:
 2723 01ec 756E7369 		.ascii	"unsigned int\000"
 2723      676E6564 
 2723      20696E74 
 2723      00
 2724              	.LASF65:
 2725 01f9 76745F6E 		.ascii	"vt_next\000"
 2725      65787400 
 2726              	.LASF16:
 2727 0201 75696E74 		.ascii	"uint16_t\000"
 2727      31365F74 
 2727      00
 2728              	.LASF152:
 2729 020a 53657269 		.ascii	"SerialDriverVMT\000"
 2729      616C4472 
 2729      69766572 
 2729      564D5400 
ARM GAS  /tmp/ccu0elQ7.s 			page 51


 2730              	.LASF95:
 2731 021a 77747365 		.ascii	"wtsemp\000"
 2731      6D7000
 2732              	.LASF67:
 2733 0221 76745F64 		.ascii	"vt_delta\000"
 2733      656C7461 
 2733      00
 2734              	.LASF42:
 2735 022a 705F6D73 		.ascii	"p_msgqueue\000"
 2735      67717565 
 2735      756500
 2736              	.LASF156:
 2737 0235 67657474 		.ascii	"gett\000"
 2737      00
 2738              	.LASF100:
 2739 023a 735F636E 		.ascii	"s_cnt\000"
 2739      7400
 2740              	.LASF147:
 2741 0240 6576656E 		.ascii	"event\000"
 2741      7400
 2742              	.LASF7:
 2743 0246 73686F72 		.ascii	"short unsigned int\000"
 2743      7420756E 
 2743      7369676E 
 2743      65642069 
 2743      6E7400
 2744              	.LASF50:
 2745 0259 63685F74 		.ascii	"ch_thread\000"
 2745      68726561 
 2745      6400
 2746              	.LASF113:
 2747 0263 656C5F77 		.ascii	"el_wflags\000"
 2747      666C6167 
 2747      7300
 2748              	.LASF25:
 2749 026d 6D73675F 		.ascii	"msg_t\000"
 2749      7400
 2750              	.LASF150:
 2751 0273 6F717565 		.ascii	"oqueue\000"
 2751      756500
 2752              	.LASF109:
 2753 027a 656C5F6E 		.ascii	"el_next\000"
 2753      65787400 
 2754              	.LASF168:
 2755 0282 2F686F6D 		.ascii	"/home/makkmarci/workspace/CLEAN/STM32F4_GLCD/\000"
 2755      652F6D61 
 2755      6B6B6D61 
 2755      7263692F 
 2755      776F726B 
 2756              	.LASF84:
 2757 02b0 55534152 		.ascii	"USART_TypeDef\000"
 2757      545F5479 
 2757      70654465 
 2757      6600
 2758              	.LASF157:
 2759 02be 77726974 		.ascii	"writet\000"
 2759      657400
ARM GAS  /tmp/ccu0elQ7.s 			page 52


 2760              	.LASF21:
 2761 02c5 746D6F64 		.ascii	"tmode_t\000"
 2761      655F7400 
 2762              	.LASF55:
 2763 02cd 63685F72 		.ascii	"ch_ready_list\000"
 2763      65616479 
 2763      5F6C6973 
 2763      7400
 2764              	.LASF26:
 2765 02db 6576656E 		.ascii	"eventmask_t\000"
 2765      746D6173 
 2765      6B5F7400 
 2766              	.LASF161:
 2767 02e7 706F7274 		.ascii	"port_enable\000"
 2767      5F656E61 
 2767      626C6500 
 2768              	.LASF8:
 2769 02f3 5F5F696E 		.ascii	"__int32_t\000"
 2769      7433325F 
 2769      7400
 2770              	.LASF127:
 2771 02fd 716E6F74 		.ascii	"qnotify_t\000"
 2771      6966795F 
 2771      7400
 2772              	.LASF86:
 2773 0307 73746B61 		.ascii	"stkalign_t\000"
 2773      6C69676E 
 2773      5F7400
 2774              	.LASF163:
 2775 0312 54687265 		.ascii	"Thread1\000"
 2775      61643100 
 2776              	.LASF49:
 2777 031a 74687265 		.ascii	"threads_list_t\000"
 2777      6164735F 
 2777      6C697374 
 2777      5F7400
 2778              	.LASF153:
 2779 0329 77726974 		.ascii	"write\000"
 2779      6500
 2780              	.LASF128:
 2781 032f 696E7075 		.ascii	"input_queue_t\000"
 2781      745F7175 
 2781      6575655F 
 2781      7400
 2782              	.LASF155:
 2783 033d 70757474 		.ascii	"putt\000"
 2783      00
 2784              	.LASF117:
 2785 0342 696F5F71 		.ascii	"io_queue_t\000"
 2785      75657565 
 2785      5F7400
 2786              	.LASF129:
 2787 034d 6F757470 		.ascii	"output_queue_t\000"
 2787      75745F71 
 2787      75657565 
 2787      5F7400
 2788              	.LASF82:
ARM GAS  /tmp/ccu0elQ7.s 			page 53


 2789 035c 73697A65 		.ascii	"sizetype\000"
 2789      74797065 
 2789      00
 2790              	.LASF71:
 2791 0365 63685F76 		.ascii	"ch_virtual_timers_list\000"
 2791      69727475 
 2791      616C5F74 
 2791      696D6572 
 2791      735F6C69 
 2792              	.LASF166:
 2793 037c 474E5520 		.ascii	"GNU C 4.9.3 20150303 (release) [ARM/embedded-4_9-br"
 2793      4320342E 
 2793      392E3320 
 2793      32303135 
 2793      30333033 
 2794 03af 616E6368 		.ascii	"anch revision 221220] -mcpu=cortex-m4 -mfloat-abi=h"
 2794      20726576 
 2794      6973696F 
 2794      6E203232 
 2794      31323230 
 2795 03e2 61726420 		.ascii	"ard -mfpu=fpv4-sp-d16 -mno-thumb-interwork -mthumb "
 2795      2D6D6670 
 2795      753D6670 
 2795      76342D73 
 2795      702D6431 
 2796 0415 2D676764 		.ascii	"-ggdb -fomit-frame-pointer -falign-functions=16 -ff"
 2796      62202D66 
 2796      6F6D6974 
 2796      2D667261 
 2796      6D652D70 
 2797 0448 756E6374 		.ascii	"unction-sections -fdata-sections -fno-common -fsing"
 2797      696F6E2D 
 2797      73656374 
 2797      696F6E73 
 2797      202D6664 
 2798 047b 6C652D70 		.ascii	"le-precision-constant\000"
 2798      72656369 
 2798      73696F6E 
 2798      2D636F6E 
 2798      7374616E 
 2799              	.LASF94:
 2800 0491 77747472 		.ascii	"wttrp\000"
 2800      7000
 2801              	.LASF146:
 2802 0497 53657269 		.ascii	"SerialDriver\000"
 2802      616C4472 
 2802      69766572 
 2802      00
 2803              	.LASF36:
 2804 04a4 705F6F6C 		.ascii	"p_older\000"
 2804      64657200 
 2805              	.LASF58:
 2806 04ac 725F6374 		.ascii	"r_ctx\000"
 2806      7800
 2807              	.LASF90:
 2808 04b2 746D5F63 		.ascii	"tm_calibration_t\000"
 2808      616C6962 
ARM GAS  /tmp/ccu0elQ7.s 			page 54


 2808      72617469 
 2808      6F6E5F74 
 2808      00
 2809              	.LASF40:
 2810 04c3 705F7265 		.ascii	"p_refs\000"
 2810      667300
 2811              	.LASF167:
 2812 04ca 6D61696E 		.ascii	"main.c\000"
 2812      2E6300
 2813              	.LASF60:
 2814 04d1 725F6F6C 		.ascii	"r_older\000"
 2814      64657200 
 2815              	.LASF171:
 2816 04d9 5F5F656E 		.ascii	"__enable_irq\000"
 2816      61626C65 
 2816      5F697271 
 2816      00
 2817              	.LASF111:
 2818 04e6 656C5F65 		.ascii	"el_events\000"
 2818      76656E74 
 2818      7300
 2819              	.LASF13:
 2820 04f0 5F5F7569 		.ascii	"__uint64_t\000"
 2820      6E743634 
 2820      5F7400
 2821              	.LASF139:
 2822 04fb 41465248 		.ascii	"AFRH\000"
 2822      00
 2823              	.LASF144:
 2824 0500 53445F52 		.ascii	"SD_READY\000"
 2824      45414459 
 2824      00
 2825              	.LASF138:
 2826 0509 4146524C 		.ascii	"AFRL\000"
 2826      00
 2827              	.LASF174:
 2828 050e 77615468 		.ascii	"waThread1\000"
 2828      72656164 
 2828      3100
 2829              	.LASF23:
 2830 0518 74726566 		.ascii	"trefs_t\000"
 2830      735F7400 
 2831              	.LASF63:
 2832 0520 76697274 		.ascii	"virtual_timer_t\000"
 2832      75616C5F 
 2832      74696D65 
 2832      725F7400 
 2833              	.LASF32:
 2834 0530 705F7072 		.ascii	"p_prev\000"
 2834      657600
 2835              	.LASF24:
 2836 0537 74707269 		.ascii	"tprio_t\000"
 2836      6F5F7400 
 2837              	.LASF124:
 2838 053f 715F7264 		.ascii	"q_rdptr\000"
 2838      70747200 
 2839              	.LASF74:
ARM GAS  /tmp/ccu0elQ7.s 			page 55


 2840 0547 63685F73 		.ascii	"ch_system_debug\000"
 2840      79737465 
 2840      6D5F6465 
 2840      62756700 
 2841              	.LASF130:
 2842 0557 5F426F6F 		.ascii	"_Bool\000"
 2842      6C00
 2843              	.LASF17:
 2844 055d 696E7433 		.ascii	"int32_t\000"
 2844      325F7400 
 2845              	.LASF4:
 2846 0565 756E7369 		.ascii	"unsigned char\000"
 2846      676E6564 
 2846      20636861 
 2846      7200
 2847              	.LASF110:
 2848 0573 656C5F6C 		.ascii	"el_listener\000"
 2848      69737465 
 2848      6E657200 
 2849              	.LASF112:
 2850 057f 656C5F66 		.ascii	"el_flags\000"
 2850      6C616773 
 2850      00
 2851              	.LASF45:
 2852 0588 705F6D74 		.ascii	"p_mtxlist\000"
 2852      786C6973 
 2852      7400
 2853              	.LASF5:
 2854 0592 73686F72 		.ascii	"short int\000"
 2854      7420696E 
 2854      7400
 2855              	.LASF38:
 2856 059c 705F7374 		.ascii	"p_state\000"
 2856      61746500 
 2857              	.LASF57:
 2858 05a4 725F7072 		.ascii	"r_prio\000"
 2858      696F00
 2859              	.LASF97:
 2860 05ab 65776D61 		.ascii	"ewmask\000"
 2860      736B00
 2861              	.LASF31:
 2862 05b2 705F6E65 		.ascii	"p_next\000"
 2862      787400
 2863              	.LASF39:
 2864 05b9 705F666C 		.ascii	"p_flags\000"
 2864      61677300 
 2865              	.LASF37:
 2866 05c1 705F6E61 		.ascii	"p_name\000"
 2866      6D6500
 2867              	.LASF143:
 2868 05c8 53445F53 		.ascii	"SD_STOP\000"
 2868      544F5000 
 2869              	.LASF52:
 2870 05d0 74687265 		.ascii	"threads_queue_t\000"
 2870      6164735F 
 2870      71756575 
 2870      655F7400 
ARM GAS  /tmp/ccu0elQ7.s 			page 56


 2871              	.LASF137:
 2872 05e0 4C434B52 		.ascii	"LCKR\000"
 2872      00
 2873              	.LASF98:
 2874 05e5 63685F73 		.ascii	"ch_semaphore\000"
 2874      656D6170 
 2874      686F7265 
 2874      00
 2875              	.LASF44:
 2876 05f2 705F6570 		.ascii	"p_epending\000"
 2876      656E6469 
 2876      6E6700
 2877              	.LASF142:
 2878 05fd 53445F55 		.ascii	"SD_UNINIT\000"
 2878      4E494E49 
 2878      5400
 2879              	.LASF120:
 2880 0607 715F636F 		.ascii	"q_counter\000"
 2880      756E7465 
 2880      7200
 2881              	.LASF96:
 2882 0611 77746D74 		.ascii	"wtmtxp\000"
 2882      787000
 2883              	.LASF56:
 2884 0618 725F7175 		.ascii	"r_queue\000"
 2884      65756500 
 2885              	.LASF51:
 2886 0620 63685F74 		.ascii	"ch_threads_list\000"
 2886      68726561 
 2886      64735F6C 
 2886      69737400 
 2887              	.LASF11:
 2888 0630 6C6F6E67 		.ascii	"long unsigned int\000"
 2888      20756E73 
 2888      69676E65 
 2888      6420696E 
 2888      7400
 2889              	.LASF61:
 2890 0642 725F6375 		.ascii	"r_current\000"
 2890      7272656E 
 2890      7400
 2891              	.LASF154:
 2892 064c 72656164 		.ascii	"read\000"
 2892      00
 2893              	.LASF105:
 2894 0651 63686172 		.ascii	"char\000"
 2894      00
 2895              	.LASF162:
 2896 0656 6F73616C 		.ascii	"osalThreadSleep\000"
 2896      54687265 
 2896      6164536C 
 2896      65657000 
 2897              	.LASF6:
 2898 0666 5F5F7569 		.ascii	"__uint16_t\000"
 2898      6E743136 
 2898      5F7400
 2899              	.LASF30:
ARM GAS  /tmp/ccu0elQ7.s 			page 57


 2900 0671 74687265 		.ascii	"thread_t\000"
 2900      61645F74 
 2900      00
 2901              	.LASF104:
 2902 067a 6D5F6E65 		.ascii	"m_next\000"
 2902      787400
 2903              	.LASF29:
 2904 0681 73797374 		.ascii	"systime_t\000"
 2904      696D655F 
 2904      7400
 2905              	.LASF46:
 2906 068b 705F7265 		.ascii	"p_realprio\000"
 2906      616C7072 
 2906      696F00
 2907              	.LASF62:
 2908 0696 76746675 		.ascii	"vtfunc_t\000"
 2908      6E635F74 
 2908      00
 2909              	.LASF10:
 2910 069f 5F5F7569 		.ascii	"__uint32_t\000"
 2910      6E743332 
 2910      5F7400
 2911              	.LASF169:
 2912 06aa 5F5F7365 		.ascii	"__set_BASEPRI\000"
 2912      745F4241 
 2912      53455052 
 2912      4900
 2913              	.LASF75:
 2914 06b8 70616E69 		.ascii	"panic_msg\000"
 2914      635F6D73 
 2914      6700
 2915              	.LASF89:
 2916 06c2 6F666673 		.ascii	"offset\000"
 2916      657400
 2917              	.LASF107:
 2918 06c9 6576656E 		.ascii	"event_listener_t\000"
 2918      745F6C69 
 2918      7374656E 
 2918      65725F74 
 2918      00
 2919              	.LASF87:
 2920 06da 636F6E74 		.ascii	"context\000"
 2920      65787400 
 2921              	.LASF76:
 2922 06e2 63685F73 		.ascii	"ch_system_t\000"
 2922      79737465 
 2922      6D5F7400 
 2923              	.LASF64:
 2924 06ee 63685F76 		.ascii	"ch_virtual_timer\000"
 2924      69727475 
 2924      616C5F74 
 2924      696D6572 
 2924      00
 2925              	.LASF20:
 2926 06ff 7274636E 		.ascii	"rtcnt_t\000"
 2926      745F7400 
 2927              	.LASF164:
ARM GAS  /tmp/ccu0elQ7.s 			page 58


 2928 0707 74696D65 		.ascii	"time\000"
 2928      00
 2929              	.LASF69:
 2930 070c 76745F70 		.ascii	"vt_par\000"
 2930      617200
 2931              	.LASF27:
 2932 0713 6576656E 		.ascii	"eventflags_t\000"
 2932      74666C61 
 2932      67735F74 
 2932      00
 2933              	.LASF18:
 2934 0720 75696E74 		.ascii	"uint32_t\000"
 2934      33325F74 
 2934      00
 2935              	.LASF145:
 2936 0729 73647374 		.ascii	"sdstate_t\000"
 2936      6174655F 
 2936      7400
 2937              	.LASF122:
 2938 0733 715F746F 		.ascii	"q_top\000"
 2938      7000
 2939              	.LASF101:
 2940 0739 63685F6D 		.ascii	"ch_mutex\000"
 2940      75746578 
 2940      00
 2941              	.LASF115:
 2942 0742 65735F6E 		.ascii	"es_next\000"
 2942      65787400 
 2943              	.LASF125:
 2944 074a 715F6E6F 		.ascii	"q_notify\000"
 2944      74696679 
 2944      00
 2945              	.LASF78:
 2946 0753 726C6973 		.ascii	"rlist\000"
 2946      7400
 2947              	.LASF114:
 2948 0759 6576656E 		.ascii	"event_source\000"
 2948      745F736F 
 2948      75726365 
 2948      00
 2949              	.LASF15:
 2950 0766 75696E74 		.ascii	"uint8_t\000"
 2950      385F7400 
 2951              	.LASF48:
 2952 076e 74687265 		.ascii	"thread_reference_t\000"
 2952      61645F72 
 2952      65666572 
 2952      656E6365 
 2952      5F7400
 2953              	.LASF93:
 2954 0781 77746F62 		.ascii	"wtobjp\000"
 2954      6A7000
 2955              	.LASF149:
 2956 0788 69717565 		.ascii	"iqueue\000"
 2956      756500
 2957              	.LASF131:
 2958 078f 636C6561 		.ascii	"clear\000"
ARM GAS  /tmp/ccu0elQ7.s 			page 59


 2958      7200
 2959              	.LASF72:
 2960 0795 76745F73 		.ascii	"vt_systime\000"
 2960      79737469 
 2960      6D6500
 2961              	.LASF43:
 2962 07a0 705F6D73 		.ascii	"p_msg\000"
 2962      6700
 2963              	.LASF173:
 2964 07a6 6D61696E 		.ascii	"main\000"
 2964      00
 2965              	.LASF160:
 2966 07ab 6F73616C 		.ascii	"osalSysEnable\000"
 2966      53797345 
 2966      6E61626C 
 2966      6500
 2967              	.LASF103:
 2968 07b9 6D5F6F77 		.ascii	"m_owner\000"
 2968      6E657200 
 2969              	.LASF34:
 2970 07c1 705F6374 		.ascii	"p_ctx\000"
 2970      7800
 2971              	.LASF68:
 2972 07c7 76745F66 		.ascii	"vt_func\000"
 2972      756E6300 
 2973              	.LASF108:
 2974 07cf 6576656E 		.ascii	"event_listener\000"
 2974      745F6C69 
 2974      7374656E 
 2974      657200
 2975              	.LASF41:
 2976 07de 705F7761 		.ascii	"p_waiting\000"
 2976      6974696E 
 2976      6700
 2977              		.ident	"GCC: (GNU Tools for ARM Embedded Processors) 4.9.3 20150303 (release) [ARM/embedded-4_9-br
ARM GAS  /tmp/ccu0elQ7.s 			page 60


DEFINED SYMBOLS
                            *ABS*:00000000 main.c
     /tmp/ccu0elQ7.s:21     .text.port_enable:00000000 $t
     /tmp/ccu0elQ7.s:26     .text.port_enable:00000000 port_enable
     /tmp/ccu0elQ7.s:67     .text.chSysEnable:00000000 $t
     /tmp/ccu0elQ7.s:72     .text.chSysEnable:00000000 chSysEnable
     /tmp/ccu0elQ7.s:91     .text.osalSysEnable:00000000 $t
     /tmp/ccu0elQ7.s:96     .text.osalSysEnable:00000000 osalSysEnable
     /tmp/ccu0elQ7.s:115    .text.osalThreadSleep:00000000 $t
     /tmp/ccu0elQ7.s:120    .text.osalThreadSleep:00000000 osalThreadSleep
     /tmp/ccu0elQ7.s:144    .bss.waThread1:00000000 $d
     /tmp/ccu0elQ7.s:147    .bss.waThread1:00000000 waThread1
     /tmp/ccu0elQ7.s:150    .rodata:00000000 $d
     /tmp/ccu0elQ7.s:154    .text.Thread1:00000000 $t
     /tmp/ccu0elQ7.s:159    .text.Thread1:00000000 Thread1
     /tmp/ccu0elQ7.s:197    .text.Thread1:00000030 $d
     /tmp/ccu0elQ7.s:204    .text.startBlinker:00000000 $t
     /tmp/ccu0elQ7.s:210    .text.startBlinker:00000000 startBlinker
     /tmp/ccu0elQ7.s:237    .text.startBlinker:0000001c $d
     /tmp/ccu0elQ7.s:247    .text.main:00000000 $t
     /tmp/ccu0elQ7.s:253    .text.main:00000000 main
     /tmp/ccu0elQ7.s:314    .text.main:00000068 $d
                     .debug_frame:00000010 $d
     /tmp/ccu0elQ7.s:203    .text.Thread1:0000003c $t
     /tmp/ccu0elQ7.s:242    .text.startBlinker:00000024 $t
     /tmp/ccu0elQ7.s:321    .text.main:00000078 $t

UNDEFINED SYMBOLS
chThdSleep
ch
chThdCreateStatic
halInit
chSysInit
sdStart
_pal_lld_setgroupmode
SD2
