ARM GAS  /tmp/ccFa9rQg.s 			page 1


   1              		.syntax unified
   2              		.cpu cortex-m4
   3              		.eabi_attribute 27, 1
   4              		.eabi_attribute 28, 1
   5              		.fpu fpv4-sp-d16
   6              		.eabi_attribute 20, 1
   7              		.eabi_attribute 21, 1
   8              		.eabi_attribute 23, 3
   9              		.eabi_attribute 24, 1
  10              		.eabi_attribute 25, 1
  11              		.eabi_attribute 26, 1
  12              		.eabi_attribute 30, 6
  13              		.eabi_attribute 34, 1
  14              		.eabi_attribute 18, 4
  15              		.thumb
  16              		.file	"memstreams.c"
  17              		.text
  18              	.Ltext0:
  19              		.cfi_sections	.debug_frame
  20              		.section	.text.writes,"ax",%progbits
  21              		.align	2
  22              		.p2align 4,,15
  23              		.thumb
  24              		.thumb_func
  25              		.type	writes, %function
  26              	writes:
  27              	.LFB253:
  28              		.file 1 "/home/makkmarci/workspace/CLEAN/ChibiOS/os/hal/lib/streams/memstreams.c"
  29              		.loc 1 46 0
  30              		.cfi_startproc
  31              		@ args = 0, pretend = 0, frame = 24
  32              		@ frame_needed = 0, uses_anonymous_args = 0
  33 0000 00B5     		push	{lr}
  34              		.cfi_def_cfa_offset 4
  35              		.cfi_offset 14, -4
  36 0002 87B0     		sub	sp, sp, #28
  37              		.cfi_def_cfa_offset 32
  38 0004 0390     		str	r0, [sp, #12]
  39 0006 0291     		str	r1, [sp, #8]
  40 0008 0192     		str	r2, [sp, #4]
  41              		.loc 1 47 0
  42 000a 039B     		ldr	r3, [sp, #12]
  43 000c 0593     		str	r3, [sp, #20]
  44              		.loc 1 49 0
  45 000e 059B     		ldr	r3, [sp, #20]
  46 0010 9A68     		ldr	r2, [r3, #8]
  47 0012 059B     		ldr	r3, [sp, #20]
  48 0014 DB68     		ldr	r3, [r3, #12]
  49 0016 D21A     		subs	r2, r2, r3
  50 0018 019B     		ldr	r3, [sp, #4]
  51 001a 9A42     		cmp	r2, r3
  52 001c 05D2     		bcs	.L2
  53              		.loc 1 50 0
  54 001e 059B     		ldr	r3, [sp, #20]
  55 0020 9A68     		ldr	r2, [r3, #8]
  56 0022 059B     		ldr	r3, [sp, #20]
  57 0024 DB68     		ldr	r3, [r3, #12]
ARM GAS  /tmp/ccFa9rQg.s 			page 2


  58 0026 D31A     		subs	r3, r2, r3
  59 0028 0193     		str	r3, [sp, #4]
  60              	.L2:
  61              		.loc 1 51 0
  62 002a 059B     		ldr	r3, [sp, #20]
  63 002c 5A68     		ldr	r2, [r3, #4]
  64 002e 059B     		ldr	r3, [sp, #20]
  65 0030 DB68     		ldr	r3, [r3, #12]
  66 0032 1344     		add	r3, r3, r2
  67 0034 1846     		mov	r0, r3
  68 0036 0299     		ldr	r1, [sp, #8]
  69 0038 019A     		ldr	r2, [sp, #4]
  70 003a FFF7FEFF 		bl	memcpy
  71              		.loc 1 52 0
  72 003e 059B     		ldr	r3, [sp, #20]
  73 0040 DA68     		ldr	r2, [r3, #12]
  74 0042 019B     		ldr	r3, [sp, #4]
  75 0044 1A44     		add	r2, r2, r3
  76 0046 059B     		ldr	r3, [sp, #20]
  77 0048 DA60     		str	r2, [r3, #12]
  78              		.loc 1 53 0
  79 004a 019B     		ldr	r3, [sp, #4]
  80              		.loc 1 54 0
  81 004c 1846     		mov	r0, r3
  82 004e 07B0     		add	sp, sp, #28
  83              		.cfi_def_cfa_offset 4
  84              		@ sp needed
  85 0050 5DF804FB 		ldr	pc, [sp], #4
  86              		.cfi_endproc
  87              	.LFE253:
  88              		.size	writes, .-writes
  89 0054 AFF30080 		.section	.text.reads,"ax",%progbits
  89      AFF30080 
  89      AFF30080 
  90              		.align	2
  91              		.p2align 4,,15
  92              		.thumb
  93              		.thumb_func
  94              		.type	reads, %function
  95              	reads:
  96              	.LFB254:
  97              		.loc 1 56 0
  98              		.cfi_startproc
  99              		@ args = 0, pretend = 0, frame = 24
 100              		@ frame_needed = 0, uses_anonymous_args = 0
 101 0000 00B5     		push	{lr}
 102              		.cfi_def_cfa_offset 4
 103              		.cfi_offset 14, -4
 104 0002 87B0     		sub	sp, sp, #28
 105              		.cfi_def_cfa_offset 32
 106 0004 0390     		str	r0, [sp, #12]
 107 0006 0291     		str	r1, [sp, #8]
 108 0008 0192     		str	r2, [sp, #4]
 109              		.loc 1 57 0
 110 000a 039B     		ldr	r3, [sp, #12]
 111 000c 0593     		str	r3, [sp, #20]
 112              		.loc 1 59 0
ARM GAS  /tmp/ccFa9rQg.s 			page 3


 113 000e 059B     		ldr	r3, [sp, #20]
 114 0010 DA68     		ldr	r2, [r3, #12]
 115 0012 059B     		ldr	r3, [sp, #20]
 116 0014 1B69     		ldr	r3, [r3, #16]
 117 0016 D21A     		subs	r2, r2, r3
 118 0018 019B     		ldr	r3, [sp, #4]
 119 001a 9A42     		cmp	r2, r3
 120 001c 05D2     		bcs	.L5
 121              		.loc 1 60 0
 122 001e 059B     		ldr	r3, [sp, #20]
 123 0020 DA68     		ldr	r2, [r3, #12]
 124 0022 059B     		ldr	r3, [sp, #20]
 125 0024 1B69     		ldr	r3, [r3, #16]
 126 0026 D31A     		subs	r3, r2, r3
 127 0028 0193     		str	r3, [sp, #4]
 128              	.L5:
 129              		.loc 1 61 0
 130 002a 059B     		ldr	r3, [sp, #20]
 131 002c 5A68     		ldr	r2, [r3, #4]
 132 002e 059B     		ldr	r3, [sp, #20]
 133 0030 1B69     		ldr	r3, [r3, #16]
 134 0032 1344     		add	r3, r3, r2
 135 0034 0298     		ldr	r0, [sp, #8]
 136 0036 1946     		mov	r1, r3
 137 0038 019A     		ldr	r2, [sp, #4]
 138 003a FFF7FEFF 		bl	memcpy
 139              		.loc 1 62 0
 140 003e 059B     		ldr	r3, [sp, #20]
 141 0040 1A69     		ldr	r2, [r3, #16]
 142 0042 019B     		ldr	r3, [sp, #4]
 143 0044 1A44     		add	r2, r2, r3
 144 0046 059B     		ldr	r3, [sp, #20]
 145 0048 1A61     		str	r2, [r3, #16]
 146              		.loc 1 63 0
 147 004a 019B     		ldr	r3, [sp, #4]
 148              		.loc 1 64 0
 149 004c 1846     		mov	r0, r3
 150 004e 07B0     		add	sp, sp, #28
 151              		.cfi_def_cfa_offset 4
 152              		@ sp needed
 153 0050 5DF804FB 		ldr	pc, [sp], #4
 154              		.cfi_endproc
 155              	.LFE254:
 156              		.size	reads, .-reads
 157 0054 AFF30080 		.section	.text.put,"ax",%progbits
 157      AFF30080 
 157      AFF30080 
 158              		.align	2
 159              		.p2align 4,,15
 160              		.thumb
 161              		.thumb_func
 162              		.type	put, %function
 163              	put:
 164              	.LFB255:
 165              		.loc 1 66 0
 166              		.cfi_startproc
 167              		@ args = 0, pretend = 0, frame = 16
ARM GAS  /tmp/ccFa9rQg.s 			page 4


 168              		@ frame_needed = 0, uses_anonymous_args = 0
 169              		@ link register save eliminated.
 170 0000 84B0     		sub	sp, sp, #16
 171              		.cfi_def_cfa_offset 16
 172 0002 0190     		str	r0, [sp, #4]
 173 0004 0B46     		mov	r3, r1
 174 0006 8DF80330 		strb	r3, [sp, #3]
 175              		.loc 1 67 0
 176 000a 019B     		ldr	r3, [sp, #4]
 177 000c 0393     		str	r3, [sp, #12]
 178              		.loc 1 69 0
 179 000e 039B     		ldr	r3, [sp, #12]
 180 0010 9A68     		ldr	r2, [r3, #8]
 181 0012 039B     		ldr	r3, [sp, #12]
 182 0014 DB68     		ldr	r3, [r3, #12]
 183 0016 9A42     		cmp	r2, r3
 184 0018 02D1     		bne	.L8
 185              		.loc 1 70 0
 186 001a 6FF00103 		mvn	r3, #1
 187 001e 0DE0     		b	.L9
 188              	.L8:
 189              		.loc 1 71 0
 190 0020 039B     		ldr	r3, [sp, #12]
 191 0022 5A68     		ldr	r2, [r3, #4]
 192 0024 039B     		ldr	r3, [sp, #12]
 193 0026 DB68     		ldr	r3, [r3, #12]
 194 0028 1344     		add	r3, r3, r2
 195 002a 9DF80320 		ldrb	r2, [sp, #3]
 196 002e 1A70     		strb	r2, [r3]
 197              		.loc 1 72 0
 198 0030 039B     		ldr	r3, [sp, #12]
 199 0032 DB68     		ldr	r3, [r3, #12]
 200 0034 5A1C     		adds	r2, r3, #1
 201 0036 039B     		ldr	r3, [sp, #12]
 202 0038 DA60     		str	r2, [r3, #12]
 203              		.loc 1 73 0
 204 003a 0023     		movs	r3, #0
 205              	.L9:
 206              		.loc 1 74 0
 207 003c 1846     		mov	r0, r3
 208 003e 04B0     		add	sp, sp, #16
 209              		.cfi_def_cfa_offset 0
 210              		@ sp needed
 211 0040 7047     		bx	lr
 212              		.cfi_endproc
 213              	.LFE255:
 214              		.size	put, .-put
 215 0042 00BFAFF3 		.section	.text.get,"ax",%progbits
 215      0080AFF3 
 215      0080AFF3 
 215      0080
 216              		.align	2
 217              		.p2align 4,,15
 218              		.thumb
 219              		.thumb_func
 220              		.type	get, %function
 221              	get:
ARM GAS  /tmp/ccFa9rQg.s 			page 5


 222              	.LFB256:
 223              		.loc 1 76 0
 224              		.cfi_startproc
 225              		@ args = 0, pretend = 0, frame = 16
 226              		@ frame_needed = 0, uses_anonymous_args = 0
 227              		@ link register save eliminated.
 228 0000 84B0     		sub	sp, sp, #16
 229              		.cfi_def_cfa_offset 16
 230 0002 0190     		str	r0, [sp, #4]
 231              		.loc 1 78 0
 232 0004 019B     		ldr	r3, [sp, #4]
 233 0006 0393     		str	r3, [sp, #12]
 234              		.loc 1 80 0
 235 0008 039B     		ldr	r3, [sp, #12]
 236 000a DA68     		ldr	r2, [r3, #12]
 237 000c 039B     		ldr	r3, [sp, #12]
 238 000e 1B69     		ldr	r3, [r3, #16]
 239 0010 9A42     		cmp	r2, r3
 240 0012 02D1     		bne	.L11
 241              		.loc 1 81 0
 242 0014 6FF00103 		mvn	r3, #1
 243 0018 0EE0     		b	.L12
 244              	.L11:
 245              		.loc 1 82 0
 246 001a 039B     		ldr	r3, [sp, #12]
 247 001c 5A68     		ldr	r2, [r3, #4]
 248 001e 039B     		ldr	r3, [sp, #12]
 249 0020 1B69     		ldr	r3, [r3, #16]
 250 0022 1344     		add	r3, r3, r2
 251 0024 1B78     		ldrb	r3, [r3]
 252 0026 8DF80B30 		strb	r3, [sp, #11]
 253              		.loc 1 83 0
 254 002a 039B     		ldr	r3, [sp, #12]
 255 002c 1B69     		ldr	r3, [r3, #16]
 256 002e 5A1C     		adds	r2, r3, #1
 257 0030 039B     		ldr	r3, [sp, #12]
 258 0032 1A61     		str	r2, [r3, #16]
 259              		.loc 1 84 0
 260 0034 9DF80B30 		ldrb	r3, [sp, #11]	@ zero_extendqisi2
 261              	.L12:
 262              		.loc 1 85 0
 263 0038 1846     		mov	r0, r3
 264 003a 04B0     		add	sp, sp, #16
 265              		.cfi_def_cfa_offset 0
 266              		@ sp needed
 267 003c 7047     		bx	lr
 268              		.cfi_endproc
 269              	.LFE256:
 270              		.size	get, .-get
 271 003e 00BF     		.section	.rodata.vmt,"a",%progbits
 272              		.align	2
 273              		.type	vmt, %object
 274              		.size	vmt, 16
 275              	vmt:
 276 0000 00000000 		.word	writes
 277 0004 00000000 		.word	reads
 278 0008 00000000 		.word	put
ARM GAS  /tmp/ccFa9rQg.s 			page 6


 279 000c 00000000 		.word	get
 280              		.section	.text.msObjectInit,"ax",%progbits
 281              		.align	2
 282              		.p2align 4,,15
 283              		.global	msObjectInit
 284              		.thumb
 285              		.thumb_func
 286              		.type	msObjectInit, %function
 287              	msObjectInit:
 288              	.LFB257:
 289              		.loc 1 104 0
 290              		.cfi_startproc
 291              		@ args = 0, pretend = 0, frame = 16
 292              		@ frame_needed = 0, uses_anonymous_args = 0
 293              		@ link register save eliminated.
 294 0000 84B0     		sub	sp, sp, #16
 295              		.cfi_def_cfa_offset 16
 296 0002 0390     		str	r0, [sp, #12]
 297 0004 0291     		str	r1, [sp, #8]
 298 0006 0192     		str	r2, [sp, #4]
 299 0008 0093     		str	r3, [sp]
 300              		.loc 1 106 0
 301 000a 039B     		ldr	r3, [sp, #12]
 302 000c 074A     		ldr	r2, .L14
 303 000e 1A60     		str	r2, [r3]
 304              		.loc 1 107 0
 305 0010 039B     		ldr	r3, [sp, #12]
 306 0012 029A     		ldr	r2, [sp, #8]
 307 0014 5A60     		str	r2, [r3, #4]
 308              		.loc 1 108 0
 309 0016 039B     		ldr	r3, [sp, #12]
 310 0018 019A     		ldr	r2, [sp, #4]
 311 001a 9A60     		str	r2, [r3, #8]
 312              		.loc 1 109 0
 313 001c 039B     		ldr	r3, [sp, #12]
 314 001e 009A     		ldr	r2, [sp]
 315 0020 DA60     		str	r2, [r3, #12]
 316              		.loc 1 110 0
 317 0022 039B     		ldr	r3, [sp, #12]
 318 0024 0022     		movs	r2, #0
 319 0026 1A61     		str	r2, [r3, #16]
 320              		.loc 1 111 0
 321 0028 04B0     		add	sp, sp, #16
 322              		.cfi_def_cfa_offset 0
 323              		@ sp needed
 324 002a 7047     		bx	lr
 325              	.L15:
 326              		.align	2
 327              	.L14:
 328 002c 00000000 		.word	vmt
 329              		.cfi_endproc
 330              	.LFE257:
 331              		.size	msObjectInit, .-msObjectInit
 332              		.text
 333              	.Letext0:
 334              		.file 2 "/opt/gcc-arm-none-eabi/lib/gcc/arm-none-eabi/4.9.3/include/stddef.h"
 335              		.file 3 "/opt/gcc-arm-none-eabi/arm-none-eabi/include/machine/_default_types.h"
ARM GAS  /tmp/ccFa9rQg.s 			page 7


 336              		.file 4 "/opt/gcc-arm-none-eabi/arm-none-eabi/include/stdint.h"
 337              		.file 5 "/home/makkmarci/workspace/CLEAN/ChibiOS/os/rt/ports/ARMCMx/compilers/GCC/chtypes.h"
 338              		.file 6 "/home/makkmarci/workspace/CLEAN/ChibiOS/os/rt/include/chsystypes.h"
 339              		.file 7 "/home/makkmarci/workspace/CLEAN/ChibiOS/os/rt/include/chschd.h"
 340              		.file 8 "/home/makkmarci/workspace/CLEAN/ChibiOS/os/rt/ports/ARMCMx/chcore.h"
 341              		.file 9 "/home/makkmarci/workspace/CLEAN/ChibiOS/os/rt/ports/ARMCMx/chcore_v7m.h"
 342              		.file 10 "/home/makkmarci/workspace/CLEAN/ChibiOS/os/rt/include/chtm.h"
 343              		.file 11 "/home/makkmarci/workspace/CLEAN/ChibiOS/os/rt/include/chsem.h"
 344              		.file 12 "/home/makkmarci/workspace/CLEAN/ChibiOS/os/rt/include/chmtx.h"
 345              		.file 13 "/home/makkmarci/workspace/CLEAN/ChibiOS/os/hal/lib/streams/memstreams.h"
 346              		.file 14 "/home/makkmarci/workspace/CLEAN/ChibiOS/os/ext/CMSIS/include/core_cm4.h"