ARM GAS  /tmp/ccniHpfW.s 			page 1


   1              		.syntax unified
   2              		.cpu cortex-m4
   3              		.eabi_attribute 27, 1
   4              		.eabi_attribute 28, 1
   5              		.fpu fpv4-sp-d16
   6              		.eabi_attribute 20, 1
   7              		.eabi_attribute 21, 1
   8              		.eabi_attribute 23, 3
   9              		.eabi_attribute 24, 1
  10              		.eabi_attribute 25, 1
  11              		.eabi_attribute 26, 1
  12              		.eabi_attribute 30, 6
  13              		.eabi_attribute 34, 1
  14              		.eabi_attribute 18, 4
  15              		.thumb
  16              		.file	"nvic.c"
  17              		.text
  18              	.Ltext0:
  19              		.cfi_sections	.debug_frame
  20              		.section	.text.nvicEnableVector,"ax",%progbits
  21              		.align	2
  22              		.p2align 4,,15
  23              		.global	nvicEnableVector
  24              		.thumb
  25              		.thumb_func
  26              		.type	nvicEnableVector, %function
  27              	nvicEnableVector:
  28              	.LFB253:
  29              		.file 1 "/home/makkmarci/workspace/CLEAN/ChibiOS/os/hal/ports/common/ARMCMx/nvic.c"
  30              		.loc 1 57 0
  31              		.cfi_startproc
  32              		@ args = 0, pretend = 0, frame = 8
  33              		@ frame_needed = 0, uses_anonymous_args = 0
  34              		@ link register save eliminated.
  35 0000 82B0     		sub	sp, sp, #8
  36              		.cfi_def_cfa_offset 8
  37 0002 0190     		str	r0, [sp, #4]
  38 0004 0091     		str	r1, [sp]
  39              		.loc 1 59 0
  40 0006 124A     		ldr	r2, .L2
  41 0008 009B     		ldr	r3, [sp]
  42 000a DBB2     		uxtb	r3, r3
  43 000c 1B01     		lsls	r3, r3, #4
  44 000e D9B2     		uxtb	r1, r3
  45 0010 019B     		ldr	r3, [sp, #4]
  46 0012 1344     		add	r3, r3, r2
  47 0014 03F54073 		add	r3, r3, #768
  48 0018 0A46     		mov	r2, r1
  49 001a 1A70     		strb	r2, [r3]
  50              		.loc 1 60 0
  51 001c 0C49     		ldr	r1, .L2
  52 001e 019B     		ldr	r3, [sp, #4]
  53 0020 5B09     		lsrs	r3, r3, #5
  54 0022 019A     		ldr	r2, [sp, #4]
  55 0024 02F01F02 		and	r2, r2, #31
  56 0028 0120     		movs	r0, #1
  57 002a 00FA02F2 		lsl	r2, r0, r2
ARM GAS  /tmp/ccniHpfW.s 			page 2


  58 002e 6033     		adds	r3, r3, #96
  59 0030 41F82320 		str	r2, [r1, r3, lsl #2]
  60              		.loc 1 61 0
  61 0034 0649     		ldr	r1, .L2
  62 0036 019B     		ldr	r3, [sp, #4]
  63 0038 5B09     		lsrs	r3, r3, #5
  64 003a 019A     		ldr	r2, [sp, #4]
  65 003c 02F01F02 		and	r2, r2, #31
  66 0040 0120     		movs	r0, #1
  67 0042 00FA02F2 		lsl	r2, r0, r2
  68 0046 41F82320 		str	r2, [r1, r3, lsl #2]
  69              		.loc 1 62 0
  70 004a 02B0     		add	sp, sp, #8
  71              		.cfi_def_cfa_offset 0
  72              		@ sp needed
  73 004c 7047     		bx	lr
  74              	.L3:
  75 004e 00BF     		.align	2
  76              	.L2:
  77 0050 00E100E0 		.word	-536813312
  78              		.cfi_endproc
  79              	.LFE253:
  80              		.size	nvicEnableVector, .-nvicEnableVector
  81 0054 AFF30080 		.section	.text.nvicDisableVector,"ax",%progbits
  81      AFF30080 
  81      AFF30080 
  82              		.align	2
  83              		.p2align 4,,15
  84              		.global	nvicDisableVector
  85              		.thumb
  86              		.thumb_func
  87              		.type	nvicDisableVector, %function
  88              	nvicDisableVector:
  89              	.LFB254:
  90              		.loc 1 69 0
  91              		.cfi_startproc
  92              		@ args = 0, pretend = 0, frame = 8
  93              		@ frame_needed = 0, uses_anonymous_args = 0
  94              		@ link register save eliminated.
  95 0000 82B0     		sub	sp, sp, #8
  96              		.cfi_def_cfa_offset 8
  97 0002 0190     		str	r0, [sp, #4]
  98              		.loc 1 71 0
  99 0004 0A49     		ldr	r1, .L5
 100 0006 019B     		ldr	r3, [sp, #4]
 101 0008 5B09     		lsrs	r3, r3, #5
 102 000a 019A     		ldr	r2, [sp, #4]
 103 000c 02F01F02 		and	r2, r2, #31
 104 0010 0120     		movs	r0, #1
 105 0012 00FA02F2 		lsl	r2, r0, r2
 106 0016 2033     		adds	r3, r3, #32
 107 0018 41F82320 		str	r2, [r1, r3, lsl #2]
 108              		.loc 1 72 0
 109 001c 044A     		ldr	r2, .L5
 110 001e 019B     		ldr	r3, [sp, #4]
 111 0020 1344     		add	r3, r3, r2
 112 0022 03F54073 		add	r3, r3, #768
ARM GAS  /tmp/ccniHpfW.s 			page 3


 113 0026 0022     		movs	r2, #0
 114 0028 1A70     		strb	r2, [r3]
 115              		.loc 1 73 0
 116 002a 02B0     		add	sp, sp, #8
 117              		.cfi_def_cfa_offset 0
 118              		@ sp needed
 119 002c 7047     		bx	lr
 120              	.L6:
 121 002e 00BF     		.align	2
 122              	.L5:
 123 0030 00E100E0 		.word	-536813312
 124              		.cfi_endproc
 125              	.LFE254:
 126              		.size	nvicDisableVector, .-nvicDisableVector
 127 0034 AFF30080 		.section	.text.nvicSetSystemHandlerPriority,"ax",%progbits
 127      AFF30080 
 127      AFF30080 
 128              		.align	2
 129              		.p2align 4,,15
 130              		.global	nvicSetSystemHandlerPriority
 131              		.thumb
 132              		.thumb_func
 133              		.type	nvicSetSystemHandlerPriority, %function
 134              	nvicSetSystemHandlerPriority:
 135              	.LFB255:
 136              		.loc 1 81 0
 137              		.cfi_startproc
 138              		@ args = 0, pretend = 0, frame = 8
 139              		@ frame_needed = 0, uses_anonymous_args = 0
 140              		@ link register save eliminated.
 141 0000 82B0     		sub	sp, sp, #8
 142              		.cfi_def_cfa_offset 8
 143 0002 0190     		str	r0, [sp, #4]
 144 0004 0091     		str	r1, [sp]
 145              		.loc 1 85 0
 146 0006 064A     		ldr	r2, .L8
 147 0008 009B     		ldr	r3, [sp]
 148 000a DBB2     		uxtb	r3, r3
 149 000c 1B01     		lsls	r3, r3, #4
 150 000e D9B2     		uxtb	r1, r3
 151 0010 019B     		ldr	r3, [sp, #4]
 152 0012 1344     		add	r3, r3, r2
 153 0014 1833     		adds	r3, r3, #24
 154 0016 0A46     		mov	r2, r1
 155 0018 1A70     		strb	r2, [r3]
 156              		.loc 1 86 0
 157 001a 02B0     		add	sp, sp, #8
 158              		.cfi_def_cfa_offset 0
 159              		@ sp needed
 160 001c 7047     		bx	lr
 161              	.L9:
 162 001e 00BF     		.align	2
 163              	.L8:
 164 0020 00ED00E0 		.word	-536810240
 165              		.cfi_endproc
 166              	.LFE255:
 167              		.size	nvicSetSystemHandlerPriority, .-nvicSetSystemHandlerPriority
ARM GAS  /tmp/ccniHpfW.s 			page 4


 168 0024 AFF30080 		.section	.text.nvicClearPending,"ax",%progbits
 168      AFF30080 
 168      AFF30080 
 169              		.align	2
 170              		.p2align 4,,15
 171              		.global	nvicClearPending
 172              		.thumb
 173              		.thumb_func
 174              		.type	nvicClearPending, %function
 175              	nvicClearPending:
 176              	.LFB256:
 177              		.loc 1 93 0
 178              		.cfi_startproc
 179              		@ args = 0, pretend = 0, frame = 8
 180              		@ frame_needed = 0, uses_anonymous_args = 0
 181              		@ link register save eliminated.
 182 0000 82B0     		sub	sp, sp, #8
 183              		.cfi_def_cfa_offset 8
 184 0002 0190     		str	r0, [sp, #4]
 185              		.loc 1 95 0
 186 0004 0649     		ldr	r1, .L11
 187 0006 019B     		ldr	r3, [sp, #4]
 188 0008 5B09     		lsrs	r3, r3, #5
 189 000a 019A     		ldr	r2, [sp, #4]
 190 000c 02F01F02 		and	r2, r2, #31
 191 0010 0120     		movs	r0, #1
 192 0012 00FA02F2 		lsl	r2, r0, r2
 193 0016 6033     		adds	r3, r3, #96
 194 0018 41F82320 		str	r2, [r1, r3, lsl #2]
 195              		.loc 1 96 0
 196 001c 02B0     		add	sp, sp, #8
 197              		.cfi_def_cfa_offset 0
 198              		@ sp needed
 199 001e 7047     		bx	lr
 200              	.L12:
 201              		.align	2
 202              	.L11:
 203 0020 00E100E0 		.word	-536813312
 204              		.cfi_endproc
 205              	.LFE256:
 206              		.size	nvicClearPending, .-nvicClearPending
 207 0024 AFF30080 		.text
 207      AFF30080 
 207      AFF30080 
 208              	.Letext0:
 209              		.file 2 "/opt/gcc-arm-none-eabi/arm-none-eabi/include/machine/_default_types.h"
 210              		.file 3 "/opt/gcc-arm-none-eabi/arm-none-eabi/include/stdint.h"
 211              		.file 4 "/home/makkmarci/workspace/CLEAN/ChibiOS/os/rt/ports/ARMCMx/compilers/GCC/chtypes.h"
 212              		.file 5 "/home/makkmarci/workspace/CLEAN/ChibiOS/os/rt/include/chsystypes.h"
 213              		.file 6 "/home/makkmarci/workspace/CLEAN/ChibiOS/os/rt/include/chschd.h"
 214              		.file 7 "/home/makkmarci/workspace/CLEAN/ChibiOS/os/ext/CMSIS/include/core_cm4.h"
 215              		.file 8 "/home/makkmarci/workspace/CLEAN/ChibiOS/os/rt/ports/ARMCMx/chcore.h"
 216              		.file 9 "/home/makkmarci/workspace/CLEAN/ChibiOS/os/rt/ports/ARMCMx/chcore_v7m.h"
 217              		.file 10 "/home/makkmarci/workspace/CLEAN/ChibiOS/os/rt/include/chtm.h"
 218              		.file 11 "/home/makkmarci/workspace/CLEAN/ChibiOS/os/rt/include/chsem.h"
 219              		.file 12 "/home/makkmarci/workspace/CLEAN/ChibiOS/os/rt/include/chmtx.h"