ARM GAS  /tmp/cc1Mzy67.s 			page 1


   1              		.syntax unified
   2              		.cpu cortex-m4
   3              		.eabi_attribute 27, 1
   4              		.eabi_attribute 28, 1
   5              		.fpu fpv4-sp-d16
   6              		.eabi_attribute 20, 1
   7              		.eabi_attribute 21, 1
   8              		.eabi_attribute 23, 3
   9              		.eabi_attribute 24, 1
  10              		.eabi_attribute 25, 1
  11              		.eabi_attribute 26, 1
  12              		.eabi_attribute 30, 6
  13              		.eabi_attribute 34, 1
  14              		.eabi_attribute 18, 4
  15              		.thumb
  16              		.file	"pal_lld.c"
  17              		.text
  18              	.Ltext0:
  19              		.cfi_sections	.debug_frame
  20              		.section	.text.initgpio,"ax",%progbits
  21              		.align	2
  22              		.p2align 4,,15
  23              		.thumb
  24              		.thumb_func
  25              		.type	initgpio, %function
  26              	initgpio:
  27              	.LFB253:
  28              		.file 1 "/home/makkmarci/workspace/CLEAN/ChibiOS/os/hal/ports/STM32/LLD/GPIOv2/pal_lld.c"
  29              		.loc 1 65 0
  30              		.cfi_startproc
  31              		@ args = 0, pretend = 0, frame = 8
  32              		@ frame_needed = 0, uses_anonymous_args = 0
  33              		@ link register save eliminated.
  34 0000 82B0     		sub	sp, sp, #8
  35              		.cfi_def_cfa_offset 8
  36 0002 0190     		str	r0, [sp, #4]
  37 0004 0091     		str	r1, [sp]
  38              		.loc 1 67 0
  39 0006 009B     		ldr	r3, [sp]
  40 0008 5A68     		ldr	r2, [r3, #4]
  41 000a 019B     		ldr	r3, [sp, #4]
  42 000c 5A60     		str	r2, [r3, #4]
  43              		.loc 1 68 0
  44 000e 009B     		ldr	r3, [sp]
  45 0010 9A68     		ldr	r2, [r3, #8]
  46 0012 019B     		ldr	r3, [sp, #4]
  47 0014 9A60     		str	r2, [r3, #8]
  48              		.loc 1 69 0
  49 0016 009B     		ldr	r3, [sp]
  50 0018 DA68     		ldr	r2, [r3, #12]
  51 001a 019B     		ldr	r3, [sp, #4]
  52 001c DA60     		str	r2, [r3, #12]
  53              		.loc 1 70 0
  54 001e 009B     		ldr	r3, [sp]
  55 0020 1A69     		ldr	r2, [r3, #16]
  56 0022 019B     		ldr	r3, [sp, #4]
  57 0024 5A61     		str	r2, [r3, #20]
ARM GAS  /tmp/cc1Mzy67.s 			page 2


  58              		.loc 1 71 0
  59 0026 009B     		ldr	r3, [sp]
  60 0028 5A69     		ldr	r2, [r3, #20]
  61 002a 019B     		ldr	r3, [sp, #4]
  62 002c 1A62     		str	r2, [r3, #32]
  63              		.loc 1 72 0
  64 002e 009B     		ldr	r3, [sp]
  65 0030 9A69     		ldr	r2, [r3, #24]
  66 0032 019B     		ldr	r3, [sp, #4]
  67 0034 5A62     		str	r2, [r3, #36]
  68              		.loc 1 73 0
  69 0036 009B     		ldr	r3, [sp]
  70 0038 1A68     		ldr	r2, [r3]
  71 003a 019B     		ldr	r3, [sp, #4]
  72 003c 1A60     		str	r2, [r3]
  73              		.loc 1 74 0
  74 003e 02B0     		add	sp, sp, #8
  75              		.cfi_def_cfa_offset 0
  76              		@ sp needed
  77 0040 7047     		bx	lr
  78              		.cfi_endproc
  79              	.LFE253:
  80              		.size	initgpio, .-initgpio
  81 0042 00BFAFF3 		.section	.text._pal_lld_init,"ax",%progbits
  81      0080AFF3 
  81      0080AFF3 
  81      0080
  82              		.align	2
  83              		.p2align 4,,15
  84              		.global	_pal_lld_init
  85              		.thumb
  86              		.thumb_func
  87              		.type	_pal_lld_init, %function
  88              	_pal_lld_init:
  89              	.LFB254:
  90              		.loc 1 92 0
  91              		.cfi_startproc
  92              		@ args = 0, pretend = 0, frame = 8
  93              		@ frame_needed = 0, uses_anonymous_args = 0
  94 0000 00B5     		push	{lr}
  95              		.cfi_def_cfa_offset 4
  96              		.cfi_offset 14, -4
  97 0002 83B0     		sub	sp, sp, #12
  98              		.cfi_def_cfa_offset 16
  99 0004 0190     		str	r0, [sp, #4]
 100              		.loc 1 105 0
 101 0006 244A     		ldr	r2, .L3
 102 0008 234B     		ldr	r3, .L3
 103 000a 1B6B     		ldr	r3, [r3, #48]
 104 000c 6FEA5323 		mvn	r3, r3, lsr #9
 105 0010 6FEA4323 		mvn	r3, r3, lsl #9
 106 0014 1363     		str	r3, [r2, #48]
 107              		.loc 1 106 0
 108 0016 204A     		ldr	r2, .L3
 109 0018 1F4B     		ldr	r3, .L3
 110 001a 1B6D     		ldr	r3, [r3, #80]
 111 001c 6FEA5323 		mvn	r3, r3, lsr #9
ARM GAS  /tmp/cc1Mzy67.s 			page 3


 112 0020 6FEA4323 		mvn	r3, r3, lsl #9
 113 0024 1365     		str	r3, [r2, #80]
 114              		.loc 1 113 0
 115 0026 019B     		ldr	r3, [sp, #4]
 116 0028 1C48     		ldr	r0, .L3+4
 117 002a 1946     		mov	r1, r3
 118 002c FFF7FEFF 		bl	initgpio
 119              		.loc 1 116 0
 120 0030 019B     		ldr	r3, [sp, #4]
 121 0032 1C33     		adds	r3, r3, #28
 122 0034 1A48     		ldr	r0, .L3+8
 123 0036 1946     		mov	r1, r3
 124 0038 FFF7FEFF 		bl	initgpio
 125              		.loc 1 119 0
 126 003c 019B     		ldr	r3, [sp, #4]
 127 003e 3833     		adds	r3, r3, #56
 128 0040 1848     		ldr	r0, .L3+12
 129 0042 1946     		mov	r1, r3
 130 0044 FFF7FEFF 		bl	initgpio
 131              		.loc 1 122 0
 132 0048 019B     		ldr	r3, [sp, #4]
 133 004a 5433     		adds	r3, r3, #84
 134 004c 1648     		ldr	r0, .L3+16
 135 004e 1946     		mov	r1, r3
 136 0050 FFF7FEFF 		bl	initgpio
 137              		.loc 1 125 0
 138 0054 019B     		ldr	r3, [sp, #4]
 139 0056 7033     		adds	r3, r3, #112
 140 0058 1448     		ldr	r0, .L3+20
 141 005a 1946     		mov	r1, r3
 142 005c FFF7FEFF 		bl	initgpio
 143              		.loc 1 128 0
 144 0060 019B     		ldr	r3, [sp, #4]
 145 0062 8C33     		adds	r3, r3, #140
 146 0064 1248     		ldr	r0, .L3+24
 147 0066 1946     		mov	r1, r3
 148 0068 FFF7FEFF 		bl	initgpio
 149              		.loc 1 131 0
 150 006c 019B     		ldr	r3, [sp, #4]
 151 006e A833     		adds	r3, r3, #168
 152 0070 1048     		ldr	r0, .L3+28
 153 0072 1946     		mov	r1, r3
 154 0074 FFF7FEFF 		bl	initgpio
 155              		.loc 1 134 0
 156 0078 019B     		ldr	r3, [sp, #4]
 157 007a C433     		adds	r3, r3, #196
 158 007c 0E48     		ldr	r0, .L3+32
 159 007e 1946     		mov	r1, r3
 160 0080 FFF7FEFF 		bl	initgpio
 161              		.loc 1 137 0
 162 0084 019B     		ldr	r3, [sp, #4]
 163 0086 E033     		adds	r3, r3, #224
 164 0088 0C48     		ldr	r0, .L3+36
 165 008a 1946     		mov	r1, r3
 166 008c FFF7FEFF 		bl	initgpio
 167              		.loc 1 139 0
 168 0090 03B0     		add	sp, sp, #12
ARM GAS  /tmp/cc1Mzy67.s 			page 4


 169              		.cfi_def_cfa_offset 4
 170              		@ sp needed
 171 0092 5DF804FB 		ldr	pc, [sp], #4
 172              	.L4:
 173 0096 00BF     		.align	2
 174              	.L3:
 175 0098 00380240 		.word	1073887232
 176 009c 00000240 		.word	1073872896
 177 00a0 00040240 		.word	1073873920
 178 00a4 00080240 		.word	1073874944
 179 00a8 000C0240 		.word	1073875968
 180 00ac 00100240 		.word	1073876992
 181 00b0 00140240 		.word	1073878016
 182 00b4 00180240 		.word	1073879040
 183 00b8 001C0240 		.word	1073880064
 184 00bc 00200240 		.word	1073881088
 185              		.cfi_endproc
 186              	.LFE254:
 187              		.size	_pal_lld_init, .-_pal_lld_init
 188              		.section	.text._pal_lld_setgroupmode,"ax",%progbits
 189              		.align	2
 190              		.p2align 4,,15
 191              		.global	_pal_lld_setgroupmode
 192              		.thumb
 193              		.thumb_func
 194              		.type	_pal_lld_setgroupmode, %function
 195              	_pal_lld_setgroupmode:
 196              	.LFB255:
 197              		.loc 1 157 0
 198              		.cfi_startproc
 199              		@ args = 0, pretend = 0, frame = 56
 200              		@ frame_needed = 0, uses_anonymous_args = 0
 201              		@ link register save eliminated.
 202 0000 8EB0     		sub	sp, sp, #56
 203              		.cfi_def_cfa_offset 56
 204 0002 0390     		str	r0, [sp, #12]
 205 0004 0291     		str	r1, [sp, #8]
 206 0006 0192     		str	r2, [sp, #4]
 207              		.loc 1 159 0
 208 0008 019B     		ldr	r3, [sp, #4]
 209 000a 03F00303 		and	r3, r3, #3
 210 000e 0D93     		str	r3, [sp, #52]
 211              		.loc 1 160 0
 212 0010 019B     		ldr	r3, [sp, #4]
 213 0012 03F00403 		and	r3, r3, #4
 214 0016 9B08     		lsrs	r3, r3, #2
 215 0018 0C93     		str	r3, [sp, #48]
 216              		.loc 1 161 0
 217 001a 019B     		ldr	r3, [sp, #4]
 218 001c 03F01803 		and	r3, r3, #24
 219 0020 DB08     		lsrs	r3, r3, #3
 220 0022 0B93     		str	r3, [sp, #44]
 221              		.loc 1 162 0
 222 0024 019B     		ldr	r3, [sp, #4]
 223 0026 03F06003 		and	r3, r3, #96
 224 002a 5B09     		lsrs	r3, r3, #5
 225 002c 0A93     		str	r3, [sp, #40]
ARM GAS  /tmp/cc1Mzy67.s 			page 5


 226              		.loc 1 163 0
 227 002e 019B     		ldr	r3, [sp, #4]
 228 0030 03F4F063 		and	r3, r3, #1920
 229 0034 DB09     		lsrs	r3, r3, #7
 230 0036 0893     		str	r3, [sp, #32]
 231              		.loc 1 164 0
 232 0038 0023     		movs	r3, #0
 233 003a 0993     		str	r3, [sp, #36]
 234              	.L11:
 235              		.loc 1 166 0
 236 003c 029B     		ldr	r3, [sp, #8]
 237 003e 03F00103 		and	r3, r3, #1
 238 0042 002B     		cmp	r3, #0
 239 0044 54D0     		beq	.L6
 240              	.LBB2:
 241              		.loc 1 169 0
 242 0046 099B     		ldr	r3, [sp, #36]
 243 0048 03F00703 		and	r3, r3, #7
 244 004c 9B00     		lsls	r3, r3, #2
 245 004e 1A46     		mov	r2, r3
 246 0050 089B     		ldr	r3, [sp, #32]
 247 0052 9340     		lsls	r3, r3, r2
 248 0054 0793     		str	r3, [sp, #28]
 249              		.loc 1 170 0
 250 0056 099B     		ldr	r3, [sp, #36]
 251 0058 03F00703 		and	r3, r3, #7
 252 005c 9B00     		lsls	r3, r3, #2
 253 005e 1A46     		mov	r2, r3
 254 0060 0F23     		movs	r3, #15
 255 0062 9340     		lsls	r3, r3, r2
 256 0064 0693     		str	r3, [sp, #24]
 257              		.loc 1 171 0
 258 0066 099B     		ldr	r3, [sp, #36]
 259 0068 072B     		cmp	r3, #7
 260 006a 09D8     		bhi	.L7
 261              		.loc 1 172 0
 262 006c 039B     		ldr	r3, [sp, #12]
 263 006e 1A6A     		ldr	r2, [r3, #32]
 264 0070 069B     		ldr	r3, [sp, #24]
 265 0072 DB43     		mvns	r3, r3
 266 0074 1A40     		ands	r2, r2, r3
 267 0076 079B     		ldr	r3, [sp, #28]
 268 0078 1A43     		orrs	r2, r2, r3
 269 007a 039B     		ldr	r3, [sp, #12]
 270 007c 1A62     		str	r2, [r3, #32]
 271 007e 08E0     		b	.L8
 272              	.L7:
 273              		.loc 1 174 0
 274 0080 039B     		ldr	r3, [sp, #12]
 275 0082 5A6A     		ldr	r2, [r3, #36]
 276 0084 069B     		ldr	r3, [sp, #24]
 277 0086 DB43     		mvns	r3, r3
 278 0088 1A40     		ands	r2, r2, r3
 279 008a 079B     		ldr	r3, [sp, #28]
 280 008c 1A43     		orrs	r2, r2, r3
 281 008e 039B     		ldr	r3, [sp, #12]
 282 0090 5A62     		str	r2, [r3, #36]
ARM GAS  /tmp/cc1Mzy67.s 			page 6


 283              	.L8:
 284              		.loc 1 175 0
 285 0092 099B     		ldr	r3, [sp, #36]
 286 0094 0122     		movs	r2, #1
 287 0096 02FA03F3 		lsl	r3, r2, r3
 288 009a 0593     		str	r3, [sp, #20]
 289              		.loc 1 176 0
 290 009c 039B     		ldr	r3, [sp, #12]
 291 009e 5A68     		ldr	r2, [r3, #4]
 292 00a0 059B     		ldr	r3, [sp, #20]
 293 00a2 DB43     		mvns	r3, r3
 294 00a4 1A40     		ands	r2, r2, r3
 295 00a6 0C9B     		ldr	r3, [sp, #48]
 296 00a8 1A43     		orrs	r2, r2, r3
 297 00aa 039B     		ldr	r3, [sp, #12]
 298 00ac 5A60     		str	r2, [r3, #4]
 299              		.loc 1 177 0
 300 00ae 099B     		ldr	r3, [sp, #36]
 301 00b0 5B00     		lsls	r3, r3, #1
 302 00b2 1A46     		mov	r2, r3
 303 00b4 0323     		movs	r3, #3
 304 00b6 9340     		lsls	r3, r3, r2
 305 00b8 0493     		str	r3, [sp, #16]
 306              		.loc 1 178 0
 307 00ba 039B     		ldr	r3, [sp, #12]
 308 00bc 9A68     		ldr	r2, [r3, #8]
 309 00be 049B     		ldr	r3, [sp, #16]
 310 00c0 DB43     		mvns	r3, r3
 311 00c2 1A40     		ands	r2, r2, r3
 312 00c4 0B9B     		ldr	r3, [sp, #44]
 313 00c6 1A43     		orrs	r2, r2, r3
 314 00c8 039B     		ldr	r3, [sp, #12]
 315 00ca 9A60     		str	r2, [r3, #8]
 316              		.loc 1 179 0
 317 00cc 039B     		ldr	r3, [sp, #12]
 318 00ce DA68     		ldr	r2, [r3, #12]
 319 00d0 049B     		ldr	r3, [sp, #16]
 320 00d2 DB43     		mvns	r3, r3
 321 00d4 1A40     		ands	r2, r2, r3
 322 00d6 0A9B     		ldr	r3, [sp, #40]
 323 00d8 1A43     		orrs	r2, r2, r3
 324 00da 039B     		ldr	r3, [sp, #12]
 325 00dc DA60     		str	r2, [r3, #12]
 326              		.loc 1 180 0
 327 00de 039B     		ldr	r3, [sp, #12]
 328 00e0 1A68     		ldr	r2, [r3]
 329 00e2 049B     		ldr	r3, [sp, #16]
 330 00e4 DB43     		mvns	r3, r3
 331 00e6 1A40     		ands	r2, r2, r3
 332 00e8 0D9B     		ldr	r3, [sp, #52]
 333 00ea 1A43     		orrs	r2, r2, r3
 334 00ec 039B     		ldr	r3, [sp, #12]
 335 00ee 1A60     		str	r2, [r3]
 336              	.L6:
 337              	.LBE2:
 338              		.loc 1 182 0
 339 00f0 029B     		ldr	r3, [sp, #8]
ARM GAS  /tmp/cc1Mzy67.s 			page 7


 340 00f2 5B08     		lsrs	r3, r3, #1
 341 00f4 0293     		str	r3, [sp, #8]
 342              		.loc 1 183 0
 343 00f6 029B     		ldr	r3, [sp, #8]
 344 00f8 002B     		cmp	r3, #0
 345 00fa 00D1     		bne	.L9
 346              		.loc 1 184 0
 347 00fc 0FE0     		b	.L12
 348              	.L9:
 349              		.loc 1 185 0
 350 00fe 0C9B     		ldr	r3, [sp, #48]
 351 0100 5B00     		lsls	r3, r3, #1
 352 0102 0C93     		str	r3, [sp, #48]
 353              		.loc 1 186 0
 354 0104 0B9B     		ldr	r3, [sp, #44]
 355 0106 9B00     		lsls	r3, r3, #2
 356 0108 0B93     		str	r3, [sp, #44]
 357              		.loc 1 187 0
 358 010a 0A9B     		ldr	r3, [sp, #40]
 359 010c 9B00     		lsls	r3, r3, #2
 360 010e 0A93     		str	r3, [sp, #40]
 361              		.loc 1 188 0
 362 0110 0D9B     		ldr	r3, [sp, #52]
 363 0112 9B00     		lsls	r3, r3, #2
 364 0114 0D93     		str	r3, [sp, #52]
 365              		.loc 1 189 0
 366 0116 099B     		ldr	r3, [sp, #36]
 367 0118 0133     		adds	r3, r3, #1
 368 011a 0993     		str	r3, [sp, #36]
 369              		.loc 1 190 0
 370 011c 8EE7     		b	.L11
 371              	.L12:
 372              		.loc 1 191 0
 373 011e 0EB0     		add	sp, sp, #56
 374              		.cfi_def_cfa_offset 0
 375              		@ sp needed
 376 0120 7047     		bx	lr
 377              		.cfi_endproc
 378              	.LFE255:
 379              		.size	_pal_lld_setgroupmode, .-_pal_lld_setgroupmode
 380 0122 00BFAFF3 		.text
 380      0080AFF3 
 380      0080AFF3 
 380      0080
 381              	.Letext0:
 382              		.file 2 "/opt/gcc-arm-none-eabi/arm-none-eabi/include/machine/_default_types.h"
 383              		.file 3 "/opt/gcc-arm-none-eabi/arm-none-eabi/include/stdint.h"
 384              		.file 4 "/home/makkmarci/workspace/CLEAN/ChibiOS/os/rt/ports/ARMCMx/compilers/GCC/chtypes.h"
 385              		.file 5 "/home/makkmarci/workspace/CLEAN/ChibiOS/os/rt/include/chsystypes.h"
 386              		.file 6 "/home/makkmarci/workspace/CLEAN/ChibiOS/os/rt/include/chschd.h"
 387              		.file 7 "/home/makkmarci/workspace/CLEAN/ChibiOS/os/ext/CMSIS/ST/stm32f407xx.h"
 388              		.file 8 "/home/makkmarci/workspace/CLEAN/ChibiOS/os/rt/ports/ARMCMx/chcore.h"
 389              		.file 9 "/home/makkmarci/workspace/CLEAN/ChibiOS/os/rt/ports/ARMCMx/chcore_v7m.h"
 390              		.file 10 "/home/makkmarci/workspace/CLEAN/ChibiOS/os/rt/include/chtm.h"
 391              		.file 11 "/home/makkmarci/workspace/CLEAN/ChibiOS/os/rt/include/chsem.h"
 392              		.file 12 "/home/makkmarci/workspace/CLEAN/ChibiOS/os/rt/include/chmtx.h"
 393              		.file 13 "/home/makkmarci/workspace/CLEAN/ChibiOS/os/hal/ports/STM32/LLD/GPIOv2/pal_lld.h"
ARM GAS  /tmp/cc1Mzy67.s 			page 8


 394              		.file 14 "/home/makkmarci/workspace/CLEAN/ChibiOS/os/ext/CMSIS/include/core_cm4.h"