ARM GAS  /tmp/cc1Mzy67.s 			page 1


   1              		.syntax unified
   2              		.cpu cortex-m4
   3              		.eabi_attribute 27, 1
   4              		.eabi_attribute 28, 1
   5              		.fpu fpv4-sp-d16
   6              		.eabi_attribute 20, 1
   7              		.eabi_attribute 21, 1
   8              		.eabi_attribute 23, 3
   9              		.eabi_attribute 24, 1
  10              		.eabi_attribute 25, 1
  11              		.eabi_attribute 26, 1
  12              		.eabi_attribute 30, 6
  13              		.eabi_attribute 34, 1
  14              		.eabi_attribute 18, 4
  15              		.thumb
  16              		.file	"pal_lld.c"
  17              		.text
  18              	.Ltext0:
  19              		.cfi_sections	.debug_frame
  20              		.section	.text.initgpio,"ax",%progbits
  21              		.align	2
  22              		.p2align 4,,15
  23              		.thumb
  24              		.thumb_func
  25              		.type	initgpio, %function
  26              	initgpio:
  27              	.LFB253:
  28              		.file 1 "/home/makkmarci/workspace/CLEAN/ChibiOS/os/hal/ports/STM32/LLD/GPIOv2/pal_lld.c"
  29              		.loc 1 65 0
  30              		.cfi_startproc
  31              		@ args = 0, pretend = 0, frame = 8
  32              		@ frame_needed = 0, uses_anonymous_args = 0
  33              		@ link register save eliminated.
  34 0000 82B0     		sub	sp, sp, #8
  35              		.cfi_def_cfa_offset 8
  36 0002 0190     		str	r0, [sp, #4]
  37 0004 0091     		str	r1, [sp]
  38              		.loc 1 67 0
  39 0006 009B     		ldr	r3, [sp]
  40 0008 5A68     		ldr	r2, [r3, #4]
  41 000a 019B     		ldr	r3, [sp, #4]
  42 000c 5A60     		str	r2, [r3, #4]
  43              		.loc 1 68 0
  44 000e 009B     		ldr	r3, [sp]
  45 0010 9A68     		ldr	r2, [r3, #8]
  46 0012 019B     		ldr	r3, [sp, #4]
  47 0014 9A60     		str	r2, [r3, #8]
  48              		.loc 1 69 0
  49 0016 009B     		ldr	r3, [sp]
  50 0018 DA68     		ldr	r2, [r3, #12]
  51 001a 019B     		ldr	r3, [sp, #4]
  52 001c DA60     		str	r2, [r3, #12]
  53              		.loc 1 70 0
  54 001e 009B     		ldr	r3, [sp]
  55 0020 1A69     		ldr	r2, [r3, #16]
  56 0022 019B     		ldr	r3, [sp, #4]
  57 0024 5A61     		str	r2, [r3, #20]
ARM GAS  /tmp/cc1Mzy67.s 			page 2


  58              		.loc 1 71 0
  59 0026 009B     		ldr	r3, [sp]
  60 0028 5A69     		ldr	r2, [r3, #20]
  61 002a 019B     		ldr	r3, [sp, #4]
  62 002c 1A62     		str	r2, [r3, #32]
  63              		.loc 1 72 0
  64 002e 009B     		ldr	r3, [sp]
  65 0030 9A69     		ldr	r2, [r3, #24]
  66 0032 019B     		ldr	r3, [sp, #4]
  67 0034 5A62     		str	r2, [r3, #36]
  68              		.loc 1 73 0
  69 0036 009B     		ldr	r3, [sp]
  70 0038 1A68     		ldr	r2, [r3]
  71 003a 019B     		ldr	r3, [sp, #4]
  72 003c 1A60     		str	r2, [r3]
  73              		.loc 1 74 0
  74 003e 02B0     		add	sp, sp, #8
  75              		.cfi_def_cfa_offset 0
  76              		@ sp needed
  77 0040 7047     		bx	lr
  78              		.cfi_endproc
  79              	.LFE253:
  80              		.size	initgpio, .-initgpio
  81 0042 00BFAFF3 		.section	.text._pal_lld_init,"ax",%progbits
  81      0080AFF3 
  81      0080AFF3 
  81      0080
  82              		.align	2
  83              		.p2align 4,,15
  84              		.global	_pal_lld_init
  85              		.thumb
  86              		.thumb_func
  87              		.type	_pal_lld_init, %function
  88              	_pal_lld_init:
  89              	.LFB254:
  90              		.loc 1 92 0
  91              		.cfi_startproc
  92              		@ args = 0, pretend = 0, frame = 8
  93              		@ frame_needed = 0, uses_anonymous_args = 0
  94 0000 00B5     		push	{lr}
  95              		.cfi_def_cfa_offset 4
  96              		.cfi_offset 14, -4
  97 0002 83B0     		sub	sp, sp, #12
  98              		.cfi_def_cfa_offset 16
  99 0004 0190     		str	r0, [sp, #4]
 100              		.loc 1 105 0
 101 0006 244A     		ldr	r2, .L3
 102 0008 234B     		ldr	r3, .L3
 103 000a 1B6B     		ldr	r3, [r3, #48]
 104 000c 6FEA5323 		mvn	r3, r3, lsr #9
 105 0010 6FEA4323 		mvn	r3, r3, lsl #9
 106 0014 1363     		str	r3, [r2, #48]
 107              		.loc 1 106 0
 108 0016 204A     		ldr	r2, .L3
 109 0018 1F4B     		ldr	r3, .L3
 110 001a 1B6D     		ldr	r3, [r3, #80]
 111 001c 6FEA5323 		mvn	r3, r3, lsr #9
ARM GAS  /tmp/cc1Mzy67.s 			page 3


 112 0020 6FEA4323 		mvn	r3, r3, lsl #9
 113 0024 1365     		str	r3, [r2, #80]
 114              		.loc 1 113 0
 115 0026 019B     		ldr	r3, [sp, #4]
 116 0028 1C48     		ldr	r0, .L3+4
 117 002a 1946     		mov	r1, r3
 118 002c FFF7FEFF 		bl	initgpio
 119              		.loc 1 116 0
 120 0030 019B     		ldr	r3, [sp, #4]
 121 0032 1C33     		adds	r3, r3, #28
 122 0034 1A48     		ldr	r0, .L3+8
 123 0036 1946     		mov	r1, r3
 124 0038 FFF7FEFF 		bl	initgpio
 125              		.loc 1 119 0
 126 003c 019B     		ldr	r3, [sp, #4]
 127 003e 3833     		adds	r3, r3, #56
 128 0040 1848     		ldr	r0, .L3+12
 129 0042 1946     		mov	r1, r3
 130 0044 FFF7FEFF 		bl	initgpio
 131              		.loc 1 122 0
 132 0048 019B     		ldr	r3, [sp, #4]
 133 004a 5433     		adds	r3, r3, #84
 134 004c 1648     		ldr	r0, .L3+16
 135 004e 1946     		mov	r1, r3
 136 0050 FFF7FEFF 		bl	initgpio
 137              		.loc 1 125 0
 138 0054 019B     		ldr	r3, [sp, #4]
 139 0056 7033     		adds	r3, r3, #112
 140 0058 1448     		ldr	r0, .L3+20
 141 005a 1946     		mov	r1, r3
 142 005c FFF7FEFF 		bl	initgpio
 143              		.loc 1 128 0
 144 0060 019B     		ldr	r3, [sp, #4]
 145 0062 8C33     		adds	r3, r3, #140
 146 0064 1248     		ldr	r0, .L3+24
 147 0066 1946     		mov	r1, r3
 148 0068 FFF7FEFF 		bl	initgpio
 149              		.loc 1 131 0
 150 006c 019B     		ldr	r3, [sp, #4]
 151 006e A833     		adds	r3, r3, #168
 152 0070 1048     		ldr	r0, .L3+28
 153 0072 1946     		mov	r1, r3
 154 0074 FFF7FEFF 		bl	initgpio
 155              		.loc 1 134 0
 156 0078 019B     		ldr	r3, [sp, #4]
 157 007a C433     		adds	r3, r3, #196
 158 007c 0E48     		ldr	r0, .L3+32
 159 007e 1946     		mov	r1, r3
 160 0080 FFF7FEFF 		bl	initgpio
 161              		.loc 1 137 0
 162 0084 019B     		ldr	r3, [sp, #4]
 163 0086 E033     		adds	r3, r3, #224
 164 0088 0C48     		ldr	r0, .L3+36
 165 008a 1946     		mov	r1, r3
 166 008c FFF7FEFF 		bl	initgpio
 167              		.loc 1 139 0
 168 0090 03B0     		add	sp, sp, #12
ARM GAS  /tmp/cc1Mzy67.s 			page 4


 169              		.cfi_def_cfa_offset 4
 170              		@ sp needed
 171 0092 5DF804FB 		ldr	pc, [sp], #4
 172              	.L4:
 173 0096 00BF     		.align	2
 174              	.L3:
 175 0098 00380240 		.word	1073887232
 176 009c 00000240 		.word	1073872896
 177 00a0 00040240 		.word	1073873920
 178 00a4 00080240 		.word	1073874944
 179 00a8 000C0240 		.word	1073875968
 180 00ac 00100240 		.word	1073876992
 181 00b0 00140240 		.word	1073878016
 182 00b4 00180240 		.word	1073879040
 183 00b8 001C0240 		.word	1073880064
 184 00bc 00200240 		.word	1073881088
 185              		.cfi_endproc
 186              	.LFE254:
 187              		.size	_pal_lld_init, .-_pal_lld_init
 188              		.section	.text._pal_lld_setgroupmode,"ax",%progbits
 189              		.align	2
 190              		.p2align 4,,15
 191              		.global	_pal_lld_setgroupmode
 192              		.thumb
 193              		.thumb_func
 194              		.type	_pal_lld_setgroupmode, %function
 195              	_pal_lld_setgroupmode:
 196              	.LFB255:
 197              		.loc 1 157 0
 198              		.cfi_startproc
 199              		@ args = 0, pretend = 0, frame = 56
 200              		@ frame_needed = 0, uses_anonymous_args = 0
 201              		@ link register save eliminated.
 202 0000 8EB0     		sub	sp, sp, #56
 203              		.cfi_def_cfa_offset 56
 204 0002 0390     		str	r0, [sp, #12]
 205 0004 0291     		str	r1, [sp, #8]
 206 0006 0192     		str	r2, [sp, #4]
 207              		.loc 1 159 0
 208 0008 019B     		ldr	r3, [sp, #4]
 209 000a 03F00303 		and	r3, r3, #3
 210 000e 0D93     		str	r3, [sp, #52]
 211              		.loc 1 160 0
 212 0010 019B     		ldr	r3, [sp, #4]
 213 0012 03F00403 		and	r3, r3, #4
 214 0016 9B08     		lsrs	r3, r3, #2
 215 0018 0C93     		str	r3, [sp, #48]
 216              		.loc 1 161 0
 217 001a 019B     		ldr	r3, [sp, #4]
 218 001c 03F01803 		and	r3, r3, #24
 219 0020 DB08     		lsrs	r3, r3, #3
 220 0022 0B93     		str	r3, [sp, #44]
 221              		.loc 1 162 0
 222 0024 019B     		ldr	r3, [sp, #4]
 223 0026 03F06003 		and	r3, r3, #96
 224 002a 5B09     		lsrs	r3, r3, #5
 225 002c 0A93     		str	r3, [sp, #40]
ARM GAS  /tmp/cc1Mzy67.s 			page 5


 226              		.loc 1 163 0
 227 002e 019B     		ldr	r3, [sp, #4]
 228 0030 03F4F063 		and	r3, r3, #1920
 229 0034 DB09     		lsrs	r3, r3, #7
 230 0036 0893     		str	r3, [sp, #32]
 231              		.loc 1 164 0
 232 0038 0023     		movs	r3, #0
 233 003a 0993     		str	r3, [sp, #36]
 234              	.L11:
 235              		.loc 1 166 0
 236 003c 029B     		ldr	r3, [sp, #8]
 237 003e 03F00103 		and	r3, r3, #1
 238 0042 002B     		cmp	r3, #0
 239 0044 54D0     		beq	.L6
 240              	.LBB2:
 241              		.loc 1 169 0
 242 0046 099B     		ldr	r3, [sp, #36]
 243 0048 03F00703 		and	r3, r3, #7
 244 004c 9B00     		lsls	r3, r3, #2
 245 004e 1A46     		mov	r2, r3
 246 0050 089B     		ldr	r3, [sp, #32]
 247 0052 9340     		lsls	r3, r3, r2
 248 0054 0793     		str	r3, [sp, #28]
 249              		.loc 1 170 0
 250 0056 099B     		ldr	r3, [sp, #36]
 251 0058 03F00703 		and	r3, r3, #7
 252 005c 9B00     		lsls	r3, r3, #2
 253 005e 1A46     		mov	r2, r3
 254 0060 0F23     		movs	r3, #15
 255 0062 9340     		lsls	r3, r3, r2
 256 0064 0693     		str	r3, [sp, #24]
 257              		.loc 1 171 0
 258 0066 099B     		ldr	r3, [sp, #36]
 259 0068 072B     		cmp	r3, #7
 260 006a 09D8     		bhi	.L7
 261              		.loc 1 172 0
 262 006c 039B     		ldr	r3, [sp, #12]
 263 006e 1A6A     		ldr	r2, [r3, #32]
 264 0070 069B     		ldr	r3, [sp, #24]
 265 0072 DB43     		mvns	r3, r3
 266 0074 1A40     		ands	r2, r2, r3
 267 0076 079B     		ldr	r3, [sp, #28]
 268 0078 1A43     		orrs	r2, r2, r3
 269 007a 039B     		ldr	r3, [sp, #12]
 270 007c 1A62     		str	r2, [r3, #32]
 271 007e 08E0     		b	.L8
 272              	.L7:
 273              		.loc 1 174 0
 274 0080 039B     		ldr	r3, [sp, #12]
 275 0082 5A6A     		ldr	r2, [r3, #36]
 276 0084 069B     		ldr	r3, [sp, #24]
 277 0086 DB43     		mvns	r3, r3
 278 0088 1A40     		ands	r2, r2, r3
 279 008a 079B     		ldr	r3, [sp, #28]
 280 008c 1A43     		orrs	r2, r2, r3
 281 008e 039B     		ldr	r3, [sp, #12]
 282 0090 5A62     		str	r2, [r3, #36]
ARM GAS  /tmp/cc1Mzy67.s 			page 6


 283              	.L8:
 284              		.loc 1 175 0
 285 0092 099B     		ldr	r3, [sp, #36]
 286 0094 0122     		movs	r2, #1
 287 0096 02FA03F3 		lsl	r3, r2, r3
 288 009a 0593     		str	r3, [sp, #20]
 289              		.loc 1 176 0
 290 009c 039B     		ldr	r3, [sp, #12]
 291 009e 5A68     		ldr	r2, [r3, #4]
 292 00a0 059B     		ldr	r3, [sp, #20]
 293 00a2 DB43     		mvns	r3, r3
 294 00a4 1A40     		ands	r2, r2, r3
 295 00a6 0C9B     		ldr	r3, [sp, #48]
 296 00a8 1A43     		orrs	r2, r2, r3
 297 00aa 039B     		ldr	r3, [sp, #12]
 298 00ac 5A60     		str	r2, [r3, #4]
 299              		.loc 1 177 0
 300 00ae 099B     		ldr	r3, [sp, #36]
 301 00b0 5B00     		lsls	r3, r3, #1
 302 00b2 1A46     		mov	r2, r3
 303 00b4 0323     		movs	r3, #3
 304 00b6 9340     		lsls	r3, r3, r2
 305 00b8 0493     		str	r3, [sp, #16]
 306              		.loc 1 178 0
 307 00ba 039B     		ldr	r3, [sp, #12]
 308 00bc 9A68     		ldr	r2, [r3, #8]
 309 00be 049B     		ldr	r3, [sp, #16]
 310 00c0 DB43     		mvns	r3, r3
 311 00c2 1A40     		ands	r2, r2, r3
 312 00c4 0B9B     		ldr	r3, [sp, #44]
 313 00c6 1A43     		orrs	r2, r2, r3
 314 00c8 039B     		ldr	r3, [sp, #12]
 315 00ca 9A60     		str	r2, [r3, #8]
 316              		.loc 1 179 0
 317 00cc 039B     		ldr	r3, [sp, #12]
 318 00ce DA68     		ldr	r2, [r3, #12]
 319 00d0 049B     		ldr	r3, [sp, #16]
 320 00d2 DB43     		mvns	r3, r3
 321 00d4 1A40     		ands	r2, r2, r3
 322 00d6 0A9B     		ldr	r3, [sp, #40]
 323 00d8 1A43     		orrs	r2, r2, r3
 324 00da 039B     		ldr	r3, [sp, #12]
 325 00dc DA60     		str	r2, [r3, #12]
 326              		.loc 1 180 0
 327 00de 039B     		ldr	r3, [sp, #12]
 328 00e0 1A68     		ldr	r2, [r3]
 329 00e2 049B     		ldr	r3, [sp, #16]
 330 00e4 DB43     		mvns	r3, r3
 331 00e6 1A40     		ands	r2, r2, r3
 332 00e8 0D9B     		ldr	r3, [sp, #52]
 333 00ea 1A43     		orrs	r2, r2, r3
 334 00ec 039B     		ldr	r3, [sp, #12]
 335 00ee 1A60     		str	r2, [r3]
 336              	.L6:
 337              	.LBE2:
 338              		.loc 1 182 0
 339 00f0 029B     		ldr	r3, [sp, #8]
ARM GAS  /tmp/cc1Mzy67.s 			page 7


 340 00f2 5B08     		lsrs	r3, r3, #1
 341 00f4 0293     		str	r3, [sp, #8]
 342              		.loc 1 183 0
 343 00f6 029B     		ldr	r3, [sp, #8]
 344 00f8 002B     		cmp	r3, #0
 345 00fa 00D1     		bne	.L9
 346              		.loc 1 184 0
 347 00fc 0FE0     		b	.L12
 348              	.L9:
 349              		.loc 1 185 0
 350 00fe 0C9B     		ldr	r3, [sp, #48]
 351 0100 5B00     		lsls	r3, r3, #1
 352 0102 0C93     		str	r3, [sp, #48]
 353              		.loc 1 186 0
 354 0104 0B9B     		ldr	r3, [sp, #44]
 355 0106 9B00     		lsls	r3, r3, #2
 356 0108 0B93     		str	r3, [sp, #44]
 357              		.loc 1 187 0
 358 010a 0A9B     		ldr	r3, [sp, #40]
 359 010c 9B00     		lsls	r3, r3, #2
 360 010e 0A93     		str	r3, [sp, #40]
 361              		.loc 1 188 0
 362 0110 0D9B     		ldr	r3, [sp, #52]
 363 0112 9B00     		lsls	r3, r3, #2
 364 0114 0D93     		str	r3, [sp, #52]
 365              		.loc 1 189 0
 366 0116 099B     		ldr	r3, [sp, #36]
 367 0118 0133     		adds	r3, r3, #1
 368 011a 0993     		str	r3, [sp, #36]
 369              		.loc 1 190 0
 370 011c 8EE7     		b	.L11
 371              	.L12:
 372              		.loc 1 191 0
 373 011e 0EB0     		add	sp, sp, #56
 374              		.cfi_def_cfa_offset 0
 375              		@ sp needed
 376 0120 7047     		bx	lr
 377              		.cfi_endproc
 378              	.LFE255:
 379              		.size	_pal_lld_setgroupmode, .-_pal_lld_setgroupmode
 380 0122 00BFAFF3 		.text
 380      0080AFF3 
 380      0080AFF3 
 380      0080
 381              	.Letext0:
 382              		.file 2 "/opt/gcc-arm-none-eabi/arm-none-eabi/include/machine/_default_types.h"
 383              		.file 3 "/opt/gcc-arm-none-eabi/arm-none-eabi/include/stdint.h"
 384              		.file 4 "/home/makkmarci/workspace/CLEAN/ChibiOS/os/rt/ports/ARMCMx/compilers/GCC/chtypes.h"
 385              		.file 5 "/home/makkmarci/workspace/CLEAN/ChibiOS/os/rt/include/chsystypes.h"
 386              		.file 6 "/home/makkmarci/workspace/CLEAN/ChibiOS/os/rt/include/chschd.h"
 387              		.file 7 "/home/makkmarci/workspace/CLEAN/ChibiOS/os/ext/CMSIS/ST/stm32f407xx.h"
 388              		.file 8 "/home/makkmarci/workspace/CLEAN/ChibiOS/os/rt/ports/ARMCMx/chcore.h"
 389              		.file 9 "/home/makkmarci/workspace/CLEAN/ChibiOS/os/rt/ports/ARMCMx/chcore_v7m.h"
 390              		.file 10 "/home/makkmarci/workspace/CLEAN/ChibiOS/os/rt/include/chtm.h"
 391              		.file 11 "/home/makkmarci/workspace/CLEAN/ChibiOS/os/rt/include/chsem.h"
 392              		.file 12 "/home/makkmarci/workspace/CLEAN/ChibiOS/os/rt/include/chmtx.h"
 393              		.file 13 "/home/makkmarci/workspace/CLEAN/ChibiOS/os/hal/ports/STM32/LLD/GPIOv2/pal_lld.h"
ARM GAS  /tmp/cc1Mzy67.s 			page 8


 394              		.file 14 "/home/makkmarci/workspace/CLEAN/ChibiOS/os/ext/CMSIS/include/core_cm4.h"
 395              		.section	.debug_info,"",%progbits
 396              	.Ldebug_info0:
 397 0000 ED0B0000 		.4byte	0xbed
 398 0004 0400     		.2byte	0x4
 399 0006 00000000 		.4byte	.Ldebug_abbrev0
 400 000a 04       		.byte	0x4
 401 000b 01       		.uleb128 0x1
 402 000c 84030000 		.4byte	.LASF172
 403 0010 01       		.byte	0x1
 404 0011 46020000 		.4byte	.LASF173
 405 0015 00000000 		.4byte	.Ldebug_ranges0+0
 406 0019 00000000 		.4byte	0
 407 001d 00000000 		.4byte	.Ldebug_line0
 408 0021 02       		.uleb128 0x2
 409 0022 04       		.byte	0x4
 410 0023 05       		.byte	0x5
 411 0024 696E7400 		.ascii	"int\000"
 412 0028 03       		.uleb128 0x3
 413 0029 04       		.byte	0x4
 414 002a 07       		.byte	0x7
 415 002b F9010000 		.4byte	.LASF0
 416 002f 03       		.uleb128 0x3
 417 0030 01       		.byte	0x1
 418 0031 06       		.byte	0x6
 419 0032 0B010000 		.4byte	.LASF1
 420 0036 04       		.uleb128 0x4
 421 0037 36000000 		.4byte	.LASF4
 422 003b 02       		.byte	0x2
 423 003c 1D       		.byte	0x1d
 424 003d 41000000 		.4byte	0x41
 425 0041 03       		.uleb128 0x3
 426 0042 01       		.byte	0x1
 427 0043 08       		.byte	0x8
 428 0044 76050000 		.4byte	.LASF2
 429 0048 03       		.uleb128 0x3
 430 0049 02       		.byte	0x2
 431 004a 05       		.byte	0x5
 432 004b 99050000 		.4byte	.LASF3
 433 004f 04       		.uleb128 0x4
 434 0050 70060000 		.4byte	.LASF5
 435 0054 02       		.byte	0x2
 436 0055 2B       		.byte	0x2b
 437 0056 5A000000 		.4byte	0x5a
 438 005a 03       		.uleb128 0x3
 439 005b 02       		.byte	0x2
 440 005c 07       		.byte	0x7
 441 005d 96020000 		.4byte	.LASF6
 442 0061 04       		.uleb128 0x4
 443 0062 0C030000 		.4byte	.LASF7
 444 0066 02       		.byte	0x2
 445 0067 3F       		.byte	0x3f
 446 0068 6C000000 		.4byte	0x6c
 447 006c 03       		.uleb128 0x3
 448 006d 04       		.byte	0x4
 449 006e 05       		.byte	0x5
 450 006f 51010000 		.4byte	.LASF8
ARM GAS  /tmp/cc1Mzy67.s 			page 9


 451 0073 04       		.uleb128 0x4
 452 0074 B2060000 		.4byte	.LASF9
 453 0078 02       		.byte	0x2
 454 0079 41       		.byte	0x41
 455 007a 7E000000 		.4byte	0x7e
 456 007e 03       		.uleb128 0x3
 457 007f 04       		.byte	0x4
 458 0080 07       		.byte	0x7
 459 0081 48060000 		.4byte	.LASF10
 460 0085 03       		.uleb128 0x3
 461 0086 08       		.byte	0x8
 462 0087 05       		.byte	0x5
 463 0088 FD000000 		.4byte	.LASF11
 464 008c 04       		.uleb128 0x4
 465 008d F0040000 		.4byte	.LASF12
 466 0091 02       		.byte	0x2
 467 0092 5B       		.byte	0x5b
 468 0093 97000000 		.4byte	0x97
 469 0097 03       		.uleb128 0x3
 470 0098 08       		.byte	0x8
 471 0099 07       		.byte	0x7
 472 009a 7C000000 		.4byte	.LASF13
 473 009e 04       		.uleb128 0x4
 474 009f 66070000 		.4byte	.LASF14
 475 00a3 03       		.byte	0x3
 476 00a4 15       		.byte	0x15
 477 00a5 36000000 		.4byte	0x36
 478 00a9 04       		.uleb128 0x4
 479 00aa 0E020000 		.4byte	.LASF15
 480 00ae 03       		.byte	0x3
 481 00af 21       		.byte	0x21
 482 00b0 4F000000 		.4byte	0x4f
 483 00b4 04       		.uleb128 0x4
 484 00b5 6E050000 		.4byte	.LASF16
 485 00b9 03       		.byte	0x3
 486 00ba 2C       		.byte	0x2c
 487 00bb 61000000 		.4byte	0x61
 488 00bf 04       		.uleb128 0x4
 489 00c0 20060000 		.4byte	.LASF17
 490 00c4 03       		.byte	0x3
 491 00c5 2D       		.byte	0x2d
 492 00c6 73000000 		.4byte	0x73
 493 00ca 04       		.uleb128 0x4
 494 00cb 2D000000 		.4byte	.LASF18
 495 00cf 03       		.byte	0x3
 496 00d0 39       		.byte	0x39
 497 00d1 8C000000 		.4byte	0x8c
 498 00d5 05       		.uleb128 0x5
 499 00d6 B4000000 		.4byte	0xb4
 500 00da 05       		.uleb128 0x5
 501 00db BF000000 		.4byte	0xbf
 502 00df 04       		.uleb128 0x4
 503 00e0 18070000 		.4byte	.LASF19
 504 00e4 04       		.byte	0x4
 505 00e5 46       		.byte	0x46
 506 00e6 BF000000 		.4byte	0xbf
 507 00ea 04       		.uleb128 0x4
ARM GAS  /tmp/cc1Mzy67.s 			page 10


 508 00eb E0020000 		.4byte	.LASF20
 509 00ef 04       		.byte	0x4
 510 00f0 49       		.byte	0x49
 511 00f1 9E000000 		.4byte	0x9e
 512 00f5 04       		.uleb128 0x4
 513 00f6 74010000 		.4byte	.LASF21
 514 00fa 04       		.byte	0x4
 515 00fb 4A       		.byte	0x4a
 516 00fc 9E000000 		.4byte	0x9e
 517 0100 04       		.uleb128 0x4
 518 0101 05050000 		.4byte	.LASF22
 519 0105 04       		.byte	0x4
 520 0106 4B       		.byte	0x4b
 521 0107 9E000000 		.4byte	0x9e
 522 010b 04       		.uleb128 0x4
 523 010c 50050000 		.4byte	.LASF23
 524 0110 04       		.byte	0x4
 525 0111 4D       		.byte	0x4d
 526 0112 BF000000 		.4byte	0xbf
 527 0116 04       		.uleb128 0x4
 528 0117 C5020000 		.4byte	.LASF24
 529 011b 04       		.byte	0x4
 530 011c 4E       		.byte	0x4e
 531 011d B4000000 		.4byte	0xb4
 532 0121 04       		.uleb128 0x4
 533 0122 00030000 		.4byte	.LASF25
 534 0126 04       		.byte	0x4
 535 0127 50       		.byte	0x50
 536 0128 BF000000 		.4byte	0xbf
 537 012c 04       		.uleb128 0x4
 538 012d F3010000 		.4byte	.LASF26
 539 0131 04       		.byte	0x4
 540 0132 52       		.byte	0x52
 541 0133 B4000000 		.4byte	0xb4
 542 0137 04       		.uleb128 0x4
 543 0138 94060000 		.4byte	.LASF27
 544 013c 05       		.byte	0x5
 545 013d 33       		.byte	0x33
 546 013e BF000000 		.4byte	0xbf
 547 0142 04       		.uleb128 0x4
 548 0143 84060000 		.4byte	.LASF28
 549 0147 05       		.byte	0x5
 550 0148 3F       		.byte	0x3f
 551 0149 4D010000 		.4byte	0x14d
 552 014d 06       		.uleb128 0x6
 553 014e B0020000 		.4byte	.LASF48
 554 0152 44       		.byte	0x44
 555 0153 06       		.byte	0x6
 556 0154 C2       		.byte	0xc2
 557 0155 3A020000 		.4byte	0x23a
 558 0159 07       		.uleb128 0x7
 559 015a 99040000 		.4byte	.LASF29
 560 015e 06       		.byte	0x6
 561 015f C3       		.byte	0xc3
 562 0160 45020000 		.4byte	0x245
 563 0164 00       		.byte	0
 564 0165 07       		.uleb128 0x7
ARM GAS  /tmp/cc1Mzy67.s 			page 11


 565 0166 3F050000 		.4byte	.LASF30
 566 016a 06       		.byte	0x6
 567 016b C5       		.byte	0xc5
 568 016c 45020000 		.4byte	0x245
 569 0170 04       		.byte	0x4
 570 0171 07       		.uleb128 0x7
 571 0172 EB000000 		.4byte	.LASF31
 572 0176 06       		.byte	0x6
 573 0177 C7       		.byte	0xc7
 574 0178 0B010000 		.4byte	0x10b
 575 017c 08       		.byte	0x8
 576 017d 07       		.uleb128 0x7
 577 017e BF070000 		.4byte	.LASF32
 578 0182 06       		.byte	0x6
 579 0183 C8       		.byte	0xc8
 580 0184 20060000 		.4byte	0x620
 581 0188 0C       		.byte	0xc
 582 0189 07       		.uleb128 0x7
 583 018a 86010000 		.4byte	.LASF33
 584 018e 06       		.byte	0x6
 585 018f CA       		.byte	0xca
 586 0190 45020000 		.4byte	0x245
 587 0194 10       		.byte	0x10
 588 0195 07       		.uleb128 0x7
 589 0196 A8040000 		.4byte	.LASF34
 590 019a 06       		.byte	0x6
 591 019b CB       		.byte	0xcb
 592 019c 45020000 		.4byte	0x245
 593 01a0 14       		.byte	0x14
 594 01a1 07       		.uleb128 0x7
 595 01a2 7B070000 		.4byte	.LASF35
 596 01a6 06       		.byte	0x6
 597 01a7 D2       		.byte	0xd2
 598 01a8 65080000 		.4byte	0x865
 599 01ac 18       		.byte	0x18
 600 01ad 07       		.uleb128 0x7
 601 01ae A3050000 		.4byte	.LASF36
 602 01b2 06       		.byte	0x6
 603 01b3 DD       		.byte	0xdd
 604 01b4 F5000000 		.4byte	0xf5
 605 01b8 1C       		.byte	0x1c
 606 01b9 07       		.uleb128 0x7
 607 01ba CA050000 		.4byte	.LASF37
 608 01be 06       		.byte	0x6
 609 01bf E1       		.byte	0xe1
 610 01c0 EA000000 		.4byte	0xea
 611 01c4 1D       		.byte	0x1d
 612 01c5 07       		.uleb128 0x7
 613 01c6 46070000 		.4byte	.LASF38
 614 01ca 06       		.byte	0x6
 615 01cb E6       		.byte	0xe6
 616 01cc 00010000 		.4byte	0x100
 617 01d0 1E       		.byte	0x1e
 618 01d1 08       		.uleb128 0x8
 619 01d2 705F7500 		.ascii	"p_u\000"
 620 01d6 06       		.byte	0x6
 621 01d7 3101     		.2byte	0x131
ARM GAS  /tmp/cc1Mzy67.s 			page 12


 622 01d9 A0070000 		.4byte	0x7a0
 623 01dd 20       		.byte	0x20
 624 01de 09       		.uleb128 0x9
 625 01df 47030000 		.4byte	.LASF39
 626 01e3 06       		.byte	0x6
 627 01e4 3601     		.2byte	0x136
 628 01e6 4B020000 		.4byte	0x24b
 629 01ea 24       		.byte	0x24
 630 01eb 09       		.uleb128 0x9
 631 01ec 27020000 		.4byte	.LASF40
 632 01f0 06       		.byte	0x6
 633 01f1 3C01     		.2byte	0x13c
 634 01f3 6F020000 		.4byte	0x26f
 635 01f7 28       		.byte	0x28
 636 01f8 09       		.uleb128 0x9
 637 01f9 9E070000 		.4byte	.LASF41
 638 01fd 06       		.byte	0x6
 639 01fe 4001     		.2byte	0x140
 640 0200 16010000 		.4byte	0x116
 641 0204 30       		.byte	0x30
 642 0205 09       		.uleb128 0x9
 643 0206 05060000 		.4byte	.LASF42
 644 020a 06       		.byte	0x6
 645 020b 4601     		.2byte	0x146
 646 020d 21010000 		.4byte	0x121
 647 0211 34       		.byte	0x34
 648 0212 09       		.uleb128 0x9
 649 0213 8F050000 		.4byte	.LASF43
 650 0217 06       		.byte	0x6
 651 0218 4D01     		.2byte	0x14d
 652 021a 5F080000 		.4byte	0x85f
 653 021e 38       		.byte	0x38
 654 021f 09       		.uleb128 0x9
 655 0220 9E060000 		.4byte	.LASF44
 656 0224 06       		.byte	0x6
 657 0225 5101     		.2byte	0x151
 658 0227 0B010000 		.4byte	0x10b
 659 022b 3C       		.byte	0x3c
 660 022c 09       		.uleb128 0x9
 661 022d 25010000 		.4byte	.LASF45
 662 0231 06       		.byte	0x6
 663 0232 5801     		.2byte	0x158
 664 0234 22030000 		.4byte	0x322
 665 0238 40       		.byte	0x40
 666 0239 00       		.byte	0
 667 023a 04       		.uleb128 0x4
 668 023b 5A030000 		.4byte	.LASF46
 669 023f 05       		.byte	0x5
 670 0240 44       		.byte	0x44
 671 0241 45020000 		.4byte	0x245
 672 0245 0A       		.uleb128 0xa
 673 0246 04       		.byte	0x4
 674 0247 42010000 		.4byte	0x142
 675 024b 04       		.uleb128 0x4
 676 024c 28030000 		.4byte	.LASF47
 677 0250 05       		.byte	0x5
 678 0251 49       		.byte	0x49
ARM GAS  /tmp/cc1Mzy67.s 			page 13


 679 0252 56020000 		.4byte	0x256
 680 0256 06       		.uleb128 0x6
 681 0257 38060000 		.4byte	.LASF49
 682 025b 04       		.byte	0x4
 683 025c 06       		.byte	0x6
 684 025d B0       		.byte	0xb0
 685 025e 6F020000 		.4byte	0x26f
 686 0262 07       		.uleb128 0x7
 687 0263 99040000 		.4byte	.LASF29
 688 0267 06       		.byte	0x6
 689 0268 B1       		.byte	0xb1
 690 0269 45020000 		.4byte	0x245
 691 026d 00       		.byte	0
 692 026e 00       		.byte	0
 693 026f 04       		.uleb128 0x4
 694 0270 2D070000 		.4byte	.LASF50
 695 0274 05       		.byte	0x5
 696 0275 50       		.byte	0x50
 697 0276 7A020000 		.4byte	0x27a
 698 027a 06       		.uleb128 0x6
 699 027b D0000000 		.4byte	.LASF51
 700 027f 08       		.byte	0x8
 701 0280 06       		.byte	0x6
 702 0281 B7       		.byte	0xb7
 703 0282 9F020000 		.4byte	0x29f
 704 0286 07       		.uleb128 0x7
 705 0287 99040000 		.4byte	.LASF29
 706 028b 06       		.byte	0x6
 707 028c B8       		.byte	0xb8
 708 028d 45020000 		.4byte	0x245
 709 0291 00       		.byte	0
 710 0292 07       		.uleb128 0x7
 711 0293 3F050000 		.4byte	.LASF30
 712 0297 06       		.byte	0x6
 713 0298 B9       		.byte	0xb9
 714 0299 45020000 		.4byte	0x245
 715 029d 04       		.byte	0x4
 716 029e 00       		.byte	0
 717 029f 04       		.uleb128 0x4
 718 02a0 13000000 		.4byte	.LASF52
 719 02a4 05       		.byte	0x5
 720 02a5 57       		.byte	0x57
 721 02a6 AA020000 		.4byte	0x2aa
 722 02aa 0B       		.uleb128 0xb
 723 02ab F2020000 		.4byte	.LASF53
 724 02af 1C       		.byte	0x1c
 725 02b0 06       		.byte	0x6
 726 02b1 9001     		.2byte	0x190
 727 02b3 06030000 		.4byte	0x306
 728 02b7 09       		.uleb128 0x9
 729 02b8 30060000 		.4byte	.LASF54
 730 02bc 06       		.byte	0x6
 731 02bd 9101     		.2byte	0x191
 732 02bf 6F020000 		.4byte	0x26f
 733 02c3 00       		.byte	0
 734 02c4 09       		.uleb128 0x9
 735 02c5 B5050000 		.4byte	.LASF55
ARM GAS  /tmp/cc1Mzy67.s 			page 14


 736 02c9 06       		.byte	0x6
 737 02ca 9201     		.2byte	0x192
 738 02cc 0B010000 		.4byte	0x10b
 739 02d0 08       		.byte	0x8
 740 02d1 09       		.uleb128 0x9
 741 02d2 B0040000 		.4byte	.LASF56
 742 02d6 06       		.byte	0x6
 743 02d7 9401     		.2byte	0x194
 744 02d9 20060000 		.4byte	0x620
 745 02dd 0C       		.byte	0xc
 746 02de 09       		.uleb128 0x9
 747 02df 9E010000 		.4byte	.LASF57
 748 02e3 06       		.byte	0x6
 749 02e4 9701     		.2byte	0x197
 750 02e6 45020000 		.4byte	0x245
 751 02ea 10       		.byte	0x10
 752 02eb 09       		.uleb128 0x9
 753 02ec FA060000 		.4byte	.LASF58
 754 02f0 06       		.byte	0x6
 755 02f1 9801     		.2byte	0x198
 756 02f3 45020000 		.4byte	0x245
 757 02f7 14       		.byte	0x14
 758 02f8 09       		.uleb128 0x9
 759 02f9 DD040000 		.4byte	.LASF59
 760 02fd 06       		.byte	0x6
 761 02fe 9B01     		.2byte	0x19b
 762 0300 45020000 		.4byte	0x245
 763 0304 18       		.byte	0x18
 764 0305 00       		.byte	0
 765 0306 04       		.uleb128 0x4
 766 0307 A9060000 		.4byte	.LASF60
 767 030b 05       		.byte	0x5
 768 030c 5C       		.byte	0x5c
 769 030d 11030000 		.4byte	0x311
 770 0311 0A       		.uleb128 0xa
 771 0312 04       		.byte	0x4
 772 0313 17030000 		.4byte	0x317
 773 0317 0C       		.uleb128 0xc
 774 0318 22030000 		.4byte	0x322
 775 031c 0D       		.uleb128 0xd
 776 031d 22030000 		.4byte	0x322
 777 0321 00       		.byte	0
 778 0322 0E       		.uleb128 0xe
 779 0323 04       		.byte	0x4
 780 0324 04       		.uleb128 0x4
 781 0325 37030000 		.4byte	.LASF61
 782 0329 05       		.byte	0x5
 783 032a 61       		.byte	0x61
 784 032b 2F030000 		.4byte	0x32f
 785 032f 0B       		.uleb128 0xb
 786 0330 E7050000 		.4byte	.LASF62
 787 0334 14       		.byte	0x14
 788 0335 06       		.byte	0x6
 789 0336 6B01     		.2byte	0x16b
 790 0338 7E030000 		.4byte	0x37e
 791 033c 09       		.uleb128 0x9
 792 033d 06020000 		.4byte	.LASF63
ARM GAS  /tmp/cc1Mzy67.s 			page 15


 793 0341 06       		.byte	0x6
 794 0342 6C01     		.2byte	0x16c
 795 0344 77080000 		.4byte	0x877
 796 0348 00       		.byte	0
 797 0349 09       		.uleb128 0x9
 798 034a B4010000 		.4byte	.LASF64
 799 034e 06       		.byte	0x6
 800 034f 6D01     		.2byte	0x16d
 801 0351 77080000 		.4byte	0x877
 802 0355 04       		.byte	0x4
 803 0356 09       		.uleb128 0x9
 804 0357 1E020000 		.4byte	.LASF65
 805 035b 06       		.byte	0x6
 806 035c 6E01     		.2byte	0x16e
 807 035e 37010000 		.4byte	0x137
 808 0362 08       		.byte	0x8
 809 0363 09       		.uleb128 0x9
 810 0364 C5070000 		.4byte	.LASF66
 811 0368 06       		.byte	0x6
 812 0369 6F01     		.2byte	0x16f
 813 036b 06030000 		.4byte	0x306
 814 036f 0C       		.byte	0xc
 815 0370 09       		.uleb128 0x9
 816 0371 20070000 		.4byte	.LASF67
 817 0375 06       		.byte	0x6
 818 0376 7101     		.2byte	0x171
 819 0378 22030000 		.4byte	0x322
 820 037c 10       		.byte	0x10
 821 037d 00       		.byte	0
 822 037e 04       		.uleb128 0x4
 823 037f AD000000 		.4byte	.LASF68
 824 0383 05       		.byte	0x5
 825 0384 66       		.byte	0x66
 826 0385 89030000 		.4byte	0x389
 827 0389 0B       		.uleb128 0xb
 828 038a 6D030000 		.4byte	.LASF69
 829 038e 10       		.byte	0x10
 830 038f 06       		.byte	0x6
 831 0390 7B01     		.2byte	0x17b
 832 0392 CB030000 		.4byte	0x3cb
 833 0396 09       		.uleb128 0x9
 834 0397 06020000 		.4byte	.LASF63
 835 039b 06       		.byte	0x6
 836 039c 7C01     		.2byte	0x17c
 837 039e 77080000 		.4byte	0x877
 838 03a2 00       		.byte	0
 839 03a3 09       		.uleb128 0x9
 840 03a4 B4010000 		.4byte	.LASF64
 841 03a8 06       		.byte	0x6
 842 03a9 7E01     		.2byte	0x17e
 843 03ab 77080000 		.4byte	0x877
 844 03af 04       		.byte	0x4
 845 03b0 09       		.uleb128 0x9
 846 03b1 1E020000 		.4byte	.LASF65
 847 03b5 06       		.byte	0x6
 848 03b6 8001     		.2byte	0x180
 849 03b8 37010000 		.4byte	0x137
ARM GAS  /tmp/cc1Mzy67.s 			page 16


 850 03bc 08       		.byte	0x8
 851 03bd 09       		.uleb128 0x9
 852 03be F2000000 		.4byte	.LASF70
 853 03c2 06       		.byte	0x6
 854 03c3 8201     		.2byte	0x182
 855 03c5 7D080000 		.4byte	0x87d
 856 03c9 0C       		.byte	0xc
 857 03ca 00       		.byte	0
 858 03cb 04       		.uleb128 0x4
 859 03cc 53000000 		.4byte	.LASF71
 860 03d0 05       		.byte	0x5
 861 03d1 6B       		.byte	0x6b
 862 03d2 D6030000 		.4byte	0x3d6
 863 03d6 0B       		.uleb128 0xb
 864 03d7 58050000 		.4byte	.LASF72
 865 03db 04       		.byte	0x4
 866 03dc 06       		.byte	0x6
 867 03dd A201     		.2byte	0x1a2
 868 03df F1030000 		.4byte	0x3f1
 869 03e3 09       		.uleb128 0x9
 870 03e4 C6060000 		.4byte	.LASF73
 871 03e8 06       		.byte	0x6
 872 03e9 AA01     		.2byte	0x1aa
 873 03eb 82080000 		.4byte	0x882
 874 03ef 00       		.byte	0
 875 03f0 00       		.byte	0
 876 03f1 04       		.uleb128 0x4
 877 03f2 D4020000 		.4byte	.LASF74
 878 03f6 05       		.byte	0x5
 879 03f7 70       		.byte	0x70
 880 03f8 FC030000 		.4byte	0x3fc
 881 03fc 0F       		.uleb128 0xf
 882 03fd 47010000 		.4byte	.LASF75
 883 0401 D801     		.2byte	0x1d8
 884 0403 06       		.byte	0x6
 885 0404 C201     		.2byte	0x1c2
 886 0406 58040000 		.4byte	0x458
 887 040a 09       		.uleb128 0x9
 888 040b 60070000 		.4byte	.LASF76
 889 040f 06       		.byte	0x6
 890 0410 C601     		.2byte	0x1c6
 891 0412 9F020000 		.4byte	0x29f
 892 0416 00       		.byte	0
 893 0417 09       		.uleb128 0x9
 894 0418 BC010000 		.4byte	.LASF77
 895 041c 06       		.byte	0x6
 896 041d CA01     		.2byte	0x1ca
 897 041f 7E030000 		.4byte	0x37e
 898 0423 1C       		.byte	0x1c
 899 0424 08       		.uleb128 0x8
 900 0425 64626700 		.ascii	"dbg\000"
 901 0429 06       		.byte	0x6
 902 042a CE01     		.2byte	0x1ce
 903 042c CB030000 		.4byte	0x3cb
 904 0430 2C       		.byte	0x2c
 905 0431 09       		.uleb128 0x9
 906 0432 A2000000 		.4byte	.LASF78
ARM GAS  /tmp/cc1Mzy67.s 			page 17


 907 0436 06       		.byte	0x6
 908 0437 D201     		.2byte	0x1d2
 909 0439 42010000 		.4byte	0x142
 910 043d 30       		.byte	0x30
 911 043e 08       		.uleb128 0x8
 912 043f 746D00   		.ascii	"tm\000"
 913 0442 06       		.byte	0x6
 914 0443 D701     		.2byte	0x1d7
 915 0445 95070000 		.4byte	0x795
 916 0449 74       		.byte	0x74
 917 044a 09       		.uleb128 0x9
 918 044b E4010000 		.4byte	.LASF79
 919 044f 06       		.byte	0x6
 920 0450 E301     		.2byte	0x1e3
 921 0452 87080000 		.4byte	0x887
 922 0456 78       		.byte	0x78
 923 0457 00       		.byte	0
 924 0458 03       		.uleb128 0x3
 925 0459 04       		.byte	0x4
 926 045a 07       		.byte	0x7
 927 045b 51030000 		.4byte	.LASF80
 928 045f 10       		.uleb128 0x10
 929 0460 BF000000 		.4byte	0xbf
 930 0464 6F040000 		.4byte	0x46f
 931 0468 11       		.uleb128 0x11
 932 0469 58040000 		.4byte	0x458
 933 046d 01       		.byte	0x1
 934 046e 00       		.byte	0
 935 046f 12       		.uleb128 0x12
 936 0470 88       		.byte	0x88
 937 0471 07       		.byte	0x7
 938 0472 6702     		.2byte	0x267
 939 0474 FE050000 		.4byte	0x5fe
 940 0478 08       		.uleb128 0x8
 941 0479 435200   		.ascii	"CR\000"
 942 047c 07       		.byte	0x7
 943 047d 6902     		.2byte	0x269
 944 047f DA000000 		.4byte	0xda
 945 0483 00       		.byte	0
 946 0484 09       		.uleb128 0x9
 947 0485 8E010000 		.4byte	.LASF81
 948 0489 07       		.byte	0x7
 949 048a 6A02     		.2byte	0x26a
 950 048c DA000000 		.4byte	0xda
 951 0490 04       		.byte	0x4
 952 0491 09       		.uleb128 0x9
 953 0492 91070000 		.4byte	.LASF82
 954 0496 07       		.byte	0x7
 955 0497 6B02     		.2byte	0x26b
 956 0499 DA000000 		.4byte	0xda
 957 049d 08       		.byte	0x8
 958 049e 08       		.uleb128 0x8
 959 049f 43495200 		.ascii	"CIR\000"
 960 04a3 07       		.byte	0x7
 961 04a4 6C02     		.2byte	0x26c
 962 04a6 DA000000 		.4byte	0xda
 963 04aa 0C       		.byte	0xc
ARM GAS  /tmp/cc1Mzy67.s 			page 18


 964 04ab 09       		.uleb128 0x9
 965 04ac 1C010000 		.4byte	.LASF83
 966 04b0 07       		.byte	0x7
 967 04b1 6D02     		.2byte	0x26d
 968 04b3 DA000000 		.4byte	0xda
 969 04b7 10       		.byte	0x10
 970 04b8 09       		.uleb128 0x9
 971 04b9 7B060000 		.4byte	.LASF84
 972 04bd 07       		.byte	0x7
 973 04be 6E02     		.2byte	0x26e
 974 04c0 DA000000 		.4byte	0xda
 975 04c4 14       		.byte	0x14
 976 04c5 09       		.uleb128 0x9
 977 04c6 CB020000 		.4byte	.LASF85
 978 04ca 07       		.byte	0x7
 979 04cb 6F02     		.2byte	0x26f
 980 04cd DA000000 		.4byte	0xda
 981 04d1 18       		.byte	0x18
 982 04d2 09       		.uleb128 0x9
 983 04d3 0D050000 		.4byte	.LASF86
 984 04d7 07       		.byte	0x7
 985 04d8 7002     		.2byte	0x270
 986 04da BF000000 		.4byte	0xbf
 987 04de 1C       		.byte	0x1c
 988 04df 09       		.uleb128 0x9
 989 04e0 E7040000 		.4byte	.LASF87
 990 04e4 07       		.byte	0x7
 991 04e5 7102     		.2byte	0x271
 992 04e7 DA000000 		.4byte	0xda
 993 04eb 20       		.byte	0x20
 994 04ec 09       		.uleb128 0x9
 995 04ed 61010000 		.4byte	.LASF88
 996 04f1 07       		.byte	0x7
 997 04f2 7202     		.2byte	0x272
 998 04f4 DA000000 		.4byte	0xda
 999 04f8 24       		.byte	0x24
 1000 04f9 09       		.uleb128 0x9
 1001 04fa 17050000 		.4byte	.LASF89
 1002 04fe 07       		.byte	0x7
 1003 04ff 7302     		.2byte	0x273
 1004 0501 5F040000 		.4byte	0x45f
 1005 0505 28       		.byte	0x28
 1006 0506 09       		.uleb128 0x9
 1007 0507 82070000 		.4byte	.LASF90
 1008 050b 07       		.byte	0x7
 1009 050c 7402     		.2byte	0x274
 1010 050e DA000000 		.4byte	0xda
 1011 0512 30       		.byte	0x30
 1012 0513 09       		.uleb128 0x9
 1013 0514 EA060000 		.4byte	.LASF91
 1014 0518 07       		.byte	0x7
 1015 0519 7502     		.2byte	0x275
 1016 051b DA000000 		.4byte	0xda
 1017 051f 34       		.byte	0x34
 1018 0520 09       		.uleb128 0x9
 1019 0521 A0040000 		.4byte	.LASF92
 1020 0525 07       		.byte	0x7
ARM GAS  /tmp/cc1Mzy67.s 			page 19


 1021 0526 7602     		.2byte	0x276
 1022 0528 DA000000 		.4byte	0xda
 1023 052c 38       		.byte	0x38
 1024 052d 09       		.uleb128 0x9
 1025 052e 21050000 		.4byte	.LASF93
 1026 0532 07       		.byte	0x7
 1027 0533 7702     		.2byte	0x277
 1028 0535 BF000000 		.4byte	0xbf
 1029 0539 3C       		.byte	0x3c
 1030 053a 09       		.uleb128 0x9
 1031 053b D7060000 		.4byte	.LASF94
 1032 053f 07       		.byte	0x7
 1033 0540 7802     		.2byte	0x278
 1034 0542 DA000000 		.4byte	0xda
 1035 0546 40       		.byte	0x40
 1036 0547 09       		.uleb128 0x9
 1037 0548 D8050000 		.4byte	.LASF95
 1038 054c 07       		.byte	0x7
 1039 054d 7902     		.2byte	0x279
 1040 054f DA000000 		.4byte	0xda
 1041 0553 44       		.byte	0x44
 1042 0554 09       		.uleb128 0x9
 1043 0555 2B050000 		.4byte	.LASF96
 1044 0559 07       		.byte	0x7
 1045 055a 7A02     		.2byte	0x27a
 1046 055c 5F040000 		.4byte	0x45f
 1047 0560 48       		.byte	0x48
 1048 0561 09       		.uleb128 0x9
 1049 0562 E1000000 		.4byte	.LASF97
 1050 0566 07       		.byte	0x7
 1051 0567 7B02     		.2byte	0x27b
 1052 0569 DA000000 		.4byte	0xda
 1053 056d 50       		.byte	0x50
 1054 056e 09       		.uleb128 0x9
 1055 056f B6040000 		.4byte	.LASF98
 1056 0573 07       		.byte	0x7
 1057 0574 7C02     		.2byte	0x27c
 1058 0576 DA000000 		.4byte	0xda
 1059 057a 54       		.byte	0x54
 1060 057b 09       		.uleb128 0x9
 1061 057c AB050000 		.4byte	.LASF99
 1062 0580 07       		.byte	0x7
 1063 0581 7D02     		.2byte	0x27d
 1064 0583 DA000000 		.4byte	0xda
 1065 0587 58       		.byte	0x58
 1066 0588 09       		.uleb128 0x9
 1067 0589 35050000 		.4byte	.LASF100
 1068 058d 07       		.byte	0x7
 1069 058e 7E02     		.2byte	0x27e
 1070 0590 BF000000 		.4byte	0xbf
 1071 0594 5C       		.byte	0x5c
 1072 0595 09       		.uleb128 0x9
 1073 0596 6A010000 		.4byte	.LASF101
 1074 059a 07       		.byte	0x7
 1075 059b 7F02     		.2byte	0x27f
 1076 059d DA000000 		.4byte	0xda
 1077 05a1 60       		.byte	0x60
ARM GAS  /tmp/cc1Mzy67.s 			page 20


 1078 05a2 09       		.uleb128 0x9
 1079 05a3 E8020000 		.4byte	.LASF102
 1080 05a7 07       		.byte	0x7
 1081 05a8 8002     		.2byte	0x280
 1082 05aa DA000000 		.4byte	0xda
 1083 05ae 64       		.byte	0x64
 1084 05af 09       		.uleb128 0x9
 1085 05b0 16060000 		.4byte	.LASF103
 1086 05b4 07       		.byte	0x7
 1087 05b5 8102     		.2byte	0x281
 1088 05b7 5F040000 		.4byte	0x45f
 1089 05bb 68       		.byte	0x68
 1090 05bc 09       		.uleb128 0x9
 1091 05bd 5B070000 		.4byte	.LASF104
 1092 05c1 07       		.byte	0x7
 1093 05c2 8202     		.2byte	0x282
 1094 05c4 DA000000 		.4byte	0xda
 1095 05c8 70       		.byte	0x70
 1096 05c9 08       		.uleb128 0x8
 1097 05ca 43535200 		.ascii	"CSR\000"
 1098 05ce 07       		.byte	0x7
 1099 05cf 8302     		.2byte	0x283
 1100 05d1 DA000000 		.4byte	0xda
 1101 05d5 74       		.byte	0x74
 1102 05d6 09       		.uleb128 0x9
 1103 05d7 46050000 		.4byte	.LASF105
 1104 05db 07       		.byte	0x7
 1105 05dc 8402     		.2byte	0x284
 1106 05de 5F040000 		.4byte	0x45f
 1107 05e2 78       		.byte	0x78
 1108 05e3 09       		.uleb128 0x9
 1109 05e4 27070000 		.4byte	.LASF106
 1110 05e8 07       		.byte	0x7
 1111 05e9 8502     		.2byte	0x285
 1112 05eb DA000000 		.4byte	0xda
 1113 05ef 80       		.byte	0x80
 1114 05f0 09       		.uleb128 0x9
 1115 05f1 BA020000 		.4byte	.LASF107
 1116 05f5 07       		.byte	0x7
 1117 05f6 8602     		.2byte	0x286
 1118 05f8 DA000000 		.4byte	0xda
 1119 05fc 84       		.byte	0x84
 1120 05fd 00       		.byte	0
 1121 05fe 13       		.uleb128 0x13
 1122 05ff 3B010000 		.4byte	.LASF108
 1123 0603 07       		.byte	0x7
 1124 0604 8802     		.2byte	0x288
 1125 0606 6F040000 		.4byte	0x46f
 1126 060a 04       		.uleb128 0x4
 1127 060b AB010000 		.4byte	.LASF109
 1128 060f 08       		.byte	0x8
 1129 0610 65       		.byte	0x65
 1130 0611 22030000 		.4byte	0x322
 1131 0615 04       		.uleb128 0x4
 1132 0616 1D030000 		.4byte	.LASF110
 1133 061a 08       		.byte	0x8
 1134 061b 6D       		.byte	0x6d
ARM GAS  /tmp/cc1Mzy67.s 			page 21


 1135 061c CA000000 		.4byte	0xca
 1136 0620 06       		.uleb128 0x6
 1137 0621 F2060000 		.4byte	.LASF111
 1138 0625 04       		.byte	0x4
 1139 0626 08       		.byte	0x8
 1140 0627 89       		.byte	0x89
 1141 0628 39060000 		.4byte	0x639
 1142 062c 14       		.uleb128 0x14
 1143 062d 72313300 		.ascii	"r13\000"
 1144 0631 08       		.byte	0x8
 1145 0632 8A       		.byte	0x8a
 1146 0633 7A070000 		.4byte	0x77a
 1147 0637 00       		.byte	0
 1148 0638 00       		.byte	0
 1149 0639 06       		.uleb128 0x6
 1150 063a 47000000 		.4byte	.LASF112
 1151 063e 64       		.byte	0x64
 1152 063f 09       		.byte	0x9
 1153 0640 F4       		.byte	0xf4
 1154 0641 7A070000 		.4byte	0x77a
 1155 0645 14       		.uleb128 0x14
 1156 0646 73313600 		.ascii	"s16\000"
 1157 064a 09       		.byte	0x9
 1158 064b F6       		.byte	0xf6
 1159 064c 0A060000 		.4byte	0x60a
 1160 0650 00       		.byte	0
 1161 0651 14       		.uleb128 0x14
 1162 0652 73313700 		.ascii	"s17\000"
 1163 0656 09       		.byte	0x9
 1164 0657 F7       		.byte	0xf7
 1165 0658 0A060000 		.4byte	0x60a
 1166 065c 04       		.byte	0x4
 1167 065d 14       		.uleb128 0x14
 1168 065e 73313800 		.ascii	"s18\000"
 1169 0662 09       		.byte	0x9
 1170 0663 F8       		.byte	0xf8
 1171 0664 0A060000 		.4byte	0x60a
 1172 0668 08       		.byte	0x8
 1173 0669 14       		.uleb128 0x14
 1174 066a 73313900 		.ascii	"s19\000"
 1175 066e 09       		.byte	0x9
 1176 066f F9       		.byte	0xf9
 1177 0670 0A060000 		.4byte	0x60a
 1178 0674 0C       		.byte	0xc
 1179 0675 14       		.uleb128 0x14
 1180 0676 73323000 		.ascii	"s20\000"
 1181 067a 09       		.byte	0x9
 1182 067b FA       		.byte	0xfa
 1183 067c 0A060000 		.4byte	0x60a
 1184 0680 10       		.byte	0x10
 1185 0681 14       		.uleb128 0x14
 1186 0682 73323100 		.ascii	"s21\000"
 1187 0686 09       		.byte	0x9
 1188 0687 FB       		.byte	0xfb
 1189 0688 0A060000 		.4byte	0x60a
 1190 068c 14       		.byte	0x14
 1191 068d 14       		.uleb128 0x14
ARM GAS  /tmp/cc1Mzy67.s 			page 22


 1192 068e 73323200 		.ascii	"s22\000"
 1193 0692 09       		.byte	0x9
 1194 0693 FC       		.byte	0xfc
 1195 0694 0A060000 		.4byte	0x60a
 1196 0698 18       		.byte	0x18
 1197 0699 14       		.uleb128 0x14
 1198 069a 73323300 		.ascii	"s23\000"
 1199 069e 09       		.byte	0x9
 1200 069f FD       		.byte	0xfd
 1201 06a0 0A060000 		.4byte	0x60a
 1202 06a4 1C       		.byte	0x1c
 1203 06a5 14       		.uleb128 0x14
 1204 06a6 73323400 		.ascii	"s24\000"
 1205 06aa 09       		.byte	0x9
 1206 06ab FE       		.byte	0xfe
 1207 06ac 0A060000 		.4byte	0x60a
 1208 06b0 20       		.byte	0x20
 1209 06b1 14       		.uleb128 0x14
 1210 06b2 73323500 		.ascii	"s25\000"
 1211 06b6 09       		.byte	0x9
 1212 06b7 FF       		.byte	0xff
 1213 06b8 0A060000 		.4byte	0x60a
 1214 06bc 24       		.byte	0x24
 1215 06bd 08       		.uleb128 0x8
 1216 06be 73323600 		.ascii	"s26\000"
 1217 06c2 09       		.byte	0x9
 1218 06c3 0001     		.2byte	0x100
 1219 06c5 0A060000 		.4byte	0x60a
 1220 06c9 28       		.byte	0x28
 1221 06ca 08       		.uleb128 0x8
 1222 06cb 73323700 		.ascii	"s27\000"
 1223 06cf 09       		.byte	0x9
 1224 06d0 0101     		.2byte	0x101
 1225 06d2 0A060000 		.4byte	0x60a
 1226 06d6 2C       		.byte	0x2c
 1227 06d7 08       		.uleb128 0x8
 1228 06d8 73323800 		.ascii	"s28\000"
 1229 06dc 09       		.byte	0x9
 1230 06dd 0201     		.2byte	0x102
 1231 06df 0A060000 		.4byte	0x60a
 1232 06e3 30       		.byte	0x30
 1233 06e4 08       		.uleb128 0x8
 1234 06e5 73323900 		.ascii	"s29\000"
 1235 06e9 09       		.byte	0x9
 1236 06ea 0301     		.2byte	0x103
 1237 06ec 0A060000 		.4byte	0x60a
 1238 06f0 34       		.byte	0x34
 1239 06f1 08       		.uleb128 0x8
 1240 06f2 73333000 		.ascii	"s30\000"
 1241 06f6 09       		.byte	0x9
 1242 06f7 0401     		.2byte	0x104
 1243 06f9 0A060000 		.4byte	0x60a
 1244 06fd 38       		.byte	0x38
 1245 06fe 08       		.uleb128 0x8
 1246 06ff 73333100 		.ascii	"s31\000"
 1247 0703 09       		.byte	0x9
 1248 0704 0501     		.2byte	0x105
ARM GAS  /tmp/cc1Mzy67.s 			page 23


 1249 0706 0A060000 		.4byte	0x60a
 1250 070a 3C       		.byte	0x3c
 1251 070b 08       		.uleb128 0x8
 1252 070c 723400   		.ascii	"r4\000"
 1253 070f 09       		.byte	0x9
 1254 0710 0701     		.2byte	0x107
 1255 0712 0A060000 		.4byte	0x60a
 1256 0716 40       		.byte	0x40
 1257 0717 08       		.uleb128 0x8
 1258 0718 723500   		.ascii	"r5\000"
 1259 071b 09       		.byte	0x9
 1260 071c 0801     		.2byte	0x108
 1261 071e 0A060000 		.4byte	0x60a
 1262 0722 44       		.byte	0x44
 1263 0723 08       		.uleb128 0x8
 1264 0724 723600   		.ascii	"r6\000"
 1265 0727 09       		.byte	0x9
 1266 0728 0901     		.2byte	0x109
 1267 072a 0A060000 		.4byte	0x60a
 1268 072e 48       		.byte	0x48
 1269 072f 08       		.uleb128 0x8
 1270 0730 723700   		.ascii	"r7\000"
 1271 0733 09       		.byte	0x9
 1272 0734 0A01     		.2byte	0x10a
 1273 0736 0A060000 		.4byte	0x60a
 1274 073a 4C       		.byte	0x4c
 1275 073b 08       		.uleb128 0x8
 1276 073c 723800   		.ascii	"r8\000"
 1277 073f 09       		.byte	0x9
 1278 0740 0B01     		.2byte	0x10b
 1279 0742 0A060000 		.4byte	0x60a
 1280 0746 50       		.byte	0x50
 1281 0747 08       		.uleb128 0x8
 1282 0748 723900   		.ascii	"r9\000"
 1283 074b 09       		.byte	0x9
 1284 074c 0C01     		.2byte	0x10c
 1285 074e 0A060000 		.4byte	0x60a
 1286 0752 54       		.byte	0x54
 1287 0753 08       		.uleb128 0x8
 1288 0754 72313000 		.ascii	"r10\000"
 1289 0758 09       		.byte	0x9
 1290 0759 0D01     		.2byte	0x10d
 1291 075b 0A060000 		.4byte	0x60a
 1292 075f 58       		.byte	0x58
 1293 0760 08       		.uleb128 0x8
 1294 0761 72313100 		.ascii	"r11\000"
 1295 0765 09       		.byte	0x9
 1296 0766 0E01     		.2byte	0x10e
 1297 0768 0A060000 		.4byte	0x60a
 1298 076c 5C       		.byte	0x5c
 1299 076d 08       		.uleb128 0x8
 1300 076e 6C7200   		.ascii	"lr\000"
 1301 0771 09       		.byte	0x9
 1302 0772 0F01     		.2byte	0x10f
 1303 0774 0A060000 		.4byte	0x60a
 1304 0778 60       		.byte	0x60
 1305 0779 00       		.byte	0
ARM GAS  /tmp/cc1Mzy67.s 			page 24


 1306 077a 0A       		.uleb128 0xa
 1307 077b 04       		.byte	0x4
 1308 077c 39060000 		.4byte	0x639
 1309 0780 15       		.uleb128 0x15
 1310 0781 04       		.byte	0x4
 1311 0782 0A       		.byte	0xa
 1312 0783 38       		.byte	0x38
 1313 0784 95070000 		.4byte	0x795
 1314 0788 07       		.uleb128 0x7
 1315 0789 D0060000 		.4byte	.LASF113
 1316 078d 0A       		.byte	0xa
 1317 078e 3C       		.byte	0x3c
 1318 078f DF000000 		.4byte	0xdf
 1319 0793 00       		.byte	0
 1320 0794 00       		.byte	0
 1321 0795 04       		.uleb128 0x4
 1322 0796 C0040000 		.4byte	.LASF114
 1323 079a 0A       		.byte	0xa
 1324 079b 3D       		.byte	0x3d
 1325 079c 80070000 		.4byte	0x780
 1326 07a0 16       		.uleb128 0x16
 1327 07a1 04       		.byte	0x4
 1328 07a2 06       		.byte	0x6
 1329 07a3 FA       		.byte	0xfa
 1330 07a4 FD070000 		.4byte	0x7fd
 1331 07a8 17       		.uleb128 0x17
 1332 07a9 26000000 		.4byte	.LASF115
 1333 07ad 06       		.byte	0x6
 1334 07ae 0101     		.2byte	0x101
 1335 07b0 16010000 		.4byte	0x116
 1336 07b4 17       		.uleb128 0x17
 1337 07b5 99000000 		.4byte	.LASF116
 1338 07b9 06       		.byte	0x6
 1339 07ba 0801     		.2byte	0x108
 1340 07bc 16010000 		.4byte	0x116
 1341 07c0 17       		.uleb128 0x17
 1342 07c1 74070000 		.4byte	.LASF117
 1343 07c5 06       		.byte	0x6
 1344 07c6 0F01     		.2byte	0x10f
 1345 07c8 22030000 		.4byte	0x322
 1346 07cc 17       		.uleb128 0x17
 1347 07cd 20000000 		.4byte	.LASF118
 1348 07d1 06       		.byte	0x6
 1349 07d2 1601     		.2byte	0x116
 1350 07d4 FD070000 		.4byte	0x7fd
 1351 07d8 17       		.uleb128 0x17
 1352 07d9 17020000 		.4byte	.LASF119
 1353 07dd 06       		.byte	0x6
 1354 07de 1E01     		.2byte	0x11e
 1355 07e0 28080000 		.4byte	0x828
 1356 07e4 17       		.uleb128 0x17
 1357 07e5 29060000 		.4byte	.LASF120
 1358 07e9 06       		.byte	0x6
 1359 07ea 2701     		.2byte	0x127
 1360 07ec 5F080000 		.4byte	0x85f
 1361 07f0 17       		.uleb128 0x17
 1362 07f1 C3050000 		.4byte	.LASF121
ARM GAS  /tmp/cc1Mzy67.s 			page 25


 1363 07f5 06       		.byte	0x6
 1364 07f6 2F01     		.2byte	0x12f
 1365 07f8 21010000 		.4byte	0x121
 1366 07fc 00       		.byte	0
 1367 07fd 0A       		.uleb128 0xa
 1368 07fe 04       		.byte	0x4
 1369 07ff 3A020000 		.4byte	0x23a
 1370 0803 06       		.uleb128 0x6
 1371 0804 F8050000 		.4byte	.LASF122
 1372 0808 0C       		.byte	0xc
 1373 0809 0B       		.byte	0xb
 1374 080a 34       		.byte	0x34
 1375 080b 28080000 		.4byte	0x828
 1376 080f 07       		.uleb128 0x7
 1377 0810 96070000 		.4byte	.LASF123
 1378 0814 0B       		.byte	0xb
 1379 0815 35       		.byte	0x35
 1380 0816 6F020000 		.4byte	0x26f
 1381 081a 00       		.byte	0
 1382 081b 07       		.uleb128 0x7
 1383 081c 89050000 		.4byte	.LASF124
 1384 0820 0B       		.byte	0xb
 1385 0821 37       		.byte	0x37
 1386 0822 2C010000 		.4byte	0x12c
 1387 0826 08       		.byte	0x8
 1388 0827 00       		.byte	0
 1389 0828 0A       		.uleb128 0xa
 1390 0829 04       		.byte	0x4
 1391 082a 03080000 		.4byte	0x803
 1392 082e 06       		.uleb128 0x6
 1393 082f 3D070000 		.4byte	.LASF125
 1394 0833 10       		.byte	0x10
 1395 0834 0C       		.byte	0xc
 1396 0835 39       		.byte	0x39
 1397 0836 5F080000 		.4byte	0x85f
 1398 083a 07       		.uleb128 0x7
 1399 083b 2D010000 		.4byte	.LASF126
 1400 083f 0C       		.byte	0xc
 1401 0840 3A       		.byte	0x3a
 1402 0841 6F020000 		.4byte	0x26f
 1403 0845 00       		.byte	0
 1404 0846 07       		.uleb128 0x7
 1405 0847 B7070000 		.4byte	.LASF127
 1406 084b 0C       		.byte	0xc
 1407 084c 3C       		.byte	0x3c
 1408 084d 45020000 		.4byte	0x245
 1409 0851 08       		.byte	0x8
 1410 0852 07       		.uleb128 0x7
 1411 0853 8D060000 		.4byte	.LASF128
 1412 0857 0C       		.byte	0xc
 1413 0858 3E       		.byte	0x3e
 1414 0859 A2080000 		.4byte	0x8a2
 1415 085d 0C       		.byte	0xc
 1416 085e 00       		.byte	0
 1417 085f 0A       		.uleb128 0xa
 1418 0860 04       		.byte	0x4
 1419 0861 2E080000 		.4byte	0x82e
ARM GAS  /tmp/cc1Mzy67.s 			page 26


 1420 0865 0A       		.uleb128 0xa
 1421 0866 04       		.byte	0x4
 1422 0867 6B080000 		.4byte	0x86b
 1423 086b 18       		.uleb128 0x18
 1424 086c 70080000 		.4byte	0x870
 1425 0870 03       		.uleb128 0x3
 1426 0871 01       		.byte	0x1
 1427 0872 08       		.byte	0x8
 1428 0873 5F060000 		.4byte	.LASF129
 1429 0877 0A       		.uleb128 0xa
 1430 0878 04       		.byte	0x4
 1431 0879 24030000 		.4byte	0x324
 1432 087d 05       		.uleb128 0x5
 1433 087e 37010000 		.4byte	0x137
 1434 0882 05       		.uleb128 0x5
 1435 0883 65080000 		.4byte	0x865
 1436 0887 10       		.uleb128 0x10
 1437 0888 15060000 		.4byte	0x615
 1438 088c 97080000 		.4byte	0x897
 1439 0890 11       		.uleb128 0x11
 1440 0891 58040000 		.4byte	0x458
 1441 0895 2B       		.byte	0x2b
 1442 0896 00       		.byte	0
 1443 0897 04       		.uleb128 0x4
 1444 0898 D5010000 		.4byte	.LASF130
 1445 089c 0C       		.byte	0xc
 1446 089d 34       		.byte	0x34
 1447 089e 2E080000 		.4byte	0x82e
 1448 08a2 0A       		.uleb128 0xa
 1449 08a3 04       		.byte	0x4
 1450 08a4 97080000 		.4byte	0x897
 1451 08a8 03       		.uleb128 0x3
 1452 08a9 01       		.byte	0x1
 1453 08aa 02       		.byte	0x2
 1454 08ab 68050000 		.4byte	.LASF131
 1455 08af 15       		.uleb128 0x15
 1456 08b0 04       		.byte	0x4
 1457 08b1 0D       		.byte	0xd
 1458 08b2 B3       		.byte	0xb3
 1459 08b3 D0080000 		.4byte	0x8d0
 1460 08b7 14       		.uleb128 0x14
 1461 08b8 73657400 		.ascii	"set\000"
 1462 08bc 0D       		.byte	0xd
 1463 08bd B4       		.byte	0xb4
 1464 08be A9000000 		.4byte	0xa9
 1465 08c2 00       		.byte	0
 1466 08c3 07       		.uleb128 0x7
 1467 08c4 10060000 		.4byte	.LASF132
 1468 08c8 0D       		.byte	0xd
 1469 08c9 B5       		.byte	0xb5
 1470 08ca A9000000 		.4byte	0xa9
 1471 08ce 02       		.byte	0x2
 1472 08cf 00       		.byte	0
 1473 08d0 16       		.uleb128 0x16
 1474 08d1 04       		.byte	0x4
 1475 08d2 0D       		.byte	0xd
 1476 08d3 B1       		.byte	0xb1
ARM GAS  /tmp/cc1Mzy67.s 			page 27


 1477 08d4 EB080000 		.4byte	0x8eb
 1478 08d8 19       		.uleb128 0x19
 1479 08d9 5700     		.ascii	"W\000"
 1480 08db 0D       		.byte	0xd
 1481 08dc B2       		.byte	0xb2
 1482 08dd BF000000 		.4byte	0xbf
 1483 08e1 19       		.uleb128 0x19
 1484 08e2 4800     		.ascii	"H\000"
 1485 08e4 0D       		.byte	0xd
 1486 08e5 B6       		.byte	0xb6
 1487 08e6 AF080000 		.4byte	0x8af
 1488 08ea 00       		.byte	0
 1489 08eb 15       		.uleb128 0x15
 1490 08ec 2C       		.byte	0x2c
 1491 08ed 0D       		.byte	0xd
 1492 08ee A9       		.byte	0xa9
 1493 08ef 78090000 		.4byte	0x978
 1494 08f3 07       		.uleb128 0x7
 1495 08f4 76000000 		.4byte	.LASF133
 1496 08f8 0D       		.byte	0xd
 1497 08f9 AB       		.byte	0xab
 1498 08fa DA000000 		.4byte	0xda
 1499 08fe 00       		.byte	0
 1500 08ff 07       		.uleb128 0x7
 1501 0900 40000000 		.4byte	.LASF134
 1502 0904 0D       		.byte	0xd
 1503 0905 AC       		.byte	0xac
 1504 0906 DA000000 		.4byte	0xda
 1505 090a 04       		.byte	0x4
 1506 090b 07       		.uleb128 0x7
 1507 090c 96010000 		.4byte	.LASF135
 1508 0910 0D       		.byte	0xd
 1509 0911 AD       		.byte	0xad
 1510 0912 DA000000 		.4byte	0xda
 1511 0916 08       		.byte	0x8
 1512 0917 07       		.uleb128 0x7
 1513 0918 93000000 		.4byte	.LASF136
 1514 091c 0D       		.byte	0xd
 1515 091d AE       		.byte	0xae
 1516 091e DA000000 		.4byte	0xda
 1517 0922 0C       		.byte	0xc
 1518 0923 14       		.uleb128 0x14
 1519 0924 49445200 		.ascii	"IDR\000"
 1520 0928 0D       		.byte	0xd
 1521 0929 AF       		.byte	0xaf
 1522 092a DA000000 		.4byte	0xda
 1523 092e 10       		.byte	0x10
 1524 092f 14       		.uleb128 0x14
 1525 0930 4F445200 		.ascii	"ODR\000"
 1526 0934 0D       		.byte	0xd
 1527 0935 B0       		.byte	0xb0
 1528 0936 DA000000 		.4byte	0xda
 1529 093a 14       		.byte	0x14
 1530 093b 07       		.uleb128 0x7
 1531 093c 17010000 		.4byte	.LASF137
 1532 0940 0D       		.byte	0xd
 1533 0941 B7       		.byte	0xb7
ARM GAS  /tmp/cc1Mzy67.s 			page 28


 1534 0942 78090000 		.4byte	0x978
 1535 0946 18       		.byte	0x18
 1536 0947 07       		.uleb128 0x7
 1537 0948 3A020000 		.4byte	.LASF138
 1538 094c 0D       		.byte	0xd
 1539 094d B8       		.byte	0xb8
 1540 094e DA000000 		.4byte	0xda
 1541 0952 1C       		.byte	0x1c
 1542 0953 07       		.uleb128 0x7
 1543 0954 00050000 		.4byte	.LASF139
 1544 0958 0D       		.byte	0xd
 1545 0959 B9       		.byte	0xb9
 1546 095a DA000000 		.4byte	0xda
 1547 095e 20       		.byte	0x20
 1548 095f 07       		.uleb128 0x7
 1549 0960 FB040000 		.4byte	.LASF140
 1550 0964 0D       		.byte	0xd
 1551 0965 BA       		.byte	0xba
 1552 0966 DA000000 		.4byte	0xda
 1553 096a 24       		.byte	0x24
 1554 096b 14       		.uleb128 0x14
 1555 096c 42525200 		.ascii	"BRR\000"
 1556 0970 0D       		.byte	0xd
 1557 0971 BB       		.byte	0xbb
 1558 0972 DA000000 		.4byte	0xda
 1559 0976 28       		.byte	0x28
 1560 0977 00       		.byte	0
 1561 0978 05       		.uleb128 0x5
 1562 0979 D0080000 		.4byte	0x8d0
 1563 097d 04       		.uleb128 0x4
 1564 097e C3010000 		.4byte	.LASF141
 1565 0982 0D       		.byte	0xd
 1566 0983 BC       		.byte	0xbc
 1567 0984 EB080000 		.4byte	0x8eb
 1568 0988 15       		.uleb128 0x15
 1569 0989 1C       		.byte	0x1c
 1570 098a 0D       		.byte	0xd
 1571 098b C1       		.byte	0xc1
 1572 098c E5090000 		.4byte	0x9e5
 1573 0990 07       		.uleb128 0x7
 1574 0991 35010000 		.4byte	.LASF142
 1575 0995 0D       		.byte	0xd
 1576 0996 C3       		.byte	0xc3
 1577 0997 BF000000 		.4byte	0xbf
 1578 099b 00       		.byte	0
 1579 099c 07       		.uleb128 0x7
 1580 099d 3F020000 		.4byte	.LASF143
 1581 09a1 0D       		.byte	0xd
 1582 09a2 C5       		.byte	0xc5
 1583 09a3 BF000000 		.4byte	0xbf
 1584 09a7 04       		.byte	0x4
 1585 09a8 07       		.uleb128 0x7
 1586 09a9 32020000 		.4byte	.LASF144
 1587 09ad 0D       		.byte	0xd
 1588 09ae C7       		.byte	0xc7
 1589 09af BF000000 		.4byte	0xbf
 1590 09b3 08       		.byte	0x8
ARM GAS  /tmp/cc1Mzy67.s 			page 29


 1591 09b4 07       		.uleb128 0x7
 1592 09b5 6E070000 		.4byte	.LASF145
 1593 09b9 0D       		.byte	0xd
 1594 09ba C9       		.byte	0xc9
 1595 09bb BF000000 		.4byte	0xbf
 1596 09bf 0C       		.byte	0xc
 1597 09c0 14       		.uleb128 0x14
 1598 09c1 6F647200 		.ascii	"odr\000"
 1599 09c5 0D       		.byte	0xd
 1600 09c6 CB       		.byte	0xcb
 1601 09c7 BF000000 		.4byte	0xbf
 1602 09cb 10       		.byte	0x10
 1603 09cc 07       		.uleb128 0x7
 1604 09cd 84050000 		.4byte	.LASF146
 1605 09d1 0D       		.byte	0xd
 1606 09d2 CD       		.byte	0xcd
 1607 09d3 BF000000 		.4byte	0xbf
 1608 09d7 14       		.byte	0x14
 1609 09d8 07       		.uleb128 0x7
 1610 09d9 D1040000 		.4byte	.LASF147
 1611 09dd 0D       		.byte	0xd
 1612 09de CF       		.byte	0xcf
 1613 09df BF000000 		.4byte	0xbf
 1614 09e3 18       		.byte	0x18
 1615 09e4 00       		.byte	0
 1616 09e5 04       		.uleb128 0x4
 1617 09e6 00000000 		.4byte	.LASF148
 1618 09ea 0D       		.byte	0xd
 1619 09eb D0       		.byte	0xd0
 1620 09ec 88090000 		.4byte	0x988
 1621 09f0 15       		.uleb128 0x15
 1622 09f1 FC       		.byte	0xfc
 1623 09f2 0D       		.byte	0xd
 1624 09f3 D9       		.byte	0xd9
 1625 09f4 650A0000 		.4byte	0xa65
 1626 09f8 07       		.uleb128 0x7
 1627 09f9 BC050000 		.4byte	.LASF149
 1628 09fd 0D       		.byte	0xd
 1629 09fe DC       		.byte	0xdc
 1630 09ff E5090000 		.4byte	0x9e5
 1631 0a03 00       		.byte	0
 1632 0a04 07       		.uleb128 0x7
 1633 0a05 DD010000 		.4byte	.LASF150
 1634 0a09 0D       		.byte	0xd
 1635 0a0a E0       		.byte	0xe0
 1636 0a0b E5090000 		.4byte	0x9e5
 1637 0a0f 1C       		.byte	0x1c
 1638 0a10 07       		.uleb128 0x7
 1639 0a11 8A070000 		.4byte	.LASF151
 1640 0a15 0D       		.byte	0xd
 1641 0a16 E4       		.byte	0xe4
 1642 0a17 E5090000 		.4byte	0x9e5
 1643 0a1b 38       		.byte	0x38
 1644 0a1c 07       		.uleb128 0x7
 1645 0a1d D6040000 		.4byte	.LASF152
 1646 0a21 0D       		.byte	0xd
 1647 0a22 E8       		.byte	0xe8
ARM GAS  /tmp/cc1Mzy67.s 			page 30


 1648 0a23 E5090000 		.4byte	0x9e5
 1649 0a27 54       		.byte	0x54
 1650 0a28 07       		.uleb128 0x7
 1651 0a29 5A010000 		.4byte	.LASF153
 1652 0a2d 0D       		.byte	0xd
 1653 0a2e EC       		.byte	0xec
 1654 0a2f E5090000 		.4byte	0x9e5
 1655 0a33 70       		.byte	0x70
 1656 0a34 07       		.uleb128 0x7
 1657 0a35 A9020000 		.4byte	.LASF154
 1658 0a39 0D       		.byte	0xd
 1659 0a3a F0       		.byte	0xf0
 1660 0a3b E5090000 		.4byte	0x9e5
 1661 0a3f 8C       		.byte	0x8c
 1662 0a40 07       		.uleb128 0x7
 1663 0a41 16030000 		.4byte	.LASF155
 1664 0a45 0D       		.byte	0xd
 1665 0a46 F4       		.byte	0xf4
 1666 0a47 E5090000 		.4byte	0x9e5
 1667 0a4b A8       		.byte	0xa8
 1668 0a4c 07       		.uleb128 0x7
 1669 0a4d 6F000000 		.4byte	.LASF156
 1670 0a51 0D       		.byte	0xd
 1671 0a52 F8       		.byte	0xf8
 1672 0a53 E5090000 		.4byte	0x9e5
 1673 0a57 C4       		.byte	0xc4
 1674 0a58 07       		.uleb128 0x7
 1675 0a59 E0050000 		.4byte	.LASF157
 1676 0a5d 0D       		.byte	0xd
 1677 0a5e FC       		.byte	0xfc
 1678 0a5f E5090000 		.4byte	0x9e5
 1679 0a63 E0       		.byte	0xe0
 1680 0a64 00       		.byte	0
 1681 0a65 04       		.uleb128 0x4
 1682 0a66 AD070000 		.4byte	.LASF158
 1683 0a6a 0D       		.byte	0xd
 1684 0a6b FE       		.byte	0xfe
 1685 0a6c F0090000 		.4byte	0x9f0
 1686 0a70 13       		.uleb128 0x13
 1687 0a71 62000000 		.4byte	.LASF159
 1688 0a75 0D       		.byte	0xd
 1689 0a76 0E01     		.2byte	0x10e
 1690 0a78 BF000000 		.4byte	0xbf
 1691 0a7c 13       		.uleb128 0x13
 1692 0a7d A4070000 		.4byte	.LASF160
 1693 0a81 0D       		.byte	0xd
 1694 0a82 1301     		.2byte	0x113
 1695 0a84 BF000000 		.4byte	0xbf
 1696 0a88 13       		.uleb128 0x13
 1697 0a89 DF060000 		.4byte	.LASF161
 1698 0a8d 0D       		.byte	0xd
 1699 0a8e 1B01     		.2byte	0x11b
 1700 0a90 940A0000 		.4byte	0xa94
 1701 0a94 0A       		.uleb128 0xa
 1702 0a95 04       		.byte	0x4
 1703 0a96 7D090000 		.4byte	0x97d
 1704 0a9a 1A       		.uleb128 0x1a
ARM GAS  /tmp/cc1Mzy67.s 			page 31


 1705 0a9b BD060000 		.4byte	.LASF174
 1706 0a9f 01       		.byte	0x1
 1707 0aa0 41       		.byte	0x41
 1708 0aa1 00000000 		.4byte	.LFB253
 1709 0aa5 42000000 		.4byte	.LFE253-.LFB253
 1710 0aa9 01       		.uleb128 0x1
 1711 0aaa 9C       		.byte	0x9c
 1712 0aab CC0A0000 		.4byte	0xacc
 1713 0aaf 1B       		.uleb128 0x1b
 1714 0ab0 D2050000 		.4byte	.LASF162
 1715 0ab4 01       		.byte	0x1
 1716 0ab5 41       		.byte	0x41
 1717 0ab6 940A0000 		.4byte	0xa94
 1718 0aba 02       		.uleb128 0x2
 1719 0abb 91       		.byte	0x91
 1720 0abc 7C       		.sleb128 -4
 1721 0abd 1B       		.uleb128 0x1b
 1722 0abe 69060000 		.4byte	.LASF163
 1723 0ac2 01       		.byte	0x1
 1724 0ac3 41       		.byte	0x41
 1725 0ac4 CC0A0000 		.4byte	0xacc
 1726 0ac8 02       		.uleb128 0x2
 1727 0ac9 91       		.byte	0x91
 1728 0aca 78       		.sleb128 -8
 1729 0acb 00       		.byte	0
 1730 0acc 0A       		.uleb128 0xa
 1731 0acd 04       		.byte	0x4
 1732 0ace D20A0000 		.4byte	0xad2
 1733 0ad2 18       		.uleb128 0x18
 1734 0ad3 E5090000 		.4byte	0x9e5
 1735 0ad7 1C       		.uleb128 0x1c
 1736 0ad8 4D070000 		.4byte	.LASF164
 1737 0adc 01       		.byte	0x1
 1738 0add 5C       		.byte	0x5c
 1739 0ade 00000000 		.4byte	.LFB254
 1740 0ae2 C0000000 		.4byte	.LFE254-.LFB254
 1741 0ae6 01       		.uleb128 0x1
 1742 0ae7 9C       		.byte	0x9c
 1743 0ae8 FB0A0000 		.4byte	0xafb
 1744 0aec 1B       		.uleb128 0x1b
 1745 0aed 69060000 		.4byte	.LASF163
 1746 0af1 01       		.byte	0x1
 1747 0af2 5C       		.byte	0x5c
 1748 0af3 FB0A0000 		.4byte	0xafb
 1749 0af7 02       		.uleb128 0x2
 1750 0af8 91       		.byte	0x91
 1751 0af9 74       		.sleb128 -12
 1752 0afa 00       		.byte	0
 1753 0afb 0A       		.uleb128 0xa
 1754 0afc 04       		.byte	0x4
 1755 0afd 010B0000 		.4byte	0xb01
 1756 0b01 18       		.uleb128 0x18
 1757 0b02 650A0000 		.4byte	0xa65
 1758 0b06 1D       		.uleb128 0x1d
 1759 0b07 02070000 		.4byte	.LASF165
 1760 0b0b 01       		.byte	0x1
 1761 0b0c 9B       		.byte	0x9b
ARM GAS  /tmp/cc1Mzy67.s 			page 32


 1762 0b0d 00000000 		.4byte	.LFB255
 1763 0b11 22010000 		.4byte	.LFE255-.LFB255
 1764 0b15 01       		.uleb128 0x1
 1765 0b16 9C       		.byte	0x9c
 1766 0b17 D90B0000 		.4byte	0xbd9
 1767 0b1b 1B       		.uleb128 0x1b
 1768 0b1c D0010000 		.4byte	.LASF166
 1769 0b20 01       		.byte	0x1
 1770 0b21 9B       		.byte	0x9b
 1771 0b22 880A0000 		.4byte	0xa88
 1772 0b26 02       		.uleb128 0x2
 1773 0b27 91       		.byte	0x91
 1774 0b28 54       		.sleb128 -44
 1775 0b29 1B       		.uleb128 0x1b
 1776 0b2a A6010000 		.4byte	.LASF167
 1777 0b2e 01       		.byte	0x1
 1778 0b2f 9C       		.byte	0x9c
 1779 0b30 700A0000 		.4byte	0xa70
 1780 0b34 02       		.uleb128 0x2
 1781 0b35 91       		.byte	0x91
 1782 0b36 50       		.sleb128 -48
 1783 0b37 1B       		.uleb128 0x1b
 1784 0b38 64060000 		.4byte	.LASF168
 1785 0b3c 01       		.byte	0x1
 1786 0b3d 9D       		.byte	0x9d
 1787 0b3e 7C0A0000 		.4byte	0xa7c
 1788 0b42 02       		.uleb128 0x2
 1789 0b43 91       		.byte	0x91
 1790 0b44 4C       		.sleb128 -52
 1791 0b45 1E       		.uleb128 0x1e
 1792 0b46 35010000 		.4byte	.LASF142
 1793 0b4a 01       		.byte	0x1
 1794 0b4b 9F       		.byte	0x9f
 1795 0b4c BF000000 		.4byte	0xbf
 1796 0b50 02       		.uleb128 0x2
 1797 0b51 91       		.byte	0x91
 1798 0b52 7C       		.sleb128 -4
 1799 0b53 1E       		.uleb128 0x1e
 1800 0b54 3F020000 		.4byte	.LASF143
 1801 0b58 01       		.byte	0x1
 1802 0b59 A0       		.byte	0xa0
 1803 0b5a BF000000 		.4byte	0xbf
 1804 0b5e 02       		.uleb128 0x2
 1805 0b5f 91       		.byte	0x91
 1806 0b60 78       		.sleb128 -8
 1807 0b61 1E       		.uleb128 0x1e
 1808 0b62 32020000 		.4byte	.LASF144
 1809 0b66 01       		.byte	0x1
 1810 0b67 A1       		.byte	0xa1
 1811 0b68 BF000000 		.4byte	0xbf
 1812 0b6c 02       		.uleb128 0x2
 1813 0b6d 91       		.byte	0x91
 1814 0b6e 74       		.sleb128 -12
 1815 0b6f 1E       		.uleb128 0x1e
 1816 0b70 6E070000 		.4byte	.LASF145
 1817 0b74 01       		.byte	0x1
 1818 0b75 A2       		.byte	0xa2
ARM GAS  /tmp/cc1Mzy67.s 			page 33


 1819 0b76 BF000000 		.4byte	0xbf
 1820 0b7a 02       		.uleb128 0x2
 1821 0b7b 91       		.byte	0x91
 1822 0b7c 70       		.sleb128 -16
 1823 0b7d 1E       		.uleb128 0x1e
 1824 0b7e 5A060000 		.4byte	.LASF169
 1825 0b82 01       		.byte	0x1
 1826 0b83 A3       		.byte	0xa3
 1827 0b84 BF000000 		.4byte	0xbf
 1828 0b88 02       		.uleb128 0x2
 1829 0b89 91       		.byte	0x91
 1830 0b8a 68       		.sleb128 -24
 1831 0b8b 1F       		.uleb128 0x1f
 1832 0b8c 62697400 		.ascii	"bit\000"
 1833 0b90 01       		.byte	0x1
 1834 0b91 A4       		.byte	0xa4
 1835 0b92 BF000000 		.4byte	0xbf
 1836 0b96 02       		.uleb128 0x2
 1837 0b97 91       		.byte	0x91
 1838 0b98 6C       		.sleb128 -20
 1839 0b99 20       		.uleb128 0x20
 1840 0b9a 46000000 		.4byte	.LBB2
 1841 0b9e AA000000 		.4byte	.LBE2-.LBB2
 1842 0ba2 1E       		.uleb128 0x1e
 1843 0ba3 7D010000 		.4byte	.LASF170
 1844 0ba7 01       		.byte	0x1
 1845 0ba8 A7       		.byte	0xa7
 1846 0ba9 BF000000 		.4byte	0xbf
 1847 0bad 02       		.uleb128 0x2
 1848 0bae 91       		.byte	0x91
 1849 0baf 64       		.sleb128 -28
 1850 0bb0 1F       		.uleb128 0x1f
 1851 0bb1 6D3100   		.ascii	"m1\000"
 1852 0bb4 01       		.byte	0x1
 1853 0bb5 A7       		.byte	0xa7
 1854 0bb6 BF000000 		.4byte	0xbf
 1855 0bba 02       		.uleb128 0x2
 1856 0bbb 91       		.byte	0x91
 1857 0bbc 5C       		.sleb128 -36
 1858 0bbd 1F       		.uleb128 0x1f
 1859 0bbe 6D3200   		.ascii	"m2\000"
 1860 0bc1 01       		.byte	0x1
 1861 0bc2 A7       		.byte	0xa7
 1862 0bc3 BF000000 		.4byte	0xbf
 1863 0bc7 02       		.uleb128 0x2
 1864 0bc8 91       		.byte	0x91
 1865 0bc9 58       		.sleb128 -40
 1866 0bca 1F       		.uleb128 0x1f
 1867 0bcb 6D3400   		.ascii	"m4\000"
 1868 0bce 01       		.byte	0x1
 1869 0bcf A7       		.byte	0xa7
 1870 0bd0 BF000000 		.4byte	0xbf
 1871 0bd4 02       		.uleb128 0x2
 1872 0bd5 91       		.byte	0x91
 1873 0bd6 60       		.sleb128 -32
 1874 0bd7 00       		.byte	0
 1875 0bd8 00       		.byte	0
ARM GAS  /tmp/cc1Mzy67.s 			page 34


 1876 0bd9 21       		.uleb128 0x21
 1877 0bda C3000000 		.4byte	.LASF171
 1878 0bde 0E       		.byte	0xe
 1879 0bdf A706     		.2byte	0x6a7
 1880 0be1 D5000000 		.4byte	0xd5
 1881 0be5 22       		.uleb128 0x22
 1882 0be6 636800   		.ascii	"ch\000"
 1883 0be9 06       		.byte	0x6
 1884 0bea 0902     		.2byte	0x209
 1885 0bec F1030000 		.4byte	0x3f1
 1886 0bf0 00       		.byte	0
 1887              		.section	.debug_abbrev,"",%progbits
 1888              	.Ldebug_abbrev0:
 1889 0000 01       		.uleb128 0x1
 1890 0001 11       		.uleb128 0x11
 1891 0002 01       		.byte	0x1
 1892 0003 25       		.uleb128 0x25
 1893 0004 0E       		.uleb128 0xe
 1894 0005 13       		.uleb128 0x13
 1895 0006 0B       		.uleb128 0xb
 1896 0007 03       		.uleb128 0x3
 1897 0008 0E       		.uleb128 0xe
 1898 0009 55       		.uleb128 0x55
 1899 000a 17       		.uleb128 0x17
 1900 000b 11       		.uleb128 0x11
 1901 000c 01       		.uleb128 0x1
 1902 000d 10       		.uleb128 0x10
 1903 000e 17       		.uleb128 0x17
 1904 000f 00       		.byte	0
 1905 0010 00       		.byte	0
 1906 0011 02       		.uleb128 0x2
 1907 0012 24       		.uleb128 0x24
 1908 0013 00       		.byte	0
 1909 0014 0B       		.uleb128 0xb
 1910 0015 0B       		.uleb128 0xb
 1911 0016 3E       		.uleb128 0x3e
 1912 0017 0B       		.uleb128 0xb
 1913 0018 03       		.uleb128 0x3
 1914 0019 08       		.uleb128 0x8
 1915 001a 00       		.byte	0
 1916 001b 00       		.byte	0
 1917 001c 03       		.uleb128 0x3
 1918 001d 24       		.uleb128 0x24
 1919 001e 00       		.byte	0
 1920 001f 0B       		.uleb128 0xb
 1921 0020 0B       		.uleb128 0xb
 1922 0021 3E       		.uleb128 0x3e
 1923 0022 0B       		.uleb128 0xb
 1924 0023 03       		.uleb128 0x3
 1925 0024 0E       		.uleb128 0xe
 1926 0025 00       		.byte	0
 1927 0026 00       		.byte	0
 1928 0027 04       		.uleb128 0x4
 1929 0028 16       		.uleb128 0x16
 1930 0029 00       		.byte	0
 1931 002a 03       		.uleb128 0x3
 1932 002b 0E       		.uleb128 0xe
ARM GAS  /tmp/cc1Mzy67.s 			page 35


 1933 002c 3A       		.uleb128 0x3a
 1934 002d 0B       		.uleb128 0xb
 1935 002e 3B       		.uleb128 0x3b
 1936 002f 0B       		.uleb128 0xb
 1937 0030 49       		.uleb128 0x49
 1938 0031 13       		.uleb128 0x13
 1939 0032 00       		.byte	0
 1940 0033 00       		.byte	0
 1941 0034 05       		.uleb128 0x5
 1942 0035 35       		.uleb128 0x35
 1943 0036 00       		.byte	0
 1944 0037 49       		.uleb128 0x49
 1945 0038 13       		.uleb128 0x13
 1946 0039 00       		.byte	0
 1947 003a 00       		.byte	0
 1948 003b 06       		.uleb128 0x6
 1949 003c 13       		.uleb128 0x13
 1950 003d 01       		.byte	0x1
 1951 003e 03       		.uleb128 0x3
 1952 003f 0E       		.uleb128 0xe
 1953 0040 0B       		.uleb128 0xb
 1954 0041 0B       		.uleb128 0xb
 1955 0042 3A       		.uleb128 0x3a
 1956 0043 0B       		.uleb128 0xb
 1957 0044 3B       		.uleb128 0x3b
 1958 0045 0B       		.uleb128 0xb
 1959 0046 01       		.uleb128 0x1
 1960 0047 13       		.uleb128 0x13
 1961 0048 00       		.byte	0
 1962 0049 00       		.byte	0
 1963 004a 07       		.uleb128 0x7
 1964 004b 0D       		.uleb128 0xd
 1965 004c 00       		.byte	0
 1966 004d 03       		.uleb128 0x3
 1967 004e 0E       		.uleb128 0xe
 1968 004f 3A       		.uleb128 0x3a
 1969 0050 0B       		.uleb128 0xb
 1970 0051 3B       		.uleb128 0x3b
 1971 0052 0B       		.uleb128 0xb
 1972 0053 49       		.uleb128 0x49
 1973 0054 13       		.uleb128 0x13
 1974 0055 38       		.uleb128 0x38
 1975 0056 0B       		.uleb128 0xb
 1976 0057 00       		.byte	0
 1977 0058 00       		.byte	0
 1978 0059 08       		.uleb128 0x8
 1979 005a 0D       		.uleb128 0xd
 1980 005b 00       		.byte	0
 1981 005c 03       		.uleb128 0x3
 1982 005d 08       		.uleb128 0x8
 1983 005e 3A       		.uleb128 0x3a
 1984 005f 0B       		.uleb128 0xb
 1985 0060 3B       		.uleb128 0x3b
 1986 0061 05       		.uleb128 0x5
 1987 0062 49       		.uleb128 0x49
 1988 0063 13       		.uleb128 0x13
 1989 0064 38       		.uleb128 0x38
ARM GAS  /tmp/cc1Mzy67.s 			page 36


 1990 0065 0B       		.uleb128 0xb
 1991 0066 00       		.byte	0
 1992 0067 00       		.byte	0
 1993 0068 09       		.uleb128 0x9
 1994 0069 0D       		.uleb128 0xd
 1995 006a 00       		.byte	0
 1996 006b 03       		.uleb128 0x3
 1997 006c 0E       		.uleb128 0xe
 1998 006d 3A       		.uleb128 0x3a
 1999 006e 0B       		.uleb128 0xb
 2000 006f 3B       		.uleb128 0x3b
 2001 0070 05       		.uleb128 0x5
 2002 0071 49       		.uleb128 0x49
 2003 0072 13       		.uleb128 0x13
 2004 0073 38       		.uleb128 0x38
 2005 0074 0B       		.uleb128 0xb
 2006 0075 00       		.byte	0
 2007 0076 00       		.byte	0
 2008 0077 0A       		.uleb128 0xa
 2009 0078 0F       		.uleb128 0xf
 2010 0079 00       		.byte	0
 2011 007a 0B       		.uleb128 0xb
 2012 007b 0B       		.uleb128 0xb
 2013 007c 49       		.uleb128 0x49
 2014 007d 13       		.uleb128 0x13
 2015 007e 00       		.byte	0
 2016 007f 00       		.byte	0
 2017 0080 0B       		.uleb128 0xb
 2018 0081 13       		.uleb128 0x13
 2019 0082 01       		.byte	0x1
 2020 0083 03       		.uleb128 0x3
 2021 0084 0E       		.uleb128 0xe
 2022 0085 0B       		.uleb128 0xb
 2023 0086 0B       		.uleb128 0xb
 2024 0087 3A       		.uleb128 0x3a
 2025 0088 0B       		.uleb128 0xb
 2026 0089 3B       		.uleb128 0x3b
 2027 008a 05       		.uleb128 0x5
 2028 008b 01       		.uleb128 0x1
 2029 008c 13       		.uleb128 0x13
 2030 008d 00       		.byte	0
 2031 008e 00       		.byte	0
 2032 008f 0C       		.uleb128 0xc
 2033 0090 15       		.uleb128 0x15
 2034 0091 01       		.byte	0x1
 2035 0092 27       		.uleb128 0x27
 2036 0093 19       		.uleb128 0x19
 2037 0094 01       		.uleb128 0x1
 2038 0095 13       		.uleb128 0x13
 2039 0096 00       		.byte	0
 2040 0097 00       		.byte	0
 2041 0098 0D       		.uleb128 0xd
 2042 0099 05       		.uleb128 0x5
 2043 009a 00       		.byte	0
 2044 009b 49       		.uleb128 0x49
 2045 009c 13       		.uleb128 0x13
 2046 009d 00       		.byte	0
ARM GAS  /tmp/cc1Mzy67.s 			page 37


 2047 009e 00       		.byte	0
 2048 009f 0E       		.uleb128 0xe
 2049 00a0 0F       		.uleb128 0xf
 2050 00a1 00       		.byte	0
 2051 00a2 0B       		.uleb128 0xb
 2052 00a3 0B       		.uleb128 0xb
 2053 00a4 00       		.byte	0
 2054 00a5 00       		.byte	0
 2055 00a6 0F       		.uleb128 0xf
 2056 00a7 13       		.uleb128 0x13
 2057 00a8 01       		.byte	0x1
 2058 00a9 03       		.uleb128 0x3
 2059 00aa 0E       		.uleb128 0xe
 2060 00ab 0B       		.uleb128 0xb
 2061 00ac 05       		.uleb128 0x5
 2062 00ad 3A       		.uleb128 0x3a
 2063 00ae 0B       		.uleb128 0xb
 2064 00af 3B       		.uleb128 0x3b
 2065 00b0 05       		.uleb128 0x5
 2066 00b1 01       		.uleb128 0x1
 2067 00b2 13       		.uleb128 0x13
 2068 00b3 00       		.byte	0
 2069 00b4 00       		.byte	0
 2070 00b5 10       		.uleb128 0x10
 2071 00b6 01       		.uleb128 0x1
 2072 00b7 01       		.byte	0x1
 2073 00b8 49       		.uleb128 0x49
 2074 00b9 13       		.uleb128 0x13
 2075 00ba 01       		.uleb128 0x1
 2076 00bb 13       		.uleb128 0x13
 2077 00bc 00       		.byte	0
 2078 00bd 00       		.byte	0
 2079 00be 11       		.uleb128 0x11
 2080 00bf 21       		.uleb128 0x21
 2081 00c0 00       		.byte	0
 2082 00c1 49       		.uleb128 0x49
 2083 00c2 13       		.uleb128 0x13
 2084 00c3 2F       		.uleb128 0x2f
 2085 00c4 0B       		.uleb128 0xb
 2086 00c5 00       		.byte	0
 2087 00c6 00       		.byte	0
 2088 00c7 12       		.uleb128 0x12
 2089 00c8 13       		.uleb128 0x13
 2090 00c9 01       		.byte	0x1
 2091 00ca 0B       		.uleb128 0xb
 2092 00cb 0B       		.uleb128 0xb
 2093 00cc 3A       		.uleb128 0x3a
 2094 00cd 0B       		.uleb128 0xb
 2095 00ce 3B       		.uleb128 0x3b
 2096 00cf 05       		.uleb128 0x5
 2097 00d0 01       		.uleb128 0x1
 2098 00d1 13       		.uleb128 0x13
 2099 00d2 00       		.byte	0
 2100 00d3 00       		.byte	0
 2101 00d4 13       		.uleb128 0x13
 2102 00d5 16       		.uleb128 0x16
 2103 00d6 00       		.byte	0
ARM GAS  /tmp/cc1Mzy67.s 			page 38


 2104 00d7 03       		.uleb128 0x3
 2105 00d8 0E       		.uleb128 0xe
 2106 00d9 3A       		.uleb128 0x3a
 2107 00da 0B       		.uleb128 0xb
 2108 00db 3B       		.uleb128 0x3b
 2109 00dc 05       		.uleb128 0x5
 2110 00dd 49       		.uleb128 0x49
 2111 00de 13       		.uleb128 0x13
 2112 00df 00       		.byte	0
 2113 00e0 00       		.byte	0
 2114 00e1 14       		.uleb128 0x14
 2115 00e2 0D       		.uleb128 0xd
 2116 00e3 00       		.byte	0
 2117 00e4 03       		.uleb128 0x3
 2118 00e5 08       		.uleb128 0x8
 2119 00e6 3A       		.uleb128 0x3a
 2120 00e7 0B       		.uleb128 0xb
 2121 00e8 3B       		.uleb128 0x3b
 2122 00e9 0B       		.uleb128 0xb
 2123 00ea 49       		.uleb128 0x49
 2124 00eb 13       		.uleb128 0x13
 2125 00ec 38       		.uleb128 0x38
 2126 00ed 0B       		.uleb128 0xb
 2127 00ee 00       		.byte	0
 2128 00ef 00       		.byte	0
 2129 00f0 15       		.uleb128 0x15
 2130 00f1 13       		.uleb128 0x13
 2131 00f2 01       		.byte	0x1
 2132 00f3 0B       		.uleb128 0xb
 2133 00f4 0B       		.uleb128 0xb
 2134 00f5 3A       		.uleb128 0x3a
 2135 00f6 0B       		.uleb128 0xb
 2136 00f7 3B       		.uleb128 0x3b
 2137 00f8 0B       		.uleb128 0xb
 2138 00f9 01       		.uleb128 0x1
 2139 00fa 13       		.uleb128 0x13
 2140 00fb 00       		.byte	0
 2141 00fc 00       		.byte	0
 2142 00fd 16       		.uleb128 0x16
 2143 00fe 17       		.uleb128 0x17
 2144 00ff 01       		.byte	0x1
 2145 0100 0B       		.uleb128 0xb
 2146 0101 0B       		.uleb128 0xb
 2147 0102 3A       		.uleb128 0x3a
 2148 0103 0B       		.uleb128 0xb
 2149 0104 3B       		.uleb128 0x3b
 2150 0105 0B       		.uleb128 0xb
 2151 0106 01       		.uleb128 0x1
 2152 0107 13       		.uleb128 0x13
 2153 0108 00       		.byte	0
 2154 0109 00       		.byte	0
 2155 010a 17       		.uleb128 0x17
 2156 010b 0D       		.uleb128 0xd
 2157 010c 00       		.byte	0
 2158 010d 03       		.uleb128 0x3
 2159 010e 0E       		.uleb128 0xe
 2160 010f 3A       		.uleb128 0x3a
ARM GAS  /tmp/cc1Mzy67.s 			page 39


 2161 0110 0B       		.uleb128 0xb
 2162 0111 3B       		.uleb128 0x3b
 2163 0112 05       		.uleb128 0x5
 2164 0113 49       		.uleb128 0x49
 2165 0114 13       		.uleb128 0x13
 2166 0115 00       		.byte	0
 2167 0116 00       		.byte	0
 2168 0117 18       		.uleb128 0x18
 2169 0118 26       		.uleb128 0x26
 2170 0119 00       		.byte	0
 2171 011a 49       		.uleb128 0x49
 2172 011b 13       		.uleb128 0x13
 2173 011c 00       		.byte	0
 2174 011d 00       		.byte	0
 2175 011e 19       		.uleb128 0x19
 2176 011f 0D       		.uleb128 0xd
 2177 0120 00       		.byte	0
 2178 0121 03       		.uleb128 0x3
 2179 0122 08       		.uleb128 0x8
 2180 0123 3A       		.uleb128 0x3a
 2181 0124 0B       		.uleb128 0xb
 2182 0125 3B       		.uleb128 0x3b
 2183 0126 0B       		.uleb128 0xb
 2184 0127 49       		.uleb128 0x49
 2185 0128 13       		.uleb128 0x13
 2186 0129 00       		.byte	0
 2187 012a 00       		.byte	0
 2188 012b 1A       		.uleb128 0x1a
 2189 012c 2E       		.uleb128 0x2e
 2190 012d 01       		.byte	0x1
 2191 012e 03       		.uleb128 0x3
 2192 012f 0E       		.uleb128 0xe
 2193 0130 3A       		.uleb128 0x3a
 2194 0131 0B       		.uleb128 0xb
 2195 0132 3B       		.uleb128 0x3b
 2196 0133 0B       		.uleb128 0xb
 2197 0134 27       		.uleb128 0x27
 2198 0135 19       		.uleb128 0x19
 2199 0136 11       		.uleb128 0x11
 2200 0137 01       		.uleb128 0x1
 2201 0138 12       		.uleb128 0x12
 2202 0139 06       		.uleb128 0x6
 2203 013a 40       		.uleb128 0x40
 2204 013b 18       		.uleb128 0x18
 2205 013c 9742     		.uleb128 0x2117
 2206 013e 19       		.uleb128 0x19
 2207 013f 01       		.uleb128 0x1
 2208 0140 13       		.uleb128 0x13
 2209 0141 00       		.byte	0
 2210 0142 00       		.byte	0
 2211 0143 1B       		.uleb128 0x1b
 2212 0144 05       		.uleb128 0x5
 2213 0145 00       		.byte	0
 2214 0146 03       		.uleb128 0x3
 2215 0147 0E       		.uleb128 0xe
 2216 0148 3A       		.uleb128 0x3a
 2217 0149 0B       		.uleb128 0xb
ARM GAS  /tmp/cc1Mzy67.s 			page 40


 2218 014a 3B       		.uleb128 0x3b
 2219 014b 0B       		.uleb128 0xb
 2220 014c 49       		.uleb128 0x49
 2221 014d 13       		.uleb128 0x13
 2222 014e 02       		.uleb128 0x2
 2223 014f 18       		.uleb128 0x18
 2224 0150 00       		.byte	0
 2225 0151 00       		.byte	0
 2226 0152 1C       		.uleb128 0x1c
 2227 0153 2E       		.uleb128 0x2e
 2228 0154 01       		.byte	0x1
 2229 0155 3F       		.uleb128 0x3f
 2230 0156 19       		.uleb128 0x19
 2231 0157 03       		.uleb128 0x3
 2232 0158 0E       		.uleb128 0xe
 2233 0159 3A       		.uleb128 0x3a
 2234 015a 0B       		.uleb128 0xb
 2235 015b 3B       		.uleb128 0x3b
 2236 015c 0B       		.uleb128 0xb
 2237 015d 27       		.uleb128 0x27
 2238 015e 19       		.uleb128 0x19
 2239 015f 11       		.uleb128 0x11
 2240 0160 01       		.uleb128 0x1
 2241 0161 12       		.uleb128 0x12
 2242 0162 06       		.uleb128 0x6
 2243 0163 40       		.uleb128 0x40
 2244 0164 18       		.uleb128 0x18
 2245 0165 9642     		.uleb128 0x2116
 2246 0167 19       		.uleb128 0x19
 2247 0168 01       		.uleb128 0x1
 2248 0169 13       		.uleb128 0x13
 2249 016a 00       		.byte	0
 2250 016b 00       		.byte	0
 2251 016c 1D       		.uleb128 0x1d
 2252 016d 2E       		.uleb128 0x2e
 2253 016e 01       		.byte	0x1
 2254 016f 3F       		.uleb128 0x3f
 2255 0170 19       		.uleb128 0x19
 2256 0171 03       		.uleb128 0x3
 2257 0172 0E       		.uleb128 0xe
 2258 0173 3A       		.uleb128 0x3a
 2259 0174 0B       		.uleb128 0xb
 2260 0175 3B       		.uleb128 0x3b
 2261 0176 0B       		.uleb128 0xb
 2262 0177 27       		.uleb128 0x27
 2263 0178 19       		.uleb128 0x19
 2264 0179 11       		.uleb128 0x11
 2265 017a 01       		.uleb128 0x1
 2266 017b 12       		.uleb128 0x12
 2267 017c 06       		.uleb128 0x6
 2268 017d 40       		.uleb128 0x40
 2269 017e 18       		.uleb128 0x18
 2270 017f 9742     		.uleb128 0x2117
 2271 0181 19       		.uleb128 0x19
 2272 0182 01       		.uleb128 0x1
 2273 0183 13       		.uleb128 0x13
 2274 0184 00       		.byte	0
ARM GAS  /tmp/cc1Mzy67.s 			page 41


 2275 0185 00       		.byte	0
 2276 0186 1E       		.uleb128 0x1e
 2277 0187 34       		.uleb128 0x34
 2278 0188 00       		.byte	0
 2279 0189 03       		.uleb128 0x3
 2280 018a 0E       		.uleb128 0xe
 2281 018b 3A       		.uleb128 0x3a
 2282 018c 0B       		.uleb128 0xb
 2283 018d 3B       		.uleb128 0x3b
 2284 018e 0B       		.uleb128 0xb
 2285 018f 49       		.uleb128 0x49
 2286 0190 13       		.uleb128 0x13
 2287 0191 02       		.uleb128 0x2
 2288 0192 18       		.uleb128 0x18
 2289 0193 00       		.byte	0
 2290 0194 00       		.byte	0
 2291 0195 1F       		.uleb128 0x1f
 2292 0196 34       		.uleb128 0x34
 2293 0197 00       		.byte	0
 2294 0198 03       		.uleb128 0x3
 2295 0199 08       		.uleb128 0x8
 2296 019a 3A       		.uleb128 0x3a
 2297 019b 0B       		.uleb128 0xb
 2298 019c 3B       		.uleb128 0x3b
 2299 019d 0B       		.uleb128 0xb
 2300 019e 49       		.uleb128 0x49
 2301 019f 13       		.uleb128 0x13
 2302 01a0 02       		.uleb128 0x2
 2303 01a1 18       		.uleb128 0x18
 2304 01a2 00       		.byte	0
 2305 01a3 00       		.byte	0
 2306 01a4 20       		.uleb128 0x20
 2307 01a5 0B       		.uleb128 0xb
 2308 01a6 01       		.byte	0x1
 2309 01a7 11       		.uleb128 0x11
 2310 01a8 01       		.uleb128 0x1
 2311 01a9 12       		.uleb128 0x12
 2312 01aa 06       		.uleb128 0x6
 2313 01ab 00       		.byte	0
 2314 01ac 00       		.byte	0
 2315 01ad 21       		.uleb128 0x21
 2316 01ae 34       		.uleb128 0x34
 2317 01af 00       		.byte	0
 2318 01b0 03       		.uleb128 0x3
 2319 01b1 0E       		.uleb128 0xe
 2320 01b2 3A       		.uleb128 0x3a
 2321 01b3 0B       		.uleb128 0xb
 2322 01b4 3B       		.uleb128 0x3b
 2323 01b5 05       		.uleb128 0x5
 2324 01b6 49       		.uleb128 0x49
 2325 01b7 13       		.uleb128 0x13
 2326 01b8 3F       		.uleb128 0x3f
 2327 01b9 19       		.uleb128 0x19
 2328 01ba 3C       		.uleb128 0x3c
 2329 01bb 19       		.uleb128 0x19
 2330 01bc 00       		.byte	0
 2331 01bd 00       		.byte	0
ARM GAS  /tmp/cc1Mzy67.s 			page 42


 2332 01be 22       		.uleb128 0x22
 2333 01bf 34       		.uleb128 0x34
 2334 01c0 00       		.byte	0
 2335 01c1 03       		.uleb128 0x3
 2336 01c2 08       		.uleb128 0x8
 2337 01c3 3A       		.uleb128 0x3a
 2338 01c4 0B       		.uleb128 0xb
 2339 01c5 3B       		.uleb128 0x3b
 2340 01c6 05       		.uleb128 0x5
 2341 01c7 49       		.uleb128 0x49
 2342 01c8 13       		.uleb128 0x13
 2343 01c9 3F       		.uleb128 0x3f
 2344 01ca 19       		.uleb128 0x19
 2345 01cb 3C       		.uleb128 0x3c
 2346 01cc 19       		.uleb128 0x19
 2347 01cd 00       		.byte	0
 2348 01ce 00       		.byte	0
 2349 01cf 00       		.byte	0
 2350              		.section	.debug_aranges,"",%progbits
 2351 0000 2C000000 		.4byte	0x2c
 2352 0004 0200     		.2byte	0x2
 2353 0006 00000000 		.4byte	.Ldebug_info0
 2354 000a 04       		.byte	0x4
 2355 000b 00       		.byte	0
 2356 000c 0000     		.2byte	0
 2357 000e 0000     		.2byte	0
 2358 0010 00000000 		.4byte	.LFB253
 2359 0014 42000000 		.4byte	.LFE253-.LFB253
 2360 0018 00000000 		.4byte	.LFB254
 2361 001c C0000000 		.4byte	.LFE254-.LFB254
 2362 0020 00000000 		.4byte	.LFB255
 2363 0024 22010000 		.4byte	.LFE255-.LFB255
 2364 0028 00000000 		.4byte	0
 2365 002c 00000000 		.4byte	0
 2366              		.section	.debug_ranges,"",%progbits
 2367              	.Ldebug_ranges0:
 2368 0000 00000000 		.4byte	.LFB253
 2369 0004 42000000 		.4byte	.LFE253
 2370 0008 00000000 		.4byte	.LFB254
 2371 000c C0000000 		.4byte	.LFE254
 2372 0010 00000000 		.4byte	.LFB255
 2373 0014 22010000 		.4byte	.LFE255
 2374 0018 00000000 		.4byte	0
 2375 001c 00000000 		.4byte	0
 2376              		.section	.debug_line,"",%progbits
 2377              	.Ldebug_line0:
 2378 0000 10030000 		.section	.debug_str,"MS",%progbits,1
 2378      0200A802 
 2378      00000201 
 2378      FB0E0D00 
 2378      01010101 
 2379              	.LASF148:
 2380 0000 73746D33 		.ascii	"stm32_gpio_setup_t\000"
 2380      325F6770 
 2380      696F5F73 
 2380      65747570 
 2380      5F7400
ARM GAS  /tmp/cc1Mzy67.s 			page 43


 2381              	.LASF52:
 2382 0013 72656164 		.ascii	"ready_list_t\000"
 2382      795F6C69 
 2382      73745F74 
 2382      00
 2383              	.LASF118:
 2384 0020 77747472 		.ascii	"wttrp\000"
 2384      7000
 2385              	.LASF115:
 2386 0026 7264796D 		.ascii	"rdymsg\000"
 2386      736700
 2387              	.LASF18:
 2388 002d 75696E74 		.ascii	"uint64_t\000"
 2388      36345F74 
 2388      00
 2389              	.LASF4:
 2390 0036 5F5F7569 		.ascii	"__uint8_t\000"
 2390      6E74385F 
 2390      7400
 2391              	.LASF134:
 2392 0040 4F545950 		.ascii	"OTYPER\000"
 2392      455200
 2393              	.LASF112:
 2394 0047 706F7274 		.ascii	"port_intctx\000"
 2394      5F696E74 
 2394      63747800 
 2395              	.LASF71:
 2396 0053 73797374 		.ascii	"system_debug_t\000"
 2396      656D5F64 
 2396      65627567 
 2396      5F7400
 2397              	.LASF159:
 2398 0062 696F706F 		.ascii	"ioportmask_t\000"
 2398      72746D61 
 2398      736B5F74 
 2398      00
 2399              	.LASF156:
 2400 006f 50484461 		.ascii	"PHData\000"
 2400      746100
 2401              	.LASF133:
 2402 0076 4D4F4445 		.ascii	"MODER\000"
 2402      5200
 2403              	.LASF13:
 2404 007c 6C6F6E67 		.ascii	"long long unsigned int\000"
 2404      206C6F6E 
 2404      6720756E 
 2404      7369676E 
 2404      65642069 
 2405              	.LASF136:
 2406 0093 50555044 		.ascii	"PUPDR\000"
 2406      5200
 2407              	.LASF116:
 2408 0099 65786974 		.ascii	"exitcode\000"
 2408      636F6465 
 2408      00
 2409              	.LASF78:
 2410 00a2 6D61696E 		.ascii	"mainthread\000"
ARM GAS  /tmp/cc1Mzy67.s 			page 44


 2410      74687265 
 2410      616400
 2411              	.LASF68:
 2412 00ad 76697274 		.ascii	"virtual_timers_list_t\000"
 2412      75616C5F 
 2412      74696D65 
 2412      72735F6C 
 2412      6973745F 
 2413              	.LASF171:
 2414 00c3 49544D5F 		.ascii	"ITM_RxBuffer\000"
 2414      52784275 
 2414      66666572 
 2414      00
 2415              	.LASF51:
 2416 00d0 63685F74 		.ascii	"ch_threads_queue\000"
 2416      68726561 
 2416      64735F71 
 2416      75657565 
 2416      00
 2417              	.LASF97:
 2418 00e1 41484231 		.ascii	"AHB1LPENR\000"
 2418      4C50454E 
 2418      5200
 2419              	.LASF31:
 2420 00eb 705F7072 		.ascii	"p_prio\000"
 2420      696F00
 2421              	.LASF70:
 2422 00f2 76745F73 		.ascii	"vt_systime\000"
 2422      79737469 
 2422      6D6500
 2423              	.LASF11:
 2424 00fd 6C6F6E67 		.ascii	"long long int\000"
 2424      206C6F6E 
 2424      6720696E 
 2424      7400
 2425              	.LASF1:
 2426 010b 7369676E 		.ascii	"signed char\000"
 2426      65642063 
 2426      68617200 
 2427              	.LASF137:
 2428 0117 42535252 		.ascii	"BSRR\000"
 2428      00
 2429              	.LASF83:
 2430 011c 41484231 		.ascii	"AHB1RSTR\000"
 2430      52535452 
 2430      00
 2431              	.LASF45:
 2432 0125 705F6D70 		.ascii	"p_mpool\000"
 2432      6F6F6C00 
 2433              	.LASF126:
 2434 012d 6D5F7175 		.ascii	"m_queue\000"
 2434      65756500 
 2435              	.LASF142:
 2436 0135 6D6F6465 		.ascii	"moder\000"
 2436      7200
 2437              	.LASF108:
 2438 013b 5243435F 		.ascii	"RCC_TypeDef\000"
ARM GAS  /tmp/cc1Mzy67.s 			page 45


 2438      54797065 
 2438      44656600 
 2439              	.LASF75:
 2440 0147 63685F73 		.ascii	"ch_system\000"
 2440      79737465 
 2440      6D00
 2441              	.LASF8:
 2442 0151 6C6F6E67 		.ascii	"long int\000"
 2442      20696E74 
 2442      00
 2443              	.LASF153:
 2444 015a 50454461 		.ascii	"PEData\000"
 2444      746100
 2445              	.LASF88:
 2446 0161 41504232 		.ascii	"APB2RSTR\000"
 2446      52535452 
 2446      00
 2447              	.LASF101:
 2448 016a 41504231 		.ascii	"APB1LPENR\000"
 2448      4C50454E 
 2448      5200
 2449              	.LASF21:
 2450 0174 74737461 		.ascii	"tstate_t\000"
 2450      74655F74 
 2450      00
 2451              	.LASF170:
 2452 017d 616C7472 		.ascii	"altrmask\000"
 2452      6D61736B 
 2452      00
 2453              	.LASF33:
 2454 0186 705F6E65 		.ascii	"p_newer\000"
 2454      77657200 
 2455              	.LASF81:
 2456 018e 504C4C43 		.ascii	"PLLCFGR\000"
 2456      46475200 
 2457              	.LASF135:
 2458 0196 4F535045 		.ascii	"OSPEEDR\000"
 2458      45445200 
 2459              	.LASF57:
 2460 019e 725F6E65 		.ascii	"r_newer\000"
 2460      77657200 
 2461              	.LASF167:
 2462 01a6 6D61736B 		.ascii	"mask\000"
 2462      00
 2463              	.LASF109:
 2464 01ab 72656761 		.ascii	"regarm_t\000"
 2464      726D5F74 
 2464      00
 2465              	.LASF64:
 2466 01b4 76745F70 		.ascii	"vt_prev\000"
 2466      72657600 
 2467              	.LASF77:
 2468 01bc 76746C69 		.ascii	"vtlist\000"
 2468      737400
 2469              	.LASF141:
 2470 01c3 73746D33 		.ascii	"stm32_gpio_t\000"
 2470      325F6770 
ARM GAS  /tmp/cc1Mzy67.s 			page 46


 2470      696F5F74 
 2470      00
 2471              	.LASF166:
 2472 01d0 706F7274 		.ascii	"port\000"
 2472      00
 2473              	.LASF130:
 2474 01d5 6D757465 		.ascii	"mutex_t\000"
 2474      785F7400 
 2475              	.LASF150:
 2476 01dd 50424461 		.ascii	"PBData\000"
 2476      746100
 2477              	.LASF79:
 2478 01e4 69646C65 		.ascii	"idle_thread_wa\000"
 2478      5F746872 
 2478      6561645F 
 2478      776100
 2479              	.LASF26:
 2480 01f3 636E745F 		.ascii	"cnt_t\000"
 2480      7400
 2481              	.LASF0:
 2482 01f9 756E7369 		.ascii	"unsigned int\000"
 2482      676E6564 
 2482      20696E74 
 2482      00
 2483              	.LASF63:
 2484 0206 76745F6E 		.ascii	"vt_next\000"
 2484      65787400 
 2485              	.LASF15:
 2486 020e 75696E74 		.ascii	"uint16_t\000"
 2486      31365F74 
 2486      00
 2487              	.LASF119:
 2488 0217 77747365 		.ascii	"wtsemp\000"
 2488      6D7000
 2489              	.LASF65:
 2490 021e 76745F64 		.ascii	"vt_delta\000"
 2490      656C7461 
 2490      00
 2491              	.LASF40:
 2492 0227 705F6D73 		.ascii	"p_msgqueue\000"
 2492      67717565 
 2492      756500
 2493              	.LASF144:
 2494 0232 6F737065 		.ascii	"ospeedr\000"
 2494      65647200 
 2495              	.LASF138:
 2496 023a 4C434B52 		.ascii	"LCKR\000"
 2496      00
 2497              	.LASF143:
 2498 023f 6F747970 		.ascii	"otyper\000"
 2498      657200
 2499              	.LASF173:
 2500 0246 2F686F6D 		.ascii	"/home/makkmarci/workspace/CLEAN/ChibiOS/os/hal/port"
 2500      652F6D61 
 2500      6B6B6D61 
 2500      7263692F 
 2500      776F726B 
ARM GAS  /tmp/cc1Mzy67.s 			page 47


 2501 0279 732F5354 		.ascii	"s/STM32/LLD/GPIOv2/pal_lld.c\000"
 2501      4D33322F 
 2501      4C4C442F 
 2501      4750494F 
 2501      76322F70 
 2502              	.LASF6:
 2503 0296 73686F72 		.ascii	"short unsigned int\000"
 2503      7420756E 
 2503      7369676E 
 2503      65642069 
 2503      6E7400
 2504              	.LASF154:
 2505 02a9 50464461 		.ascii	"PFData\000"
 2505      746100
 2506              	.LASF48:
 2507 02b0 63685F74 		.ascii	"ch_thread\000"
 2507      68726561 
 2507      6400
 2508              	.LASF107:
 2509 02ba 504C4C49 		.ascii	"PLLI2SCFGR\000"
 2509      32534346 
 2509      475200
 2510              	.LASF24:
 2511 02c5 6D73675F 		.ascii	"msg_t\000"
 2511      7400
 2512              	.LASF85:
 2513 02cb 41484233 		.ascii	"AHB3RSTR\000"
 2513      52535452 
 2513      00
 2514              	.LASF74:
 2515 02d4 63685F73 		.ascii	"ch_system_t\000"
 2515      79737465 
 2515      6D5F7400 
 2516              	.LASF20:
 2517 02e0 746D6F64 		.ascii	"tmode_t\000"
 2517      655F7400 
 2518              	.LASF102:
 2519 02e8 41504232 		.ascii	"APB2LPENR\000"
 2519      4C50454E 
 2519      5200
 2520              	.LASF53:
 2521 02f2 63685F72 		.ascii	"ch_ready_list\000"
 2521      65616479 
 2521      5F6C6973 
 2521      7400
 2522              	.LASF25:
 2523 0300 6576656E 		.ascii	"eventmask_t\000"
 2523      746D6173 
 2523      6B5F7400 
 2524              	.LASF7:
 2525 030c 5F5F696E 		.ascii	"__int32_t\000"
 2525      7433325F 
 2525      7400
 2526              	.LASF155:
 2527 0316 50474461 		.ascii	"PGData\000"
 2527      746100
 2528              	.LASF110:
ARM GAS  /tmp/cc1Mzy67.s 			page 48


 2529 031d 73746B61 		.ascii	"stkalign_t\000"
 2529      6C69676E 
 2529      5F7400
 2530              	.LASF47:
 2531 0328 74687265 		.ascii	"threads_list_t\000"
 2531      6164735F 
 2531      6C697374 
 2531      5F7400
 2532              	.LASF61:
 2533 0337 76697274 		.ascii	"virtual_timer_t\000"
 2533      75616C5F 
 2533      74696D65 
 2533      725F7400 
 2534              	.LASF39:
 2535 0347 705F7761 		.ascii	"p_waiting\000"
 2535      6974696E 
 2535      6700
 2536              	.LASF80:
 2537 0351 73697A65 		.ascii	"sizetype\000"
 2537      74797065 
 2537      00
 2538              	.LASF46:
 2539 035a 74687265 		.ascii	"thread_reference_t\000"
 2539      61645F72 
 2539      65666572 
 2539      656E6365 
 2539      5F7400
 2540              	.LASF69:
 2541 036d 63685F76 		.ascii	"ch_virtual_timers_list\000"
 2541      69727475 
 2541      616C5F74 
 2541      696D6572 
 2541      735F6C69 
 2542              	.LASF172:
 2543 0384 474E5520 		.ascii	"GNU C 4.9.3 20150303 (release) [ARM/embedded-4_9-br"
 2543      4320342E 
 2543      392E3320 
 2543      32303135 
 2543      30333033 
 2544 03b7 616E6368 		.ascii	"anch revision 221220] -mcpu=cortex-m4 -mfloat-abi=h"
 2544      20726576 
 2544      6973696F 
 2544      6E203232 
 2544      31323230 
 2545 03ea 61726420 		.ascii	"ard -mfpu=fpv4-sp-d16 -mno-thumb-interwork -mthumb "
 2545      2D6D6670 
 2545      753D6670 
 2545      76342D73 
 2545      702D6431 
 2546 041d 2D676764 		.ascii	"-ggdb -fomit-frame-pointer -falign-functions=16 -ff"
 2546      62202D66 
 2546      6F6D6974 
 2546      2D667261 
 2546      6D652D70 
 2547 0450 756E6374 		.ascii	"unction-sections -fdata-sections -fno-common -fsing"
 2547      696F6E2D 
 2547      73656374 
ARM GAS  /tmp/cc1Mzy67.s 			page 49


 2547      696F6E73 
 2547      202D6664 
 2548 0483 6C652D70 		.ascii	"le-precision-constant\000"
 2548      72656369 
 2548      73696F6E 
 2548      2D636F6E 
 2548      7374616E 
 2549              	.LASF29:
 2550 0499 705F6E65 		.ascii	"p_next\000"
 2550      787400
 2551              	.LASF92:
 2552 04a0 41484233 		.ascii	"AHB3ENR\000"
 2552      454E5200 
 2553              	.LASF34:
 2554 04a8 705F6F6C 		.ascii	"p_older\000"
 2554      64657200 
 2555              	.LASF56:
 2556 04b0 725F6374 		.ascii	"r_ctx\000"
 2556      7800
 2557              	.LASF98:
 2558 04b6 41484232 		.ascii	"AHB2LPENR\000"
 2558      4C50454E 
 2558      5200
 2559              	.LASF114:
 2560 04c0 746D5F63 		.ascii	"tm_calibration_t\000"
 2560      616C6962 
 2560      72617469 
 2560      6F6E5F74 
 2560      00
 2561              	.LASF147:
 2562 04d1 61667268 		.ascii	"afrh\000"
 2562      00
 2563              	.LASF152:
 2564 04d6 50444461 		.ascii	"PDData\000"
 2564      746100
 2565              	.LASF59:
 2566 04dd 725F6375 		.ascii	"r_current\000"
 2566      7272656E 
 2566      7400
 2567              	.LASF87:
 2568 04e7 41504231 		.ascii	"APB1RSTR\000"
 2568      52535452 
 2568      00
 2569              	.LASF12:
 2570 04f0 5F5F7569 		.ascii	"__uint64_t\000"
 2570      6E743634 
 2570      5F7400
 2571              	.LASF140:
 2572 04fb 41465248 		.ascii	"AFRH\000"
 2572      00
 2573              	.LASF139:
 2574 0500 4146524C 		.ascii	"AFRL\000"
 2574      00
 2575              	.LASF22:
 2576 0505 74726566 		.ascii	"trefs_t\000"
 2576      735F7400 
 2577              	.LASF86:
ARM GAS  /tmp/cc1Mzy67.s 			page 50


 2578 050d 52455345 		.ascii	"RESERVED0\000"
 2578      52564544 
 2578      3000
 2579              	.LASF89:
 2580 0517 52455345 		.ascii	"RESERVED1\000"
 2580      52564544 
 2580      3100
 2581              	.LASF93:
 2582 0521 52455345 		.ascii	"RESERVED2\000"
 2582      52564544 
 2582      3200
 2583              	.LASF96:
 2584 052b 52455345 		.ascii	"RESERVED3\000"
 2584      52564544 
 2584      3300
 2585              	.LASF100:
 2586 0535 52455345 		.ascii	"RESERVED4\000"
 2586      52564544 
 2586      3400
 2587              	.LASF30:
 2588 053f 705F7072 		.ascii	"p_prev\000"
 2588      657600
 2589              	.LASF105:
 2590 0546 52455345 		.ascii	"RESERVED6\000"
 2590      52564544 
 2590      3600
 2591              	.LASF23:
 2592 0550 74707269 		.ascii	"tprio_t\000"
 2592      6F5F7400 
 2593              	.LASF72:
 2594 0558 63685F73 		.ascii	"ch_system_debug\000"
 2594      79737465 
 2594      6D5F6465 
 2594      62756700 
 2595              	.LASF131:
 2596 0568 5F426F6F 		.ascii	"_Bool\000"
 2596      6C00
 2597              	.LASF16:
 2598 056e 696E7433 		.ascii	"int32_t\000"
 2598      325F7400 
 2599              	.LASF2:
 2600 0576 756E7369 		.ascii	"unsigned char\000"
 2600      676E6564 
 2600      20636861 
 2600      7200
 2601              	.LASF146:
 2602 0584 6166726C 		.ascii	"afrl\000"
 2602      00
 2603              	.LASF124:
 2604 0589 735F636E 		.ascii	"s_cnt\000"
 2604      7400
 2605              	.LASF43:
 2606 058f 705F6D74 		.ascii	"p_mtxlist\000"
 2606      786C6973 
 2606      7400
 2607              	.LASF3:
 2608 0599 73686F72 		.ascii	"short int\000"
ARM GAS  /tmp/cc1Mzy67.s 			page 51


 2608      7420696E 
 2608      7400
 2609              	.LASF36:
 2610 05a3 705F7374 		.ascii	"p_state\000"
 2610      61746500 
 2611              	.LASF99:
 2612 05ab 41484233 		.ascii	"AHB3LPENR\000"
 2612      4C50454E 
 2612      5200
 2613              	.LASF55:
 2614 05b5 725F7072 		.ascii	"r_prio\000"
 2614      696F00
 2615              	.LASF149:
 2616 05bc 50414461 		.ascii	"PAData\000"
 2616      746100
 2617              	.LASF121:
 2618 05c3 65776D61 		.ascii	"ewmask\000"
 2618      736B00
 2619              	.LASF37:
 2620 05ca 705F666C 		.ascii	"p_flags\000"
 2620      61677300 
 2621              	.LASF162:
 2622 05d2 6770696F 		.ascii	"gpiop\000"
 2622      7000
 2623              	.LASF95:
 2624 05d8 41504232 		.ascii	"APB2ENR\000"
 2624      454E5200 
 2625              	.LASF157:
 2626 05e0 50494461 		.ascii	"PIData\000"
 2626      746100
 2627              	.LASF62:
 2628 05e7 63685F76 		.ascii	"ch_virtual_timer\000"
 2628      69727475 
 2628      616C5F74 
 2628      696D6572 
 2628      00
 2629              	.LASF122:
 2630 05f8 63685F73 		.ascii	"ch_semaphore\000"
 2630      656D6170 
 2630      686F7265 
 2630      00
 2631              	.LASF42:
 2632 0605 705F6570 		.ascii	"p_epending\000"
 2632      656E6469 
 2632      6E6700
 2633              	.LASF132:
 2634 0610 636C6561 		.ascii	"clear\000"
 2634      7200
 2635              	.LASF103:
 2636 0616 52455345 		.ascii	"RESERVED5\000"
 2636      52564544 
 2636      3500
 2637              	.LASF17:
 2638 0620 75696E74 		.ascii	"uint32_t\000"
 2638      33325F74 
 2638      00
 2639              	.LASF120:
ARM GAS  /tmp/cc1Mzy67.s 			page 52


 2640 0629 77746D74 		.ascii	"wtmtxp\000"
 2640      787000
 2641              	.LASF54:
 2642 0630 725F7175 		.ascii	"r_queue\000"
 2642      65756500 
 2643              	.LASF49:
 2644 0638 63685F74 		.ascii	"ch_threads_list\000"
 2644      68726561 
 2644      64735F6C 
 2644      69737400 
 2645              	.LASF10:
 2646 0648 6C6F6E67 		.ascii	"long unsigned int\000"
 2646      20756E73 
 2646      69676E65 
 2646      6420696E 
 2646      7400
 2647              	.LASF169:
 2648 065a 616C7472 		.ascii	"altr\000"
 2648      00
 2649              	.LASF129:
 2650 065f 63686172 		.ascii	"char\000"
 2650      00
 2651              	.LASF168:
 2652 0664 6D6F6465 		.ascii	"mode\000"
 2652      00
 2653              	.LASF163:
 2654 0669 636F6E66 		.ascii	"config\000"
 2654      696700
 2655              	.LASF5:
 2656 0670 5F5F7569 		.ascii	"__uint16_t\000"
 2656      6E743136 
 2656      5F7400
 2657              	.LASF84:
 2658 067b 41484232 		.ascii	"AHB2RSTR\000"
 2658      52535452 
 2658      00
 2659              	.LASF28:
 2660 0684 74687265 		.ascii	"thread_t\000"
 2660      61645F74 
 2660      00
 2661              	.LASF128:
 2662 068d 6D5F6E65 		.ascii	"m_next\000"
 2662      787400
 2663              	.LASF27:
 2664 0694 73797374 		.ascii	"systime_t\000"
 2664      696D655F 
 2664      7400
 2665              	.LASF44:
 2666 069e 705F7265 		.ascii	"p_realprio\000"
 2666      616C7072 
 2666      696F00
 2667              	.LASF60:
 2668 06a9 76746675 		.ascii	"vtfunc_t\000"
 2668      6E635F74 
 2668      00
 2669              	.LASF9:
 2670 06b2 5F5F7569 		.ascii	"__uint32_t\000"
ARM GAS  /tmp/cc1Mzy67.s 			page 53


 2670      6E743332 
 2670      5F7400
 2671              	.LASF174:
 2672 06bd 696E6974 		.ascii	"initgpio\000"
 2672      6770696F 
 2672      00
 2673              	.LASF73:
 2674 06c6 70616E69 		.ascii	"panic_msg\000"
 2674      635F6D73 
 2674      6700
 2675              	.LASF113:
 2676 06d0 6F666673 		.ascii	"offset\000"
 2676      657400
 2677              	.LASF94:
 2678 06d7 41504231 		.ascii	"APB1ENR\000"
 2678      454E5200 
 2679              	.LASF161:
 2680 06df 696F706F 		.ascii	"ioportid_t\000"
 2680      72746964 
 2680      5F7400
 2681              	.LASF91:
 2682 06ea 41484232 		.ascii	"AHB2ENR\000"
 2682      454E5200 
 2683              	.LASF111:
 2684 06f2 636F6E74 		.ascii	"context\000"
 2684      65787400 
 2685              	.LASF58:
 2686 06fa 725F6F6C 		.ascii	"r_older\000"
 2686      64657200 
 2687              	.LASF165:
 2688 0702 5F70616C 		.ascii	"_pal_lld_setgroupmode\000"
 2688      5F6C6C64 
 2688      5F736574 
 2688      67726F75 
 2688      706D6F64 
 2689              	.LASF19:
 2690 0718 7274636E 		.ascii	"rtcnt_t\000"
 2690      745F7400 
 2691              	.LASF67:
 2692 0720 76745F70 		.ascii	"vt_par\000"
 2692      617200
 2693              	.LASF106:
 2694 0727 53534347 		.ascii	"SSCGR\000"
 2694      5200
 2695              	.LASF50:
 2696 072d 74687265 		.ascii	"threads_queue_t\000"
 2696      6164735F 
 2696      71756575 
 2696      655F7400 
 2697              	.LASF125:
 2698 073d 63685F6D 		.ascii	"ch_mutex\000"
 2698      75746578 
 2698      00
 2699              	.LASF38:
 2700 0746 705F7265 		.ascii	"p_refs\000"
 2700      667300
 2701              	.LASF164:
ARM GAS  /tmp/cc1Mzy67.s 			page 54


 2702 074d 5F70616C 		.ascii	"_pal_lld_init\000"
 2702      5F6C6C64 
 2702      5F696E69 
 2702      7400
 2703              	.LASF104:
 2704 075b 42444352 		.ascii	"BDCR\000"
 2704      00
 2705              	.LASF76:
 2706 0760 726C6973 		.ascii	"rlist\000"
 2706      7400
 2707              	.LASF14:
 2708 0766 75696E74 		.ascii	"uint8_t\000"
 2708      385F7400 
 2709              	.LASF145:
 2710 076e 70757064 		.ascii	"pupdr\000"
 2710      7200
 2711              	.LASF117:
 2712 0774 77746F62 		.ascii	"wtobjp\000"
 2712      6A7000
 2713              	.LASF35:
 2714 077b 705F6E61 		.ascii	"p_name\000"
 2714      6D6500
 2715              	.LASF90:
 2716 0782 41484231 		.ascii	"AHB1ENR\000"
 2716      454E5200 
 2717              	.LASF151:
 2718 078a 50434461 		.ascii	"PCData\000"
 2718      746100
 2719              	.LASF82:
 2720 0791 43464752 		.ascii	"CFGR\000"
 2720      00
 2721              	.LASF123:
 2722 0796 735F7175 		.ascii	"s_queue\000"
 2722      65756500 
 2723              	.LASF41:
 2724 079e 705F6D73 		.ascii	"p_msg\000"
 2724      6700
 2725              	.LASF160:
 2726 07a4 696F6D6F 		.ascii	"iomode_t\000"
 2726      64655F74 
 2726      00
 2727              	.LASF158:
 2728 07ad 50414C43 		.ascii	"PALConfig\000"
 2728      6F6E6669 
 2728      6700
 2729              	.LASF127:
 2730 07b7 6D5F6F77 		.ascii	"m_owner\000"
 2730      6E657200 
 2731              	.LASF32:
 2732 07bf 705F6374 		.ascii	"p_ctx\000"
 2732      7800
 2733              	.LASF66:
 2734 07c5 76745F66 		.ascii	"vt_func\000"
 2734      756E6300 
 2735              		.ident	"GCC: (GNU Tools for ARM Embedded Processors) 4.9.3 20150303 (release) [ARM/embedded-4_9-br
ARM GAS  /tmp/cc1Mzy67.s 			page 55


DEFINED SYMBOLS
                            *ABS*:00000000 pal_lld.c
     /tmp/cc1Mzy67.s:21     .text.initgpio:00000000 $t
     /tmp/cc1Mzy67.s:26     .text.initgpio:00000000 initgpio
     /tmp/cc1Mzy67.s:82     .text._pal_lld_init:00000000 $t
     /tmp/cc1Mzy67.s:88     .text._pal_lld_init:00000000 _pal_lld_init
     /tmp/cc1Mzy67.s:175    .text._pal_lld_init:00000098 $d
     /tmp/cc1Mzy67.s:189    .text._pal_lld_setgroupmode:00000000 $t
     /tmp/cc1Mzy67.s:195    .text._pal_lld_setgroupmode:00000000 _pal_lld_setgroupmode
                     .debug_frame:00000010 $d

NO UNDEFINED SYMBOLS
