ARM GAS  /tmp/cce4XLMQ.s 			page 1


   1              		.syntax unified
   2              		.cpu cortex-m4
   3              		.eabi_attribute 27, 1
   4              		.eabi_attribute 28, 1
   5              		.fpu fpv4-sp-d16
   6              		.eabi_attribute 20, 1
   7              		.eabi_attribute 21, 1
   8              		.eabi_attribute 23, 3
   9              		.eabi_attribute 24, 1
  10              		.eabi_attribute 25, 1
  11              		.eabi_attribute 26, 1
  12              		.eabi_attribute 30, 6
  13              		.eabi_attribute 34, 1
  14              		.eabi_attribute 18, 4
  15              		.thumb
  16              		.file	"serial.c"
  17              		.text
  18              	.Ltext0:
  19              		.cfi_sections	.debug_frame
  20              		.section	.text.port_lock,"ax",%progbits
  21              		.align	2
  22              		.p2align 4,,15
  23              		.thumb
  24              		.thumb_func
  25              		.type	port_lock, %function
  26              	port_lock:
  27              	.LFB116:
  28              		.file 1 "/home/makkmarci/workspace/CLEAN/ChibiOS/os/rt/ports/ARMCMx/chcore_v7m.h"
  29              		.loc 1 444 0
  30              		.cfi_startproc
  31              		@ args = 0, pretend = 0, frame = 8
  32              		@ frame_needed = 0, uses_anonymous_args = 0
  33              		@ link register save eliminated.
  34 0000 82B0     		sub	sp, sp, #8
  35              		.cfi_def_cfa_offset 8
  36 0002 2023     		movs	r3, #32
  37 0004 0193     		str	r3, [sp, #4]
  38              	.LBB6:
  39              	.LBB7:
  40              		.file 2 "/home/makkmarci/workspace/CLEAN/ChibiOS/os/ext/CMSIS/include/core_cmFunc.h"
  41              		.loc 2 546 0
  42 0006 019B     		ldr	r3, [sp, #4]
  43              	@ 546 "/home/makkmarci/workspace/CLEAN/ChibiOS/os/ext/CMSIS/include/core_cmFunc.h" 1
  44 0008 83F31188 		MSR basepri, r3
  45              	@ 0 "" 2
  46              		.thumb
  47              	.LBE7:
  48              	.LBE6:
  49              		.loc 1 451 0
  50 000c 02B0     		add	sp, sp, #8
  51              		.cfi_def_cfa_offset 0
  52              		@ sp needed
  53 000e 7047     		bx	lr
  54              		.cfi_endproc
  55              	.LFE116:
  56              		.size	port_lock, .-port_lock
  57              		.section	.text.port_unlock,"ax",%progbits
ARM GAS  /tmp/cce4XLMQ.s 			page 2


  58              		.align	2
  59              		.p2align 4,,15
  60              		.thumb
  61              		.thumb_func
  62              		.type	port_unlock, %function
  63              	port_unlock:
  64              	.LFB117:
  65              		.loc 1 458 0
  66              		.cfi_startproc
  67              		@ args = 0, pretend = 0, frame = 8
  68              		@ frame_needed = 0, uses_anonymous_args = 0
  69              		@ link register save eliminated.
  70 0000 82B0     		sub	sp, sp, #8
  71              		.cfi_def_cfa_offset 8
  72 0002 0023     		movs	r3, #0
  73 0004 0193     		str	r3, [sp, #4]
  74              	.LBB8:
  75              	.LBB9:
  76              		.loc 2 546 0
  77 0006 019B     		ldr	r3, [sp, #4]
  78              	@ 546 "/home/makkmarci/workspace/CLEAN/ChibiOS/os/ext/CMSIS/include/core_cmFunc.h" 1
  79 0008 83F31188 		MSR basepri, r3
  80              	@ 0 "" 2
  81              		.thumb
  82              	.LBE9:
  83              	.LBE8:
  84              		.loc 1 465 0
  85 000c 02B0     		add	sp, sp, #8
  86              		.cfi_def_cfa_offset 0
  87              		@ sp needed
  88 000e 7047     		bx	lr
  89              		.cfi_endproc
  90              	.LFE117:
  91              		.size	port_unlock, .-port_unlock
  92              		.section	.text.chSysLock,"ax",%progbits
  93              		.align	2
  94              		.p2align 4,,15
  95              		.thumb
  96              		.thumb_func
  97              		.type	chSysLock, %function
  98              	chSysLock:
  99              	.LFB145:
 100              		.file 3 "/home/makkmarci/workspace/CLEAN/ChibiOS/os/rt/include/chsys.h"
 101              		.loc 3 346 0
 102              		.cfi_startproc
 103              		@ args = 0, pretend = 0, frame = 0
 104              		@ frame_needed = 0, uses_anonymous_args = 0
 105 0000 08B5     		push	{r3, lr}
 106              		.cfi_def_cfa_offset 8
 107              		.cfi_offset 3, -8
 108              		.cfi_offset 14, -4
 109              		.loc 3 348 0
 110 0002 FFF7FEFF 		bl	port_lock
 111              		.loc 3 351 0
 112 0006 08BD     		pop	{r3, pc}
 113              		.cfi_endproc
 114              	.LFE145:
ARM GAS  /tmp/cce4XLMQ.s 			page 3


 115              		.size	chSysLock, .-chSysLock
 116              		.section	.text.chSysUnlock,"ax",%progbits
 117              		.align	2
 118              		.p2align 4,,15
 119              		.thumb
 120              		.thumb_func
 121              		.type	chSysUnlock, %function
 122              	chSysUnlock:
 123              	.LFB146:
 124              		.loc 3 358 0
 125              		.cfi_startproc
 126              		@ args = 0, pretend = 0, frame = 0
 127              		@ frame_needed = 0, uses_anonymous_args = 0
 128 0000 08B5     		push	{r3, lr}
 129              		.cfi_def_cfa_offset 8
 130              		.cfi_offset 3, -8
 131              		.cfi_offset 14, -4
 132              		.loc 3 371 0
 133 0002 FFF7FEFF 		bl	port_unlock
 134              		.loc 3 372 0
 135 0006 08BD     		pop	{r3, pc}
 136              		.cfi_endproc
 137              	.LFE146:
 138              		.size	chSysUnlock, .-chSysUnlock
 139 0008 AFF30080 		.section	.text.chEvtObjectInit,"ax",%progbits
 139      AFF30080 
 140              		.align	2
 141              		.p2align 4,,15
 142              		.thumb
 143              		.thumb_func
 144              		.type	chEvtObjectInit, %function
 145              	chEvtObjectInit:
 146              	.LFB191:
 147              		.file 4 "/home/makkmarci/workspace/CLEAN/ChibiOS/os/rt/include/chevents.h"
 148              		.loc 4 170 0
 149              		.cfi_startproc
 150              		@ args = 0, pretend = 0, frame = 8
 151              		@ frame_needed = 0, uses_anonymous_args = 0
 152              		@ link register save eliminated.
 153 0000 82B0     		sub	sp, sp, #8
 154              		.cfi_def_cfa_offset 8
 155 0002 0190     		str	r0, [sp, #4]
 156              		.loc 4 172 0
 157 0004 019B     		ldr	r3, [sp, #4]
 158 0006 019A     		ldr	r2, [sp, #4]
 159 0008 1A60     		str	r2, [r3]
 160              		.loc 4 173 0
 161 000a 02B0     		add	sp, sp, #8
 162              		.cfi_def_cfa_offset 0
 163              		@ sp needed
 164 000c 7047     		bx	lr
 165              		.cfi_endproc
 166              	.LFE191:
 167              		.size	chEvtObjectInit, .-chEvtObjectInit
 168 000e 00BF     		.section	.text.chIQIsEmptyI,"ax",%progbits
 169              		.align	2
 170              		.p2align 4,,15
ARM GAS  /tmp/cce4XLMQ.s 			page 4


 171              		.thumb
 172              		.thumb_func
 173              		.type	chIQIsEmptyI, %function
 174              	chIQIsEmptyI:
 175              	.LFB208:
 176              		.file 5 "/home/makkmarci/workspace/CLEAN/ChibiOS/os/rt/include/chqueues.h"
 177              		.loc 5 303 0
 178              		.cfi_startproc
 179              		@ args = 0, pretend = 0, frame = 8
 180              		@ frame_needed = 0, uses_anonymous_args = 0
 181              		@ link register save eliminated.
 182 0000 82B0     		sub	sp, sp, #8
 183              		.cfi_def_cfa_offset 8
 184 0002 0190     		str	r0, [sp, #4]
 185              		.loc 5 307 0
 186 0004 019B     		ldr	r3, [sp, #4]
 187 0006 9B68     		ldr	r3, [r3, #8]
 188 0008 002B     		cmp	r3, #0
 189 000a 0CBF     		ite	eq
 190 000c 0123     		moveq	r3, #1
 191 000e 0023     		movne	r3, #0
 192 0010 DBB2     		uxtb	r3, r3
 193              		.loc 5 308 0
 194 0012 1846     		mov	r0, r3
 195 0014 02B0     		add	sp, sp, #8
 196              		.cfi_def_cfa_offset 0
 197              		@ sp needed
 198 0016 7047     		bx	lr
 199              		.cfi_endproc
 200              	.LFE208:
 201              		.size	chIQIsEmptyI, .-chIQIsEmptyI
 202 0018 AFF30080 		.section	.text.osalSysLock,"ax",%progbits
 202      AFF30080 
 203              		.align	2
 204              		.p2align 4,,15
 205              		.thumb
 206              		.thumb_func
 207              		.type	osalSysLock, %function
 208              	osalSysLock:
 209              	.LFB220:
 210              		.file 6 "/home/makkmarci/workspace/CLEAN/ChibiOS/os/hal/osal/rt/osal.h"
 211              		.loc 6 445 0
 212              		.cfi_startproc
 213              		@ args = 0, pretend = 0, frame = 0
 214              		@ frame_needed = 0, uses_anonymous_args = 0
 215 0000 08B5     		push	{r3, lr}
 216              		.cfi_def_cfa_offset 8
 217              		.cfi_offset 3, -8
 218              		.cfi_offset 14, -4
 219              		.loc 6 447 0
 220 0002 FFF7FEFF 		bl	chSysLock
 221              		.loc 6 448 0
 222 0006 08BD     		pop	{r3, pc}
 223              		.cfi_endproc
 224              	.LFE220:
 225              		.size	osalSysLock, .-osalSysLock
 226              		.section	.text.osalSysUnlock,"ax",%progbits
ARM GAS  /tmp/cce4XLMQ.s 			page 5


 227              		.align	2
 228              		.p2align 4,,15
 229              		.thumb
 230              		.thumb_func
 231              		.type	osalSysUnlock, %function
 232              	osalSysUnlock:
 233              	.LFB221:
 234              		.loc 6 456 0
 235              		.cfi_startproc
 236              		@ args = 0, pretend = 0, frame = 0
 237              		@ frame_needed = 0, uses_anonymous_args = 0
 238 0000 08B5     		push	{r3, lr}
 239              		.cfi_def_cfa_offset 8
 240              		.cfi_offset 3, -8
 241              		.cfi_offset 14, -4
 242              		.loc 6 458 0
 243 0002 FFF7FEFF 		bl	chSysUnlock
 244              		.loc 6 459 0
 245 0006 08BD     		pop	{r3, pc}
 246              		.cfi_endproc
 247              	.LFE221:
 248              		.size	osalSysUnlock, .-osalSysUnlock
 249 0008 AFF30080 		.section	.text.osalOsRescheduleS,"ax",%progbits
 249      AFF30080 
 250              		.align	2
 251              		.p2align 4,,15
 252              		.thumb
 253              		.thumb_func
 254              		.type	osalOsRescheduleS, %function
 255              	osalOsRescheduleS:
 256              	.LFB228:
 257              		.loc 6 552 0
 258              		.cfi_startproc
 259              		@ args = 0, pretend = 0, frame = 0
 260              		@ frame_needed = 0, uses_anonymous_args = 0
 261 0000 08B5     		push	{r3, lr}
 262              		.cfi_def_cfa_offset 8
 263              		.cfi_offset 3, -8
 264              		.cfi_offset 14, -4
 265              		.loc 6 554 0
 266 0002 FFF7FEFF 		bl	chSchRescheduleS
 267              		.loc 6 555 0
 268 0006 08BD     		pop	{r3, pc}
 269              		.cfi_endproc
 270              	.LFE228:
 271              		.size	osalOsRescheduleS, .-osalOsRescheduleS
 272 0008 AFF30080 		.section	.text.osalEventObjectInit,"ax",%progbits
 272      AFF30080 
 273              		.align	2
 274              		.p2align 4,,15
 275              		.thumb
 276              		.thumb_func
 277              		.type	osalEventObjectInit, %function
 278              	osalEventObjectInit:
 279              	.LFB241:
 280              		.loc 6 775 0
 281              		.cfi_startproc
ARM GAS  /tmp/cce4XLMQ.s 			page 6


 282              		@ args = 0, pretend = 0, frame = 8
 283              		@ frame_needed = 0, uses_anonymous_args = 0
 284 0000 00B5     		push	{lr}
 285              		.cfi_def_cfa_offset 4
 286              		.cfi_offset 14, -4
 287 0002 83B0     		sub	sp, sp, #12
 288              		.cfi_def_cfa_offset 16
 289 0004 0190     		str	r0, [sp, #4]
 290              		.loc 6 777 0
 291 0006 0198     		ldr	r0, [sp, #4]
 292 0008 FFF7FEFF 		bl	chEvtObjectInit
 293              		.loc 6 778 0
 294 000c 03B0     		add	sp, sp, #12
 295              		.cfi_def_cfa_offset 4
 296              		@ sp needed
 297 000e 5DF804FB 		ldr	pc, [sp], #4
 298              		.cfi_endproc
 299              	.LFE241:
 300              		.size	osalEventObjectInit, .-osalEventObjectInit
 301 0012 00BFAFF3 		.section	.text.osalEventBroadcastFlagsI,"ax",%progbits
 301      0080AFF3 
 301      0080AFF3 
 301      0080
 302              		.align	2
 303              		.p2align 4,,15
 304              		.thumb
 305              		.thumb_func
 306              		.type	osalEventBroadcastFlagsI, %function
 307              	osalEventBroadcastFlagsI:
 308              	.LFB242:
 309              		.loc 6 796 0
 310              		.cfi_startproc
 311              		@ args = 0, pretend = 0, frame = 8
 312              		@ frame_needed = 0, uses_anonymous_args = 0
 313 0000 00B5     		push	{lr}
 314              		.cfi_def_cfa_offset 4
 315              		.cfi_offset 14, -4
 316 0002 83B0     		sub	sp, sp, #12
 317              		.cfi_def_cfa_offset 16
 318 0004 0190     		str	r0, [sp, #4]
 319 0006 0091     		str	r1, [sp]
 320              		.loc 6 798 0
 321 0008 0198     		ldr	r0, [sp, #4]
 322 000a 0099     		ldr	r1, [sp]
 323 000c FFF7FEFF 		bl	chEvtBroadcastFlagsI
 324              		.loc 6 799 0
 325 0010 03B0     		add	sp, sp, #12
 326              		.cfi_def_cfa_offset 4
 327              		@ sp needed
 328 0012 5DF804FB 		ldr	pc, [sp], #4
 329              		.cfi_endproc
 330              	.LFE242:
 331              		.size	osalEventBroadcastFlagsI, .-osalEventBroadcastFlagsI
 332 0016 00BFAFF3 		.section	.text.write,"ax",%progbits
 332      0080AFF3 
 332      0080
 333              		.align	2
ARM GAS  /tmp/cce4XLMQ.s 			page 7


 334              		.p2align 4,,15
 335              		.thumb
 336              		.thumb_func
 337              		.type	write, %function
 338              	write:
 339              	.LFB253:
 340              		.file 7 "/home/makkmarci/workspace/CLEAN/ChibiOS/os/hal/src/serial.c"
 341              		.loc 7 50 0
 342              		.cfi_startproc
 343              		@ args = 0, pretend = 0, frame = 16
 344              		@ frame_needed = 0, uses_anonymous_args = 0
 345 0000 00B5     		push	{lr}
 346              		.cfi_def_cfa_offset 4
 347              		.cfi_offset 14, -4
 348 0002 85B0     		sub	sp, sp, #20
 349              		.cfi_def_cfa_offset 24
 350 0004 0390     		str	r0, [sp, #12]
 351 0006 0291     		str	r1, [sp, #8]
 352 0008 0192     		str	r2, [sp, #4]
 353              		.loc 7 52 0
 354 000a 039B     		ldr	r3, [sp, #12]
 355 000c 3033     		adds	r3, r3, #48
 356 000e 1846     		mov	r0, r3
 357 0010 0299     		ldr	r1, [sp, #8]
 358 0012 019A     		ldr	r2, [sp, #4]
 359 0014 4FF0FF33 		mov	r3, #-1
 360 0018 FFF7FEFF 		bl	chOQWriteTimeout
 361 001c 0346     		mov	r3, r0
 362              		.loc 7 54 0
 363 001e 1846     		mov	r0, r3
 364 0020 05B0     		add	sp, sp, #20
 365              		.cfi_def_cfa_offset 4
 366              		@ sp needed
 367 0022 5DF804FB 		ldr	pc, [sp], #4
 368              		.cfi_endproc
 369              	.LFE253:
 370              		.size	write, .-write
 371 0026 00BFAFF3 		.section	.text.read,"ax",%progbits
 371      0080AFF3 
 371      0080
 372              		.align	2
 373              		.p2align 4,,15
 374              		.thumb
 375              		.thumb_func
 376              		.type	read, %function
 377              	read:
 378              	.LFB254:
 379              		.loc 7 56 0
 380              		.cfi_startproc
 381              		@ args = 0, pretend = 0, frame = 16
 382              		@ frame_needed = 0, uses_anonymous_args = 0
 383 0000 00B5     		push	{lr}
 384              		.cfi_def_cfa_offset 4
 385              		.cfi_offset 14, -4
 386 0002 85B0     		sub	sp, sp, #20
 387              		.cfi_def_cfa_offset 24
 388 0004 0390     		str	r0, [sp, #12]
ARM GAS  /tmp/cce4XLMQ.s 			page 8


 389 0006 0291     		str	r1, [sp, #8]
 390 0008 0192     		str	r2, [sp, #4]
 391              		.loc 7 58 0
 392 000a 039B     		ldr	r3, [sp, #12]
 393 000c 0C33     		adds	r3, r3, #12
 394 000e 1846     		mov	r0, r3
 395 0010 0299     		ldr	r1, [sp, #8]
 396 0012 019A     		ldr	r2, [sp, #4]
 397 0014 4FF0FF33 		mov	r3, #-1
 398 0018 FFF7FEFF 		bl	chIQReadTimeout
 399 001c 0346     		mov	r3, r0
 400              		.loc 7 60 0
 401 001e 1846     		mov	r0, r3
 402 0020 05B0     		add	sp, sp, #20
 403              		.cfi_def_cfa_offset 4
 404              		@ sp needed
 405 0022 5DF804FB 		ldr	pc, [sp], #4
 406              		.cfi_endproc
 407              	.LFE254:
 408              		.size	read, .-read
 409 0026 00BFAFF3 		.section	.text.put,"ax",%progbits
 409      0080AFF3 
 409      0080
 410              		.align	2
 411              		.p2align 4,,15
 412              		.thumb
 413              		.thumb_func
 414              		.type	put, %function
 415              	put:
 416              	.LFB255:
 417              		.loc 7 62 0
 418              		.cfi_startproc
 419              		@ args = 0, pretend = 0, frame = 8
 420              		@ frame_needed = 0, uses_anonymous_args = 0
 421 0000 00B5     		push	{lr}
 422              		.cfi_def_cfa_offset 4
 423              		.cfi_offset 14, -4
 424 0002 83B0     		sub	sp, sp, #12
 425              		.cfi_def_cfa_offset 16
 426 0004 0190     		str	r0, [sp, #4]
 427 0006 0B46     		mov	r3, r1
 428 0008 8DF80330 		strb	r3, [sp, #3]
 429              		.loc 7 64 0
 430 000c 019B     		ldr	r3, [sp, #4]
 431 000e 03F13002 		add	r2, r3, #48
 432 0012 9DF80330 		ldrb	r3, [sp, #3]	@ zero_extendqisi2
 433 0016 1046     		mov	r0, r2
 434 0018 1946     		mov	r1, r3
 435 001a 4FF0FF32 		mov	r2, #-1
 436 001e FFF7FEFF 		bl	chOQPutTimeout
 437 0022 0346     		mov	r3, r0
 438              		.loc 7 65 0
 439 0024 1846     		mov	r0, r3
 440 0026 03B0     		add	sp, sp, #12
 441              		.cfi_def_cfa_offset 4
 442              		@ sp needed
 443 0028 5DF804FB 		ldr	pc, [sp], #4
ARM GAS  /tmp/cce4XLMQ.s 			page 9


 444              		.cfi_endproc
 445              	.LFE255:
 446              		.size	put, .-put
 447 002c AFF30080 		.section	.text.get,"ax",%progbits
 448              		.align	2
 449              		.p2align 4,,15
 450              		.thumb
 451              		.thumb_func
 452              		.type	get, %function
 453              	get:
 454              	.LFB256:
 455              		.loc 7 67 0
 456              		.cfi_startproc
 457              		@ args = 0, pretend = 0, frame = 8
 458              		@ frame_needed = 0, uses_anonymous_args = 0
 459 0000 00B5     		push	{lr}
 460              		.cfi_def_cfa_offset 4
 461              		.cfi_offset 14, -4
 462 0002 83B0     		sub	sp, sp, #12
 463              		.cfi_def_cfa_offset 16
 464 0004 0190     		str	r0, [sp, #4]
 465              		.loc 7 69 0
 466 0006 019B     		ldr	r3, [sp, #4]
 467 0008 0C33     		adds	r3, r3, #12
 468 000a 1846     		mov	r0, r3
 469 000c 4FF0FF31 		mov	r1, #-1
 470 0010 FFF7FEFF 		bl	chIQGetTimeout
 471 0014 0346     		mov	r3, r0
 472              		.loc 7 70 0
 473 0016 1846     		mov	r0, r3
 474 0018 03B0     		add	sp, sp, #12
 475              		.cfi_def_cfa_offset 4
 476              		@ sp needed
 477 001a 5DF804FB 		ldr	pc, [sp], #4
 478              		.cfi_endproc
 479              	.LFE256:
 480              		.size	get, .-get
 481 001e 00BF     		.section	.text.putt,"ax",%progbits
 482              		.align	2
 483              		.p2align 4,,15
 484              		.thumb
 485              		.thumb_func
 486              		.type	putt, %function
 487              	putt:
 488              	.LFB257:
 489              		.loc 7 72 0
 490              		.cfi_startproc
 491              		@ args = 0, pretend = 0, frame = 16
 492              		@ frame_needed = 0, uses_anonymous_args = 0
 493 0000 00B5     		push	{lr}
 494              		.cfi_def_cfa_offset 4
 495              		.cfi_offset 14, -4
 496 0002 85B0     		sub	sp, sp, #20
 497              		.cfi_def_cfa_offset 24
 498 0004 0390     		str	r0, [sp, #12]
 499 0006 0B46     		mov	r3, r1
 500 0008 0192     		str	r2, [sp, #4]
ARM GAS  /tmp/cce4XLMQ.s 			page 10


 501 000a 8DF80B30 		strb	r3, [sp, #11]
 502              		.loc 7 74 0
 503 000e 039B     		ldr	r3, [sp, #12]
 504 0010 03F13002 		add	r2, r3, #48
 505 0014 9DF80B30 		ldrb	r3, [sp, #11]	@ zero_extendqisi2
 506 0018 1046     		mov	r0, r2
 507 001a 1946     		mov	r1, r3
 508 001c 019A     		ldr	r2, [sp, #4]
 509 001e FFF7FEFF 		bl	chOQPutTimeout
 510 0022 0346     		mov	r3, r0
 511              		.loc 7 75 0
 512 0024 1846     		mov	r0, r3
 513 0026 05B0     		add	sp, sp, #20
 514              		.cfi_def_cfa_offset 4
 515              		@ sp needed
 516 0028 5DF804FB 		ldr	pc, [sp], #4
 517              		.cfi_endproc
 518              	.LFE257:
 519              		.size	putt, .-putt
 520 002c AFF30080 		.section	.text.gett,"ax",%progbits
 521              		.align	2
 522              		.p2align 4,,15
 523              		.thumb
 524              		.thumb_func
 525              		.type	gett, %function
 526              	gett:
 527              	.LFB258:
 528              		.loc 7 77 0
 529              		.cfi_startproc
 530              		@ args = 0, pretend = 0, frame = 8
 531              		@ frame_needed = 0, uses_anonymous_args = 0
 532 0000 00B5     		push	{lr}
 533              		.cfi_def_cfa_offset 4
 534              		.cfi_offset 14, -4
 535 0002 83B0     		sub	sp, sp, #12
 536              		.cfi_def_cfa_offset 16
 537 0004 0190     		str	r0, [sp, #4]
 538 0006 0091     		str	r1, [sp]
 539              		.loc 7 79 0
 540 0008 019B     		ldr	r3, [sp, #4]
 541 000a 0C33     		adds	r3, r3, #12
 542 000c 1846     		mov	r0, r3
 543 000e 0099     		ldr	r1, [sp]
 544 0010 FFF7FEFF 		bl	chIQGetTimeout
 545 0014 0346     		mov	r3, r0
 546              		.loc 7 80 0
 547 0016 1846     		mov	r0, r3
 548 0018 03B0     		add	sp, sp, #12
 549              		.cfi_def_cfa_offset 4
 550              		@ sp needed
 551 001a 5DF804FB 		ldr	pc, [sp], #4
 552              		.cfi_endproc
 553              	.LFE258:
 554              		.size	gett, .-gett
 555 001e 00BF     		.section	.text.writet,"ax",%progbits
 556              		.align	2
 557              		.p2align 4,,15
ARM GAS  /tmp/cce4XLMQ.s 			page 11


 558              		.thumb
 559              		.thumb_func
 560              		.type	writet, %function
 561              	writet:
 562              	.LFB259:
 563              		.loc 7 82 0
 564              		.cfi_startproc
 565              		@ args = 0, pretend = 0, frame = 16
 566              		@ frame_needed = 0, uses_anonymous_args = 0
 567 0000 00B5     		push	{lr}
 568              		.cfi_def_cfa_offset 4
 569              		.cfi_offset 14, -4
 570 0002 85B0     		sub	sp, sp, #20
 571              		.cfi_def_cfa_offset 24
 572 0004 0390     		str	r0, [sp, #12]
 573 0006 0291     		str	r1, [sp, #8]
 574 0008 0192     		str	r2, [sp, #4]
 575 000a 0093     		str	r3, [sp]
 576              		.loc 7 84 0
 577 000c 039B     		ldr	r3, [sp, #12]
 578 000e 3033     		adds	r3, r3, #48
 579 0010 1846     		mov	r0, r3
 580 0012 0299     		ldr	r1, [sp, #8]
 581 0014 019A     		ldr	r2, [sp, #4]
 582 0016 009B     		ldr	r3, [sp]
 583 0018 FFF7FEFF 		bl	chOQWriteTimeout
 584 001c 0346     		mov	r3, r0
 585              		.loc 7 85 0
 586 001e 1846     		mov	r0, r3
 587 0020 05B0     		add	sp, sp, #20
 588              		.cfi_def_cfa_offset 4
 589              		@ sp needed
 590 0022 5DF804FB 		ldr	pc, [sp], #4
 591              		.cfi_endproc
 592              	.LFE259:
 593              		.size	writet, .-writet
 594 0026 00BFAFF3 		.section	.text.readt,"ax",%progbits
 594      0080AFF3 
 594      0080
 595              		.align	2
 596              		.p2align 4,,15
 597              		.thumb
 598              		.thumb_func
 599              		.type	readt, %function
 600              	readt:
 601              	.LFB260:
 602              		.loc 7 87 0
 603              		.cfi_startproc
 604              		@ args = 0, pretend = 0, frame = 16
 605              		@ frame_needed = 0, uses_anonymous_args = 0
 606 0000 00B5     		push	{lr}
 607              		.cfi_def_cfa_offset 4
 608              		.cfi_offset 14, -4
 609 0002 85B0     		sub	sp, sp, #20
 610              		.cfi_def_cfa_offset 24
 611 0004 0390     		str	r0, [sp, #12]
 612 0006 0291     		str	r1, [sp, #8]
ARM GAS  /tmp/cce4XLMQ.s 			page 12


 613 0008 0192     		str	r2, [sp, #4]
 614 000a 0093     		str	r3, [sp]
 615              		.loc 7 89 0
 616 000c 039B     		ldr	r3, [sp, #12]
 617 000e 0C33     		adds	r3, r3, #12
 618 0010 1846     		mov	r0, r3
 619 0012 0299     		ldr	r1, [sp, #8]
 620 0014 019A     		ldr	r2, [sp, #4]
 621 0016 009B     		ldr	r3, [sp]
 622 0018 FFF7FEFF 		bl	chIQReadTimeout
 623 001c 0346     		mov	r3, r0
 624              		.loc 7 90 0
 625 001e 1846     		mov	r0, r3
 626 0020 05B0     		add	sp, sp, #20
 627              		.cfi_def_cfa_offset 4
 628              		@ sp needed
 629 0022 5DF804FB 		ldr	pc, [sp], #4
 630              		.cfi_endproc
 631              	.LFE260:
 632              		.size	readt, .-readt
 633 0026 00BFAFF3 		.section	.rodata.vmt,"a",%progbits
 633      0080AFF3 
 633      0080
 634              		.align	2
 635              		.type	vmt, %object
 636              		.size	vmt, 32
 637              	vmt:
 638 0000 00000000 		.word	write
 639 0004 00000000 		.word	read
 640 0008 00000000 		.word	put
 641 000c 00000000 		.word	get
 642 0010 00000000 		.word	putt
 643 0014 00000000 		.word	gett
 644 0018 00000000 		.word	writet
 645 001c 00000000 		.word	readt
 646              		.section	.text.sdInit,"ax",%progbits
 647              		.align	2
 648              		.p2align 4,,15
 649              		.global	sdInit
 650              		.thumb
 651              		.thumb_func
 652              		.type	sdInit, %function
 653              	sdInit:
 654              	.LFB261:
 655              		.loc 7 108 0
 656              		.cfi_startproc
 657              		@ args = 0, pretend = 0, frame = 0
 658              		@ frame_needed = 0, uses_anonymous_args = 0
 659 0000 08B5     		push	{r3, lr}
 660              		.cfi_def_cfa_offset 8
 661              		.cfi_offset 3, -8
 662              		.cfi_offset 14, -4
 663              		.loc 7 110 0
 664 0002 FFF7FEFF 		bl	sd_lld_init
 665              		.loc 7 111 0
 666 0006 08BD     		pop	{r3, pc}
 667              		.cfi_endproc
ARM GAS  /tmp/cce4XLMQ.s 			page 13


 668              	.LFE261:
 669              		.size	sdInit, .-sdInit
 670              		.section	.text.sdObjectInit,"ax",%progbits
 671              		.align	2
 672              		.p2align 4,,15
 673              		.global	sdObjectInit
 674              		.thumb
 675              		.thumb_func
 676              		.type	sdObjectInit, %function
 677              	sdObjectInit:
 678              	.LFB262:
 679              		.loc 7 128 0
 680              		.cfi_startproc
 681              		@ args = 0, pretend = 0, frame = 16
 682              		@ frame_needed = 0, uses_anonymous_args = 0
 683 0000 00B5     		push	{lr}
 684              		.cfi_def_cfa_offset 4
 685              		.cfi_offset 14, -4
 686 0002 87B0     		sub	sp, sp, #28
 687              		.cfi_def_cfa_offset 32
 688 0004 0590     		str	r0, [sp, #20]
 689 0006 0491     		str	r1, [sp, #16]
 690 0008 0392     		str	r2, [sp, #12]
 691              		.loc 7 130 0
 692 000a 059B     		ldr	r3, [sp, #20]
 693 000c 144A     		ldr	r2, .L31
 694 000e 1A60     		str	r2, [r3]
 695              		.loc 7 131 0
 696 0010 059B     		ldr	r3, [sp, #20]
 697 0012 0433     		adds	r3, r3, #4
 698 0014 1846     		mov	r0, r3
 699 0016 FFF7FEFF 		bl	osalEventObjectInit
 700              		.loc 7 132 0
 701 001a 059B     		ldr	r3, [sp, #20]
 702 001c 0122     		movs	r2, #1
 703 001e 1A72     		strb	r2, [r3, #8]
 704              		.loc 7 133 0
 705 0020 059B     		ldr	r3, [sp, #20]
 706 0022 03F10C01 		add	r1, r3, #12
 707 0026 059B     		ldr	r3, [sp, #20]
 708 0028 03F15402 		add	r2, r3, #84
 709 002c 059B     		ldr	r3, [sp, #20]
 710 002e 0093     		str	r3, [sp]
 711 0030 0846     		mov	r0, r1
 712 0032 1146     		mov	r1, r2
 713 0034 1022     		movs	r2, #16
 714 0036 049B     		ldr	r3, [sp, #16]
 715 0038 FFF7FEFF 		bl	chIQObjectInit
 716              		.loc 7 134 0
 717 003c 059B     		ldr	r3, [sp, #20]
 718 003e 03F13001 		add	r1, r3, #48
 719 0042 059B     		ldr	r3, [sp, #20]
 720 0044 03F16402 		add	r2, r3, #100
 721 0048 059B     		ldr	r3, [sp, #20]
 722 004a 0093     		str	r3, [sp]
 723 004c 0846     		mov	r0, r1
 724 004e 1146     		mov	r1, r2
ARM GAS  /tmp/cce4XLMQ.s 			page 14


 725 0050 1022     		movs	r2, #16
 726 0052 039B     		ldr	r3, [sp, #12]
 727 0054 FFF7FEFF 		bl	chOQObjectInit
 728              		.loc 7 135 0
 729 0058 07B0     		add	sp, sp, #28
 730              		.cfi_def_cfa_offset 4
 731              		@ sp needed
 732 005a 5DF804FB 		ldr	pc, [sp], #4
 733              	.L32:
 734 005e 00BF     		.align	2
 735              	.L31:
 736 0060 00000000 		.word	vmt
 737              		.cfi_endproc
 738              	.LFE262:
 739              		.size	sdObjectInit, .-sdObjectInit
 740 0064 AFF30080 		.section	.text.sdStart,"ax",%progbits
 740      AFF30080 
 740      AFF30080 
 741              		.align	2
 742              		.p2align 4,,15
 743              		.global	sdStart
 744              		.thumb
 745              		.thumb_func
 746              		.type	sdStart, %function
 747              	sdStart:
 748              	.LFB263:
 749              		.loc 7 147 0
 750              		.cfi_startproc
 751              		@ args = 0, pretend = 0, frame = 8
 752              		@ frame_needed = 0, uses_anonymous_args = 0
 753 0000 00B5     		push	{lr}
 754              		.cfi_def_cfa_offset 4
 755              		.cfi_offset 14, -4
 756 0002 83B0     		sub	sp, sp, #12
 757              		.cfi_def_cfa_offset 16
 758 0004 0190     		str	r0, [sp, #4]
 759 0006 0091     		str	r1, [sp]
 760              		.loc 7 151 0
 761 0008 FFF7FEFF 		bl	osalSysLock
 762              		.loc 7 154 0
 763 000c 0198     		ldr	r0, [sp, #4]
 764 000e 0099     		ldr	r1, [sp]
 765 0010 FFF7FEFF 		bl	sd_lld_start
 766              		.loc 7 155 0
 767 0014 019B     		ldr	r3, [sp, #4]
 768 0016 0222     		movs	r2, #2
 769 0018 1A72     		strb	r2, [r3, #8]
 770              		.loc 7 156 0
 771 001a FFF7FEFF 		bl	osalSysUnlock
 772              		.loc 7 157 0
 773 001e 03B0     		add	sp, sp, #12
 774              		.cfi_def_cfa_offset 4
 775              		@ sp needed
 776 0020 5DF804FB 		ldr	pc, [sp], #4
 777              		.cfi_endproc
 778              	.LFE263:
 779              		.size	sdStart, .-sdStart
ARM GAS  /tmp/cce4XLMQ.s 			page 15


 780 0024 AFF30080 		.section	.text.sdStop,"ax",%progbits
 780      AFF30080 
 780      AFF30080 
 781              		.align	2
 782              		.p2align 4,,15
 783              		.global	sdStop
 784              		.thumb
 785              		.thumb_func
 786              		.type	sdStop, %function
 787              	sdStop:
 788              	.LFB264:
 789              		.loc 7 168 0
 790              		.cfi_startproc
 791              		@ args = 0, pretend = 0, frame = 8
 792              		@ frame_needed = 0, uses_anonymous_args = 0
 793 0000 00B5     		push	{lr}
 794              		.cfi_def_cfa_offset 4
 795              		.cfi_offset 14, -4
 796 0002 83B0     		sub	sp, sp, #12
 797              		.cfi_def_cfa_offset 16
 798 0004 0190     		str	r0, [sp, #4]
 799              		.loc 7 172 0
 800 0006 FFF7FEFF 		bl	osalSysLock
 801              		.loc 7 175 0
 802 000a 0198     		ldr	r0, [sp, #4]
 803 000c FFF7FEFF 		bl	sd_lld_stop
 804              		.loc 7 176 0
 805 0010 019B     		ldr	r3, [sp, #4]
 806 0012 0122     		movs	r2, #1
 807 0014 1A72     		strb	r2, [r3, #8]
 808              		.loc 7 177 0
 809 0016 019B     		ldr	r3, [sp, #4]
 810 0018 3033     		adds	r3, r3, #48
 811 001a 1846     		mov	r0, r3
 812 001c FFF7FEFF 		bl	chOQResetI
 813              		.loc 7 178 0
 814 0020 019B     		ldr	r3, [sp, #4]
 815 0022 0C33     		adds	r3, r3, #12
 816 0024 1846     		mov	r0, r3
 817 0026 FFF7FEFF 		bl	chIQResetI
 818              		.loc 7 179 0
 819 002a FFF7FEFF 		bl	osalOsRescheduleS
 820              		.loc 7 180 0
 821 002e FFF7FEFF 		bl	osalSysUnlock
 822              		.loc 7 181 0
 823 0032 03B0     		add	sp, sp, #12
 824              		.cfi_def_cfa_offset 4
 825              		@ sp needed
 826 0034 5DF804FB 		ldr	pc, [sp], #4
 827              		.cfi_endproc
 828              	.LFE264:
 829              		.size	sdStop, .-sdStop
 830 0038 AFF30080 		.section	.text.sdIncomingDataI,"ax",%progbits
 830      AFF30080 
 831              		.align	2
 832              		.p2align 4,,15
 833              		.global	sdIncomingDataI
ARM GAS  /tmp/cce4XLMQ.s 			page 16


 834              		.thumb
 835              		.thumb_func
 836              		.type	sdIncomingDataI, %function
 837              	sdIncomingDataI:
 838              	.LFB265:
 839              		.loc 7 199 0
 840              		.cfi_startproc
 841              		@ args = 0, pretend = 0, frame = 8
 842              		@ frame_needed = 0, uses_anonymous_args = 0
 843 0000 00B5     		push	{lr}
 844              		.cfi_def_cfa_offset 4
 845              		.cfi_offset 14, -4
 846 0002 83B0     		sub	sp, sp, #12
 847              		.cfi_def_cfa_offset 16
 848 0004 0190     		str	r0, [sp, #4]
 849 0006 0B46     		mov	r3, r1
 850 0008 8DF80330 		strb	r3, [sp, #3]
 851              		.loc 7 204 0
 852 000c 019B     		ldr	r3, [sp, #4]
 853 000e 0C33     		adds	r3, r3, #12
 854 0010 1846     		mov	r0, r3
 855 0012 FFF7FEFF 		bl	chIQIsEmptyI
 856 0016 0346     		mov	r3, r0
 857 0018 002B     		cmp	r3, #0
 858 001a 05D0     		beq	.L36
 859              		.loc 7 205 0
 860 001c 019B     		ldr	r3, [sp, #4]
 861 001e 0433     		adds	r3, r3, #4
 862 0020 1846     		mov	r0, r3
 863 0022 0421     		movs	r1, #4
 864 0024 FFF7FEFF 		bl	osalEventBroadcastFlagsI
 865              	.L36:
 866              		.loc 7 206 0
 867 0028 019B     		ldr	r3, [sp, #4]
 868 002a 03F10C02 		add	r2, r3, #12
 869 002e 9DF80330 		ldrb	r3, [sp, #3]	@ zero_extendqisi2
 870 0032 1046     		mov	r0, r2
 871 0034 1946     		mov	r1, r3
 872 0036 FFF7FEFF 		bl	chIQPutI
 873 003a 0346     		mov	r3, r0
 874 003c 002B     		cmp	r3, #0
 875 003e 05DA     		bge	.L35
 876              		.loc 7 207 0
 877 0040 019B     		ldr	r3, [sp, #4]
 878 0042 0433     		adds	r3, r3, #4
 879 0044 1846     		mov	r0, r3
 880 0046 8021     		movs	r1, #128
 881 0048 FFF7FEFF 		bl	osalEventBroadcastFlagsI
 882              	.L35:
 883              		.loc 7 208 0
 884 004c 03B0     		add	sp, sp, #12
 885              		.cfi_def_cfa_offset 4
 886              		@ sp needed
 887 004e 5DF804FB 		ldr	pc, [sp], #4
 888              		.cfi_endproc
 889              	.LFE265:
 890              		.size	sdIncomingDataI, .-sdIncomingDataI
ARM GAS  /tmp/cce4XLMQ.s 			page 17


 891 0052 00BFAFF3 		.section	.text.sdRequestDataI,"ax",%progbits
 891      0080AFF3 
 891      0080AFF3 
 891      0080
 892              		.align	2
 893              		.p2align 4,,15
 894              		.global	sdRequestDataI
 895              		.thumb
 896              		.thumb_func
 897              		.type	sdRequestDataI, %function
 898              	sdRequestDataI:
 899              	.LFB266:
 900              		.loc 7 225 0
 901              		.cfi_startproc
 902              		@ args = 0, pretend = 0, frame = 16
 903              		@ frame_needed = 0, uses_anonymous_args = 0
 904 0000 00B5     		push	{lr}
 905              		.cfi_def_cfa_offset 4
 906              		.cfi_offset 14, -4
 907 0002 85B0     		sub	sp, sp, #20
 908              		.cfi_def_cfa_offset 24
 909 0004 0190     		str	r0, [sp, #4]
 910              		.loc 7 231 0
 911 0006 019B     		ldr	r3, [sp, #4]
 912 0008 3033     		adds	r3, r3, #48
 913 000a 1846     		mov	r0, r3
 914 000c FFF7FEFF 		bl	chOQGetI
 915 0010 0390     		str	r0, [sp, #12]
 916              		.loc 7 232 0
 917 0012 039B     		ldr	r3, [sp, #12]
 918 0014 002B     		cmp	r3, #0
 919 0016 05DA     		bge	.L39
 920              		.loc 7 233 0
 921 0018 019B     		ldr	r3, [sp, #4]
 922 001a 0433     		adds	r3, r3, #4
 923 001c 1846     		mov	r0, r3
 924 001e 0821     		movs	r1, #8
 925 0020 FFF7FEFF 		bl	osalEventBroadcastFlagsI
 926              	.L39:
 927              		.loc 7 234 0
 928 0024 039B     		ldr	r3, [sp, #12]
 929              		.loc 7 235 0
 930 0026 1846     		mov	r0, r3
 931 0028 05B0     		add	sp, sp, #20
 932              		.cfi_def_cfa_offset 4
 933              		@ sp needed
 934 002a 5DF804FB 		ldr	pc, [sp], #4
 935              		.cfi_endproc
 936              	.LFE266:
 937              		.size	sdRequestDataI, .-sdRequestDataI
 938 002e 00BF     		.text
 939              	.Letext0:
 940              		.file 8 "/opt/gcc-arm-none-eabi/lib/gcc/arm-none-eabi/4.9.3/include/stddef.h"
 941              		.file 9 "/opt/gcc-arm-none-eabi/arm-none-eabi/include/machine/_default_types.h"
 942              		.file 10 "/opt/gcc-arm-none-eabi/arm-none-eabi/include/stdint.h"
 943              		.file 11 "/home/makkmarci/workspace/CLEAN/ChibiOS/os/rt/ports/ARMCMx/compilers/GCC/chtypes.h"
 944              		.file 12 "/home/makkmarci/workspace/CLEAN/ChibiOS/os/rt/include/chsystypes.h"
ARM GAS  /tmp/cce4XLMQ.s 			page 18


 945              		.file 13 "/home/makkmarci/workspace/CLEAN/ChibiOS/os/rt/include/chschd.h"
 946              		.file 14 "/home/makkmarci/workspace/CLEAN/ChibiOS/os/ext/CMSIS/ST/stm32f407xx.h"
 947              		.file 15 "/home/makkmarci/workspace/CLEAN/ChibiOS/os/rt/ports/ARMCMx/chcore.h"
 948              		.file 16 "/home/makkmarci/workspace/CLEAN/ChibiOS/os/rt/include/chtm.h"
 949              		.file 17 "/home/makkmarci/workspace/CLEAN/ChibiOS/os/rt/include/chsem.h"
 950              		.file 18 "/home/makkmarci/workspace/CLEAN/ChibiOS/os/rt/include/chmtx.h"
 951              		.file 19 "/home/makkmarci/workspace/CLEAN/ChibiOS/os/hal/include/serial.h"
 952              		.file 20 "/home/makkmarci/workspace/CLEAN/ChibiOS/os/hal/ports/STM32/LLD/USARTv1/serial_lld.h"
 953              		.file 21 "/home/makkmarci/workspace/CLEAN/ChibiOS/os/ext/CMSIS/include/core_cm4.h"
 954              		.section	.debug_info,"",%progbits
 955              	.Ldebug_info0:
 956 0000 75100000 		.4byte	0x1075
 957 0004 0400     		.2byte	0x4
 958 0006 00000000 		.4byte	.Ldebug_abbrev0
 959 000a 04       		.byte	0x4
 960 000b 01       		.uleb128 0x1
 961 000c CC030000 		.4byte	.LASF172
 962 0010 01       		.byte	0x1
 963 0011 1C000000 		.4byte	.LASF173
 964 0015 00000000 		.4byte	.Ldebug_ranges0+0
 965 0019 00000000 		.4byte	0
 966 001d 00000000 		.4byte	.Ldebug_line0
 967 0021 02       		.uleb128 0x2
 968 0022 04       		.byte	0x4
 969 0023 05       		.byte	0x5
 970 0024 696E7400 		.ascii	"int\000"
 971 0028 03       		.uleb128 0x3
 972 0029 15000000 		.4byte	.LASF2
 973 002d 08       		.byte	0x8
 974 002e D4       		.byte	0xd4
 975 002f 33000000 		.4byte	0x33
 976 0033 04       		.uleb128 0x4
 977 0034 04       		.byte	0x4
 978 0035 07       		.byte	0x7
 979 0036 4E020000 		.4byte	.LASF0
 980 003a 04       		.uleb128 0x4
 981 003b 01       		.byte	0x1
 982 003c 06       		.byte	0x6
 983 003d 48010000 		.4byte	.LASF1
 984 0041 03       		.uleb128 0x3
 985 0042 61000000 		.4byte	.LASF3
 986 0046 09       		.byte	0x9
 987 0047 1D       		.byte	0x1d
 988 0048 4C000000 		.4byte	0x4c
 989 004c 04       		.uleb128 0x4
 990 004d 01       		.byte	0x1
 991 004e 08       		.byte	0x8
 992 004f A6050000 		.4byte	.LASF4
 993 0053 04       		.uleb128 0x4
 994 0054 02       		.byte	0x2
 995 0055 05       		.byte	0x5
 996 0056 DB050000 		.4byte	.LASF5
 997 005a 03       		.uleb128 0x3
 998 005b D4060000 		.4byte	.LASF6
 999 005f 09       		.byte	0x9
 1000 0060 2B       		.byte	0x2b
 1001 0061 65000000 		.4byte	0x65
ARM GAS  /tmp/cce4XLMQ.s 			page 19


 1002 0065 04       		.uleb128 0x4
 1003 0066 02       		.byte	0x2
 1004 0067 07       		.byte	0x7
 1005 0068 C8020000 		.4byte	.LASF7
 1006 006c 03       		.uleb128 0x3
 1007 006d D4000000 		.4byte	.LASF8
 1008 0071 09       		.byte	0x9
 1009 0072 3F       		.byte	0x3f
 1010 0073 77000000 		.4byte	0x77
 1011 0077 04       		.uleb128 0x4
 1012 0078 04       		.byte	0x4
 1013 0079 05       		.byte	0x5
 1014 007a 99010000 		.4byte	.LASF9
 1015 007e 03       		.uleb128 0x3
 1016 007f 0D070000 		.4byte	.LASF10
 1017 0083 09       		.byte	0x9
 1018 0084 41       		.byte	0x41
 1019 0085 89000000 		.4byte	0x89
 1020 0089 04       		.uleb128 0x4
 1021 008a 04       		.byte	0x4
 1022 008b 07       		.byte	0x7
 1023 008c 99060000 		.4byte	.LASF11
 1024 0090 04       		.uleb128 0x4
 1025 0091 08       		.byte	0x8
 1026 0092 05       		.byte	0x5
 1027 0093 3A010000 		.4byte	.LASF12
 1028 0097 03       		.uleb128 0x3
 1029 0098 44050000 		.4byte	.LASF13
 1030 009c 09       		.byte	0x9
 1031 009d 5B       		.byte	0x5b
 1032 009e A2000000 		.4byte	0xa2
 1033 00a2 04       		.uleb128 0x4
 1034 00a3 08       		.byte	0x8
 1035 00a4 07       		.byte	0x7
 1036 00a5 90000000 		.4byte	.LASF14
 1037 00a9 03       		.uleb128 0x3
 1038 00aa DB070000 		.4byte	.LASF15
 1039 00ae 0A       		.byte	0xa
 1040 00af 15       		.byte	0x15
 1041 00b0 41000000 		.4byte	0x41
 1042 00b4 03       		.uleb128 0x3
 1043 00b5 63020000 		.4byte	.LASF16
 1044 00b9 0A       		.byte	0xa
 1045 00ba 21       		.byte	0x21
 1046 00bb 5A000000 		.4byte	0x5a
 1047 00bf 03       		.uleb128 0x3
 1048 00c0 9E050000 		.4byte	.LASF17
 1049 00c4 0A       		.byte	0xa
 1050 00c5 2C       		.byte	0x2c
 1051 00c6 6C000000 		.4byte	0x6c
 1052 00ca 03       		.uleb128 0x3
 1053 00cb 86070000 		.4byte	.LASF18
 1054 00cf 0A       		.byte	0xa
 1055 00d0 2D       		.byte	0x2d
 1056 00d1 7E000000 		.4byte	0x7e
 1057 00d5 03       		.uleb128 0x3
 1058 00d6 58000000 		.4byte	.LASF19
ARM GAS  /tmp/cce4XLMQ.s 			page 20


 1059 00da 0A       		.byte	0xa
 1060 00db 39       		.byte	0x39
 1061 00dc 97000000 		.4byte	0x97
 1062 00e0 05       		.uleb128 0x5
 1063 00e1 BF000000 		.4byte	0xbf
 1064 00e5 05       		.uleb128 0x5
 1065 00e6 CA000000 		.4byte	0xca
 1066 00ea 03       		.uleb128 0x3
 1067 00eb 61070000 		.4byte	.LASF20
 1068 00ef 0B       		.byte	0xb
 1069 00f0 46       		.byte	0x46
 1070 00f1 CA000000 		.4byte	0xca
 1071 00f5 03       		.uleb128 0x3
 1072 00f6 25030000 		.4byte	.LASF21
 1073 00fa 0B       		.byte	0xb
 1074 00fb 49       		.byte	0x49
 1075 00fc A9000000 		.4byte	0xa9
 1076 0100 03       		.uleb128 0x3
 1077 0101 AF010000 		.4byte	.LASF22
 1078 0105 0B       		.byte	0xb
 1079 0106 4A       		.byte	0x4a
 1080 0107 A9000000 		.4byte	0xa9
 1081 010b 03       		.uleb128 0x3
 1082 010c 00000000 		.4byte	.LASF23
 1083 0110 0B       		.byte	0xb
 1084 0111 4B       		.byte	0x4b
 1085 0112 A9000000 		.4byte	0xa9
 1086 0116 03       		.uleb128 0x3
 1087 0117 78050000 		.4byte	.LASF24
 1088 011b 0B       		.byte	0xb
 1089 011c 4D       		.byte	0x4d
 1090 011d CA000000 		.4byte	0xca
 1091 0121 03       		.uleb128 0x3
 1092 0122 EF020000 		.4byte	.LASF25
 1093 0126 0B       		.byte	0xb
 1094 0127 4E       		.byte	0x4e
 1095 0128 BF000000 		.4byte	0xbf
 1096 012c 03       		.uleb128 0x3
 1097 012d 3B030000 		.4byte	.LASF26
 1098 0131 0B       		.byte	0xb
 1099 0132 50       		.byte	0x50
 1100 0133 CA000000 		.4byte	0xca
 1101 0137 03       		.uleb128 0x3
 1102 0138 79070000 		.4byte	.LASF27
 1103 013c 0B       		.byte	0xb
 1104 013d 51       		.byte	0x51
 1105 013e CA000000 		.4byte	0xca
 1106 0142 03       		.uleb128 0x3
 1107 0143 42020000 		.4byte	.LASF28
 1108 0147 0B       		.byte	0xb
 1109 0148 52       		.byte	0x52
 1110 0149 BF000000 		.4byte	0xbf
 1111 014d 03       		.uleb128 0x3
 1112 014e EF060000 		.4byte	.LASF29
 1113 0152 0C       		.byte	0xc
 1114 0153 33       		.byte	0x33
 1115 0154 CA000000 		.4byte	0xca
ARM GAS  /tmp/cce4XLMQ.s 			page 21


 1116 0158 03       		.uleb128 0x3
 1117 0159 DF060000 		.4byte	.LASF30
 1118 015d 0C       		.byte	0xc
 1119 015e 3F       		.byte	0x3f
 1120 015f 63010000 		.4byte	0x163
 1121 0163 06       		.uleb128 0x6
 1122 0164 DB020000 		.4byte	.LASF50
 1123 0168 44       		.byte	0x44
 1124 0169 0D       		.byte	0xd
 1125 016a C2       		.byte	0xc2
 1126 016b 50020000 		.4byte	0x250
 1127 016f 07       		.uleb128 0x7
 1128 0170 F3050000 		.4byte	.LASF31
 1129 0174 0D       		.byte	0xd
 1130 0175 C3       		.byte	0xc3
 1131 0176 5B020000 		.4byte	0x25b
 1132 017a 00       		.byte	0
 1133 017b 07       		.uleb128 0x7
 1134 017c 71050000 		.4byte	.LASF32
 1135 0180 0D       		.byte	0xd
 1136 0181 C5       		.byte	0xc5
 1137 0182 5B020000 		.4byte	0x25b
 1138 0186 04       		.byte	0x4
 1139 0187 07       		.uleb128 0x7
 1140 0188 E7040000 		.4byte	.LASF33
 1141 018c 0D       		.byte	0xd
 1142 018d C7       		.byte	0xc7
 1143 018e 16010000 		.4byte	0x116
 1144 0192 08       		.byte	0x8
 1145 0193 07       		.uleb128 0x7
 1146 0194 32080000 		.4byte	.LASF34
 1147 0198 0D       		.byte	0xd
 1148 0199 C8       		.byte	0xc8
 1149 019a FA040000 		.4byte	0x4fa
 1150 019e 0C       		.byte	0xc
 1151 019f 07       		.uleb128 0x7
 1152 01a0 D1010000 		.4byte	.LASF35
 1153 01a4 0D       		.byte	0xd
 1154 01a5 CA       		.byte	0xca
 1155 01a6 5B020000 		.4byte	0x25b
 1156 01aa 10       		.byte	0x10
 1157 01ab 07       		.uleb128 0x7
 1158 01ac EE040000 		.4byte	.LASF36
 1159 01b0 0D       		.byte	0xd
 1160 01b1 CB       		.byte	0xcb
 1161 01b2 5B020000 		.4byte	0x25b
 1162 01b6 14       		.byte	0x14
 1163 01b7 07       		.uleb128 0x7
 1164 01b8 0B060000 		.4byte	.LASF37
 1165 01bc 0D       		.byte	0xd
 1166 01bd D2       		.byte	0xd2
 1167 01be 3F070000 		.4byte	0x73f
 1168 01c2 18       		.byte	0x18
 1169 01c3 07       		.uleb128 0x7
 1170 01c4 C9050000 		.4byte	.LASF38
 1171 01c8 0D       		.byte	0xd
 1172 01c9 DD       		.byte	0xdd
ARM GAS  /tmp/cce4XLMQ.s 			page 22


 1173 01ca 00010000 		.4byte	0x100
 1174 01ce 1C       		.byte	0x1c
 1175 01cf 07       		.uleb128 0x7
 1176 01d0 FA050000 		.4byte	.LASF39
 1177 01d4 0D       		.byte	0xd
 1178 01d5 E1       		.byte	0xe1
 1179 01d6 F5000000 		.4byte	0xf5
 1180 01da 1D       		.byte	0x1d
 1181 01db 07       		.uleb128 0x7
 1182 01dc 14050000 		.4byte	.LASF40
 1183 01e0 0D       		.byte	0xd
 1184 01e1 E6       		.byte	0xe6
 1185 01e2 0B010000 		.4byte	0x10b
 1186 01e6 1E       		.byte	0x1e
 1187 01e7 08       		.uleb128 0x8
 1188 01e8 705F7500 		.ascii	"p_u\000"
 1189 01ec 0D       		.byte	0xd
 1190 01ed 3101     		.2byte	0x131
 1191 01ef 7A060000 		.4byte	0x67a
 1192 01f3 20       		.byte	0x20
 1193 01f4 09       		.uleb128 0x9
 1194 01f5 4F080000 		.4byte	.LASF41
 1195 01f9 0D       		.byte	0xd
 1196 01fa 3601     		.2byte	0x136
 1197 01fc 61020000 		.4byte	0x261
 1198 0200 24       		.byte	0x24
 1199 0201 09       		.uleb128 0x9
 1200 0202 94020000 		.4byte	.LASF42
 1201 0206 0D       		.byte	0xd
 1202 0207 3C01     		.2byte	0x13c
 1203 0209 85020000 		.4byte	0x285
 1204 020d 28       		.byte	0x28
 1205 020e 09       		.uleb128 0x9
 1206 020f 16080000 		.4byte	.LASF43
 1207 0213 0D       		.byte	0xd
 1208 0214 4001     		.2byte	0x140
 1209 0216 21010000 		.4byte	0x121
 1210 021a 30       		.byte	0x30
 1211 021b 09       		.uleb128 0x9
 1212 021c 4E060000 		.4byte	.LASF44
 1213 0220 0D       		.byte	0xd
 1214 0221 4601     		.2byte	0x146
 1215 0223 2C010000 		.4byte	0x12c
 1216 0227 34       		.byte	0x34
 1217 0228 09       		.uleb128 0x9
 1218 0229 D1050000 		.4byte	.LASF45
 1219 022d 0D       		.byte	0xd
 1220 022e 4D01     		.2byte	0x14d
 1221 0230 39070000 		.4byte	0x739
 1222 0234 38       		.byte	0x38
 1223 0235 09       		.uleb128 0x9
 1224 0236 F9060000 		.4byte	.LASF46
 1225 023a 0D       		.byte	0xd
 1226 023b 5101     		.2byte	0x151
 1227 023d 16010000 		.4byte	0x116
 1228 0241 3C       		.byte	0x3c
 1229 0242 09       		.uleb128 0x9
ARM GAS  /tmp/cce4XLMQ.s 			page 23


 1230 0243 59010000 		.4byte	.LASF47
 1231 0247 0D       		.byte	0xd
 1232 0248 5801     		.2byte	0x158
 1233 024a 38030000 		.4byte	0x338
 1234 024e 40       		.byte	0x40
 1235 024f 00       		.byte	0
 1236 0250 03       		.uleb128 0x3
 1237 0251 A2030000 		.4byte	.LASF48
 1238 0255 0C       		.byte	0xc
 1239 0256 44       		.byte	0x44
 1240 0257 5B020000 		.4byte	0x25b
 1241 025b 0A       		.uleb128 0xa
 1242 025c 04       		.byte	0x4
 1243 025d 58010000 		.4byte	0x158
 1244 0261 03       		.uleb128 0x3
 1245 0262 62030000 		.4byte	.LASF49
 1246 0266 0C       		.byte	0xc
 1247 0267 49       		.byte	0x49
 1248 0268 6C020000 		.4byte	0x26c
 1249 026c 06       		.uleb128 0x6
 1250 026d 7C060000 		.4byte	.LASF51
 1251 0271 04       		.byte	0x4
 1252 0272 0D       		.byte	0xd
 1253 0273 B0       		.byte	0xb0
 1254 0274 85020000 		.4byte	0x285
 1255 0278 07       		.uleb128 0x7
 1256 0279 F3050000 		.4byte	.LASF31
 1257 027d 0D       		.byte	0xd
 1258 027e B1       		.byte	0xb1
 1259 027f 5B020000 		.4byte	0x25b
 1260 0283 00       		.byte	0
 1261 0284 00       		.byte	0
 1262 0285 03       		.uleb128 0x3
 1263 0286 31060000 		.4byte	.LASF52
 1264 028a 0C       		.byte	0xc
 1265 028b 50       		.byte	0x50
 1266 028c 90020000 		.4byte	0x290
 1267 0290 06       		.uleb128 0x6
 1268 0291 0C010000 		.4byte	.LASF53
 1269 0295 08       		.byte	0x8
 1270 0296 0D       		.byte	0xd
 1271 0297 B7       		.byte	0xb7
 1272 0298 B5020000 		.4byte	0x2b5
 1273 029c 07       		.uleb128 0x7
 1274 029d F3050000 		.4byte	.LASF31
 1275 02a1 0D       		.byte	0xd
 1276 02a2 B8       		.byte	0xb8
 1277 02a3 5B020000 		.4byte	0x25b
 1278 02a7 00       		.byte	0
 1279 02a8 07       		.uleb128 0x7
 1280 02a9 71050000 		.4byte	.LASF32
 1281 02ad 0D       		.byte	0xd
 1282 02ae B9       		.byte	0xb9
 1283 02af 5B020000 		.4byte	0x25b
 1284 02b3 04       		.byte	0x4
 1285 02b4 00       		.byte	0
 1286 02b5 03       		.uleb128 0x3
ARM GAS  /tmp/cce4XLMQ.s 			page 24


 1287 02b6 08000000 		.4byte	.LASF54
 1288 02ba 0C       		.byte	0xc
 1289 02bb 57       		.byte	0x57
 1290 02bc C0020000 		.4byte	0x2c0
 1291 02c0 0B       		.uleb128 0xb
 1292 02c1 2D030000 		.4byte	.LASF55
 1293 02c5 1C       		.byte	0x1c
 1294 02c6 0D       		.byte	0xd
 1295 02c7 9001     		.2byte	0x190
 1296 02c9 1C030000 		.4byte	0x31c
 1297 02cd 09       		.uleb128 0x9
 1298 02ce 74060000 		.4byte	.LASF56
 1299 02d2 0D       		.byte	0xd
 1300 02d3 9101     		.2byte	0x191
 1301 02d5 85020000 		.4byte	0x285
 1302 02d9 00       		.byte	0
 1303 02da 09       		.uleb128 0x9
 1304 02db E5050000 		.4byte	.LASF57
 1305 02df 0D       		.byte	0xd
 1306 02e0 9201     		.2byte	0x192
 1307 02e2 16010000 		.4byte	0x116
 1308 02e6 08       		.byte	0x8
 1309 02e7 09       		.uleb128 0x9
 1310 02e8 F6040000 		.4byte	.LASF58
 1311 02ec 0D       		.byte	0xd
 1312 02ed 9401     		.2byte	0x194
 1313 02ef FA040000 		.4byte	0x4fa
 1314 02f3 0C       		.byte	0xc
 1315 02f4 09       		.uleb128 0x9
 1316 02f5 E1010000 		.4byte	.LASF59
 1317 02f9 0D       		.byte	0xd
 1318 02fa 9701     		.2byte	0x197
 1319 02fc 5B020000 		.4byte	0x25b
 1320 0300 10       		.byte	0x10
 1321 0301 09       		.uleb128 0x9
 1322 0302 25050000 		.4byte	.LASF60
 1323 0306 0D       		.byte	0xd
 1324 0307 9801     		.2byte	0x198
 1325 0309 5B020000 		.4byte	0x25b
 1326 030d 14       		.byte	0x14
 1327 030e 09       		.uleb128 0x9
 1328 030f 1B050000 		.4byte	.LASF61
 1329 0313 0D       		.byte	0xd
 1330 0314 9B01     		.2byte	0x19b
 1331 0316 5B020000 		.4byte	0x25b
 1332 031a 18       		.byte	0x18
 1333 031b 00       		.byte	0
 1334 031c 03       		.uleb128 0x3
 1335 031d 04070000 		.4byte	.LASF62
 1336 0321 0C       		.byte	0xc
 1337 0322 5C       		.byte	0x5c
 1338 0323 27030000 		.4byte	0x327
 1339 0327 0A       		.uleb128 0xa
 1340 0328 04       		.byte	0x4
 1341 0329 2D030000 		.4byte	0x32d
 1342 032d 0C       		.uleb128 0xc
 1343 032e 38030000 		.4byte	0x338
ARM GAS  /tmp/cce4XLMQ.s 			page 25


 1344 0332 0D       		.uleb128 0xd
 1345 0333 38030000 		.4byte	0x338
 1346 0337 00       		.byte	0
 1347 0338 0E       		.uleb128 0xe
 1348 0339 04       		.byte	0x4
 1349 033a 03       		.uleb128 0x3
 1350 033b 61050000 		.4byte	.LASF63
 1351 033f 0C       		.byte	0xc
 1352 0340 61       		.byte	0x61
 1353 0341 45030000 		.4byte	0x345
 1354 0345 0B       		.uleb128 0xb
 1355 0346 50070000 		.4byte	.LASF64
 1356 034a 14       		.byte	0x14
 1357 034b 0D       		.byte	0xd
 1358 034c 6B01     		.2byte	0x16b
 1359 034e 94030000 		.4byte	0x394
 1360 0352 09       		.uleb128 0x9
 1361 0353 5B020000 		.4byte	.LASF65
 1362 0357 0D       		.byte	0xd
 1363 0358 6C01     		.2byte	0x16c
 1364 035a 51070000 		.4byte	0x751
 1365 035e 00       		.byte	0
 1366 035f 09       		.uleb128 0x9
 1367 0360 F2010000 		.4byte	.LASF66
 1368 0364 0D       		.byte	0xd
 1369 0365 6D01     		.2byte	0x16d
 1370 0367 51070000 		.4byte	0x751
 1371 036b 04       		.byte	0x4
 1372 036c 09       		.uleb128 0x9
 1373 036d 8B020000 		.4byte	.LASF67
 1374 0371 0D       		.byte	0xd
 1375 0372 6E01     		.2byte	0x16e
 1376 0374 4D010000 		.4byte	0x14d
 1377 0378 08       		.byte	0x8
 1378 0379 09       		.uleb128 0x9
 1379 037a 38080000 		.4byte	.LASF68
 1380 037e 0D       		.byte	0xd
 1381 037f 6F01     		.2byte	0x16f
 1382 0381 1C030000 		.4byte	0x31c
 1383 0385 0C       		.byte	0xc
 1384 0386 09       		.uleb128 0x9
 1385 0387 72070000 		.4byte	.LASF69
 1386 038b 0D       		.byte	0xd
 1387 038c 7101     		.2byte	0x171
 1388 038e 38030000 		.4byte	0x338
 1389 0392 10       		.byte	0x10
 1390 0393 00       		.byte	0
 1391 0394 03       		.uleb128 0x3
 1392 0395 DE000000 		.4byte	.LASF70
 1393 0399 0C       		.byte	0xc
 1394 039a 66       		.byte	0x66
 1395 039b 9F030000 		.4byte	0x39f
 1396 039f 0B       		.uleb128 0xb
 1397 03a0 B5030000 		.4byte	.LASF71
 1398 03a4 10       		.byte	0x10
 1399 03a5 0D       		.byte	0xd
 1400 03a6 7B01     		.2byte	0x17b
ARM GAS  /tmp/cce4XLMQ.s 			page 26


 1401 03a8 E1030000 		.4byte	0x3e1
 1402 03ac 09       		.uleb128 0x9
 1403 03ad 5B020000 		.4byte	.LASF65
 1404 03b1 0D       		.byte	0xd
 1405 03b2 7C01     		.2byte	0x17c
 1406 03b4 51070000 		.4byte	0x751
 1407 03b8 00       		.byte	0
 1408 03b9 09       		.uleb128 0x9
 1409 03ba F2010000 		.4byte	.LASF66
 1410 03be 0D       		.byte	0xd
 1411 03bf 7E01     		.2byte	0x17e
 1412 03c1 51070000 		.4byte	0x751
 1413 03c5 04       		.byte	0x4
 1414 03c6 09       		.uleb128 0x9
 1415 03c7 8B020000 		.4byte	.LASF67
 1416 03cb 0D       		.byte	0xd
 1417 03cc 8001     		.2byte	0x180
 1418 03ce 4D010000 		.4byte	0x14d
 1419 03d2 08       		.byte	0x8
 1420 03d3 09       		.uleb128 0x9
 1421 03d4 FF070000 		.4byte	.LASF72
 1422 03d8 0D       		.byte	0xd
 1423 03d9 8201     		.2byte	0x182
 1424 03db 57070000 		.4byte	0x757
 1425 03df 0C       		.byte	0xc
 1426 03e0 00       		.byte	0
 1427 03e1 03       		.uleb128 0x3
 1428 03e2 77000000 		.4byte	.LASF73
 1429 03e6 0C       		.byte	0xc
 1430 03e7 6B       		.byte	0x6b
 1431 03e8 EC030000 		.4byte	0x3ec
 1432 03ec 0B       		.uleb128 0xb
 1433 03ed 88050000 		.4byte	.LASF74
 1434 03f1 04       		.byte	0x4
 1435 03f2 0D       		.byte	0xd
 1436 03f3 A201     		.2byte	0x1a2
 1437 03f5 07040000 		.4byte	0x407
 1438 03f9 09       		.uleb128 0x9
 1439 03fa 26070000 		.4byte	.LASF75
 1440 03fe 0D       		.byte	0xd
 1441 03ff AA01     		.2byte	0x1aa
 1442 0401 5C070000 		.4byte	0x75c
 1443 0405 00       		.byte	0
 1444 0406 00       		.byte	0
 1445 0407 03       		.uleb128 0x3
 1446 0408 04030000 		.4byte	.LASF76
 1447 040c 0C       		.byte	0xc
 1448 040d 70       		.byte	0x70
 1449 040e 12040000 		.4byte	0x412
 1450 0412 0F       		.uleb128 0xf
 1451 0413 8F010000 		.4byte	.LASF77
 1452 0417 D801     		.2byte	0x1d8
 1453 0419 0D       		.byte	0xd
 1454 041a C201     		.2byte	0x1c2
 1455 041c 6E040000 		.4byte	0x46e
 1456 0420 09       		.uleb128 0x9
 1457 0421 C6070000 		.4byte	.LASF78
ARM GAS  /tmp/cce4XLMQ.s 			page 27


 1458 0425 0D       		.byte	0xd
 1459 0426 C601     		.2byte	0x1c6
 1460 0428 B5020000 		.4byte	0x2b5
 1461 042c 00       		.byte	0
 1462 042d 09       		.uleb128 0x9
 1463 042e FA010000 		.4byte	.LASF79
 1464 0432 0D       		.byte	0xd
 1465 0433 CA01     		.2byte	0x1ca
 1466 0435 94030000 		.4byte	0x394
 1467 0439 1C       		.byte	0x1c
 1468 043a 08       		.uleb128 0x8
 1469 043b 64626700 		.ascii	"dbg\000"
 1470 043f 0D       		.byte	0xd
 1471 0440 CE01     		.2byte	0x1ce
 1472 0442 E1030000 		.4byte	0x3e1
 1473 0446 2C       		.byte	0x2c
 1474 0447 09       		.uleb128 0x9
 1475 0448 C9000000 		.4byte	.LASF80
 1476 044c 0D       		.byte	0xd
 1477 044d D201     		.2byte	0x1d2
 1478 044f 58010000 		.4byte	0x158
 1479 0453 30       		.byte	0x30
 1480 0454 08       		.uleb128 0x8
 1481 0455 746D00   		.ascii	"tm\000"
 1482 0458 0D       		.byte	0xd
 1483 0459 D701     		.2byte	0x1d7
 1484 045b 6F060000 		.4byte	0x66f
 1485 045f 74       		.byte	0x74
 1486 0460 09       		.uleb128 0x9
 1487 0461 33020000 		.4byte	.LASF81
 1488 0465 0D       		.byte	0xd
 1489 0466 E301     		.2byte	0x1e3
 1490 0468 61070000 		.4byte	0x761
 1491 046c 78       		.byte	0x78
 1492 046d 00       		.byte	0
 1493 046e 04       		.uleb128 0x4
 1494 046f 04       		.byte	0x4
 1495 0470 07       		.byte	0x7
 1496 0471 99030000 		.4byte	.LASF82
 1497 0475 10       		.uleb128 0x10
 1498 0476 1C       		.byte	0x1c
 1499 0477 0E       		.byte	0xe
 1500 0478 0903     		.2byte	0x309
 1501 047a D8040000 		.4byte	0x4d8
 1502 047e 08       		.uleb128 0x8
 1503 047f 535200   		.ascii	"SR\000"
 1504 0482 0E       		.byte	0xe
 1505 0483 0B03     		.2byte	0x30b
 1506 0485 E5000000 		.4byte	0xe5
 1507 0489 00       		.byte	0
 1508 048a 08       		.uleb128 0x8
 1509 048b 445200   		.ascii	"DR\000"
 1510 048e 0E       		.byte	0xe
 1511 048f 0C03     		.2byte	0x30c
 1512 0491 E5000000 		.4byte	0xe5
 1513 0495 04       		.byte	0x4
 1514 0496 08       		.uleb128 0x8
ARM GAS  /tmp/cce4XLMQ.s 			page 28


 1515 0497 42525200 		.ascii	"BRR\000"
 1516 049b 0E       		.byte	0xe
 1517 049c 0D03     		.2byte	0x30d
 1518 049e E5000000 		.4byte	0xe5
 1519 04a2 08       		.byte	0x8
 1520 04a3 08       		.uleb128 0x8
 1521 04a4 43523100 		.ascii	"CR1\000"
 1522 04a8 0E       		.byte	0xe
 1523 04a9 0E03     		.2byte	0x30e
 1524 04ab E5000000 		.4byte	0xe5
 1525 04af 0C       		.byte	0xc
 1526 04b0 08       		.uleb128 0x8
 1527 04b1 43523200 		.ascii	"CR2\000"
 1528 04b5 0E       		.byte	0xe
 1529 04b6 0F03     		.2byte	0x30f
 1530 04b8 E5000000 		.4byte	0xe5
 1531 04bc 10       		.byte	0x10
 1532 04bd 08       		.uleb128 0x8
 1533 04be 43523300 		.ascii	"CR3\000"
 1534 04c2 0E       		.byte	0xe
 1535 04c3 1003     		.2byte	0x310
 1536 04c5 E5000000 		.4byte	0xe5
 1537 04c9 14       		.byte	0x14
 1538 04ca 09       		.uleb128 0x9
 1539 04cb 54010000 		.4byte	.LASF83
 1540 04cf 0E       		.byte	0xe
 1541 04d0 1103     		.2byte	0x311
 1542 04d2 E5000000 		.4byte	0xe5
 1543 04d6 18       		.byte	0x18
 1544 04d7 00       		.byte	0
 1545 04d8 11       		.uleb128 0x11
 1546 04d9 10030000 		.4byte	.LASF84
 1547 04dd 0E       		.byte	0xe
 1548 04de 1203     		.2byte	0x312
 1549 04e0 75040000 		.4byte	0x475
 1550 04e4 03       		.uleb128 0x3
 1551 04e5 E9010000 		.4byte	.LASF85
 1552 04e9 0F       		.byte	0xf
 1553 04ea 65       		.byte	0x65
 1554 04eb 38030000 		.4byte	0x338
 1555 04ef 03       		.uleb128 0x3
 1556 04f0 57030000 		.4byte	.LASF86
 1557 04f4 0F       		.byte	0xf
 1558 04f5 6D       		.byte	0x6d
 1559 04f6 D5000000 		.4byte	0xd5
 1560 04fa 06       		.uleb128 0x6
 1561 04fb 48070000 		.4byte	.LASF87
 1562 04ff 04       		.byte	0x4
 1563 0500 0F       		.byte	0xf
 1564 0501 89       		.byte	0x89
 1565 0502 13050000 		.4byte	0x513
 1566 0506 12       		.uleb128 0x12
 1567 0507 72313300 		.ascii	"r13\000"
 1568 050b 0F       		.byte	0xf
 1569 050c 8A       		.byte	0x8a
 1570 050d 54060000 		.4byte	0x654
 1571 0511 00       		.byte	0
ARM GAS  /tmp/cce4XLMQ.s 			page 29


 1572 0512 00       		.byte	0
 1573 0513 06       		.uleb128 0x6
 1574 0514 6B000000 		.4byte	.LASF88
 1575 0518 64       		.byte	0x64
 1576 0519 01       		.byte	0x1
 1577 051a F4       		.byte	0xf4
 1578 051b 54060000 		.4byte	0x654
 1579 051f 12       		.uleb128 0x12
 1580 0520 73313600 		.ascii	"s16\000"
 1581 0524 01       		.byte	0x1
 1582 0525 F6       		.byte	0xf6
 1583 0526 E4040000 		.4byte	0x4e4
 1584 052a 00       		.byte	0
 1585 052b 12       		.uleb128 0x12
 1586 052c 73313700 		.ascii	"s17\000"
 1587 0530 01       		.byte	0x1
 1588 0531 F7       		.byte	0xf7
 1589 0532 E4040000 		.4byte	0x4e4
 1590 0536 04       		.byte	0x4
 1591 0537 12       		.uleb128 0x12
 1592 0538 73313800 		.ascii	"s18\000"
 1593 053c 01       		.byte	0x1
 1594 053d F8       		.byte	0xf8
 1595 053e E4040000 		.4byte	0x4e4
 1596 0542 08       		.byte	0x8
 1597 0543 12       		.uleb128 0x12
 1598 0544 73313900 		.ascii	"s19\000"
 1599 0548 01       		.byte	0x1
 1600 0549 F9       		.byte	0xf9
 1601 054a E4040000 		.4byte	0x4e4
 1602 054e 0C       		.byte	0xc
 1603 054f 12       		.uleb128 0x12
 1604 0550 73323000 		.ascii	"s20\000"
 1605 0554 01       		.byte	0x1
 1606 0555 FA       		.byte	0xfa
 1607 0556 E4040000 		.4byte	0x4e4
 1608 055a 10       		.byte	0x10
 1609 055b 12       		.uleb128 0x12
 1610 055c 73323100 		.ascii	"s21\000"
 1611 0560 01       		.byte	0x1
 1612 0561 FB       		.byte	0xfb
 1613 0562 E4040000 		.4byte	0x4e4
 1614 0566 14       		.byte	0x14
 1615 0567 12       		.uleb128 0x12
 1616 0568 73323200 		.ascii	"s22\000"
 1617 056c 01       		.byte	0x1
 1618 056d FC       		.byte	0xfc
 1619 056e E4040000 		.4byte	0x4e4
 1620 0572 18       		.byte	0x18
 1621 0573 12       		.uleb128 0x12
 1622 0574 73323300 		.ascii	"s23\000"
 1623 0578 01       		.byte	0x1
 1624 0579 FD       		.byte	0xfd
 1625 057a E4040000 		.4byte	0x4e4
 1626 057e 1C       		.byte	0x1c
 1627 057f 12       		.uleb128 0x12
 1628 0580 73323400 		.ascii	"s24\000"
ARM GAS  /tmp/cce4XLMQ.s 			page 30


 1629 0584 01       		.byte	0x1
 1630 0585 FE       		.byte	0xfe
 1631 0586 E4040000 		.4byte	0x4e4
 1632 058a 20       		.byte	0x20
 1633 058b 12       		.uleb128 0x12
 1634 058c 73323500 		.ascii	"s25\000"
 1635 0590 01       		.byte	0x1
 1636 0591 FF       		.byte	0xff
 1637 0592 E4040000 		.4byte	0x4e4
 1638 0596 24       		.byte	0x24
 1639 0597 08       		.uleb128 0x8
 1640 0598 73323600 		.ascii	"s26\000"
 1641 059c 01       		.byte	0x1
 1642 059d 0001     		.2byte	0x100
 1643 059f E4040000 		.4byte	0x4e4
 1644 05a3 28       		.byte	0x28
 1645 05a4 08       		.uleb128 0x8
 1646 05a5 73323700 		.ascii	"s27\000"
 1647 05a9 01       		.byte	0x1
 1648 05aa 0101     		.2byte	0x101
 1649 05ac E4040000 		.4byte	0x4e4
 1650 05b0 2C       		.byte	0x2c
 1651 05b1 08       		.uleb128 0x8
 1652 05b2 73323800 		.ascii	"s28\000"
 1653 05b6 01       		.byte	0x1
 1654 05b7 0201     		.2byte	0x102
 1655 05b9 E4040000 		.4byte	0x4e4
 1656 05bd 30       		.byte	0x30
 1657 05be 08       		.uleb128 0x8
 1658 05bf 73323900 		.ascii	"s29\000"
 1659 05c3 01       		.byte	0x1
 1660 05c4 0301     		.2byte	0x103
 1661 05c6 E4040000 		.4byte	0x4e4
 1662 05ca 34       		.byte	0x34
 1663 05cb 08       		.uleb128 0x8
 1664 05cc 73333000 		.ascii	"s30\000"
 1665 05d0 01       		.byte	0x1
 1666 05d1 0401     		.2byte	0x104
 1667 05d3 E4040000 		.4byte	0x4e4
 1668 05d7 38       		.byte	0x38
 1669 05d8 08       		.uleb128 0x8
 1670 05d9 73333100 		.ascii	"s31\000"
 1671 05dd 01       		.byte	0x1
 1672 05de 0501     		.2byte	0x105
 1673 05e0 E4040000 		.4byte	0x4e4
 1674 05e4 3C       		.byte	0x3c
 1675 05e5 08       		.uleb128 0x8
 1676 05e6 723400   		.ascii	"r4\000"
 1677 05e9 01       		.byte	0x1
 1678 05ea 0701     		.2byte	0x107
 1679 05ec E4040000 		.4byte	0x4e4
 1680 05f0 40       		.byte	0x40
 1681 05f1 08       		.uleb128 0x8
 1682 05f2 723500   		.ascii	"r5\000"
 1683 05f5 01       		.byte	0x1
 1684 05f6 0801     		.2byte	0x108
 1685 05f8 E4040000 		.4byte	0x4e4
ARM GAS  /tmp/cce4XLMQ.s 			page 31


 1686 05fc 44       		.byte	0x44
 1687 05fd 08       		.uleb128 0x8
 1688 05fe 723600   		.ascii	"r6\000"
 1689 0601 01       		.byte	0x1
 1690 0602 0901     		.2byte	0x109
 1691 0604 E4040000 		.4byte	0x4e4
 1692 0608 48       		.byte	0x48
 1693 0609 08       		.uleb128 0x8
 1694 060a 723700   		.ascii	"r7\000"
 1695 060d 01       		.byte	0x1
 1696 060e 0A01     		.2byte	0x10a
 1697 0610 E4040000 		.4byte	0x4e4
 1698 0614 4C       		.byte	0x4c
 1699 0615 08       		.uleb128 0x8
 1700 0616 723800   		.ascii	"r8\000"
 1701 0619 01       		.byte	0x1
 1702 061a 0B01     		.2byte	0x10b
 1703 061c E4040000 		.4byte	0x4e4
 1704 0620 50       		.byte	0x50
 1705 0621 08       		.uleb128 0x8
 1706 0622 723900   		.ascii	"r9\000"
 1707 0625 01       		.byte	0x1
 1708 0626 0C01     		.2byte	0x10c
 1709 0628 E4040000 		.4byte	0x4e4
 1710 062c 54       		.byte	0x54
 1711 062d 08       		.uleb128 0x8
 1712 062e 72313000 		.ascii	"r10\000"
 1713 0632 01       		.byte	0x1
 1714 0633 0D01     		.2byte	0x10d
 1715 0635 E4040000 		.4byte	0x4e4
 1716 0639 58       		.byte	0x58
 1717 063a 08       		.uleb128 0x8
 1718 063b 72313100 		.ascii	"r11\000"
 1719 063f 01       		.byte	0x1
 1720 0640 0E01     		.2byte	0x10e
 1721 0642 E4040000 		.4byte	0x4e4
 1722 0646 5C       		.byte	0x5c
 1723 0647 08       		.uleb128 0x8
 1724 0648 6C7200   		.ascii	"lr\000"
 1725 064b 01       		.byte	0x1
 1726 064c 0F01     		.2byte	0x10f
 1727 064e E4040000 		.4byte	0x4e4
 1728 0652 60       		.byte	0x60
 1729 0653 00       		.byte	0
 1730 0654 0A       		.uleb128 0xa
 1731 0655 04       		.byte	0x4
 1732 0656 13050000 		.4byte	0x513
 1733 065a 13       		.uleb128 0x13
 1734 065b 04       		.byte	0x4
 1735 065c 10       		.byte	0x10
 1736 065d 38       		.byte	0x38
 1737 065e 6F060000 		.4byte	0x66f
 1738 0662 07       		.uleb128 0x7
 1739 0663 30070000 		.4byte	.LASF89
 1740 0667 10       		.byte	0x10
 1741 0668 3C       		.byte	0x3c
 1742 0669 EA000000 		.4byte	0xea
ARM GAS  /tmp/cce4XLMQ.s 			page 32


 1743 066d 00       		.byte	0
 1744 066e 00       		.byte	0
 1745 066f 03       		.uleb128 0x3
 1746 0670 FC040000 		.4byte	.LASF90
 1747 0674 10       		.byte	0x10
 1748 0675 3D       		.byte	0x3d
 1749 0676 5A060000 		.4byte	0x65a
 1750 067a 14       		.uleb128 0x14
 1751 067b 04       		.byte	0x4
 1752 067c 0D       		.byte	0xd
 1753 067d FA       		.byte	0xfa
 1754 067e D7060000 		.4byte	0x6d7
 1755 0682 15       		.uleb128 0x15
 1756 0683 2A060000 		.4byte	.LASF91
 1757 0687 0D       		.byte	0xd
 1758 0688 0101     		.2byte	0x101
 1759 068a 21010000 		.4byte	0x121
 1760 068e 15       		.uleb128 0x15
 1761 068f C0000000 		.4byte	.LASF92
 1762 0693 0D       		.byte	0xd
 1763 0694 0801     		.2byte	0x108
 1764 0696 21010000 		.4byte	0x121
 1765 069a 15       		.uleb128 0x15
 1766 069b F1070000 		.4byte	.LASF93
 1767 069f 0D       		.byte	0xd
 1768 06a0 0F01     		.2byte	0x10f
 1769 06a2 38030000 		.4byte	0x338
 1770 06a6 15       		.uleb128 0x15
 1771 06a7 E1040000 		.4byte	.LASF94
 1772 06ab 0D       		.byte	0xd
 1773 06ac 1601     		.2byte	0x116
 1774 06ae D7060000 		.4byte	0x6d7
 1775 06b2 15       		.uleb128 0x15
 1776 06b3 84020000 		.4byte	.LASF95
 1777 06b7 0D       		.byte	0xd
 1778 06b8 1E01     		.2byte	0x11e
 1779 06ba 02070000 		.4byte	0x702
 1780 06be 15       		.uleb128 0x15
 1781 06bf 6D060000 		.4byte	.LASF96
 1782 06c3 0D       		.byte	0xd
 1783 06c4 2701     		.2byte	0x127
 1784 06c6 39070000 		.4byte	0x739
 1785 06ca 15       		.uleb128 0x15
 1786 06cb EC050000 		.4byte	.LASF97
 1787 06cf 0D       		.byte	0xd
 1788 06d0 2F01     		.2byte	0x12f
 1789 06d2 2C010000 		.4byte	0x12c
 1790 06d6 00       		.byte	0
 1791 06d7 0A       		.uleb128 0xa
 1792 06d8 04       		.byte	0x4
 1793 06d9 50020000 		.4byte	0x250
 1794 06dd 06       		.uleb128 0x6
 1795 06de 41060000 		.4byte	.LASF98
 1796 06e2 0C       		.byte	0xc
 1797 06e3 11       		.byte	0x11
 1798 06e4 34       		.byte	0x34
 1799 06e5 02070000 		.4byte	0x702
ARM GAS  /tmp/cce4XLMQ.s 			page 33


 1800 06e9 07       		.uleb128 0x7
 1801 06ea D9010000 		.4byte	.LASF99
 1802 06ee 11       		.byte	0x11
 1803 06ef 35       		.byte	0x35
 1804 06f0 85020000 		.4byte	0x285
 1805 06f4 00       		.byte	0
 1806 06f5 07       		.uleb128 0x7
 1807 06f6 AC020000 		.4byte	.LASF100
 1808 06fa 11       		.byte	0x11
 1809 06fb 37       		.byte	0x37
 1810 06fc 42010000 		.4byte	0x142
 1811 0700 08       		.byte	0x8
 1812 0701 00       		.byte	0
 1813 0702 0A       		.uleb128 0xa
 1814 0703 04       		.byte	0x4
 1815 0704 DD060000 		.4byte	0x6dd
 1816 0708 06       		.uleb128 0x6
 1817 0709 9F070000 		.4byte	.LASF101
 1818 070d 10       		.byte	0x10
 1819 070e 12       		.byte	0x12
 1820 070f 39       		.byte	0x39
 1821 0710 39070000 		.4byte	0x739
 1822 0714 07       		.uleb128 0x7
 1823 0715 75010000 		.4byte	.LASF102
 1824 0719 12       		.byte	0x12
 1825 071a 3A       		.byte	0x3a
 1826 071b 85020000 		.4byte	0x285
 1827 071f 00       		.byte	0
 1828 0720 07       		.uleb128 0x7
 1829 0721 2A080000 		.4byte	.LASF103
 1830 0725 12       		.byte	0x12
 1831 0726 3C       		.byte	0x3c
 1832 0727 5B020000 		.4byte	0x25b
 1833 072b 08       		.byte	0x8
 1834 072c 07       		.uleb128 0x7
 1835 072d E8060000 		.4byte	.LASF104
 1836 0731 12       		.byte	0x12
 1837 0732 3E       		.byte	0x3e
 1838 0733 7C070000 		.4byte	0x77c
 1839 0737 0C       		.byte	0xc
 1840 0738 00       		.byte	0
 1841 0739 0A       		.uleb128 0xa
 1842 073a 04       		.byte	0x4
 1843 073b 08070000 		.4byte	0x708
 1844 073f 0A       		.uleb128 0xa
 1845 0740 04       		.byte	0x4
 1846 0741 45070000 		.4byte	0x745
 1847 0745 16       		.uleb128 0x16
 1848 0746 4A070000 		.4byte	0x74a
 1849 074a 04       		.uleb128 0x4
 1850 074b 01       		.byte	0x1
 1851 074c 08       		.byte	0x8
 1852 074d B0060000 		.4byte	.LASF105
 1853 0751 0A       		.uleb128 0xa
 1854 0752 04       		.byte	0x4
 1855 0753 3A030000 		.4byte	0x33a
 1856 0757 05       		.uleb128 0x5
ARM GAS  /tmp/cce4XLMQ.s 			page 34


 1857 0758 4D010000 		.4byte	0x14d
 1858 075c 05       		.uleb128 0x5
 1859 075d 3F070000 		.4byte	0x73f
 1860 0761 17       		.uleb128 0x17
 1861 0762 EF040000 		.4byte	0x4ef
 1862 0766 71070000 		.4byte	0x771
 1863 076a 18       		.uleb128 0x18
 1864 076b 6E040000 		.4byte	0x46e
 1865 076f 2B       		.byte	0x2b
 1866 0770 00       		.byte	0
 1867 0771 03       		.uleb128 0x3
 1868 0772 0D020000 		.4byte	.LASF106
 1869 0776 12       		.byte	0x12
 1870 0777 34       		.byte	0x34
 1871 0778 08070000 		.4byte	0x708
 1872 077c 0A       		.uleb128 0xa
 1873 077d 04       		.byte	0x4
 1874 077e 71070000 		.4byte	0x771
 1875 0782 03       		.uleb128 0x3
 1876 0783 37070000 		.4byte	.LASF107
 1877 0787 04       		.byte	0x4
 1878 0788 34       		.byte	0x34
 1879 0789 8D070000 		.4byte	0x78d
 1880 078d 06       		.uleb128 0x6
 1881 078e 40080000 		.4byte	.LASF108
 1882 0792 14       		.byte	0x14
 1883 0793 04       		.byte	0x4
 1884 0794 39       		.byte	0x39
 1885 0795 D6070000 		.4byte	0x7d6
 1886 0799 07       		.uleb128 0x7
 1887 079a FC020000 		.4byte	.LASF109
 1888 079e 04       		.byte	0x4
 1889 079f 3A       		.byte	0x3a
 1890 07a0 D6070000 		.4byte	0x7d6
 1891 07a4 00       		.byte	0
 1892 07a5 07       		.uleb128 0x7
 1893 07a6 B4050000 		.4byte	.LASF110
 1894 07aa 04       		.byte	0x4
 1895 07ab 3D       		.byte	0x3d
 1896 07ac 5B020000 		.4byte	0x25b
 1897 07b0 04       		.byte	0x4
 1898 07b1 07       		.uleb128 0x7
 1899 07b2 2D050000 		.4byte	.LASF111
 1900 07b6 04       		.byte	0x4
 1901 07b7 3F       		.byte	0x3f
 1902 07b8 2C010000 		.4byte	0x12c
 1903 07bc 08       		.byte	0x8
 1904 07bd 07       		.uleb128 0x7
 1905 07be C0050000 		.4byte	.LASF112
 1906 07c2 04       		.byte	0x4
 1907 07c3 41       		.byte	0x41
 1908 07c4 37010000 		.4byte	0x137
 1909 07c8 0C       		.byte	0xc
 1910 07c9 07       		.uleb128 0x7
 1911 07ca E5020000 		.4byte	.LASF113
 1912 07ce 04       		.byte	0x4
 1913 07cf 43       		.byte	0x43
ARM GAS  /tmp/cce4XLMQ.s 			page 35


 1914 07d0 37010000 		.4byte	0x137
 1915 07d4 10       		.byte	0x10
 1916 07d5 00       		.byte	0
 1917 07d6 0A       		.uleb128 0xa
 1918 07d7 04       		.byte	0x4
 1919 07d8 82070000 		.4byte	0x782
 1920 07dc 06       		.uleb128 0x6
 1921 07dd A2010000 		.4byte	.LASF114
 1922 07e1 04       		.byte	0x4
 1923 07e2 04       		.byte	0x4
 1924 07e3 4A       		.byte	0x4a
 1925 07e4 F5070000 		.4byte	0x7f5
 1926 07e8 07       		.uleb128 0x7
 1927 07e9 A8070000 		.4byte	.LASF115
 1928 07ed 04       		.byte	0x4
 1929 07ee 4B       		.byte	0x4b
 1930 07ef D6070000 		.4byte	0x7d6
 1931 07f3 00       		.byte	0
 1932 07f4 00       		.byte	0
 1933 07f5 03       		.uleb128 0x3
 1934 07f6 24020000 		.4byte	.LASF116
 1935 07fa 04       		.byte	0x4
 1936 07fb 4E       		.byte	0x4e
 1937 07fc DC070000 		.4byte	0x7dc
 1938 0800 03       		.uleb128 0x3
 1939 0801 01010000 		.4byte	.LASF117
 1940 0805 05       		.byte	0x5
 1941 0806 3F       		.byte	0x3f
 1942 0807 0B080000 		.4byte	0x80b
 1943 080b 06       		.uleb128 0x6
 1944 080c 1B020000 		.4byte	.LASF118
 1945 0810 24       		.byte	0x24
 1946 0811 05       		.byte	0x5
 1947 0812 4D       		.byte	0x4d
 1948 0813 78080000 		.4byte	0x878
 1949 0817 07       		.uleb128 0x7
 1950 0818 30010000 		.4byte	.LASF119
 1951 081c 05       		.byte	0x5
 1952 081d 4E       		.byte	0x4e
 1953 081e 85020000 		.4byte	0x285
 1954 0822 00       		.byte	0
 1955 0823 07       		.uleb128 0x7
 1956 0824 63060000 		.4byte	.LASF120
 1957 0828 05       		.byte	0x5
 1958 0829 4F       		.byte	0x4f
 1959 082a 28000000 		.4byte	0x28
 1960 082e 08       		.byte	0x8
 1961 082f 07       		.uleb128 0x7
 1962 0830 B8010000 		.4byte	.LASF121
 1963 0834 05       		.byte	0x5
 1964 0835 50       		.byte	0x50
 1965 0836 9A080000 		.4byte	0x89a
 1966 083a 0C       		.byte	0xc
 1967 083b 07       		.uleb128 0x7
 1968 083c 99070000 		.4byte	.LASF122
 1969 0840 05       		.byte	0x5
 1970 0841 51       		.byte	0x51
ARM GAS  /tmp/cce4XLMQ.s 			page 36


 1971 0842 9A080000 		.4byte	0x89a
 1972 0846 10       		.byte	0x10
 1973 0847 07       		.uleb128 0x7
 1974 0848 C1010000 		.4byte	.LASF123
 1975 084c 05       		.byte	0x5
 1976 084d 53       		.byte	0x53
 1977 084e 9A080000 		.4byte	0x89a
 1978 0852 14       		.byte	0x14
 1979 0853 07       		.uleb128 0x7
 1980 0854 80050000 		.4byte	.LASF124
 1981 0858 05       		.byte	0x5
 1982 0859 54       		.byte	0x54
 1983 085a 9A080000 		.4byte	0x89a
 1984 085e 18       		.byte	0x18
 1985 085f 07       		.uleb128 0x7
 1986 0860 BD070000 		.4byte	.LASF125
 1987 0864 05       		.byte	0x5
 1988 0865 55       		.byte	0x55
 1989 0866 78080000 		.4byte	0x878
 1990 086a 1C       		.byte	0x1c
 1991 086b 07       		.uleb128 0x7
 1992 086c 23080000 		.4byte	.LASF126
 1993 0870 05       		.byte	0x5
 1994 0871 56       		.byte	0x56
 1995 0872 38030000 		.4byte	0x338
 1996 0876 20       		.byte	0x20
 1997 0877 00       		.byte	0
 1998 0878 03       		.uleb128 0x3
 1999 0879 4D030000 		.4byte	.LASF127
 2000 087d 05       		.byte	0x5
 2001 087e 42       		.byte	0x42
 2002 087f 83080000 		.4byte	0x883
 2003 0883 0A       		.uleb128 0xa
 2004 0884 04       		.byte	0x4
 2005 0885 89080000 		.4byte	0x889
 2006 0889 0C       		.uleb128 0xc
 2007 088a 94080000 		.4byte	0x894
 2008 088e 0D       		.uleb128 0xd
 2009 088f 94080000 		.4byte	0x894
 2010 0893 00       		.byte	0
 2011 0894 0A       		.uleb128 0xa
 2012 0895 04       		.byte	0x4
 2013 0896 00080000 		.4byte	0x800
 2014 089a 0A       		.uleb128 0xa
 2015 089b 04       		.byte	0x4
 2016 089c A9000000 		.4byte	0xa9
 2017 08a0 03       		.uleb128 0x3
 2018 08a1 77030000 		.4byte	.LASF128
 2019 08a5 05       		.byte	0x5
 2020 08a6 64       		.byte	0x64
 2021 08a7 00080000 		.4byte	0x800
 2022 08ab 03       		.uleb128 0x3
 2023 08ac 8A030000 		.4byte	.LASF129
 2024 08b0 05       		.byte	0x5
 2025 08b1 71       		.byte	0x71
 2026 08b2 00080000 		.4byte	0x800
 2027 08b6 19       		.uleb128 0x19
ARM GAS  /tmp/cce4XLMQ.s 			page 37


 2028 08b7 28000000 		.4byte	0x28
 2029 08bb CF080000 		.4byte	0x8cf
 2030 08bf 0D       		.uleb128 0xd
 2031 08c0 38030000 		.4byte	0x338
 2032 08c4 0D       		.uleb128 0xd
 2033 08c5 CF080000 		.4byte	0x8cf
 2034 08c9 0D       		.uleb128 0xd
 2035 08ca 28000000 		.4byte	0x28
 2036 08ce 00       		.byte	0
 2037 08cf 0A       		.uleb128 0xa
 2038 08d0 04       		.byte	0x4
 2039 08d1 D5080000 		.4byte	0x8d5
 2040 08d5 16       		.uleb128 0x16
 2041 08d6 A9000000 		.4byte	0xa9
 2042 08da 0A       		.uleb128 0xa
 2043 08db 04       		.byte	0x4
 2044 08dc B6080000 		.4byte	0x8b6
 2045 08e0 19       		.uleb128 0x19
 2046 08e1 28000000 		.4byte	0x28
 2047 08e5 F9080000 		.4byte	0x8f9
 2048 08e9 0D       		.uleb128 0xd
 2049 08ea 38030000 		.4byte	0x338
 2050 08ee 0D       		.uleb128 0xd
 2051 08ef 9A080000 		.4byte	0x89a
 2052 08f3 0D       		.uleb128 0xd
 2053 08f4 28000000 		.4byte	0x28
 2054 08f8 00       		.byte	0
 2055 08f9 0A       		.uleb128 0xa
 2056 08fa 04       		.byte	0x4
 2057 08fb E0080000 		.4byte	0x8e0
 2058 08ff 19       		.uleb128 0x19
 2059 0900 21010000 		.4byte	0x121
 2060 0904 13090000 		.4byte	0x913
 2061 0908 0D       		.uleb128 0xd
 2062 0909 38030000 		.4byte	0x338
 2063 090d 0D       		.uleb128 0xd
 2064 090e A9000000 		.4byte	0xa9
 2065 0912 00       		.byte	0
 2066 0913 0A       		.uleb128 0xa
 2067 0914 04       		.byte	0x4
 2068 0915 FF080000 		.4byte	0x8ff
 2069 0919 19       		.uleb128 0x19
 2070 091a 21010000 		.4byte	0x121
 2071 091e 28090000 		.4byte	0x928
 2072 0922 0D       		.uleb128 0xd
 2073 0923 38030000 		.4byte	0x338
 2074 0927 00       		.byte	0
 2075 0928 0A       		.uleb128 0xa
 2076 0929 04       		.byte	0x4
 2077 092a 19090000 		.4byte	0x919
 2078 092e 19       		.uleb128 0x19
 2079 092f 21010000 		.4byte	0x121
 2080 0933 47090000 		.4byte	0x947
 2081 0937 0D       		.uleb128 0xd
 2082 0938 38030000 		.4byte	0x338
 2083 093c 0D       		.uleb128 0xd
 2084 093d A9000000 		.4byte	0xa9
ARM GAS  /tmp/cce4XLMQ.s 			page 38


 2085 0941 0D       		.uleb128 0xd
 2086 0942 4D010000 		.4byte	0x14d
 2087 0946 00       		.byte	0
 2088 0947 0A       		.uleb128 0xa
 2089 0948 04       		.byte	0x4
 2090 0949 2E090000 		.4byte	0x92e
 2091 094d 19       		.uleb128 0x19
 2092 094e 21010000 		.4byte	0x121
 2093 0952 61090000 		.4byte	0x961
 2094 0956 0D       		.uleb128 0xd
 2095 0957 38030000 		.4byte	0x338
 2096 095b 0D       		.uleb128 0xd
 2097 095c 4D010000 		.4byte	0x14d
 2098 0960 00       		.byte	0
 2099 0961 0A       		.uleb128 0xa
 2100 0962 04       		.byte	0x4
 2101 0963 4D090000 		.4byte	0x94d
 2102 0967 19       		.uleb128 0x19
 2103 0968 28000000 		.4byte	0x28
 2104 096c 85090000 		.4byte	0x985
 2105 0970 0D       		.uleb128 0xd
 2106 0971 38030000 		.4byte	0x338
 2107 0975 0D       		.uleb128 0xd
 2108 0976 CF080000 		.4byte	0x8cf
 2109 097a 0D       		.uleb128 0xd
 2110 097b 28000000 		.4byte	0x28
 2111 097f 0D       		.uleb128 0xd
 2112 0980 4D010000 		.4byte	0x14d
 2113 0984 00       		.byte	0
 2114 0985 0A       		.uleb128 0xa
 2115 0986 04       		.byte	0x4
 2116 0987 67090000 		.4byte	0x967
 2117 098b 19       		.uleb128 0x19
 2118 098c 28000000 		.4byte	0x28
 2119 0990 A9090000 		.4byte	0x9a9
 2120 0994 0D       		.uleb128 0xd
 2121 0995 38030000 		.4byte	0x338
 2122 0999 0D       		.uleb128 0xd
 2123 099a 9A080000 		.4byte	0x89a
 2124 099e 0D       		.uleb128 0xd
 2125 099f 28000000 		.4byte	0x28
 2126 09a3 0D       		.uleb128 0xd
 2127 09a4 4D010000 		.4byte	0x14d
 2128 09a8 00       		.byte	0
 2129 09a9 0A       		.uleb128 0xa
 2130 09aa 04       		.byte	0x4
 2131 09ab 8B090000 		.4byte	0x98b
 2132 09af 04       		.uleb128 0x4
 2133 09b0 01       		.byte	0x1
 2134 09b1 02       		.byte	0x2
 2135 09b2 98050000 		.4byte	.LASF130
 2136 09b6 1A       		.uleb128 0x1a
 2137 09b7 01       		.byte	0x1
 2138 09b8 13       		.byte	0x13
 2139 09b9 55       		.byte	0x55
 2140 09ba D1090000 		.4byte	0x9d1
 2141 09be 1B       		.uleb128 0x1b
ARM GAS  /tmp/cce4XLMQ.s 			page 39


 2142 09bf 59060000 		.4byte	.LASF131
 2143 09c3 00       		.sleb128 0
 2144 09c4 1B       		.uleb128 0x1b
 2145 09c5 C9010000 		.4byte	.LASF132
 2146 09c9 01       		.sleb128 1
 2147 09ca 1B       		.uleb128 0x1b
 2148 09cb 69070000 		.4byte	.LASF133
 2149 09cf 02       		.sleb128 2
 2150 09d0 00       		.byte	0
 2151 09d1 03       		.uleb128 0x3
 2152 09d2 8F070000 		.4byte	.LASF134
 2153 09d6 13       		.byte	0x13
 2154 09d7 59       		.byte	0x59
 2155 09d8 B6090000 		.4byte	0x9b6
 2156 09dc 03       		.uleb128 0x3
 2157 09dd 8C060000 		.4byte	.LASF135
 2158 09e1 13       		.byte	0x13
 2159 09e2 5E       		.byte	0x5e
 2160 09e3 E7090000 		.4byte	0x9e7
 2161 09e7 06       		.uleb128 0x6
 2162 09e8 8C060000 		.4byte	.LASF135
 2163 09ec 78       		.byte	0x78
 2164 09ed 13       		.byte	0x13
 2165 09ee 78       		.byte	0x78
 2166 09ef 520A0000 		.4byte	0xa52
 2167 09f3 12       		.uleb128 0x12
 2168 09f4 766D7400 		.ascii	"vmt\000"
 2169 09f8 13       		.byte	0x13
 2170 09f9 7A       		.byte	0x7a
 2171 09fa 030B0000 		.4byte	0xb03
 2172 09fe 00       		.byte	0
 2173 09ff 07       		.uleb128 0x7
 2174 0a00 B2020000 		.4byte	.LASF136
 2175 0a04 13       		.byte	0x13
 2176 0a05 7B       		.byte	0x7b
 2177 0a06 F5070000 		.4byte	0x7f5
 2178 0a0a 04       		.byte	0x4
 2179 0a0b 07       		.uleb128 0x7
 2180 0a0c 89010000 		.4byte	.LASF137
 2181 0a10 13       		.byte	0x13
 2182 0a11 7B       		.byte	0x7b
 2183 0a12 D1090000 		.4byte	0x9d1
 2184 0a16 08       		.byte	0x8
 2185 0a17 07       		.uleb128 0x7
 2186 0a18 F8070000 		.4byte	.LASF138
 2187 0a1c 13       		.byte	0x13
 2188 0a1d 7B       		.byte	0x7b
 2189 0a1e A0080000 		.4byte	0x8a0
 2190 0a22 0C       		.byte	0xc
 2191 0a23 07       		.uleb128 0x7
 2192 0a24 F5020000 		.4byte	.LASF139
 2193 0a28 13       		.byte	0x13
 2194 0a29 7B       		.byte	0x7b
 2195 0a2a AB080000 		.4byte	0x8ab
 2196 0a2e 30       		.byte	0x30
 2197 0a2f 12       		.uleb128 0x12
 2198 0a30 696200   		.ascii	"ib\000"
ARM GAS  /tmp/cce4XLMQ.s 			page 40


 2199 0a33 13       		.byte	0x13
 2200 0a34 7B       		.byte	0x7b
 2201 0a35 0E0B0000 		.4byte	0xb0e
 2202 0a39 54       		.byte	0x54
 2203 0a3a 12       		.uleb128 0x12
 2204 0a3b 6F6200   		.ascii	"ob\000"
 2205 0a3e 13       		.byte	0x13
 2206 0a3f 7B       		.byte	0x7b
 2207 0a40 0E0B0000 		.4byte	0xb0e
 2208 0a44 64       		.byte	0x64
 2209 0a45 07       		.uleb128 0x7
 2210 0a46 48020000 		.4byte	.LASF140
 2211 0a4a 13       		.byte	0x13
 2212 0a4b 7B       		.byte	0x7b
 2213 0a4c 1E0B0000 		.4byte	0xb1e
 2214 0a50 74       		.byte	0x74
 2215 0a51 00       		.byte	0
 2216 0a52 13       		.uleb128 0x13
 2217 0a53 0C       		.byte	0xc
 2218 0a54 14       		.byte	0x14
 2219 0a55 D7       		.byte	0xd7
 2220 0a56 8B0A0000 		.4byte	0xa8b
 2221 0a5a 07       		.uleb128 0x7
 2222 0a5b 47030000 		.4byte	.LASF141
 2223 0a5f 14       		.byte	0x14
 2224 0a60 DB       		.byte	0xdb
 2225 0a61 CA000000 		.4byte	0xca
 2226 0a65 00       		.byte	0
 2227 0a66 12       		.uleb128 0x12
 2228 0a67 63723100 		.ascii	"cr1\000"
 2229 0a6b 14       		.byte	0x14
 2230 0a6c E0       		.byte	0xe0
 2231 0a6d B4000000 		.4byte	0xb4
 2232 0a71 04       		.byte	0x4
 2233 0a72 12       		.uleb128 0x12
 2234 0a73 63723200 		.ascii	"cr2\000"
 2235 0a77 14       		.byte	0x14
 2236 0a78 E4       		.byte	0xe4
 2237 0a79 B4000000 		.4byte	0xb4
 2238 0a7d 06       		.byte	0x6
 2239 0a7e 12       		.uleb128 0x12
 2240 0a7f 63723300 		.ascii	"cr3\000"
 2241 0a83 14       		.byte	0x14
 2242 0a84 E8       		.byte	0xe8
 2243 0a85 B4000000 		.4byte	0xb4
 2244 0a89 08       		.byte	0x8
 2245 0a8a 00       		.byte	0
 2246 0a8b 03       		.uleb128 0x3
 2247 0a8c 37050000 		.4byte	.LASF142
 2248 0a90 14       		.byte	0x14
 2249 0a91 E9       		.byte	0xe9
 2250 0a92 520A0000 		.4byte	0xa52
 2251 0a96 06       		.uleb128 0x6
 2252 0a97 6C020000 		.4byte	.LASF143
 2253 0a9b 20       		.byte	0x20
 2254 0a9c 13       		.byte	0x13
 2255 0a9d 6D       		.byte	0x6d
ARM GAS  /tmp/cce4XLMQ.s 			page 41


 2256 0a9e 030B0000 		.4byte	0xb03
 2257 0aa2 07       		.uleb128 0x7
 2258 0aa3 71030000 		.4byte	.LASF144
 2259 0aa7 13       		.byte	0x13
 2260 0aa8 6E       		.byte	0x6e
 2261 0aa9 DA080000 		.4byte	0x8da
 2262 0aad 00       		.byte	0
 2263 0aae 07       		.uleb128 0x7
 2264 0aaf AB060000 		.4byte	.LASF145
 2265 0ab3 13       		.byte	0x13
 2266 0ab4 6E       		.byte	0x6e
 2267 0ab5 F9080000 		.4byte	0x8f9
 2268 0ab9 04       		.byte	0x4
 2269 0aba 12       		.uleb128 0x12
 2270 0abb 70757400 		.ascii	"put\000"
 2271 0abf 13       		.byte	0x13
 2272 0ac0 6E       		.byte	0x6e
 2273 0ac1 13090000 		.4byte	0x913
 2274 0ac5 08       		.byte	0x8
 2275 0ac6 12       		.uleb128 0x12
 2276 0ac7 67657400 		.ascii	"get\000"
 2277 0acb 13       		.byte	0x13
 2278 0acc 6E       		.byte	0x6e
 2279 0acd 28090000 		.4byte	0x928
 2280 0ad1 0C       		.byte	0xc
 2281 0ad2 07       		.uleb128 0x7
 2282 0ad3 85030000 		.4byte	.LASF146
 2283 0ad7 13       		.byte	0x13
 2284 0ad8 6E       		.byte	0x6e
 2285 0ad9 47090000 		.4byte	0x947
 2286 0add 10       		.byte	0x10
 2287 0ade 07       		.uleb128 0x7
 2288 0adf A7020000 		.4byte	.LASF147
 2289 0ae3 13       		.byte	0x13
 2290 0ae4 6E       		.byte	0x6e
 2291 0ae5 61090000 		.4byte	0x961
 2292 0ae9 14       		.byte	0x14
 2293 0aea 07       		.uleb128 0x7
 2294 0aeb 1E030000 		.4byte	.LASF148
 2295 0aef 13       		.byte	0x13
 2296 0af0 6E       		.byte	0x6e
 2297 0af1 85090000 		.4byte	0x985
 2298 0af5 18       		.byte	0x18
 2299 0af6 07       		.uleb128 0x7
 2300 0af7 2A010000 		.4byte	.LASF149
 2301 0afb 13       		.byte	0x13
 2302 0afc 6E       		.byte	0x6e
 2303 0afd A9090000 		.4byte	0x9a9
 2304 0b01 1C       		.byte	0x1c
 2305 0b02 00       		.byte	0
 2306 0b03 0A       		.uleb128 0xa
 2307 0b04 04       		.byte	0x4
 2308 0b05 090B0000 		.4byte	0xb09
 2309 0b09 16       		.uleb128 0x16
 2310 0b0a 960A0000 		.4byte	0xa96
 2311 0b0e 17       		.uleb128 0x17
 2312 0b0f A9000000 		.4byte	0xa9
ARM GAS  /tmp/cce4XLMQ.s 			page 42


 2313 0b13 1E0B0000 		.4byte	0xb1e
 2314 0b17 18       		.uleb128 0x18
 2315 0b18 6E040000 		.4byte	0x46e
 2316 0b1c 0F       		.byte	0xf
 2317 0b1d 00       		.byte	0
 2318 0b1e 0A       		.uleb128 0xa
 2319 0b1f 04       		.byte	0x4
 2320 0b20 D8040000 		.4byte	0x4d8
 2321 0b24 1C       		.uleb128 0x1c
 2322 0b25 18070000 		.4byte	.LASF174
 2323 0b29 02       		.byte	0x2
 2324 0b2a 2002     		.2byte	0x220
 2325 0b2c 03       		.byte	0x3
 2326 0b2d 3E0B0000 		.4byte	0xb3e
 2327 0b31 1D       		.uleb128 0x1d
 2328 0b32 15020000 		.4byte	.LASF175
 2329 0b36 02       		.byte	0x2
 2330 0b37 2002     		.2byte	0x220
 2331 0b39 CA000000 		.4byte	0xca
 2332 0b3d 00       		.byte	0
 2333 0b3e 1E       		.uleb128 0x1e
 2334 0b3f 86000000 		.4byte	.LASF150
 2335 0b43 01       		.byte	0x1
 2336 0b44 BC01     		.2byte	0x1bc
 2337 0b46 00000000 		.4byte	.LFB116
 2338 0b4a 10000000 		.4byte	.LFE116-.LFB116
 2339 0b4e 01       		.uleb128 0x1
 2340 0b4f 9C       		.byte	0x9c
 2341 0b50 6E0B0000 		.4byte	0xb6e
 2342 0b54 1F       		.uleb128 0x1f
 2343 0b55 240B0000 		.4byte	0xb24
 2344 0b59 06000000 		.4byte	.LBB6
 2345 0b5d 06000000 		.4byte	.LBE6-.LBB6
 2346 0b61 01       		.byte	0x1
 2347 0b62 BF01     		.2byte	0x1bf
 2348 0b64 20       		.uleb128 0x20
 2349 0b65 310B0000 		.4byte	0xb31
 2350 0b69 02       		.uleb128 0x2
 2351 0b6a 91       		.byte	0x91
 2352 0b6b 7C       		.sleb128 -4
 2353 0b6c 00       		.byte	0
 2354 0b6d 00       		.byte	0
 2355 0b6e 1E       		.uleb128 0x1e
 2356 0b6f 7D010000 		.4byte	.LASF151
 2357 0b73 01       		.byte	0x1
 2358 0b74 CA01     		.2byte	0x1ca
 2359 0b76 00000000 		.4byte	.LFB117
 2360 0b7a 10000000 		.4byte	.LFE117-.LFB117
 2361 0b7e 01       		.uleb128 0x1
 2362 0b7f 9C       		.byte	0x9c
 2363 0b80 9E0B0000 		.4byte	0xb9e
 2364 0b84 1F       		.uleb128 0x1f
 2365 0b85 240B0000 		.4byte	0xb24
 2366 0b89 06000000 		.4byte	.LBB8
 2367 0b8d 06000000 		.4byte	.LBE8-.LBB8
 2368 0b91 01       		.byte	0x1
 2369 0b92 CD01     		.2byte	0x1cd
ARM GAS  /tmp/cce4XLMQ.s 			page 43


 2370 0b94 20       		.uleb128 0x20
 2371 0b95 310B0000 		.4byte	0xb31
 2372 0b99 02       		.uleb128 0x2
 2373 0b9a 91       		.byte	0x91
 2374 0b9b 7C       		.sleb128 -4
 2375 0b9c 00       		.byte	0
 2376 0b9d 00       		.byte	0
 2377 0b9e 21       		.uleb128 0x21
 2378 0b9f 12060000 		.4byte	.LASF154
 2379 0ba3 03       		.byte	0x3
 2380 0ba4 5A01     		.2byte	0x15a
 2381 0ba6 00000000 		.4byte	.LFB145
 2382 0baa 08000000 		.4byte	.LFE145-.LFB145
 2383 0bae 01       		.uleb128 0x1
 2384 0baf 9C       		.byte	0x9c
 2385 0bb0 22       		.uleb128 0x22
 2386 0bb1 0A080000 		.4byte	.LASF152
 2387 0bb5 03       		.byte	0x3
 2388 0bb6 6601     		.2byte	0x166
 2389 0bb8 00000000 		.4byte	.LFB146
 2390 0bbc 08000000 		.4byte	.LFE146-.LFB146
 2391 0bc0 01       		.uleb128 0x1
 2392 0bc1 9C       		.byte	0x9c
 2393 0bc2 D00B0000 		.4byte	0xbd0
 2394 0bc6 23       		.uleb128 0x23
 2395 0bc7 02060000 		.4byte	.LASF168
 2396 0bcb E00B0000 		.4byte	0xbe0
 2397 0bcf 00       		.byte	0
 2398 0bd0 17       		.uleb128 0x17
 2399 0bd1 4A070000 		.4byte	0x74a
 2400 0bd5 E00B0000 		.4byte	0xbe0
 2401 0bd9 18       		.uleb128 0x18
 2402 0bda 6E040000 		.4byte	0x46e
 2403 0bde 0B       		.byte	0xb
 2404 0bdf 00       		.byte	0
 2405 0be0 16       		.uleb128 0x16
 2406 0be1 D00B0000 		.4byte	0xbd0
 2407 0be5 24       		.uleb128 0x24
 2408 0be6 B8020000 		.4byte	.LASF153
 2409 0bea 04       		.byte	0x4
 2410 0beb AA       		.byte	0xaa
 2411 0bec 00000000 		.4byte	.LFB191
 2412 0bf0 0E000000 		.4byte	.LFE191-.LFB191
 2413 0bf4 01       		.uleb128 0x1
 2414 0bf5 9C       		.byte	0x9c
 2415 0bf6 090C0000 		.4byte	0xc09
 2416 0bfa 25       		.uleb128 0x25
 2417 0bfb 65737000 		.ascii	"esp\000"
 2418 0bff 04       		.byte	0x4
 2419 0c00 AA       		.byte	0xaa
 2420 0c01 090C0000 		.4byte	0xc09
 2421 0c05 02       		.uleb128 0x2
 2422 0c06 91       		.byte	0x91
 2423 0c07 7C       		.sleb128 -4
 2424 0c08 00       		.byte	0
 2425 0c09 0A       		.uleb128 0xa
 2426 0c0a 04       		.byte	0x4
ARM GAS  /tmp/cce4XLMQ.s 			page 44


 2427 0c0b F5070000 		.4byte	0x7f5
 2428 0c0f 26       		.uleb128 0x26
 2429 0c10 B0070000 		.4byte	.LASF161
 2430 0c14 05       		.byte	0x5
 2431 0c15 2F01     		.2byte	0x12f
 2432 0c17 AF090000 		.4byte	0x9af
 2433 0c1b 00000000 		.4byte	.LFB208
 2434 0c1f 18000000 		.4byte	.LFE208-.LFB208
 2435 0c23 01       		.uleb128 0x1
 2436 0c24 9C       		.byte	0x9c
 2437 0c25 390C0000 		.4byte	0xc39
 2438 0c29 27       		.uleb128 0x27
 2439 0c2a 69717000 		.ascii	"iqp\000"
 2440 0c2e 05       		.byte	0x5
 2441 0c2f 2F01     		.2byte	0x12f
 2442 0c31 390C0000 		.4byte	0xc39
 2443 0c35 02       		.uleb128 0x2
 2444 0c36 91       		.byte	0x91
 2445 0c37 7C       		.sleb128 -4
 2446 0c38 00       		.byte	0
 2447 0c39 0A       		.uleb128 0xa
 2448 0c3a 04       		.byte	0x4
 2449 0c3b A0080000 		.4byte	0x8a0
 2450 0c3f 21       		.uleb128 0x21
 2451 0c40 01020000 		.4byte	.LASF155
 2452 0c44 06       		.byte	0x6
 2453 0c45 BD01     		.2byte	0x1bd
 2454 0c47 00000000 		.4byte	.LFB220
 2455 0c4b 08000000 		.4byte	.LFE220-.LFB220
 2456 0c4f 01       		.uleb128 0x1
 2457 0c50 9C       		.byte	0x9c
 2458 0c51 21       		.uleb128 0x21
 2459 0c52 1C060000 		.4byte	.LASF156
 2460 0c56 06       		.byte	0x6
 2461 0c57 C801     		.2byte	0x1c8
 2462 0c59 00000000 		.4byte	.LFB221
 2463 0c5d 08000000 		.4byte	.LFE221-.LFB221
 2464 0c61 01       		.uleb128 0x1
 2465 0c62 9C       		.byte	0x9c
 2466 0c63 21       		.uleb128 0x21
 2467 0c64 4F050000 		.4byte	.LASF157
 2468 0c68 06       		.byte	0x6
 2469 0c69 2802     		.2byte	0x228
 2470 0c6b 00000000 		.4byte	.LFB228
 2471 0c6f 08000000 		.4byte	.LFE228-.LFB228
 2472 0c73 01       		.uleb128 0x1
 2473 0c74 9C       		.byte	0x9c
 2474 0c75 22       		.uleb128 0x22
 2475 0c76 61010000 		.4byte	.LASF158
 2476 0c7a 06       		.byte	0x6
 2477 0c7b 0703     		.2byte	0x307
 2478 0c7d 00000000 		.4byte	.LFB241
 2479 0c81 12000000 		.4byte	.LFE241-.LFB241
 2480 0c85 01       		.uleb128 0x1
 2481 0c86 9C       		.byte	0x9c
 2482 0c87 9B0C0000 		.4byte	0xc9b
 2483 0c8b 27       		.uleb128 0x27
ARM GAS  /tmp/cce4XLMQ.s 			page 45


 2484 0c8c 65737000 		.ascii	"esp\000"
 2485 0c90 06       		.byte	0x6
 2486 0c91 0703     		.2byte	0x307
 2487 0c93 090C0000 		.4byte	0xc09
 2488 0c97 02       		.uleb128 0x2
 2489 0c98 91       		.byte	0x91
 2490 0c99 74       		.sleb128 -12
 2491 0c9a 00       		.byte	0
 2492 0c9b 22       		.uleb128 0x22
 2493 0c9c A7000000 		.4byte	.LASF159
 2494 0ca0 06       		.byte	0x6
 2495 0ca1 1B03     		.2byte	0x31b
 2496 0ca3 00000000 		.4byte	.LFB242
 2497 0ca7 16000000 		.4byte	.LFE242-.LFB242
 2498 0cab 01       		.uleb128 0x1
 2499 0cac 9C       		.byte	0x9c
 2500 0cad D00C0000 		.4byte	0xcd0
 2501 0cb1 27       		.uleb128 0x27
 2502 0cb2 65737000 		.ascii	"esp\000"
 2503 0cb6 06       		.byte	0x6
 2504 0cb7 1B03     		.2byte	0x31b
 2505 0cb9 090C0000 		.4byte	0xc09
 2506 0cbd 02       		.uleb128 0x2
 2507 0cbe 91       		.byte	0x91
 2508 0cbf 74       		.sleb128 -12
 2509 0cc0 28       		.uleb128 0x28
 2510 0cc1 E3070000 		.4byte	.LASF160
 2511 0cc5 06       		.byte	0x6
 2512 0cc6 1C03     		.2byte	0x31c
 2513 0cc8 37010000 		.4byte	0x137
 2514 0ccc 02       		.uleb128 0x2
 2515 0ccd 91       		.byte	0x91
 2516 0cce 70       		.sleb128 -16
 2517 0ccf 00       		.byte	0
 2518 0cd0 29       		.uleb128 0x29
 2519 0cd1 71030000 		.4byte	.LASF144
 2520 0cd5 07       		.byte	0x7
 2521 0cd6 32       		.byte	0x32
 2522 0cd7 28000000 		.4byte	0x28
 2523 0cdb 00000000 		.4byte	.LFB253
 2524 0cdf 26000000 		.4byte	.LFE253-.LFB253
 2525 0ce3 01       		.uleb128 0x1
 2526 0ce4 9C       		.byte	0x9c
 2527 0ce5 100D0000 		.4byte	0xd10
 2528 0ce9 25       		.uleb128 0x25
 2529 0cea 697000   		.ascii	"ip\000"
 2530 0ced 07       		.byte	0x7
 2531 0cee 32       		.byte	0x32
 2532 0cef 38030000 		.4byte	0x338
 2533 0cf3 02       		.uleb128 0x2
 2534 0cf4 91       		.byte	0x91
 2535 0cf5 74       		.sleb128 -12
 2536 0cf6 25       		.uleb128 0x25
 2537 0cf7 627000   		.ascii	"bp\000"
 2538 0cfa 07       		.byte	0x7
 2539 0cfb 32       		.byte	0x32
 2540 0cfc CF080000 		.4byte	0x8cf
ARM GAS  /tmp/cce4XLMQ.s 			page 46


 2541 0d00 02       		.uleb128 0x2
 2542 0d01 91       		.byte	0x91
 2543 0d02 70       		.sleb128 -16
 2544 0d03 25       		.uleb128 0x25
 2545 0d04 6E00     		.ascii	"n\000"
 2546 0d06 07       		.byte	0x7
 2547 0d07 32       		.byte	0x32
 2548 0d08 28000000 		.4byte	0x28
 2549 0d0c 02       		.uleb128 0x2
 2550 0d0d 91       		.byte	0x91
 2551 0d0e 6C       		.sleb128 -20
 2552 0d0f 00       		.byte	0
 2553 0d10 29       		.uleb128 0x29
 2554 0d11 AB060000 		.4byte	.LASF145
 2555 0d15 07       		.byte	0x7
 2556 0d16 38       		.byte	0x38
 2557 0d17 28000000 		.4byte	0x28
 2558 0d1b 00000000 		.4byte	.LFB254
 2559 0d1f 26000000 		.4byte	.LFE254-.LFB254
 2560 0d23 01       		.uleb128 0x1
 2561 0d24 9C       		.byte	0x9c
 2562 0d25 500D0000 		.4byte	0xd50
 2563 0d29 25       		.uleb128 0x25
 2564 0d2a 697000   		.ascii	"ip\000"
 2565 0d2d 07       		.byte	0x7
 2566 0d2e 38       		.byte	0x38
 2567 0d2f 38030000 		.4byte	0x338
 2568 0d33 02       		.uleb128 0x2
 2569 0d34 91       		.byte	0x91
 2570 0d35 74       		.sleb128 -12
 2571 0d36 25       		.uleb128 0x25
 2572 0d37 627000   		.ascii	"bp\000"
 2573 0d3a 07       		.byte	0x7
 2574 0d3b 38       		.byte	0x38
 2575 0d3c 9A080000 		.4byte	0x89a
 2576 0d40 02       		.uleb128 0x2
 2577 0d41 91       		.byte	0x91
 2578 0d42 70       		.sleb128 -16
 2579 0d43 25       		.uleb128 0x25
 2580 0d44 6E00     		.ascii	"n\000"
 2581 0d46 07       		.byte	0x7
 2582 0d47 38       		.byte	0x38
 2583 0d48 28000000 		.4byte	0x28
 2584 0d4c 02       		.uleb128 0x2
 2585 0d4d 91       		.byte	0x91
 2586 0d4e 6C       		.sleb128 -20
 2587 0d4f 00       		.byte	0
 2588 0d50 2A       		.uleb128 0x2a
 2589 0d51 70757400 		.ascii	"put\000"
 2590 0d55 07       		.byte	0x7
 2591 0d56 3E       		.byte	0x3e
 2592 0d57 21010000 		.4byte	0x121
 2593 0d5b 00000000 		.4byte	.LFB255
 2594 0d5f 2C000000 		.4byte	.LFE255-.LFB255
 2595 0d63 01       		.uleb128 0x1
 2596 0d64 9C       		.byte	0x9c
 2597 0d65 830D0000 		.4byte	0xd83
ARM GAS  /tmp/cce4XLMQ.s 			page 47


 2598 0d69 25       		.uleb128 0x25
 2599 0d6a 697000   		.ascii	"ip\000"
 2600 0d6d 07       		.byte	0x7
 2601 0d6e 3E       		.byte	0x3e
 2602 0d6f 38030000 		.4byte	0x338
 2603 0d73 02       		.uleb128 0x2
 2604 0d74 91       		.byte	0x91
 2605 0d75 74       		.sleb128 -12
 2606 0d76 25       		.uleb128 0x25
 2607 0d77 6200     		.ascii	"b\000"
 2608 0d79 07       		.byte	0x7
 2609 0d7a 3E       		.byte	0x3e
 2610 0d7b A9000000 		.4byte	0xa9
 2611 0d7f 02       		.uleb128 0x2
 2612 0d80 91       		.byte	0x91
 2613 0d81 73       		.sleb128 -13
 2614 0d82 00       		.byte	0
 2615 0d83 2A       		.uleb128 0x2a
 2616 0d84 67657400 		.ascii	"get\000"
 2617 0d88 07       		.byte	0x7
 2618 0d89 43       		.byte	0x43
 2619 0d8a 21010000 		.4byte	0x121
 2620 0d8e 00000000 		.4byte	.LFB256
 2621 0d92 1E000000 		.4byte	.LFE256-.LFB256
 2622 0d96 01       		.uleb128 0x1
 2623 0d97 9C       		.byte	0x9c
 2624 0d98 AA0D0000 		.4byte	0xdaa
 2625 0d9c 25       		.uleb128 0x25
 2626 0d9d 697000   		.ascii	"ip\000"
 2627 0da0 07       		.byte	0x7
 2628 0da1 43       		.byte	0x43
 2629 0da2 38030000 		.4byte	0x338
 2630 0da6 02       		.uleb128 0x2
 2631 0da7 91       		.byte	0x91
 2632 0da8 74       		.sleb128 -12
 2633 0da9 00       		.byte	0
 2634 0daa 29       		.uleb128 0x29
 2635 0dab 85030000 		.4byte	.LASF146
 2636 0daf 07       		.byte	0x7
 2637 0db0 48       		.byte	0x48
 2638 0db1 21010000 		.4byte	0x121
 2639 0db5 00000000 		.4byte	.LFB257
 2640 0db9 2C000000 		.4byte	.LFE257-.LFB257
 2641 0dbd 01       		.uleb128 0x1
 2642 0dbe 9C       		.byte	0x9c
 2643 0dbf EB0D0000 		.4byte	0xdeb
 2644 0dc3 25       		.uleb128 0x25
 2645 0dc4 697000   		.ascii	"ip\000"
 2646 0dc7 07       		.byte	0x7
 2647 0dc8 48       		.byte	0x48
 2648 0dc9 38030000 		.4byte	0x338
 2649 0dcd 02       		.uleb128 0x2
 2650 0dce 91       		.byte	0x91
 2651 0dcf 74       		.sleb128 -12
 2652 0dd0 25       		.uleb128 0x25
 2653 0dd1 6200     		.ascii	"b\000"
 2654 0dd3 07       		.byte	0x7
ARM GAS  /tmp/cce4XLMQ.s 			page 48


 2655 0dd4 48       		.byte	0x48
 2656 0dd5 A9000000 		.4byte	0xa9
 2657 0dd9 02       		.uleb128 0x2
 2658 0dda 91       		.byte	0x91
 2659 0ddb 73       		.sleb128 -13
 2660 0ddc 2B       		.uleb128 0x2b
 2661 0ddd 9F020000 		.4byte	.LASF162
 2662 0de1 07       		.byte	0x7
 2663 0de2 48       		.byte	0x48
 2664 0de3 4D010000 		.4byte	0x14d
 2665 0de7 02       		.uleb128 0x2
 2666 0de8 91       		.byte	0x91
 2667 0de9 6C       		.sleb128 -20
 2668 0dea 00       		.byte	0
 2669 0deb 29       		.uleb128 0x29
 2670 0dec A7020000 		.4byte	.LASF147
 2671 0df0 07       		.byte	0x7
 2672 0df1 4D       		.byte	0x4d
 2673 0df2 21010000 		.4byte	0x121
 2674 0df6 00000000 		.4byte	.LFB258
 2675 0dfa 1E000000 		.4byte	.LFE258-.LFB258
 2676 0dfe 01       		.uleb128 0x1
 2677 0dff 9C       		.byte	0x9c
 2678 0e00 200E0000 		.4byte	0xe20
 2679 0e04 25       		.uleb128 0x25
 2680 0e05 697000   		.ascii	"ip\000"
 2681 0e08 07       		.byte	0x7
 2682 0e09 4D       		.byte	0x4d
 2683 0e0a 38030000 		.4byte	0x338
 2684 0e0e 02       		.uleb128 0x2
 2685 0e0f 91       		.byte	0x91
 2686 0e10 74       		.sleb128 -12
 2687 0e11 2B       		.uleb128 0x2b
 2688 0e12 9F020000 		.4byte	.LASF162
 2689 0e16 07       		.byte	0x7
 2690 0e17 4D       		.byte	0x4d
 2691 0e18 4D010000 		.4byte	0x14d
 2692 0e1c 02       		.uleb128 0x2
 2693 0e1d 91       		.byte	0x91
 2694 0e1e 70       		.sleb128 -16
 2695 0e1f 00       		.byte	0
 2696 0e20 29       		.uleb128 0x29
 2697 0e21 1E030000 		.4byte	.LASF148
 2698 0e25 07       		.byte	0x7
 2699 0e26 52       		.byte	0x52
 2700 0e27 28000000 		.4byte	0x28
 2701 0e2b 00000000 		.4byte	.LFB259
 2702 0e2f 26000000 		.4byte	.LFE259-.LFB259
 2703 0e33 01       		.uleb128 0x1
 2704 0e34 9C       		.byte	0x9c
 2705 0e35 6E0E0000 		.4byte	0xe6e
 2706 0e39 25       		.uleb128 0x25
 2707 0e3a 697000   		.ascii	"ip\000"
 2708 0e3d 07       		.byte	0x7
 2709 0e3e 52       		.byte	0x52
 2710 0e3f 38030000 		.4byte	0x338
 2711 0e43 02       		.uleb128 0x2
ARM GAS  /tmp/cce4XLMQ.s 			page 49


 2712 0e44 91       		.byte	0x91
 2713 0e45 74       		.sleb128 -12
 2714 0e46 25       		.uleb128 0x25
 2715 0e47 627000   		.ascii	"bp\000"
 2716 0e4a 07       		.byte	0x7
 2717 0e4b 52       		.byte	0x52
 2718 0e4c CF080000 		.4byte	0x8cf
 2719 0e50 02       		.uleb128 0x2
 2720 0e51 91       		.byte	0x91
 2721 0e52 70       		.sleb128 -16
 2722 0e53 25       		.uleb128 0x25
 2723 0e54 6E00     		.ascii	"n\000"
 2724 0e56 07       		.byte	0x7
 2725 0e57 52       		.byte	0x52
 2726 0e58 28000000 		.4byte	0x28
 2727 0e5c 02       		.uleb128 0x2
 2728 0e5d 91       		.byte	0x91
 2729 0e5e 6C       		.sleb128 -20
 2730 0e5f 2B       		.uleb128 0x2b
 2731 0e60 9F020000 		.4byte	.LASF162
 2732 0e64 07       		.byte	0x7
 2733 0e65 52       		.byte	0x52
 2734 0e66 4D010000 		.4byte	0x14d
 2735 0e6a 02       		.uleb128 0x2
 2736 0e6b 91       		.byte	0x91
 2737 0e6c 68       		.sleb128 -24
 2738 0e6d 00       		.byte	0
 2739 0e6e 29       		.uleb128 0x29
 2740 0e6f 2A010000 		.4byte	.LASF149
 2741 0e73 07       		.byte	0x7
 2742 0e74 57       		.byte	0x57
 2743 0e75 28000000 		.4byte	0x28
 2744 0e79 00000000 		.4byte	.LFB260
 2745 0e7d 26000000 		.4byte	.LFE260-.LFB260
 2746 0e81 01       		.uleb128 0x1
 2747 0e82 9C       		.byte	0x9c
 2748 0e83 BC0E0000 		.4byte	0xebc
 2749 0e87 25       		.uleb128 0x25
 2750 0e88 697000   		.ascii	"ip\000"
 2751 0e8b 07       		.byte	0x7
 2752 0e8c 57       		.byte	0x57
 2753 0e8d 38030000 		.4byte	0x338
 2754 0e91 02       		.uleb128 0x2
 2755 0e92 91       		.byte	0x91
 2756 0e93 74       		.sleb128 -12
 2757 0e94 25       		.uleb128 0x25
 2758 0e95 627000   		.ascii	"bp\000"
 2759 0e98 07       		.byte	0x7
 2760 0e99 57       		.byte	0x57
 2761 0e9a 9A080000 		.4byte	0x89a
 2762 0e9e 02       		.uleb128 0x2
 2763 0e9f 91       		.byte	0x91
 2764 0ea0 70       		.sleb128 -16
 2765 0ea1 25       		.uleb128 0x25
 2766 0ea2 6E00     		.ascii	"n\000"
 2767 0ea4 07       		.byte	0x7
 2768 0ea5 57       		.byte	0x57
ARM GAS  /tmp/cce4XLMQ.s 			page 50


 2769 0ea6 28000000 		.4byte	0x28
 2770 0eaa 02       		.uleb128 0x2
 2771 0eab 91       		.byte	0x91
 2772 0eac 6C       		.sleb128 -20
 2773 0ead 2B       		.uleb128 0x2b
 2774 0eae 9F020000 		.4byte	.LASF162
 2775 0eb2 07       		.byte	0x7
 2776 0eb3 57       		.byte	0x57
 2777 0eb4 4D010000 		.4byte	0x14d
 2778 0eb8 02       		.uleb128 0x2
 2779 0eb9 91       		.byte	0x91
 2780 0eba 68       		.sleb128 -24
 2781 0ebb 00       		.byte	0
 2782 0ebc 2C       		.uleb128 0x2c
 2783 0ebd 1C080000 		.4byte	.LASF176
 2784 0ec1 07       		.byte	0x7
 2785 0ec2 6C       		.byte	0x6c
 2786 0ec3 00000000 		.4byte	.LFB261
 2787 0ec7 08000000 		.4byte	.LFE261-.LFB261
 2788 0ecb 01       		.uleb128 0x1
 2789 0ecc 9C       		.byte	0x9c
 2790 0ecd 2D       		.uleb128 0x2d
 2791 0ece 1D010000 		.4byte	.LASF165
 2792 0ed2 07       		.byte	0x7
 2793 0ed3 80       		.byte	0x80
 2794 0ed4 00000000 		.4byte	.LFB262
 2795 0ed8 64000000 		.4byte	.LFE262-.LFB262
 2796 0edc 01       		.uleb128 0x1
 2797 0edd 9C       		.byte	0x9c
 2798 0ede 0D0F0000 		.4byte	0xf0d
 2799 0ee2 25       		.uleb128 0x25
 2800 0ee3 73647000 		.ascii	"sdp\000"
 2801 0ee7 07       		.byte	0x7
 2802 0ee8 80       		.byte	0x80
 2803 0ee9 0D0F0000 		.4byte	0xf0d
 2804 0eed 02       		.uleb128 0x2
 2805 0eee 91       		.byte	0x91
 2806 0eef 74       		.sleb128 -12
 2807 0ef0 2B       		.uleb128 0x2b
 2808 0ef1 7C020000 		.4byte	.LASF163
 2809 0ef5 07       		.byte	0x7
 2810 0ef6 80       		.byte	0x80
 2811 0ef7 78080000 		.4byte	0x878
 2812 0efb 02       		.uleb128 0x2
 2813 0efc 91       		.byte	0x91
 2814 0efd 70       		.sleb128 -16
 2815 0efe 2B       		.uleb128 0x2b
 2816 0eff E9070000 		.4byte	.LASF164
 2817 0f03 07       		.byte	0x7
 2818 0f04 80       		.byte	0x80
 2819 0f05 78080000 		.4byte	0x878
 2820 0f09 02       		.uleb128 0x2
 2821 0f0a 91       		.byte	0x91
 2822 0f0b 6C       		.sleb128 -20
 2823 0f0c 00       		.byte	0
 2824 0f0d 0A       		.uleb128 0xa
 2825 0f0e 04       		.byte	0x4
ARM GAS  /tmp/cce4XLMQ.s 			page 51


 2826 0f0f DC090000 		.4byte	0x9dc
 2827 0f13 2D       		.uleb128 0x2d
 2828 0f14 CC060000 		.4byte	.LASF166
 2829 0f18 07       		.byte	0x7
 2830 0f19 93       		.byte	0x93
 2831 0f1a 00000000 		.4byte	.LFB263
 2832 0f1e 24000000 		.4byte	.LFE263-.LFB263
 2833 0f22 01       		.uleb128 0x1
 2834 0f23 9C       		.byte	0x9c
 2835 0f24 4E0F0000 		.4byte	0xf4e
 2836 0f28 25       		.uleb128 0x25
 2837 0f29 73647000 		.ascii	"sdp\000"
 2838 0f2d 07       		.byte	0x7
 2839 0f2e 93       		.byte	0x93
 2840 0f2f 0D0F0000 		.4byte	0xf0d
 2841 0f33 02       		.uleb128 0x2
 2842 0f34 91       		.byte	0x91
 2843 0f35 74       		.sleb128 -12
 2844 0f36 2B       		.uleb128 0x2b
 2845 0f37 C5060000 		.4byte	.LASF167
 2846 0f3b 07       		.byte	0x7
 2847 0f3c 93       		.byte	0x93
 2848 0f3d 4E0F0000 		.4byte	0xf4e
 2849 0f41 02       		.uleb128 0x2
 2850 0f42 91       		.byte	0x91
 2851 0f43 70       		.sleb128 -16
 2852 0f44 23       		.uleb128 0x23
 2853 0f45 02060000 		.4byte	.LASF168
 2854 0f49 690F0000 		.4byte	0xf69
 2855 0f4d 00       		.byte	0
 2856 0f4e 0A       		.uleb128 0xa
 2857 0f4f 04       		.byte	0x4
 2858 0f50 540F0000 		.4byte	0xf54
 2859 0f54 16       		.uleb128 0x16
 2860 0f55 8B0A0000 		.4byte	0xa8b
 2861 0f59 17       		.uleb128 0x17
 2862 0f5a 4A070000 		.4byte	0x74a
 2863 0f5e 690F0000 		.4byte	0xf69
 2864 0f62 18       		.uleb128 0x18
 2865 0f63 6E040000 		.4byte	0x46e
 2866 0f67 07       		.byte	0x7
 2867 0f68 00       		.byte	0
 2868 0f69 16       		.uleb128 0x16
 2869 0f6a 590F0000 		.4byte	0xf59
 2870 0f6e 2D       		.uleb128 0x2d
 2871 0f6f 0D050000 		.4byte	.LASF169
 2872 0f73 07       		.byte	0x7
 2873 0f74 A8       		.byte	0xa8
 2874 0f75 00000000 		.4byte	.LFB264
 2875 0f79 38000000 		.4byte	.LFE264-.LFB264
 2876 0f7d 01       		.uleb128 0x1
 2877 0f7e 9C       		.byte	0x9c
 2878 0f7f 9B0F0000 		.4byte	0xf9b
 2879 0f83 25       		.uleb128 0x25
 2880 0f84 73647000 		.ascii	"sdp\000"
 2881 0f88 07       		.byte	0x7
 2882 0f89 A8       		.byte	0xa8
ARM GAS  /tmp/cce4XLMQ.s 			page 52


 2883 0f8a 0D0F0000 		.4byte	0xf0d
 2884 0f8e 02       		.uleb128 0x2
 2885 0f8f 91       		.byte	0x91
 2886 0f90 74       		.sleb128 -12
 2887 0f91 23       		.uleb128 0x23
 2888 0f92 02060000 		.4byte	.LASF168
 2889 0f96 AB0F0000 		.4byte	0xfab
 2890 0f9a 00       		.byte	0
 2891 0f9b 17       		.uleb128 0x17
 2892 0f9c 4A070000 		.4byte	0x74a
 2893 0fa0 AB0F0000 		.4byte	0xfab
 2894 0fa4 18       		.uleb128 0x18
 2895 0fa5 6E040000 		.4byte	0x46e
 2896 0fa9 06       		.byte	0x6
 2897 0faa 00       		.byte	0
 2898 0fab 16       		.uleb128 0x16
 2899 0fac 9B0F0000 		.4byte	0xf9b
 2900 0fb0 2D       		.uleb128 0x2d
 2901 0fb1 B5060000 		.4byte	.LASF170
 2902 0fb5 07       		.byte	0x7
 2903 0fb6 C7       		.byte	0xc7
 2904 0fb7 00000000 		.4byte	.LFB265
 2905 0fbb 52000000 		.4byte	.LFE265-.LFB265
 2906 0fbf 01       		.uleb128 0x1
 2907 0fc0 9C       		.byte	0x9c
 2908 0fc1 E90F0000 		.4byte	0xfe9
 2909 0fc5 25       		.uleb128 0x25
 2910 0fc6 73647000 		.ascii	"sdp\000"
 2911 0fca 07       		.byte	0x7
 2912 0fcb C7       		.byte	0xc7
 2913 0fcc 0D0F0000 		.4byte	0xf0d
 2914 0fd0 02       		.uleb128 0x2
 2915 0fd1 91       		.byte	0x91
 2916 0fd2 74       		.sleb128 -12
 2917 0fd3 25       		.uleb128 0x25
 2918 0fd4 6200     		.ascii	"b\000"
 2919 0fd6 07       		.byte	0x7
 2920 0fd7 C7       		.byte	0xc7
 2921 0fd8 A9000000 		.4byte	0xa9
 2922 0fdc 02       		.uleb128 0x2
 2923 0fdd 91       		.byte	0x91
 2924 0fde 73       		.sleb128 -13
 2925 0fdf 23       		.uleb128 0x23
 2926 0fe0 02060000 		.4byte	.LASF168
 2927 0fe4 F90F0000 		.4byte	0xff9
 2928 0fe8 00       		.byte	0
 2929 0fe9 17       		.uleb128 0x17
 2930 0fea 4A070000 		.4byte	0x74a
 2931 0fee F90F0000 		.4byte	0xff9
 2932 0ff2 18       		.uleb128 0x18
 2933 0ff3 6E040000 		.4byte	0x46e
 2934 0ff7 0F       		.byte	0xf
 2935 0ff8 00       		.byte	0
 2936 0ff9 16       		.uleb128 0x16
 2937 0ffa E90F0000 		.4byte	0xfe9
 2938 0ffe 2E       		.uleb128 0x2e
 2939 0fff CC070000 		.4byte	.LASF177
ARM GAS  /tmp/cce4XLMQ.s 			page 53


 2940 1003 07       		.byte	0x7
 2941 1004 E1       		.byte	0xe1
 2942 1005 21010000 		.4byte	0x121
 2943 1009 00000000 		.4byte	.LFB266
 2944 100d 2E000000 		.4byte	.LFE266-.LFB266
 2945 1011 01       		.uleb128 0x1
 2946 1012 9C       		.byte	0x9c
 2947 1013 3B100000 		.4byte	0x103b
 2948 1017 25       		.uleb128 0x25
 2949 1018 73647000 		.ascii	"sdp\000"
 2950 101c 07       		.byte	0x7
 2951 101d E1       		.byte	0xe1
 2952 101e 0D0F0000 		.4byte	0xf0d
 2953 1022 02       		.uleb128 0x2
 2954 1023 91       		.byte	0x91
 2955 1024 6C       		.sleb128 -20
 2956 1025 2F       		.uleb128 0x2f
 2957 1026 6200     		.ascii	"b\000"
 2958 1028 07       		.byte	0x7
 2959 1029 E2       		.byte	0xe2
 2960 102a 21010000 		.4byte	0x121
 2961 102e 02       		.uleb128 0x2
 2962 102f 91       		.byte	0x91
 2963 1030 74       		.sleb128 -12
 2964 1031 23       		.uleb128 0x23
 2965 1032 02060000 		.4byte	.LASF168
 2966 1036 4B100000 		.4byte	0x104b
 2967 103a 00       		.byte	0
 2968 103b 17       		.uleb128 0x17
 2969 103c 4A070000 		.4byte	0x74a
 2970 1040 4B100000 		.4byte	0x104b
 2971 1044 18       		.uleb128 0x18
 2972 1045 6E040000 		.4byte	0x46e
 2973 1049 0E       		.byte	0xe
 2974 104a 00       		.byte	0
 2975 104b 16       		.uleb128 0x16
 2976 104c 3B100000 		.4byte	0x103b
 2977 1050 2F       		.uleb128 0x2f
 2978 1051 766D7400 		.ascii	"vmt\000"
 2979 1055 07       		.byte	0x7
 2980 1056 5C       		.byte	0x5c
 2981 1057 090B0000 		.4byte	0xb09
 2982 105b 05       		.uleb128 0x5
 2983 105c 03       		.byte	0x3
 2984 105d 00000000 		.4byte	vmt
 2985 1061 30       		.uleb128 0x30
 2986 1062 F4000000 		.4byte	.LASF171
 2987 1066 15       		.byte	0x15
 2988 1067 A706     		.2byte	0x6a7
 2989 1069 E0000000 		.4byte	0xe0
 2990 106d 31       		.uleb128 0x31
 2991 106e 636800   		.ascii	"ch\000"
 2992 1071 0D       		.byte	0xd
 2993 1072 0902     		.2byte	0x209
 2994 1074 07040000 		.4byte	0x407
 2995 1078 00       		.byte	0
 2996              		.section	.debug_abbrev,"",%progbits
ARM GAS  /tmp/cce4XLMQ.s 			page 54


 2997              	.Ldebug_abbrev0:
 2998 0000 01       		.uleb128 0x1
 2999 0001 11       		.uleb128 0x11
 3000 0002 01       		.byte	0x1
 3001 0003 25       		.uleb128 0x25
 3002 0004 0E       		.uleb128 0xe
 3003 0005 13       		.uleb128 0x13
 3004 0006 0B       		.uleb128 0xb
 3005 0007 03       		.uleb128 0x3
 3006 0008 0E       		.uleb128 0xe
 3007 0009 55       		.uleb128 0x55
 3008 000a 17       		.uleb128 0x17
 3009 000b 11       		.uleb128 0x11
 3010 000c 01       		.uleb128 0x1
 3011 000d 10       		.uleb128 0x10
 3012 000e 17       		.uleb128 0x17
 3013 000f 00       		.byte	0
 3014 0010 00       		.byte	0
 3015 0011 02       		.uleb128 0x2
 3016 0012 24       		.uleb128 0x24
 3017 0013 00       		.byte	0
 3018 0014 0B       		.uleb128 0xb
 3019 0015 0B       		.uleb128 0xb
 3020 0016 3E       		.uleb128 0x3e
 3021 0017 0B       		.uleb128 0xb
 3022 0018 03       		.uleb128 0x3
 3023 0019 08       		.uleb128 0x8
 3024 001a 00       		.byte	0
 3025 001b 00       		.byte	0
 3026 001c 03       		.uleb128 0x3
 3027 001d 16       		.uleb128 0x16
 3028 001e 00       		.byte	0
 3029 001f 03       		.uleb128 0x3
 3030 0020 0E       		.uleb128 0xe
 3031 0021 3A       		.uleb128 0x3a
 3032 0022 0B       		.uleb128 0xb
 3033 0023 3B       		.uleb128 0x3b
 3034 0024 0B       		.uleb128 0xb
 3035 0025 49       		.uleb128 0x49
 3036 0026 13       		.uleb128 0x13
 3037 0027 00       		.byte	0
 3038 0028 00       		.byte	0
 3039 0029 04       		.uleb128 0x4
 3040 002a 24       		.uleb128 0x24
 3041 002b 00       		.byte	0
 3042 002c 0B       		.uleb128 0xb
 3043 002d 0B       		.uleb128 0xb
 3044 002e 3E       		.uleb128 0x3e
 3045 002f 0B       		.uleb128 0xb
 3046 0030 03       		.uleb128 0x3
 3047 0031 0E       		.uleb128 0xe
 3048 0032 00       		.byte	0
 3049 0033 00       		.byte	0
 3050 0034 05       		.uleb128 0x5
 3051 0035 35       		.uleb128 0x35
 3052 0036 00       		.byte	0
 3053 0037 49       		.uleb128 0x49
ARM GAS  /tmp/cce4XLMQ.s 			page 55


 3054 0038 13       		.uleb128 0x13
 3055 0039 00       		.byte	0
 3056 003a 00       		.byte	0
 3057 003b 06       		.uleb128 0x6
 3058 003c 13       		.uleb128 0x13
 3059 003d 01       		.byte	0x1
 3060 003e 03       		.uleb128 0x3
 3061 003f 0E       		.uleb128 0xe
 3062 0040 0B       		.uleb128 0xb
 3063 0041 0B       		.uleb128 0xb
 3064 0042 3A       		.uleb128 0x3a
 3065 0043 0B       		.uleb128 0xb
 3066 0044 3B       		.uleb128 0x3b
 3067 0045 0B       		.uleb128 0xb
 3068 0046 01       		.uleb128 0x1
 3069 0047 13       		.uleb128 0x13
 3070 0048 00       		.byte	0
 3071 0049 00       		.byte	0
 3072 004a 07       		.uleb128 0x7
 3073 004b 0D       		.uleb128 0xd
 3074 004c 00       		.byte	0
 3075 004d 03       		.uleb128 0x3
 3076 004e 0E       		.uleb128 0xe
 3077 004f 3A       		.uleb128 0x3a
 3078 0050 0B       		.uleb128 0xb
 3079 0051 3B       		.uleb128 0x3b
 3080 0052 0B       		.uleb128 0xb
 3081 0053 49       		.uleb128 0x49
 3082 0054 13       		.uleb128 0x13
 3083 0055 38       		.uleb128 0x38
 3084 0056 0B       		.uleb128 0xb
 3085 0057 00       		.byte	0
 3086 0058 00       		.byte	0
 3087 0059 08       		.uleb128 0x8
 3088 005a 0D       		.uleb128 0xd
 3089 005b 00       		.byte	0
 3090 005c 03       		.uleb128 0x3
 3091 005d 08       		.uleb128 0x8
 3092 005e 3A       		.uleb128 0x3a
 3093 005f 0B       		.uleb128 0xb
 3094 0060 3B       		.uleb128 0x3b
 3095 0061 05       		.uleb128 0x5
 3096 0062 49       		.uleb128 0x49
 3097 0063 13       		.uleb128 0x13
 3098 0064 38       		.uleb128 0x38
 3099 0065 0B       		.uleb128 0xb
 3100 0066 00       		.byte	0
 3101 0067 00       		.byte	0
 3102 0068 09       		.uleb128 0x9
 3103 0069 0D       		.uleb128 0xd
 3104 006a 00       		.byte	0
 3105 006b 03       		.uleb128 0x3
 3106 006c 0E       		.uleb128 0xe
 3107 006d 3A       		.uleb128 0x3a
 3108 006e 0B       		.uleb128 0xb
 3109 006f 3B       		.uleb128 0x3b
 3110 0070 05       		.uleb128 0x5
ARM GAS  /tmp/cce4XLMQ.s 			page 56


 3111 0071 49       		.uleb128 0x49
 3112 0072 13       		.uleb128 0x13
 3113 0073 38       		.uleb128 0x38
 3114 0074 0B       		.uleb128 0xb
 3115 0075 00       		.byte	0
 3116 0076 00       		.byte	0
 3117 0077 0A       		.uleb128 0xa
 3118 0078 0F       		.uleb128 0xf
 3119 0079 00       		.byte	0
 3120 007a 0B       		.uleb128 0xb
 3121 007b 0B       		.uleb128 0xb
 3122 007c 49       		.uleb128 0x49
 3123 007d 13       		.uleb128 0x13
 3124 007e 00       		.byte	0
 3125 007f 00       		.byte	0
 3126 0080 0B       		.uleb128 0xb
 3127 0081 13       		.uleb128 0x13
 3128 0082 01       		.byte	0x1
 3129 0083 03       		.uleb128 0x3
 3130 0084 0E       		.uleb128 0xe
 3131 0085 0B       		.uleb128 0xb
 3132 0086 0B       		.uleb128 0xb
 3133 0087 3A       		.uleb128 0x3a
 3134 0088 0B       		.uleb128 0xb
 3135 0089 3B       		.uleb128 0x3b
 3136 008a 05       		.uleb128 0x5
 3137 008b 01       		.uleb128 0x1
 3138 008c 13       		.uleb128 0x13
 3139 008d 00       		.byte	0
 3140 008e 00       		.byte	0
 3141 008f 0C       		.uleb128 0xc
 3142 0090 15       		.uleb128 0x15
 3143 0091 01       		.byte	0x1
 3144 0092 27       		.uleb128 0x27
 3145 0093 19       		.uleb128 0x19
 3146 0094 01       		.uleb128 0x1
 3147 0095 13       		.uleb128 0x13
 3148 0096 00       		.byte	0
 3149 0097 00       		.byte	0
 3150 0098 0D       		.uleb128 0xd
 3151 0099 05       		.uleb128 0x5
 3152 009a 00       		.byte	0
 3153 009b 49       		.uleb128 0x49
 3154 009c 13       		.uleb128 0x13
 3155 009d 00       		.byte	0
 3156 009e 00       		.byte	0
 3157 009f 0E       		.uleb128 0xe
 3158 00a0 0F       		.uleb128 0xf
 3159 00a1 00       		.byte	0
 3160 00a2 0B       		.uleb128 0xb
 3161 00a3 0B       		.uleb128 0xb
 3162 00a4 00       		.byte	0
 3163 00a5 00       		.byte	0
 3164 00a6 0F       		.uleb128 0xf
 3165 00a7 13       		.uleb128 0x13
 3166 00a8 01       		.byte	0x1
 3167 00a9 03       		.uleb128 0x3
ARM GAS  /tmp/cce4XLMQ.s 			page 57


 3168 00aa 0E       		.uleb128 0xe
 3169 00ab 0B       		.uleb128 0xb
 3170 00ac 05       		.uleb128 0x5
 3171 00ad 3A       		.uleb128 0x3a
 3172 00ae 0B       		.uleb128 0xb
 3173 00af 3B       		.uleb128 0x3b
 3174 00b0 05       		.uleb128 0x5
 3175 00b1 01       		.uleb128 0x1
 3176 00b2 13       		.uleb128 0x13
 3177 00b3 00       		.byte	0
 3178 00b4 00       		.byte	0
 3179 00b5 10       		.uleb128 0x10
 3180 00b6 13       		.uleb128 0x13
 3181 00b7 01       		.byte	0x1
 3182 00b8 0B       		.uleb128 0xb
 3183 00b9 0B       		.uleb128 0xb
 3184 00ba 3A       		.uleb128 0x3a
 3185 00bb 0B       		.uleb128 0xb
 3186 00bc 3B       		.uleb128 0x3b
 3187 00bd 05       		.uleb128 0x5
 3188 00be 01       		.uleb128 0x1
 3189 00bf 13       		.uleb128 0x13
 3190 00c0 00       		.byte	0
 3191 00c1 00       		.byte	0
 3192 00c2 11       		.uleb128 0x11
 3193 00c3 16       		.uleb128 0x16
 3194 00c4 00       		.byte	0
 3195 00c5 03       		.uleb128 0x3
 3196 00c6 0E       		.uleb128 0xe
 3197 00c7 3A       		.uleb128 0x3a
 3198 00c8 0B       		.uleb128 0xb
 3199 00c9 3B       		.uleb128 0x3b
 3200 00ca 05       		.uleb128 0x5
 3201 00cb 49       		.uleb128 0x49
 3202 00cc 13       		.uleb128 0x13
 3203 00cd 00       		.byte	0
 3204 00ce 00       		.byte	0
 3205 00cf 12       		.uleb128 0x12
 3206 00d0 0D       		.uleb128 0xd
 3207 00d1 00       		.byte	0
 3208 00d2 03       		.uleb128 0x3
 3209 00d3 08       		.uleb128 0x8
 3210 00d4 3A       		.uleb128 0x3a
 3211 00d5 0B       		.uleb128 0xb
 3212 00d6 3B       		.uleb128 0x3b
 3213 00d7 0B       		.uleb128 0xb
 3214 00d8 49       		.uleb128 0x49
 3215 00d9 13       		.uleb128 0x13
 3216 00da 38       		.uleb128 0x38
 3217 00db 0B       		.uleb128 0xb
 3218 00dc 00       		.byte	0
 3219 00dd 00       		.byte	0
 3220 00de 13       		.uleb128 0x13
 3221 00df 13       		.uleb128 0x13
 3222 00e0 01       		.byte	0x1
 3223 00e1 0B       		.uleb128 0xb
 3224 00e2 0B       		.uleb128 0xb
ARM GAS  /tmp/cce4XLMQ.s 			page 58


 3225 00e3 3A       		.uleb128 0x3a
 3226 00e4 0B       		.uleb128 0xb
 3227 00e5 3B       		.uleb128 0x3b
 3228 00e6 0B       		.uleb128 0xb
 3229 00e7 01       		.uleb128 0x1
 3230 00e8 13       		.uleb128 0x13
 3231 00e9 00       		.byte	0
 3232 00ea 00       		.byte	0
 3233 00eb 14       		.uleb128 0x14
 3234 00ec 17       		.uleb128 0x17
 3235 00ed 01       		.byte	0x1
 3236 00ee 0B       		.uleb128 0xb
 3237 00ef 0B       		.uleb128 0xb
 3238 00f0 3A       		.uleb128 0x3a
 3239 00f1 0B       		.uleb128 0xb
 3240 00f2 3B       		.uleb128 0x3b
 3241 00f3 0B       		.uleb128 0xb
 3242 00f4 01       		.uleb128 0x1
 3243 00f5 13       		.uleb128 0x13
 3244 00f6 00       		.byte	0
 3245 00f7 00       		.byte	0
 3246 00f8 15       		.uleb128 0x15
 3247 00f9 0D       		.uleb128 0xd
 3248 00fa 00       		.byte	0
 3249 00fb 03       		.uleb128 0x3
 3250 00fc 0E       		.uleb128 0xe
 3251 00fd 3A       		.uleb128 0x3a
 3252 00fe 0B       		.uleb128 0xb
 3253 00ff 3B       		.uleb128 0x3b
 3254 0100 05       		.uleb128 0x5
 3255 0101 49       		.uleb128 0x49
 3256 0102 13       		.uleb128 0x13
 3257 0103 00       		.byte	0
 3258 0104 00       		.byte	0
 3259 0105 16       		.uleb128 0x16
 3260 0106 26       		.uleb128 0x26
 3261 0107 00       		.byte	0
 3262 0108 49       		.uleb128 0x49
 3263 0109 13       		.uleb128 0x13
 3264 010a 00       		.byte	0
 3265 010b 00       		.byte	0
 3266 010c 17       		.uleb128 0x17
 3267 010d 01       		.uleb128 0x1
 3268 010e 01       		.byte	0x1
 3269 010f 49       		.uleb128 0x49
 3270 0110 13       		.uleb128 0x13
 3271 0111 01       		.uleb128 0x1
 3272 0112 13       		.uleb128 0x13
 3273 0113 00       		.byte	0
 3274 0114 00       		.byte	0
 3275 0115 18       		.uleb128 0x18
 3276 0116 21       		.uleb128 0x21
 3277 0117 00       		.byte	0
 3278 0118 49       		.uleb128 0x49
 3279 0119 13       		.uleb128 0x13
 3280 011a 2F       		.uleb128 0x2f
 3281 011b 0B       		.uleb128 0xb
ARM GAS  /tmp/cce4XLMQ.s 			page 59


 3282 011c 00       		.byte	0
 3283 011d 00       		.byte	0
 3284 011e 19       		.uleb128 0x19
 3285 011f 15       		.uleb128 0x15
 3286 0120 01       		.byte	0x1
 3287 0121 27       		.uleb128 0x27
 3288 0122 19       		.uleb128 0x19
 3289 0123 49       		.uleb128 0x49
 3290 0124 13       		.uleb128 0x13
 3291 0125 01       		.uleb128 0x1
 3292 0126 13       		.uleb128 0x13
 3293 0127 00       		.byte	0
 3294 0128 00       		.byte	0
 3295 0129 1A       		.uleb128 0x1a
 3296 012a 04       		.uleb128 0x4
 3297 012b 01       		.byte	0x1
 3298 012c 0B       		.uleb128 0xb
 3299 012d 0B       		.uleb128 0xb
 3300 012e 3A       		.uleb128 0x3a
 3301 012f 0B       		.uleb128 0xb
 3302 0130 3B       		.uleb128 0x3b
 3303 0131 0B       		.uleb128 0xb
 3304 0132 01       		.uleb128 0x1
 3305 0133 13       		.uleb128 0x13
 3306 0134 00       		.byte	0
 3307 0135 00       		.byte	0
 3308 0136 1B       		.uleb128 0x1b
 3309 0137 28       		.uleb128 0x28
 3310 0138 00       		.byte	0
 3311 0139 03       		.uleb128 0x3
 3312 013a 0E       		.uleb128 0xe
 3313 013b 1C       		.uleb128 0x1c
 3314 013c 0D       		.uleb128 0xd
 3315 013d 00       		.byte	0
 3316 013e 00       		.byte	0
 3317 013f 1C       		.uleb128 0x1c
 3318 0140 2E       		.uleb128 0x2e
 3319 0141 01       		.byte	0x1
 3320 0142 03       		.uleb128 0x3
 3321 0143 0E       		.uleb128 0xe
 3322 0144 3A       		.uleb128 0x3a
 3323 0145 0B       		.uleb128 0xb
 3324 0146 3B       		.uleb128 0x3b
 3325 0147 05       		.uleb128 0x5
 3326 0148 27       		.uleb128 0x27
 3327 0149 19       		.uleb128 0x19
 3328 014a 20       		.uleb128 0x20
 3329 014b 0B       		.uleb128 0xb
 3330 014c 01       		.uleb128 0x1
 3331 014d 13       		.uleb128 0x13
 3332 014e 00       		.byte	0
 3333 014f 00       		.byte	0
 3334 0150 1D       		.uleb128 0x1d
 3335 0151 05       		.uleb128 0x5
 3336 0152 00       		.byte	0
 3337 0153 03       		.uleb128 0x3
 3338 0154 0E       		.uleb128 0xe
ARM GAS  /tmp/cce4XLMQ.s 			page 60


 3339 0155 3A       		.uleb128 0x3a
 3340 0156 0B       		.uleb128 0xb
 3341 0157 3B       		.uleb128 0x3b
 3342 0158 05       		.uleb128 0x5
 3343 0159 49       		.uleb128 0x49
 3344 015a 13       		.uleb128 0x13
 3345 015b 00       		.byte	0
 3346 015c 00       		.byte	0
 3347 015d 1E       		.uleb128 0x1e
 3348 015e 2E       		.uleb128 0x2e
 3349 015f 01       		.byte	0x1
 3350 0160 03       		.uleb128 0x3
 3351 0161 0E       		.uleb128 0xe
 3352 0162 3A       		.uleb128 0x3a
 3353 0163 0B       		.uleb128 0xb
 3354 0164 3B       		.uleb128 0x3b
 3355 0165 05       		.uleb128 0x5
 3356 0166 27       		.uleb128 0x27
 3357 0167 19       		.uleb128 0x19
 3358 0168 11       		.uleb128 0x11
 3359 0169 01       		.uleb128 0x1
 3360 016a 12       		.uleb128 0x12
 3361 016b 06       		.uleb128 0x6
 3362 016c 40       		.uleb128 0x40
 3363 016d 18       		.uleb128 0x18
 3364 016e 9742     		.uleb128 0x2117
 3365 0170 19       		.uleb128 0x19
 3366 0171 01       		.uleb128 0x1
 3367 0172 13       		.uleb128 0x13
 3368 0173 00       		.byte	0
 3369 0174 00       		.byte	0
 3370 0175 1F       		.uleb128 0x1f
 3371 0176 1D       		.uleb128 0x1d
 3372 0177 01       		.byte	0x1
 3373 0178 31       		.uleb128 0x31
 3374 0179 13       		.uleb128 0x13
 3375 017a 11       		.uleb128 0x11
 3376 017b 01       		.uleb128 0x1
 3377 017c 12       		.uleb128 0x12
 3378 017d 06       		.uleb128 0x6
 3379 017e 58       		.uleb128 0x58
 3380 017f 0B       		.uleb128 0xb
 3381 0180 59       		.uleb128 0x59
 3382 0181 05       		.uleb128 0x5
 3383 0182 00       		.byte	0
 3384 0183 00       		.byte	0
 3385 0184 20       		.uleb128 0x20
 3386 0185 05       		.uleb128 0x5
 3387 0186 00       		.byte	0
 3388 0187 31       		.uleb128 0x31
 3389 0188 13       		.uleb128 0x13
 3390 0189 02       		.uleb128 0x2
 3391 018a 18       		.uleb128 0x18
 3392 018b 00       		.byte	0
 3393 018c 00       		.byte	0
 3394 018d 21       		.uleb128 0x21
 3395 018e 2E       		.uleb128 0x2e
ARM GAS  /tmp/cce4XLMQ.s 			page 61


 3396 018f 00       		.byte	0
 3397 0190 03       		.uleb128 0x3
 3398 0191 0E       		.uleb128 0xe
 3399 0192 3A       		.uleb128 0x3a
 3400 0193 0B       		.uleb128 0xb
 3401 0194 3B       		.uleb128 0x3b
 3402 0195 05       		.uleb128 0x5
 3403 0196 27       		.uleb128 0x27
 3404 0197 19       		.uleb128 0x19
 3405 0198 11       		.uleb128 0x11
 3406 0199 01       		.uleb128 0x1
 3407 019a 12       		.uleb128 0x12
 3408 019b 06       		.uleb128 0x6
 3409 019c 40       		.uleb128 0x40
 3410 019d 18       		.uleb128 0x18
 3411 019e 9642     		.uleb128 0x2116
 3412 01a0 19       		.uleb128 0x19
 3413 01a1 00       		.byte	0
 3414 01a2 00       		.byte	0
 3415 01a3 22       		.uleb128 0x22
 3416 01a4 2E       		.uleb128 0x2e
 3417 01a5 01       		.byte	0x1
 3418 01a6 03       		.uleb128 0x3
 3419 01a7 0E       		.uleb128 0xe
 3420 01a8 3A       		.uleb128 0x3a
 3421 01a9 0B       		.uleb128 0xb
 3422 01aa 3B       		.uleb128 0x3b
 3423 01ab 05       		.uleb128 0x5
 3424 01ac 27       		.uleb128 0x27
 3425 01ad 19       		.uleb128 0x19
 3426 01ae 11       		.uleb128 0x11
 3427 01af 01       		.uleb128 0x1
 3428 01b0 12       		.uleb128 0x12
 3429 01b1 06       		.uleb128 0x6
 3430 01b2 40       		.uleb128 0x40
 3431 01b3 18       		.uleb128 0x18
 3432 01b4 9642     		.uleb128 0x2116
 3433 01b6 19       		.uleb128 0x19
 3434 01b7 01       		.uleb128 0x1
 3435 01b8 13       		.uleb128 0x13
 3436 01b9 00       		.byte	0
 3437 01ba 00       		.byte	0
 3438 01bb 23       		.uleb128 0x23
 3439 01bc 34       		.uleb128 0x34
 3440 01bd 00       		.byte	0
 3441 01be 03       		.uleb128 0x3
 3442 01bf 0E       		.uleb128 0xe
 3443 01c0 49       		.uleb128 0x49
 3444 01c1 13       		.uleb128 0x13
 3445 01c2 34       		.uleb128 0x34
 3446 01c3 19       		.uleb128 0x19
 3447 01c4 00       		.byte	0
 3448 01c5 00       		.byte	0
 3449 01c6 24       		.uleb128 0x24
 3450 01c7 2E       		.uleb128 0x2e
 3451 01c8 01       		.byte	0x1
 3452 01c9 03       		.uleb128 0x3
ARM GAS  /tmp/cce4XLMQ.s 			page 62


 3453 01ca 0E       		.uleb128 0xe
 3454 01cb 3A       		.uleb128 0x3a
 3455 01cc 0B       		.uleb128 0xb
 3456 01cd 3B       		.uleb128 0x3b
 3457 01ce 0B       		.uleb128 0xb
 3458 01cf 27       		.uleb128 0x27
 3459 01d0 19       		.uleb128 0x19
 3460 01d1 11       		.uleb128 0x11
 3461 01d2 01       		.uleb128 0x1
 3462 01d3 12       		.uleb128 0x12
 3463 01d4 06       		.uleb128 0x6
 3464 01d5 40       		.uleb128 0x40
 3465 01d6 18       		.uleb128 0x18
 3466 01d7 9742     		.uleb128 0x2117
 3467 01d9 19       		.uleb128 0x19
 3468 01da 01       		.uleb128 0x1
 3469 01db 13       		.uleb128 0x13
 3470 01dc 00       		.byte	0
 3471 01dd 00       		.byte	0
 3472 01de 25       		.uleb128 0x25
 3473 01df 05       		.uleb128 0x5
 3474 01e0 00       		.byte	0
 3475 01e1 03       		.uleb128 0x3
 3476 01e2 08       		.uleb128 0x8
 3477 01e3 3A       		.uleb128 0x3a
 3478 01e4 0B       		.uleb128 0xb
 3479 01e5 3B       		.uleb128 0x3b
 3480 01e6 0B       		.uleb128 0xb
 3481 01e7 49       		.uleb128 0x49
 3482 01e8 13       		.uleb128 0x13
 3483 01e9 02       		.uleb128 0x2
 3484 01ea 18       		.uleb128 0x18
 3485 01eb 00       		.byte	0
 3486 01ec 00       		.byte	0
 3487 01ed 26       		.uleb128 0x26
 3488 01ee 2E       		.uleb128 0x2e
 3489 01ef 01       		.byte	0x1
 3490 01f0 03       		.uleb128 0x3
 3491 01f1 0E       		.uleb128 0xe
 3492 01f2 3A       		.uleb128 0x3a
 3493 01f3 0B       		.uleb128 0xb
 3494 01f4 3B       		.uleb128 0x3b
 3495 01f5 05       		.uleb128 0x5
 3496 01f6 27       		.uleb128 0x27
 3497 01f7 19       		.uleb128 0x19
 3498 01f8 49       		.uleb128 0x49
 3499 01f9 13       		.uleb128 0x13
 3500 01fa 11       		.uleb128 0x11
 3501 01fb 01       		.uleb128 0x1
 3502 01fc 12       		.uleb128 0x12
 3503 01fd 06       		.uleb128 0x6
 3504 01fe 40       		.uleb128 0x40
 3505 01ff 18       		.uleb128 0x18
 3506 0200 9742     		.uleb128 0x2117
 3507 0202 19       		.uleb128 0x19
 3508 0203 01       		.uleb128 0x1
 3509 0204 13       		.uleb128 0x13
ARM GAS  /tmp/cce4XLMQ.s 			page 63


 3510 0205 00       		.byte	0
 3511 0206 00       		.byte	0
 3512 0207 27       		.uleb128 0x27
 3513 0208 05       		.uleb128 0x5
 3514 0209 00       		.byte	0
 3515 020a 03       		.uleb128 0x3
 3516 020b 08       		.uleb128 0x8
 3517 020c 3A       		.uleb128 0x3a
 3518 020d 0B       		.uleb128 0xb
 3519 020e 3B       		.uleb128 0x3b
 3520 020f 05       		.uleb128 0x5
 3521 0210 49       		.uleb128 0x49
 3522 0211 13       		.uleb128 0x13
 3523 0212 02       		.uleb128 0x2
 3524 0213 18       		.uleb128 0x18
 3525 0214 00       		.byte	0
 3526 0215 00       		.byte	0
 3527 0216 28       		.uleb128 0x28
 3528 0217 05       		.uleb128 0x5
 3529 0218 00       		.byte	0
 3530 0219 03       		.uleb128 0x3
 3531 021a 0E       		.uleb128 0xe
 3532 021b 3A       		.uleb128 0x3a
 3533 021c 0B       		.uleb128 0xb
 3534 021d 3B       		.uleb128 0x3b
 3535 021e 05       		.uleb128 0x5
 3536 021f 49       		.uleb128 0x49
 3537 0220 13       		.uleb128 0x13
 3538 0221 02       		.uleb128 0x2
 3539 0222 18       		.uleb128 0x18
 3540 0223 00       		.byte	0
 3541 0224 00       		.byte	0
 3542 0225 29       		.uleb128 0x29
 3543 0226 2E       		.uleb128 0x2e
 3544 0227 01       		.byte	0x1
 3545 0228 03       		.uleb128 0x3
 3546 0229 0E       		.uleb128 0xe
 3547 022a 3A       		.uleb128 0x3a
 3548 022b 0B       		.uleb128 0xb
 3549 022c 3B       		.uleb128 0x3b
 3550 022d 0B       		.uleb128 0xb
 3551 022e 27       		.uleb128 0x27
 3552 022f 19       		.uleb128 0x19
 3553 0230 49       		.uleb128 0x49
 3554 0231 13       		.uleb128 0x13
 3555 0232 11       		.uleb128 0x11
 3556 0233 01       		.uleb128 0x1
 3557 0234 12       		.uleb128 0x12
 3558 0235 06       		.uleb128 0x6
 3559 0236 40       		.uleb128 0x40
 3560 0237 18       		.uleb128 0x18
 3561 0238 9642     		.uleb128 0x2116
 3562 023a 19       		.uleb128 0x19
 3563 023b 01       		.uleb128 0x1
 3564 023c 13       		.uleb128 0x13
 3565 023d 00       		.byte	0
 3566 023e 00       		.byte	0
ARM GAS  /tmp/cce4XLMQ.s 			page 64


 3567 023f 2A       		.uleb128 0x2a
 3568 0240 2E       		.uleb128 0x2e
 3569 0241 01       		.byte	0x1
 3570 0242 03       		.uleb128 0x3
 3571 0243 08       		.uleb128 0x8
 3572 0244 3A       		.uleb128 0x3a
 3573 0245 0B       		.uleb128 0xb
 3574 0246 3B       		.uleb128 0x3b
 3575 0247 0B       		.uleb128 0xb
 3576 0248 27       		.uleb128 0x27
 3577 0249 19       		.uleb128 0x19
 3578 024a 49       		.uleb128 0x49
 3579 024b 13       		.uleb128 0x13
 3580 024c 11       		.uleb128 0x11
 3581 024d 01       		.uleb128 0x1
 3582 024e 12       		.uleb128 0x12
 3583 024f 06       		.uleb128 0x6
 3584 0250 40       		.uleb128 0x40
 3585 0251 18       		.uleb128 0x18
 3586 0252 9642     		.uleb128 0x2116
 3587 0254 19       		.uleb128 0x19
 3588 0255 01       		.uleb128 0x1
 3589 0256 13       		.uleb128 0x13
 3590 0257 00       		.byte	0
 3591 0258 00       		.byte	0
 3592 0259 2B       		.uleb128 0x2b
 3593 025a 05       		.uleb128 0x5
 3594 025b 00       		.byte	0
 3595 025c 03       		.uleb128 0x3
 3596 025d 0E       		.uleb128 0xe
 3597 025e 3A       		.uleb128 0x3a
 3598 025f 0B       		.uleb128 0xb
 3599 0260 3B       		.uleb128 0x3b
 3600 0261 0B       		.uleb128 0xb
 3601 0262 49       		.uleb128 0x49
 3602 0263 13       		.uleb128 0x13
 3603 0264 02       		.uleb128 0x2
 3604 0265 18       		.uleb128 0x18
 3605 0266 00       		.byte	0
 3606 0267 00       		.byte	0
 3607 0268 2C       		.uleb128 0x2c
 3608 0269 2E       		.uleb128 0x2e
 3609 026a 00       		.byte	0
 3610 026b 3F       		.uleb128 0x3f
 3611 026c 19       		.uleb128 0x19
 3612 026d 03       		.uleb128 0x3
 3613 026e 0E       		.uleb128 0xe
 3614 026f 3A       		.uleb128 0x3a
 3615 0270 0B       		.uleb128 0xb
 3616 0271 3B       		.uleb128 0x3b
 3617 0272 0B       		.uleb128 0xb
 3618 0273 27       		.uleb128 0x27
 3619 0274 19       		.uleb128 0x19
 3620 0275 11       		.uleb128 0x11
 3621 0276 01       		.uleb128 0x1
 3622 0277 12       		.uleb128 0x12
 3623 0278 06       		.uleb128 0x6
ARM GAS  /tmp/cce4XLMQ.s 			page 65


 3624 0279 40       		.uleb128 0x40
 3625 027a 18       		.uleb128 0x18
 3626 027b 9642     		.uleb128 0x2116
 3627 027d 19       		.uleb128 0x19
 3628 027e 00       		.byte	0
 3629 027f 00       		.byte	0
 3630 0280 2D       		.uleb128 0x2d
 3631 0281 2E       		.uleb128 0x2e
 3632 0282 01       		.byte	0x1
 3633 0283 3F       		.uleb128 0x3f
 3634 0284 19       		.uleb128 0x19
 3635 0285 03       		.uleb128 0x3
 3636 0286 0E       		.uleb128 0xe
 3637 0287 3A       		.uleb128 0x3a
 3638 0288 0B       		.uleb128 0xb
 3639 0289 3B       		.uleb128 0x3b
 3640 028a 0B       		.uleb128 0xb
 3641 028b 27       		.uleb128 0x27
 3642 028c 19       		.uleb128 0x19
 3643 028d 11       		.uleb128 0x11
 3644 028e 01       		.uleb128 0x1
 3645 028f 12       		.uleb128 0x12
 3646 0290 06       		.uleb128 0x6
 3647 0291 40       		.uleb128 0x40
 3648 0292 18       		.uleb128 0x18
 3649 0293 9642     		.uleb128 0x2116
 3650 0295 19       		.uleb128 0x19
 3651 0296 01       		.uleb128 0x1
 3652 0297 13       		.uleb128 0x13
 3653 0298 00       		.byte	0
 3654 0299 00       		.byte	0
 3655 029a 2E       		.uleb128 0x2e
 3656 029b 2E       		.uleb128 0x2e
 3657 029c 01       		.byte	0x1
 3658 029d 3F       		.uleb128 0x3f
 3659 029e 19       		.uleb128 0x19
 3660 029f 03       		.uleb128 0x3
 3661 02a0 0E       		.uleb128 0xe
 3662 02a1 3A       		.uleb128 0x3a
 3663 02a2 0B       		.uleb128 0xb
 3664 02a3 3B       		.uleb128 0x3b
 3665 02a4 0B       		.uleb128 0xb
 3666 02a5 27       		.uleb128 0x27
 3667 02a6 19       		.uleb128 0x19
 3668 02a7 49       		.uleb128 0x49
 3669 02a8 13       		.uleb128 0x13
 3670 02a9 11       		.uleb128 0x11
 3671 02aa 01       		.uleb128 0x1
 3672 02ab 12       		.uleb128 0x12
 3673 02ac 06       		.uleb128 0x6
 3674 02ad 40       		.uleb128 0x40
 3675 02ae 18       		.uleb128 0x18
 3676 02af 9642     		.uleb128 0x2116
 3677 02b1 19       		.uleb128 0x19
 3678 02b2 01       		.uleb128 0x1
 3679 02b3 13       		.uleb128 0x13
 3680 02b4 00       		.byte	0
ARM GAS  /tmp/cce4XLMQ.s 			page 66


 3681 02b5 00       		.byte	0
 3682 02b6 2F       		.uleb128 0x2f
 3683 02b7 34       		.uleb128 0x34
 3684 02b8 00       		.byte	0
 3685 02b9 03       		.uleb128 0x3
 3686 02ba 08       		.uleb128 0x8
 3687 02bb 3A       		.uleb128 0x3a
 3688 02bc 0B       		.uleb128 0xb
 3689 02bd 3B       		.uleb128 0x3b
 3690 02be 0B       		.uleb128 0xb
 3691 02bf 49       		.uleb128 0x49
 3692 02c0 13       		.uleb128 0x13
 3693 02c1 02       		.uleb128 0x2
 3694 02c2 18       		.uleb128 0x18
 3695 02c3 00       		.byte	0
 3696 02c4 00       		.byte	0
 3697 02c5 30       		.uleb128 0x30
 3698 02c6 34       		.uleb128 0x34
 3699 02c7 00       		.byte	0
 3700 02c8 03       		.uleb128 0x3
 3701 02c9 0E       		.uleb128 0xe
 3702 02ca 3A       		.uleb128 0x3a
 3703 02cb 0B       		.uleb128 0xb
 3704 02cc 3B       		.uleb128 0x3b
 3705 02cd 05       		.uleb128 0x5
 3706 02ce 49       		.uleb128 0x49
 3707 02cf 13       		.uleb128 0x13
 3708 02d0 3F       		.uleb128 0x3f
 3709 02d1 19       		.uleb128 0x19
 3710 02d2 3C       		.uleb128 0x3c
 3711 02d3 19       		.uleb128 0x19
 3712 02d4 00       		.byte	0
 3713 02d5 00       		.byte	0
 3714 02d6 31       		.uleb128 0x31
 3715 02d7 34       		.uleb128 0x34
 3716 02d8 00       		.byte	0
 3717 02d9 03       		.uleb128 0x3
 3718 02da 08       		.uleb128 0x8
 3719 02db 3A       		.uleb128 0x3a
 3720 02dc 0B       		.uleb128 0xb
 3721 02dd 3B       		.uleb128 0x3b
 3722 02de 05       		.uleb128 0x5
 3723 02df 49       		.uleb128 0x49
 3724 02e0 13       		.uleb128 0x13
 3725 02e1 3F       		.uleb128 0x3f
 3726 02e2 19       		.uleb128 0x19
 3727 02e3 3C       		.uleb128 0x3c
 3728 02e4 19       		.uleb128 0x19
 3729 02e5 00       		.byte	0
 3730 02e6 00       		.byte	0
 3731 02e7 00       		.byte	0
 3732              		.section	.debug_aranges,"",%progbits
 3733 0000 DC000000 		.4byte	0xdc
 3734 0004 0200     		.2byte	0x2
 3735 0006 00000000 		.4byte	.Ldebug_info0
 3736 000a 04       		.byte	0x4
 3737 000b 00       		.byte	0
ARM GAS  /tmp/cce4XLMQ.s 			page 67


 3738 000c 0000     		.2byte	0
 3739 000e 0000     		.2byte	0
 3740 0010 00000000 		.4byte	.LFB116
 3741 0014 10000000 		.4byte	.LFE116-.LFB116
 3742 0018 00000000 		.4byte	.LFB117
 3743 001c 10000000 		.4byte	.LFE117-.LFB117
 3744 0020 00000000 		.4byte	.LFB145
 3745 0024 08000000 		.4byte	.LFE145-.LFB145
 3746 0028 00000000 		.4byte	.LFB146
 3747 002c 08000000 		.4byte	.LFE146-.LFB146
 3748 0030 00000000 		.4byte	.LFB191
 3749 0034 0E000000 		.4byte	.LFE191-.LFB191
 3750 0038 00000000 		.4byte	.LFB208
 3751 003c 18000000 		.4byte	.LFE208-.LFB208
 3752 0040 00000000 		.4byte	.LFB220
 3753 0044 08000000 		.4byte	.LFE220-.LFB220
 3754 0048 00000000 		.4byte	.LFB221
 3755 004c 08000000 		.4byte	.LFE221-.LFB221
 3756 0050 00000000 		.4byte	.LFB228
 3757 0054 08000000 		.4byte	.LFE228-.LFB228
 3758 0058 00000000 		.4byte	.LFB241
 3759 005c 12000000 		.4byte	.LFE241-.LFB241
 3760 0060 00000000 		.4byte	.LFB242
 3761 0064 16000000 		.4byte	.LFE242-.LFB242
 3762 0068 00000000 		.4byte	.LFB253
 3763 006c 26000000 		.4byte	.LFE253-.LFB253
 3764 0070 00000000 		.4byte	.LFB254
 3765 0074 26000000 		.4byte	.LFE254-.LFB254
 3766 0078 00000000 		.4byte	.LFB255
 3767 007c 2C000000 		.4byte	.LFE255-.LFB255
 3768 0080 00000000 		.4byte	.LFB256
 3769 0084 1E000000 		.4byte	.LFE256-.LFB256
 3770 0088 00000000 		.4byte	.LFB257
 3771 008c 2C000000 		.4byte	.LFE257-.LFB257
 3772 0090 00000000 		.4byte	.LFB258
 3773 0094 1E000000 		.4byte	.LFE258-.LFB258
 3774 0098 00000000 		.4byte	.LFB259
 3775 009c 26000000 		.4byte	.LFE259-.LFB259
 3776 00a0 00000000 		.4byte	.LFB260
 3777 00a4 26000000 		.4byte	.LFE260-.LFB260
 3778 00a8 00000000 		.4byte	.LFB261
 3779 00ac 08000000 		.4byte	.LFE261-.LFB261
 3780 00b0 00000000 		.4byte	.LFB262
 3781 00b4 64000000 		.4byte	.LFE262-.LFB262
 3782 00b8 00000000 		.4byte	.LFB263
 3783 00bc 24000000 		.4byte	.LFE263-.LFB263
 3784 00c0 00000000 		.4byte	.LFB264
 3785 00c4 38000000 		.4byte	.LFE264-.LFB264
 3786 00c8 00000000 		.4byte	.LFB265
 3787 00cc 52000000 		.4byte	.LFE265-.LFB265
 3788 00d0 00000000 		.4byte	.LFB266
 3789 00d4 2E000000 		.4byte	.LFE266-.LFB266
 3790 00d8 00000000 		.4byte	0
 3791 00dc 00000000 		.4byte	0
 3792              		.section	.debug_ranges,"",%progbits
 3793              	.Ldebug_ranges0:
 3794 0000 00000000 		.4byte	.LFB116
ARM GAS  /tmp/cce4XLMQ.s 			page 68


 3795 0004 10000000 		.4byte	.LFE116
 3796 0008 00000000 		.4byte	.LFB117
 3797 000c 10000000 		.4byte	.LFE117
 3798 0010 00000000 		.4byte	.LFB145
 3799 0014 08000000 		.4byte	.LFE145
 3800 0018 00000000 		.4byte	.LFB146
 3801 001c 08000000 		.4byte	.LFE146
 3802 0020 00000000 		.4byte	.LFB191
 3803 0024 0E000000 		.4byte	.LFE191
 3804 0028 00000000 		.4byte	.LFB208
 3805 002c 18000000 		.4byte	.LFE208
 3806 0030 00000000 		.4byte	.LFB220
 3807 0034 08000000 		.4byte	.LFE220
 3808 0038 00000000 		.4byte	.LFB221
 3809 003c 08000000 		.4byte	.LFE221
 3810 0040 00000000 		.4byte	.LFB228
 3811 0044 08000000 		.4byte	.LFE228
 3812 0048 00000000 		.4byte	.LFB241
 3813 004c 12000000 		.4byte	.LFE241
 3814 0050 00000000 		.4byte	.LFB242
 3815 0054 16000000 		.4byte	.LFE242
 3816 0058 00000000 		.4byte	.LFB253
 3817 005c 26000000 		.4byte	.LFE253
 3818 0060 00000000 		.4byte	.LFB254
 3819 0064 26000000 		.4byte	.LFE254
 3820 0068 00000000 		.4byte	.LFB255
 3821 006c 2C000000 		.4byte	.LFE255
 3822 0070 00000000 		.4byte	.LFB256
 3823 0074 1E000000 		.4byte	.LFE256
 3824 0078 00000000 		.4byte	.LFB257
 3825 007c 2C000000 		.4byte	.LFE257
 3826 0080 00000000 		.4byte	.LFB258
 3827 0084 1E000000 		.4byte	.LFE258
 3828 0088 00000000 		.4byte	.LFB259
 3829 008c 26000000 		.4byte	.LFE259
 3830 0090 00000000 		.4byte	.LFB260
 3831 0094 26000000 		.4byte	.LFE260
 3832 0098 00000000 		.4byte	.LFB261
 3833 009c 08000000 		.4byte	.LFE261
 3834 00a0 00000000 		.4byte	.LFB262
 3835 00a4 64000000 		.4byte	.LFE262
 3836 00a8 00000000 		.4byte	.LFB263
 3837 00ac 24000000 		.4byte	.LFE263
 3838 00b0 00000000 		.4byte	.LFB264
 3839 00b4 38000000 		.4byte	.LFE264
 3840 00b8 00000000 		.4byte	.LFB265
 3841 00bc 52000000 		.4byte	.LFE265
 3842 00c0 00000000 		.4byte	.LFB266
 3843 00c4 2E000000 		.4byte	.LFE266
 3844 00c8 00000000 		.4byte	0
 3845 00cc 00000000 		.4byte	0
 3846              		.section	.debug_line,"",%progbits
 3847              	.Ldebug_line0:
 3848 0000 FD050000 		.section	.debug_str,"MS",%progbits,1
 3848      0200E103 
 3848      00000201 
 3848      FB0E0D00 
ARM GAS  /tmp/cce4XLMQ.s 			page 69


 3848      01010101 
 3849              	.LASF23:
 3850 0000 74726566 		.ascii	"trefs_t\000"
 3850      735F7400 
 3851              	.LASF54:
 3852 0008 72656164 		.ascii	"ready_list_t\000"
 3852      795F6C69 
 3852      73745F74 
 3852      00
 3853              	.LASF2:
 3854 0015 73697A65 		.ascii	"size_t\000"
 3854      5F7400
 3855              	.LASF173:
 3856 001c 2F686F6D 		.ascii	"/home/makkmarci/workspace/CLEAN/ChibiOS/os/hal/src/"
 3856      652F6D61 
 3856      6B6B6D61 
 3856      7263692F 
 3856      776F726B 
 3857 004f 73657269 		.ascii	"serial.c\000"
 3857      616C2E63 
 3857      00
 3858              	.LASF19:
 3859 0058 75696E74 		.ascii	"uint64_t\000"
 3859      36345F74 
 3859      00
 3860              	.LASF3:
 3861 0061 5F5F7569 		.ascii	"__uint8_t\000"
 3861      6E74385F 
 3861      7400
 3862              	.LASF88:
 3863 006b 706F7274 		.ascii	"port_intctx\000"
 3863      5F696E74 
 3863      63747800 
 3864              	.LASF73:
 3865 0077 73797374 		.ascii	"system_debug_t\000"
 3865      656D5F64 
 3865      65627567 
 3865      5F7400
 3866              	.LASF150:
 3867 0086 706F7274 		.ascii	"port_lock\000"
 3867      5F6C6F63 
 3867      6B00
 3868              	.LASF14:
 3869 0090 6C6F6E67 		.ascii	"long long unsigned int\000"
 3869      206C6F6E 
 3869      6720756E 
 3869      7369676E 
 3869      65642069 
 3870              	.LASF159:
 3871 00a7 6F73616C 		.ascii	"osalEventBroadcastFlagsI\000"
 3871      4576656E 
 3871      7442726F 
 3871      61646361 
 3871      7374466C 
 3872              	.LASF92:
 3873 00c0 65786974 		.ascii	"exitcode\000"
 3873      636F6465 
ARM GAS  /tmp/cce4XLMQ.s 			page 70


 3873      00
 3874              	.LASF80:
 3875 00c9 6D61696E 		.ascii	"mainthread\000"
 3875      74687265 
 3875      616400
 3876              	.LASF8:
 3877 00d4 5F5F696E 		.ascii	"__int32_t\000"
 3877      7433325F 
 3877      7400
 3878              	.LASF70:
 3879 00de 76697274 		.ascii	"virtual_timers_list_t\000"
 3879      75616C5F 
 3879      74696D65 
 3879      72735F6C 
 3879      6973745F 
 3880              	.LASF171:
 3881 00f4 49544D5F 		.ascii	"ITM_RxBuffer\000"
 3881      52784275 
 3881      66666572 
 3881      00
 3882              	.LASF117:
 3883 0101 696F5F71 		.ascii	"io_queue_t\000"
 3883      75657565 
 3883      5F7400
 3884              	.LASF53:
 3885 010c 63685F74 		.ascii	"ch_threads_queue\000"
 3885      68726561 
 3885      64735F71 
 3885      75657565 
 3885      00
 3886              	.LASF165:
 3887 011d 73644F62 		.ascii	"sdObjectInit\000"
 3887      6A656374 
 3887      496E6974 
 3887      00
 3888              	.LASF149:
 3889 012a 72656164 		.ascii	"readt\000"
 3889      7400
 3890              	.LASF119:
 3891 0130 715F7761 		.ascii	"q_waiting\000"
 3891      6974696E 
 3891      6700
 3892              	.LASF12:
 3893 013a 6C6F6E67 		.ascii	"long long int\000"
 3893      206C6F6E 
 3893      6720696E 
 3893      7400
 3894              	.LASF1:
 3895 0148 7369676E 		.ascii	"signed char\000"
 3895      65642063 
 3895      68617200 
 3896              	.LASF83:
 3897 0154 47545052 		.ascii	"GTPR\000"
 3897      00
 3898              	.LASF47:
 3899 0159 705F6D70 		.ascii	"p_mpool\000"
 3899      6F6F6C00 
ARM GAS  /tmp/cce4XLMQ.s 			page 71


 3900              	.LASF158:
 3901 0161 6F73616C 		.ascii	"osalEventObjectInit\000"
 3901      4576656E 
 3901      744F626A 
 3901      65637449 
 3901      6E697400 
 3902              	.LASF102:
 3903 0175 6D5F7175 		.ascii	"m_queue\000"
 3903      65756500 
 3904              	.LASF151:
 3905 017d 706F7274 		.ascii	"port_unlock\000"
 3905      5F756E6C 
 3905      6F636B00 
 3906              	.LASF137:
 3907 0189 73746174 		.ascii	"state\000"
 3907      6500
 3908              	.LASF77:
 3909 018f 63685F73 		.ascii	"ch_system\000"
 3909      79737465 
 3909      6D00
 3910              	.LASF9:
 3911 0199 6C6F6E67 		.ascii	"long int\000"
 3911      20696E74 
 3911      00
 3912              	.LASF114:
 3913 01a2 6576656E 		.ascii	"event_source\000"
 3913      745F736F 
 3913      75726365 
 3913      00
 3914              	.LASF22:
 3915 01af 74737461 		.ascii	"tstate_t\000"
 3915      74655F74 
 3915      00
 3916              	.LASF121:
 3917 01b8 715F6275 		.ascii	"q_buffer\000"
 3917      66666572 
 3917      00
 3918              	.LASF123:
 3919 01c1 715F7772 		.ascii	"q_wrptr\000"
 3919      70747200 
 3920              	.LASF132:
 3921 01c9 53445F53 		.ascii	"SD_STOP\000"
 3921      544F5000 
 3922              	.LASF35:
 3923 01d1 705F6E65 		.ascii	"p_newer\000"
 3923      77657200 
 3924              	.LASF99:
 3925 01d9 735F7175 		.ascii	"s_queue\000"
 3925      65756500 
 3926              	.LASF59:
 3927 01e1 725F6E65 		.ascii	"r_newer\000"
 3927      77657200 
 3928              	.LASF85:
 3929 01e9 72656761 		.ascii	"regarm_t\000"
 3929      726D5F74 
 3929      00
 3930              	.LASF66:
ARM GAS  /tmp/cce4XLMQ.s 			page 72


 3931 01f2 76745F70 		.ascii	"vt_prev\000"
 3931      72657600 
 3932              	.LASF79:
 3933 01fa 76746C69 		.ascii	"vtlist\000"
 3933      737400
 3934              	.LASF155:
 3935 0201 6F73616C 		.ascii	"osalSysLock\000"
 3935      5379734C 
 3935      6F636B00 
 3936              	.LASF106:
 3937 020d 6D757465 		.ascii	"mutex_t\000"
 3937      785F7400 
 3938              	.LASF175:
 3939 0215 76616C75 		.ascii	"value\000"
 3939      6500
 3940              	.LASF118:
 3941 021b 696F5F71 		.ascii	"io_queue\000"
 3941      75657565 
 3941      00
 3942              	.LASF116:
 3943 0224 6576656E 		.ascii	"event_source_t\000"
 3943      745F736F 
 3943      75726365 
 3943      5F7400
 3944              	.LASF81:
 3945 0233 69646C65 		.ascii	"idle_thread_wa\000"
 3945      5F746872 
 3945      6561645F 
 3945      776100
 3946              	.LASF28:
 3947 0242 636E745F 		.ascii	"cnt_t\000"
 3947      7400
 3948              	.LASF140:
 3949 0248 75736172 		.ascii	"usart\000"
 3949      7400
 3950              	.LASF0:
 3951 024e 756E7369 		.ascii	"unsigned int\000"
 3951      676E6564 
 3951      20696E74 
 3951      00
 3952              	.LASF65:
 3953 025b 76745F6E 		.ascii	"vt_next\000"
 3953      65787400 
 3954              	.LASF16:
 3955 0263 75696E74 		.ascii	"uint16_t\000"
 3955      31365F74 
 3955      00
 3956              	.LASF143:
 3957 026c 53657269 		.ascii	"SerialDriverVMT\000"
 3957      616C4472 
 3957      69766572 
 3957      564D5400 
 3958              	.LASF163:
 3959 027c 696E6F74 		.ascii	"inotify\000"
 3959      69667900 
 3960              	.LASF95:
 3961 0284 77747365 		.ascii	"wtsemp\000"
ARM GAS  /tmp/cce4XLMQ.s 			page 73


 3961      6D7000
 3962              	.LASF67:
 3963 028b 76745F64 		.ascii	"vt_delta\000"
 3963      656C7461 
 3963      00
 3964              	.LASF42:
 3965 0294 705F6D73 		.ascii	"p_msgqueue\000"
 3965      67717565 
 3965      756500
 3966              	.LASF162:
 3967 029f 74696D65 		.ascii	"timeout\000"
 3967      6F757400 
 3968              	.LASF147:
 3969 02a7 67657474 		.ascii	"gett\000"
 3969      00
 3970              	.LASF100:
 3971 02ac 735F636E 		.ascii	"s_cnt\000"
 3971      7400
 3972              	.LASF136:
 3973 02b2 6576656E 		.ascii	"event\000"
 3973      7400
 3974              	.LASF153:
 3975 02b8 63684576 		.ascii	"chEvtObjectInit\000"
 3975      744F626A 
 3975      65637449 
 3975      6E697400 
 3976              	.LASF7:
 3977 02c8 73686F72 		.ascii	"short unsigned int\000"
 3977      7420756E 
 3977      7369676E 
 3977      65642069 
 3977      6E7400
 3978              	.LASF50:
 3979 02db 63685F74 		.ascii	"ch_thread\000"
 3979      68726561 
 3979      6400
 3980              	.LASF113:
 3981 02e5 656C5F77 		.ascii	"el_wflags\000"
 3981      666C6167 
 3981      7300
 3982              	.LASF25:
 3983 02ef 6D73675F 		.ascii	"msg_t\000"
 3983      7400
 3984              	.LASF139:
 3985 02f5 6F717565 		.ascii	"oqueue\000"
 3985      756500
 3986              	.LASF109:
 3987 02fc 656C5F6E 		.ascii	"el_next\000"
 3987      65787400 
 3988              	.LASF76:
 3989 0304 63685F73 		.ascii	"ch_system_t\000"
 3989      79737465 
 3989      6D5F7400 
 3990              	.LASF84:
 3991 0310 55534152 		.ascii	"USART_TypeDef\000"
 3991      545F5479 
 3991      70654465 
ARM GAS  /tmp/cce4XLMQ.s 			page 74


 3991      6600
 3992              	.LASF148:
 3993 031e 77726974 		.ascii	"writet\000"
 3993      657400
 3994              	.LASF21:
 3995 0325 746D6F64 		.ascii	"tmode_t\000"
 3995      655F7400 
 3996              	.LASF55:
 3997 032d 63685F72 		.ascii	"ch_ready_list\000"
 3997      65616479 
 3997      5F6C6973 
 3997      7400
 3998              	.LASF26:
 3999 033b 6576656E 		.ascii	"eventmask_t\000"
 3999      746D6173 
 3999      6B5F7400 
 4000              	.LASF141:
 4001 0347 73706565 		.ascii	"speed\000"
 4001      6400
 4002              	.LASF127:
 4003 034d 716E6F74 		.ascii	"qnotify_t\000"
 4003      6966795F 
 4003      7400
 4004              	.LASF86:
 4005 0357 73746B61 		.ascii	"stkalign_t\000"
 4005      6C69676E 
 4005      5F7400
 4006              	.LASF49:
 4007 0362 74687265 		.ascii	"threads_list_t\000"
 4007      6164735F 
 4007      6C697374 
 4007      5F7400
 4008              	.LASF144:
 4009 0371 77726974 		.ascii	"write\000"
 4009      6500
 4010              	.LASF128:
 4011 0377 696E7075 		.ascii	"input_queue_t\000"
 4011      745F7175 
 4011      6575655F 
 4011      7400
 4012              	.LASF146:
 4013 0385 70757474 		.ascii	"putt\000"
 4013      00
 4014              	.LASF129:
 4015 038a 6F757470 		.ascii	"output_queue_t\000"
 4015      75745F71 
 4015      75657565 
 4015      5F7400
 4016              	.LASF82:
 4017 0399 73697A65 		.ascii	"sizetype\000"
 4017      74797065 
 4017      00
 4018              	.LASF48:
 4019 03a2 74687265 		.ascii	"thread_reference_t\000"
 4019      61645F72 
 4019      65666572 
 4019      656E6365 
ARM GAS  /tmp/cce4XLMQ.s 			page 75


 4019      5F7400
 4020              	.LASF71:
 4021 03b5 63685F76 		.ascii	"ch_virtual_timers_list\000"
 4021      69727475 
 4021      616C5F74 
 4021      696D6572 
 4021      735F6C69 
 4022              	.LASF172:
 4023 03cc 474E5520 		.ascii	"GNU C 4.9.3 20150303 (release) [ARM/embedded-4_9-br"
 4023      4320342E 
 4023      392E3320 
 4023      32303135 
 4023      30333033 
 4024 03ff 616E6368 		.ascii	"anch revision 221220] -mcpu=cortex-m4 -mfloat-abi=h"
 4024      20726576 
 4024      6973696F 
 4024      6E203232 
 4024      31323230 
 4025 0432 61726420 		.ascii	"ard -mfpu=fpv4-sp-d16 -mno-thumb-interwork -mthumb "
 4025      2D6D6670 
 4025      753D6670 
 4025      76342D73 
 4025      702D6431 
 4026 0465 2D676764 		.ascii	"-ggdb -fomit-frame-pointer -falign-functions=16 -ff"
 4026      62202D66 
 4026      6F6D6974 
 4026      2D667261 
 4026      6D652D70 
 4027 0498 756E6374 		.ascii	"unction-sections -fdata-sections -fno-common -fsing"
 4027      696F6E2D 
 4027      73656374 
 4027      696F6E73 
 4027      202D6664 
 4028 04cb 6C652D70 		.ascii	"le-precision-constant\000"
 4028      72656369 
 4028      73696F6E 
 4028      2D636F6E 
 4028      7374616E 
 4029              	.LASF94:
 4030 04e1 77747472 		.ascii	"wttrp\000"
 4030      7000
 4031              	.LASF33:
 4032 04e7 705F7072 		.ascii	"p_prio\000"
 4032      696F00
 4033              	.LASF36:
 4034 04ee 705F6F6C 		.ascii	"p_older\000"
 4034      64657200 
 4035              	.LASF58:
 4036 04f6 725F6374 		.ascii	"r_ctx\000"
 4036      7800
 4037              	.LASF90:
 4038 04fc 746D5F63 		.ascii	"tm_calibration_t\000"
 4038      616C6962 
 4038      72617469 
 4038      6F6E5F74 
 4038      00
 4039              	.LASF169:
ARM GAS  /tmp/cce4XLMQ.s 			page 76


 4040 050d 73645374 		.ascii	"sdStop\000"
 4040      6F7000
 4041              	.LASF40:
 4042 0514 705F7265 		.ascii	"p_refs\000"
 4042      667300
 4043              	.LASF61:
 4044 051b 725F6375 		.ascii	"r_current\000"
 4044      7272656E 
 4044      7400
 4045              	.LASF60:
 4046 0525 725F6F6C 		.ascii	"r_older\000"
 4046      64657200 
 4047              	.LASF111:
 4048 052d 656C5F65 		.ascii	"el_events\000"
 4048      76656E74 
 4048      7300
 4049              	.LASF142:
 4050 0537 53657269 		.ascii	"SerialConfig\000"
 4050      616C436F 
 4050      6E666967 
 4050      00
 4051              	.LASF13:
 4052 0544 5F5F7569 		.ascii	"__uint64_t\000"
 4052      6E743634 
 4052      5F7400
 4053              	.LASF157:
 4054 054f 6F73616C 		.ascii	"osalOsRescheduleS\000"
 4054      4F735265 
 4054      73636865 
 4054      64756C65 
 4054      5300
 4055              	.LASF63:
 4056 0561 76697274 		.ascii	"virtual_timer_t\000"
 4056      75616C5F 
 4056      74696D65 
 4056      725F7400 
 4057              	.LASF32:
 4058 0571 705F7072 		.ascii	"p_prev\000"
 4058      657600
 4059              	.LASF24:
 4060 0578 74707269 		.ascii	"tprio_t\000"
 4060      6F5F7400 
 4061              	.LASF124:
 4062 0580 715F7264 		.ascii	"q_rdptr\000"
 4062      70747200 
 4063              	.LASF74:
 4064 0588 63685F73 		.ascii	"ch_system_debug\000"
 4064      79737465 
 4064      6D5F6465 
 4064      62756700 
 4065              	.LASF130:
 4066 0598 5F426F6F 		.ascii	"_Bool\000"
 4066      6C00
 4067              	.LASF17:
 4068 059e 696E7433 		.ascii	"int32_t\000"
 4068      325F7400 
 4069              	.LASF4:
ARM GAS  /tmp/cce4XLMQ.s 			page 77


 4070 05a6 756E7369 		.ascii	"unsigned char\000"
 4070      676E6564 
 4070      20636861 
 4070      7200
 4071              	.LASF110:
 4072 05b4 656C5F6C 		.ascii	"el_listener\000"
 4072      69737465 
 4072      6E657200 
 4073              	.LASF112:
 4074 05c0 656C5F66 		.ascii	"el_flags\000"
 4074      6C616773 
 4074      00
 4075              	.LASF38:
 4076 05c9 705F7374 		.ascii	"p_state\000"
 4076      61746500 
 4077              	.LASF45:
 4078 05d1 705F6D74 		.ascii	"p_mtxlist\000"
 4078      786C6973 
 4078      7400
 4079              	.LASF5:
 4080 05db 73686F72 		.ascii	"short int\000"
 4080      7420696E 
 4080      7400
 4081              	.LASF57:
 4082 05e5 725F7072 		.ascii	"r_prio\000"
 4082      696F00
 4083              	.LASF97:
 4084 05ec 65776D61 		.ascii	"ewmask\000"
 4084      736B00
 4085              	.LASF31:
 4086 05f3 705F6E65 		.ascii	"p_next\000"
 4086      787400
 4087              	.LASF39:
 4088 05fa 705F666C 		.ascii	"p_flags\000"
 4088      61677300 
 4089              	.LASF168:
 4090 0602 5F5F6675 		.ascii	"__func__\000"
 4090      6E635F5F 
 4090      00
 4091              	.LASF37:
 4092 060b 705F6E61 		.ascii	"p_name\000"
 4092      6D6500
 4093              	.LASF154:
 4094 0612 63685379 		.ascii	"chSysLock\000"
 4094      734C6F63 
 4094      6B00
 4095              	.LASF156:
 4096 061c 6F73616C 		.ascii	"osalSysUnlock\000"
 4096      53797355 
 4096      6E6C6F63 
 4096      6B00
 4097              	.LASF91:
 4098 062a 7264796D 		.ascii	"rdymsg\000"
 4098      736700
 4099              	.LASF52:
 4100 0631 74687265 		.ascii	"threads_queue_t\000"
 4100      6164735F 
ARM GAS  /tmp/cce4XLMQ.s 			page 78


 4100      71756575 
 4100      655F7400 
 4101              	.LASF98:
 4102 0641 63685F73 		.ascii	"ch_semaphore\000"
 4102      656D6170 
 4102      686F7265 
 4102      00
 4103              	.LASF44:
 4104 064e 705F6570 		.ascii	"p_epending\000"
 4104      656E6469 
 4104      6E6700
 4105              	.LASF131:
 4106 0659 53445F55 		.ascii	"SD_UNINIT\000"
 4106      4E494E49 
 4106      5400
 4107              	.LASF120:
 4108 0663 715F636F 		.ascii	"q_counter\000"
 4108      756E7465 
 4108      7200
 4109              	.LASF96:
 4110 066d 77746D74 		.ascii	"wtmtxp\000"
 4110      787000
 4111              	.LASF56:
 4112 0674 725F7175 		.ascii	"r_queue\000"
 4112      65756500 
 4113              	.LASF51:
 4114 067c 63685F74 		.ascii	"ch_threads_list\000"
 4114      68726561 
 4114      64735F6C 
 4114      69737400 
 4115              	.LASF135:
 4116 068c 53657269 		.ascii	"SerialDriver\000"
 4116      616C4472 
 4116      69766572 
 4116      00
 4117              	.LASF11:
 4118 0699 6C6F6E67 		.ascii	"long unsigned int\000"
 4118      20756E73 
 4118      69676E65 
 4118      6420696E 
 4118      7400
 4119              	.LASF145:
 4120 06ab 72656164 		.ascii	"read\000"
 4120      00
 4121              	.LASF105:
 4122 06b0 63686172 		.ascii	"char\000"
 4122      00
 4123              	.LASF170:
 4124 06b5 7364496E 		.ascii	"sdIncomingDataI\000"
 4124      636F6D69 
 4124      6E674461 
 4124      74614900 
 4125              	.LASF167:
 4126 06c5 636F6E66 		.ascii	"config\000"
 4126      696700
 4127              	.LASF166:
 4128 06cc 73645374 		.ascii	"sdStart\000"
ARM GAS  /tmp/cce4XLMQ.s 			page 79


 4128      61727400 
 4129              	.LASF6:
 4130 06d4 5F5F7569 		.ascii	"__uint16_t\000"
 4130      6E743136 
 4130      5F7400
 4131              	.LASF30:
 4132 06df 74687265 		.ascii	"thread_t\000"
 4132      61645F74 
 4132      00
 4133              	.LASF104:
 4134 06e8 6D5F6E65 		.ascii	"m_next\000"
 4134      787400
 4135              	.LASF29:
 4136 06ef 73797374 		.ascii	"systime_t\000"
 4136      696D655F 
 4136      7400
 4137              	.LASF46:
 4138 06f9 705F7265 		.ascii	"p_realprio\000"
 4138      616C7072 
 4138      696F00
 4139              	.LASF62:
 4140 0704 76746675 		.ascii	"vtfunc_t\000"
 4140      6E635F74 
 4140      00
 4141              	.LASF10:
 4142 070d 5F5F7569 		.ascii	"__uint32_t\000"
 4142      6E743332 
 4142      5F7400
 4143              	.LASF174:
 4144 0718 5F5F7365 		.ascii	"__set_BASEPRI\000"
 4144      745F4241 
 4144      53455052 
 4144      4900
 4145              	.LASF75:
 4146 0726 70616E69 		.ascii	"panic_msg\000"
 4146      635F6D73 
 4146      6700
 4147              	.LASF89:
 4148 0730 6F666673 		.ascii	"offset\000"
 4148      657400
 4149              	.LASF107:
 4150 0737 6576656E 		.ascii	"event_listener_t\000"
 4150      745F6C69 
 4150      7374656E 
 4150      65725F74 
 4150      00
 4151              	.LASF87:
 4152 0748 636F6E74 		.ascii	"context\000"
 4152      65787400 
 4153              	.LASF64:
 4154 0750 63685F76 		.ascii	"ch_virtual_timer\000"
 4154      69727475 
 4154      616C5F74 
 4154      696D6572 
 4154      00
 4155              	.LASF20:
 4156 0761 7274636E 		.ascii	"rtcnt_t\000"
ARM GAS  /tmp/cce4XLMQ.s 			page 80


 4156      745F7400 
 4157              	.LASF133:
 4158 0769 53445F52 		.ascii	"SD_READY\000"
 4158      45414459 
 4158      00
 4159              	.LASF69:
 4160 0772 76745F70 		.ascii	"vt_par\000"
 4160      617200
 4161              	.LASF27:
 4162 0779 6576656E 		.ascii	"eventflags_t\000"
 4162      74666C61 
 4162      67735F74 
 4162      00
 4163              	.LASF18:
 4164 0786 75696E74 		.ascii	"uint32_t\000"
 4164      33325F74 
 4164      00
 4165              	.LASF134:
 4166 078f 73647374 		.ascii	"sdstate_t\000"
 4166      6174655F 
 4166      7400
 4167              	.LASF122:
 4168 0799 715F746F 		.ascii	"q_top\000"
 4168      7000
 4169              	.LASF101:
 4170 079f 63685F6D 		.ascii	"ch_mutex\000"
 4170      75746578 
 4170      00
 4171              	.LASF115:
 4172 07a8 65735F6E 		.ascii	"es_next\000"
 4172      65787400 
 4173              	.LASF161:
 4174 07b0 63684951 		.ascii	"chIQIsEmptyI\000"
 4174      4973456D 
 4174      70747949 
 4174      00
 4175              	.LASF125:
 4176 07bd 715F6E6F 		.ascii	"q_notify\000"
 4176      74696679 
 4176      00
 4177              	.LASF78:
 4178 07c6 726C6973 		.ascii	"rlist\000"
 4178      7400
 4179              	.LASF177:
 4180 07cc 73645265 		.ascii	"sdRequestDataI\000"
 4180      71756573 
 4180      74446174 
 4180      614900
 4181              	.LASF15:
 4182 07db 75696E74 		.ascii	"uint8_t\000"
 4182      385F7400 
 4183              	.LASF160:
 4184 07e3 666C6167 		.ascii	"flags\000"
 4184      7300
 4185              	.LASF164:
 4186 07e9 6F6E6F74 		.ascii	"onotify\000"
 4186      69667900 
ARM GAS  /tmp/cce4XLMQ.s 			page 81


 4187              	.LASF93:
 4188 07f1 77746F62 		.ascii	"wtobjp\000"
 4188      6A7000
 4189              	.LASF138:
 4190 07f8 69717565 		.ascii	"iqueue\000"
 4190      756500
 4191              	.LASF72:
 4192 07ff 76745F73 		.ascii	"vt_systime\000"
 4192      79737469 
 4192      6D6500
 4193              	.LASF152:
 4194 080a 63685379 		.ascii	"chSysUnlock\000"
 4194      73556E6C 
 4194      6F636B00 
 4195              	.LASF43:
 4196 0816 705F6D73 		.ascii	"p_msg\000"
 4196      6700
 4197              	.LASF176:
 4198 081c 7364496E 		.ascii	"sdInit\000"
 4198      697400
 4199              	.LASF126:
 4200 0823 715F6C69 		.ascii	"q_link\000"
 4200      6E6B00
 4201              	.LASF103:
 4202 082a 6D5F6F77 		.ascii	"m_owner\000"
 4202      6E657200 
 4203              	.LASF34:
 4204 0832 705F6374 		.ascii	"p_ctx\000"
 4204      7800
 4205              	.LASF68:
 4206 0838 76745F66 		.ascii	"vt_func\000"
 4206      756E6300 
 4207              	.LASF108:
 4208 0840 6576656E 		.ascii	"event_listener\000"
 4208      745F6C69 
 4208      7374656E 
 4208      657200
 4209              	.LASF41:
 4210 084f 705F7761 		.ascii	"p_waiting\000"
 4210      6974696E 
 4210      6700
 4211              		.ident	"GCC: (GNU Tools for ARM Embedded Processors) 4.9.3 20150303 (release) [ARM/embedded-4_9-br
ARM GAS  /tmp/cce4XLMQ.s 			page 82


DEFINED SYMBOLS
                            *ABS*:00000000 serial.c
     /tmp/cce4XLMQ.s:21     .text.port_lock:00000000 $t
     /tmp/cce4XLMQ.s:26     .text.port_lock:00000000 port_lock
     /tmp/cce4XLMQ.s:58     .text.port_unlock:00000000 $t
     /tmp/cce4XLMQ.s:63     .text.port_unlock:00000000 port_unlock
     /tmp/cce4XLMQ.s:93     .text.chSysLock:00000000 $t
     /tmp/cce4XLMQ.s:98     .text.chSysLock:00000000 chSysLock
     /tmp/cce4XLMQ.s:117    .text.chSysUnlock:00000000 $t
     /tmp/cce4XLMQ.s:122    .text.chSysUnlock:00000000 chSysUnlock
     /tmp/cce4XLMQ.s:140    .text.chEvtObjectInit:00000000 $t
     /tmp/cce4XLMQ.s:145    .text.chEvtObjectInit:00000000 chEvtObjectInit
     /tmp/cce4XLMQ.s:169    .text.chIQIsEmptyI:00000000 $t
     /tmp/cce4XLMQ.s:174    .text.chIQIsEmptyI:00000000 chIQIsEmptyI
     /tmp/cce4XLMQ.s:203    .text.osalSysLock:00000000 $t
     /tmp/cce4XLMQ.s:208    .text.osalSysLock:00000000 osalSysLock
     /tmp/cce4XLMQ.s:227    .text.osalSysUnlock:00000000 $t
     /tmp/cce4XLMQ.s:232    .text.osalSysUnlock:00000000 osalSysUnlock
     /tmp/cce4XLMQ.s:250    .text.osalOsRescheduleS:00000000 $t
     /tmp/cce4XLMQ.s:255    .text.osalOsRescheduleS:00000000 osalOsRescheduleS
     /tmp/cce4XLMQ.s:273    .text.osalEventObjectInit:00000000 $t
     /tmp/cce4XLMQ.s:278    .text.osalEventObjectInit:00000000 osalEventObjectInit
     /tmp/cce4XLMQ.s:302    .text.osalEventBroadcastFlagsI:00000000 $t
     /tmp/cce4XLMQ.s:307    .text.osalEventBroadcastFlagsI:00000000 osalEventBroadcastFlagsI
     /tmp/cce4XLMQ.s:333    .text.write:00000000 $t
     /tmp/cce4XLMQ.s:338    .text.write:00000000 write
     /tmp/cce4XLMQ.s:372    .text.read:00000000 $t
     /tmp/cce4XLMQ.s:377    .text.read:00000000 read
     /tmp/cce4XLMQ.s:410    .text.put:00000000 $t
     /tmp/cce4XLMQ.s:415    .text.put:00000000 put
     /tmp/cce4XLMQ.s:448    .text.get:00000000 $t
     /tmp/cce4XLMQ.s:453    .text.get:00000000 get
     /tmp/cce4XLMQ.s:482    .text.putt:00000000 $t
     /tmp/cce4XLMQ.s:487    .text.putt:00000000 putt
     /tmp/cce4XLMQ.s:521    .text.gett:00000000 $t
     /tmp/cce4XLMQ.s:526    .text.gett:00000000 gett
     /tmp/cce4XLMQ.s:556    .text.writet:00000000 $t
     /tmp/cce4XLMQ.s:561    .text.writet:00000000 writet
     /tmp/cce4XLMQ.s:595    .text.readt:00000000 $t
     /tmp/cce4XLMQ.s:600    .text.readt:00000000 readt
     /tmp/cce4XLMQ.s:634    .rodata.vmt:00000000 $d
     /tmp/cce4XLMQ.s:637    .rodata.vmt:00000000 vmt
     /tmp/cce4XLMQ.s:647    .text.sdInit:00000000 $t
     /tmp/cce4XLMQ.s:653    .text.sdInit:00000000 sdInit
     /tmp/cce4XLMQ.s:671    .text.sdObjectInit:00000000 $t
     /tmp/cce4XLMQ.s:677    .text.sdObjectInit:00000000 sdObjectInit
     /tmp/cce4XLMQ.s:736    .text.sdObjectInit:00000060 $d
     /tmp/cce4XLMQ.s:741    .text.sdStart:00000000 $t
     /tmp/cce4XLMQ.s:747    .text.sdStart:00000000 sdStart
     /tmp/cce4XLMQ.s:781    .text.sdStop:00000000 $t
     /tmp/cce4XLMQ.s:787    .text.sdStop:00000000 sdStop
     /tmp/cce4XLMQ.s:831    .text.sdIncomingDataI:00000000 $t
     /tmp/cce4XLMQ.s:837    .text.sdIncomingDataI:00000000 sdIncomingDataI
     /tmp/cce4XLMQ.s:892    .text.sdRequestDataI:00000000 $t
     /tmp/cce4XLMQ.s:898    .text.sdRequestDataI:00000000 sdRequestDataI
                     .debug_frame:00000010 $d
     /tmp/cce4XLMQ.s:740    .text.sdObjectInit:00000064 $t
ARM GAS  /tmp/cce4XLMQ.s 			page 83



UNDEFINED SYMBOLS
chSchRescheduleS
chEvtBroadcastFlagsI
chOQWriteTimeout
chIQReadTimeout
chOQPutTimeout
chIQGetTimeout
sd_lld_init
chIQObjectInit
chOQObjectInit
sd_lld_start
sd_lld_stop
chOQResetI
chIQResetI
chIQPutI
chOQGetI
