ARM GAS  /tmp/ccK5gGBe.s 			page 1


   1              		.syntax unified
   2              		.cpu cortex-m4
   3              		.eabi_attribute 27, 1
   4              		.eabi_attribute 28, 1
   5              		.fpu fpv4-sp-d16
   6              		.eabi_attribute 20, 1
   7              		.eabi_attribute 21, 1
   8              		.eabi_attribute 23, 3
   9              		.eabi_attribute 24, 1
  10              		.eabi_attribute 25, 1
  11              		.eabi_attribute 26, 1
  12              		.eabi_attribute 30, 6
  13              		.eabi_attribute 34, 1
  14              		.eabi_attribute 18, 4
  15              		.thumb
  16              		.file	"serial_lld.c"
  17              		.text
  18              	.Ltext0:
  19              		.cfi_sections	.debug_frame
  20              		.section	.text.port_lock,"ax",%progbits
  21              		.align	2
  22              		.p2align 4,,15
  23              		.thumb
  24              		.thumb_func
  25              		.type	port_lock, %function
  26              	port_lock:
  27              	.LFB116:
  28              		.file 1 "/home/makkmarci/workspace/CLEAN/ChibiOS/os/rt/ports/ARMCMx/chcore_v7m.h"
  29              		.loc 1 444 0
  30              		.cfi_startproc
  31              		@ args = 0, pretend = 0, frame = 8
  32              		@ frame_needed = 0, uses_anonymous_args = 0
  33              		@ link register save eliminated.
  34 0000 82B0     		sub	sp, sp, #8
  35              		.cfi_def_cfa_offset 8
  36 0002 2023     		movs	r3, #32
  37 0004 0193     		str	r3, [sp, #4]
  38              	.LBB6:
  39              	.LBB7:
  40              		.file 2 "/home/makkmarci/workspace/CLEAN/ChibiOS/os/ext/CMSIS/include/core_cmFunc.h"
  41              		.loc 2 546 0
  42 0006 019B     		ldr	r3, [sp, #4]
  43              	@ 546 "/home/makkmarci/workspace/CLEAN/ChibiOS/os/ext/CMSIS/include/core_cmFunc.h" 1
  44 0008 83F31188 		MSR basepri, r3
  45              	@ 0 "" 2
  46              		.thumb
  47              	.LBE7:
  48              	.LBE6:
  49              		.loc 1 451 0
  50 000c 02B0     		add	sp, sp, #8
  51              		.cfi_def_cfa_offset 0
  52              		@ sp needed
  53 000e 7047     		bx	lr
  54              		.cfi_endproc
  55              	.LFE116:
  56              		.size	port_lock, .-port_lock
  57              		.section	.text.port_unlock,"ax",%progbits
ARM GAS  /tmp/ccK5gGBe.s 			page 2


  58              		.align	2
  59              		.p2align 4,,15
  60              		.thumb
  61              		.thumb_func
  62              		.type	port_unlock, %function
  63              	port_unlock:
  64              	.LFB117:
  65              		.loc 1 458 0
  66              		.cfi_startproc
  67              		@ args = 0, pretend = 0, frame = 8
  68              		@ frame_needed = 0, uses_anonymous_args = 0
  69              		@ link register save eliminated.
  70 0000 82B0     		sub	sp, sp, #8
  71              		.cfi_def_cfa_offset 8
  72 0002 0023     		movs	r3, #0
  73 0004 0193     		str	r3, [sp, #4]
  74              	.LBB8:
  75              	.LBB9:
  76              		.loc 2 546 0
  77 0006 019B     		ldr	r3, [sp, #4]
  78              	@ 546 "/home/makkmarci/workspace/CLEAN/ChibiOS/os/ext/CMSIS/include/core_cmFunc.h" 1
  79 0008 83F31188 		MSR basepri, r3
  80              	@ 0 "" 2
  81              		.thumb
  82              	.LBE9:
  83              	.LBE8:
  84              		.loc 1 465 0
  85 000c 02B0     		add	sp, sp, #8
  86              		.cfi_def_cfa_offset 0
  87              		@ sp needed
  88 000e 7047     		bx	lr
  89              		.cfi_endproc
  90              	.LFE117:
  91              		.size	port_unlock, .-port_unlock
  92              		.section	.text.port_lock_from_isr,"ax",%progbits
  93              		.align	2
  94              		.p2align 4,,15
  95              		.thumb
  96              		.thumb_func
  97              		.type	port_lock_from_isr, %function
  98              	port_lock_from_isr:
  99              	.LFB118:
 100              		.loc 1 473 0
 101              		.cfi_startproc
 102              		@ args = 0, pretend = 0, frame = 0
 103              		@ frame_needed = 0, uses_anonymous_args = 0
 104 0000 08B5     		push	{r3, lr}
 105              		.cfi_def_cfa_offset 8
 106              		.cfi_offset 3, -8
 107              		.cfi_offset 14, -4
 108              		.loc 1 475 0
 109 0002 FFF7FEFF 		bl	port_lock
 110              		.loc 1 476 0
 111 0006 08BD     		pop	{r3, pc}
 112              		.cfi_endproc
 113              	.LFE118:
 114              		.size	port_lock_from_isr, .-port_lock_from_isr
ARM GAS  /tmp/ccK5gGBe.s 			page 3


 115 0008 AFF30080 		.section	.text.port_unlock_from_isr,"ax",%progbits
 115      AFF30080 
 116              		.align	2
 117              		.p2align 4,,15
 118              		.thumb
 119              		.thumb_func
 120              		.type	port_unlock_from_isr, %function
 121              	port_unlock_from_isr:
 122              	.LFB119:
 123              		.loc 1 484 0
 124              		.cfi_startproc
 125              		@ args = 0, pretend = 0, frame = 0
 126              		@ frame_needed = 0, uses_anonymous_args = 0
 127 0000 08B5     		push	{r3, lr}
 128              		.cfi_def_cfa_offset 8
 129              		.cfi_offset 3, -8
 130              		.cfi_offset 14, -4
 131              		.loc 1 486 0
 132 0002 FFF7FEFF 		bl	port_unlock
 133              		.loc 1 487 0
 134 0006 08BD     		pop	{r3, pc}
 135              		.cfi_endproc
 136              	.LFE119:
 137              		.size	port_unlock_from_isr, .-port_unlock_from_isr
 138 0008 AFF30080 		.section	.text.chSysLockFromISR,"ax",%progbits
 138      AFF30080 
 139              		.align	2
 140              		.p2align 4,,15
 141              		.thumb
 142              		.thumb_func
 143              		.type	chSysLockFromISR, %function
 144              	chSysLockFromISR:
 145              	.LFB147:
 146              		.file 3 "/home/makkmarci/workspace/CLEAN/ChibiOS/os/rt/include/chsys.h"
 147              		.loc 3 386 0
 148              		.cfi_startproc
 149              		@ args = 0, pretend = 0, frame = 0
 150              		@ frame_needed = 0, uses_anonymous_args = 0
 151 0000 08B5     		push	{r3, lr}
 152              		.cfi_def_cfa_offset 8
 153              		.cfi_offset 3, -8
 154              		.cfi_offset 14, -4
 155              		.loc 3 388 0
 156 0002 FFF7FEFF 		bl	port_lock_from_isr
 157              		.loc 3 391 0
 158 0006 08BD     		pop	{r3, pc}
 159              		.cfi_endproc
 160              	.LFE147:
 161              		.size	chSysLockFromISR, .-chSysLockFromISR
 162              		.section	.text.chSysUnlockFromISR,"ax",%progbits
 163              		.align	2
 164              		.p2align 4,,15
 165              		.thumb
 166              		.thumb_func
 167              		.type	chSysUnlockFromISR, %function
 168              	chSysUnlockFromISR:
 169              	.LFB148:
ARM GAS  /tmp/ccK5gGBe.s 			page 4


 170              		.loc 3 406 0
 171              		.cfi_startproc
 172              		@ args = 0, pretend = 0, frame = 0
 173              		@ frame_needed = 0, uses_anonymous_args = 0
 174 0000 08B5     		push	{r3, lr}
 175              		.cfi_def_cfa_offset 8
 176              		.cfi_offset 3, -8
 177              		.cfi_offset 14, -4
 178              		.loc 3 410 0
 179 0002 FFF7FEFF 		bl	port_unlock_from_isr
 180              		.loc 3 411 0
 181 0006 08BD     		pop	{r3, pc}
 182              		.cfi_endproc
 183              	.LFE148:
 184              		.size	chSysUnlockFromISR, .-chSysUnlockFromISR
 185 0008 AFF30080 		.section	.text.chOQIsEmptyI,"ax",%progbits
 185      AFF30080 
 186              		.align	2
 187              		.p2align 4,,15
 188              		.thumb
 189              		.thumb_func
 190              		.type	chOQIsEmptyI, %function
 191              	chOQIsEmptyI:
 192              	.LFB213:
 193              		.file 4 "/home/makkmarci/workspace/CLEAN/ChibiOS/os/rt/include/chqueues.h"
 194              		.loc 4 386 0
 195              		.cfi_startproc
 196              		@ args = 0, pretend = 0, frame = 8
 197              		@ frame_needed = 0, uses_anonymous_args = 0
 198              		@ link register save eliminated.
 199 0000 82B0     		sub	sp, sp, #8
 200              		.cfi_def_cfa_offset 8
 201 0002 0190     		str	r0, [sp, #4]
 202              		.loc 4 390 0
 203 0004 019B     		ldr	r3, [sp, #4]
 204 0006 5A69     		ldr	r2, [r3, #20]
 205 0008 019B     		ldr	r3, [sp, #4]
 206 000a 9B69     		ldr	r3, [r3, #24]
 207 000c 9A42     		cmp	r2, r3
 208 000e 05D1     		bne	.L8
 209              		.loc 4 390 0 is_stmt 0 discriminator 1
 210 0010 019B     		ldr	r3, [sp, #4]
 211 0012 9B68     		ldr	r3, [r3, #8]
 212 0014 002B     		cmp	r3, #0
 213 0016 01D0     		beq	.L8
 214              		.loc 4 390 0 discriminator 3
 215 0018 0123     		movs	r3, #1
 216 001a 00E0     		b	.L9
 217              	.L8:
 218              		.loc 4 390 0 discriminator 4
 219 001c 0023     		movs	r3, #0
 220              	.L9:
 221              		.loc 4 390 0 discriminator 6
 222 001e 03F00103 		and	r3, r3, #1
 223 0022 DBB2     		uxtb	r3, r3
 224              		.loc 4 391 0 is_stmt 1 discriminator 6
 225 0024 1846     		mov	r0, r3
ARM GAS  /tmp/ccK5gGBe.s 			page 5


 226 0026 02B0     		add	sp, sp, #8
 227              		.cfi_def_cfa_offset 0
 228              		@ sp needed
 229 0028 7047     		bx	lr
 230              		.cfi_endproc
 231              	.LFE213:
 232              		.size	chOQIsEmptyI, .-chOQIsEmptyI
 233 002a 00BFAFF3 		.section	.text.osalSysLockFromISR,"ax",%progbits
 233      0080
 234              		.align	2
 235              		.p2align 4,,15
 236              		.thumb
 237              		.thumb_func
 238              		.type	osalSysLockFromISR, %function
 239              	osalSysLockFromISR:
 240              	.LFB222:
 241              		.file 5 "/home/makkmarci/workspace/CLEAN/ChibiOS/os/hal/osal/rt/osal.h"
 242              		.loc 5 467 0
 243              		.cfi_startproc
 244              		@ args = 0, pretend = 0, frame = 0
 245              		@ frame_needed = 0, uses_anonymous_args = 0
 246 0000 08B5     		push	{r3, lr}
 247              		.cfi_def_cfa_offset 8
 248              		.cfi_offset 3, -8
 249              		.cfi_offset 14, -4
 250              		.loc 5 469 0
 251 0002 FFF7FEFF 		bl	chSysLockFromISR
 252              		.loc 5 470 0
 253 0006 08BD     		pop	{r3, pc}
 254              		.cfi_endproc
 255              	.LFE222:
 256              		.size	osalSysLockFromISR, .-osalSysLockFromISR
 257              		.section	.text.osalSysUnlockFromISR,"ax",%progbits
 258              		.align	2
 259              		.p2align 4,,15
 260              		.thumb
 261              		.thumb_func
 262              		.type	osalSysUnlockFromISR, %function
 263              	osalSysUnlockFromISR:
 264              	.LFB223:
 265              		.loc 5 478 0
 266              		.cfi_startproc
 267              		@ args = 0, pretend = 0, frame = 0
 268              		@ frame_needed = 0, uses_anonymous_args = 0
 269 0000 08B5     		push	{r3, lr}
 270              		.cfi_def_cfa_offset 8
 271              		.cfi_offset 3, -8
 272              		.cfi_offset 14, -4
 273              		.loc 5 480 0
 274 0002 FFF7FEFF 		bl	chSysUnlockFromISR
 275              		.loc 5 481 0
 276 0006 08BD     		pop	{r3, pc}
 277              		.cfi_endproc
 278              	.LFE223:
 279              		.size	osalSysUnlockFromISR, .-osalSysUnlockFromISR
 280 0008 AFF30080 		.section	.text.osalEventBroadcastFlagsI,"ax",%progbits
 280      AFF30080 
ARM GAS  /tmp/ccK5gGBe.s 			page 6


 281              		.align	2
 282              		.p2align 4,,15
 283              		.thumb
 284              		.thumb_func
 285              		.type	osalEventBroadcastFlagsI, %function
 286              	osalEventBroadcastFlagsI:
 287              	.LFB242:
 288              		.loc 5 796 0
 289              		.cfi_startproc
 290              		@ args = 0, pretend = 0, frame = 8
 291              		@ frame_needed = 0, uses_anonymous_args = 0
 292 0000 00B5     		push	{lr}
 293              		.cfi_def_cfa_offset 4
 294              		.cfi_offset 14, -4
 295 0002 83B0     		sub	sp, sp, #12
 296              		.cfi_def_cfa_offset 16
 297 0004 0190     		str	r0, [sp, #4]
 298 0006 0091     		str	r1, [sp]
 299              		.loc 5 798 0
 300 0008 0198     		ldr	r0, [sp, #4]
 301 000a 0099     		ldr	r1, [sp]
 302 000c FFF7FEFF 		bl	chEvtBroadcastFlagsI
 303              		.loc 5 799 0
 304 0010 03B0     		add	sp, sp, #12
 305              		.cfi_def_cfa_offset 4
 306              		@ sp needed
 307 0012 5DF804FB 		ldr	pc, [sp], #4
 308              		.cfi_endproc
 309              	.LFE242:
 310              		.size	osalEventBroadcastFlagsI, .-osalEventBroadcastFlagsI
 311              		.global	SD2
 312 0016 00BFAFF3 		.section	.bss.SD2,"aw",%nobits
 312      0080AFF3 
 312      0080
 313              		.align	2
 314              		.type	SD2, %object
 315              		.size	SD2, 120
 316              	SD2:
 317 0000 00000000 		.space	120
 317      00000000 
 317      00000000 
 317      00000000 
 317      00000000 
 318              		.section	.rodata.default_config,"a",%progbits
 319              		.align	2
 320              		.type	default_config, %object
 321              		.size	default_config, 12
 322              	default_config:
 323 0000 00960000 		.word	38400
 324 0004 0000     		.short	0
 325 0006 0040     		.short	16384
 326 0008 0000     		.short	0
 327 000a 0000     		.space	2
 328              		.section	.text.usart_init,"ax",%progbits
 329              		.align	2
 330              		.p2align 4,,15
 331              		.thumb
ARM GAS  /tmp/ccK5gGBe.s 			page 7


 332              		.thumb_func
 333              		.type	usart_init, %function
 334              	usart_init:
 335              	.LFB253:
 336              		.file 6 "/home/makkmarci/workspace/CLEAN/ChibiOS/os/hal/ports/STM32/LLD/USARTv1/serial_lld.c"
 337              		.loc 6 91 0
 338              		.cfi_startproc
 339              		@ args = 0, pretend = 0, frame = 16
 340              		@ frame_needed = 0, uses_anonymous_args = 0
 341              		@ link register save eliminated.
 342 0000 84B0     		sub	sp, sp, #16
 343              		.cfi_def_cfa_offset 16
 344 0002 0190     		str	r0, [sp, #4]
 345 0004 0091     		str	r1, [sp]
 346              		.loc 6 92 0
 347 0006 019B     		ldr	r3, [sp, #4]
 348 0008 5B6F     		ldr	r3, [r3, #116]
 349 000a 0393     		str	r3, [sp, #12]
 350              		.loc 6 96 0
 351 000c 019B     		ldr	r3, [sp, #4]
 352 000e 5B6F     		ldr	r3, [r3, #116]
 353 0010 1C4A     		ldr	r2, .L18
 354 0012 9342     		cmp	r3, r2
 355 0014 04D0     		beq	.L15
 356              		.loc 6 96 0 is_stmt 0 discriminator 1
 357 0016 019B     		ldr	r3, [sp, #4]
 358 0018 5B6F     		ldr	r3, [r3, #116]
 359 001a 1B4A     		ldr	r2, .L18+4
 360 001c 9342     		cmp	r3, r2
 361 001e 07D1     		bne	.L16
 362              	.L15:
 363              		.loc 6 100 0 is_stmt 1
 364 0020 009B     		ldr	r3, [sp]
 365 0022 1B68     		ldr	r3, [r3]
 366 0024 194A     		ldr	r2, .L18+8
 367 0026 B2FBF3F2 		udiv	r2, r2, r3
 368 002a 039B     		ldr	r3, [sp, #12]
 369 002c 9A60     		str	r2, [r3, #8]
 370 002e 06E0     		b	.L17
 371              	.L16:
 372              		.loc 6 102 0
 373 0030 009B     		ldr	r3, [sp]
 374 0032 1B68     		ldr	r3, [r3]
 375 0034 164A     		ldr	r2, .L18+12
 376 0036 B2FBF3F2 		udiv	r2, r2, r3
 377 003a 039B     		ldr	r3, [sp, #12]
 378 003c 9A60     		str	r2, [r3, #8]
 379              	.L17:
 380              		.loc 6 105 0
 381 003e 009B     		ldr	r3, [sp]
 382 0040 DB88     		ldrh	r3, [r3, #6]
 383 0042 43F04003 		orr	r3, r3, #64
 384 0046 9BB2     		uxth	r3, r3
 385 0048 1A46     		mov	r2, r3
 386 004a 039B     		ldr	r3, [sp, #12]
 387 004c 1A61     		str	r2, [r3, #16]
 388              		.loc 6 106 0
ARM GAS  /tmp/ccK5gGBe.s 			page 8


 389 004e 009B     		ldr	r3, [sp]
 390 0050 1B89     		ldrh	r3, [r3, #8]
 391 0052 43F00103 		orr	r3, r3, #1
 392 0056 9BB2     		uxth	r3, r3
 393 0058 1A46     		mov	r2, r3
 394 005a 039B     		ldr	r3, [sp, #12]
 395 005c 5A61     		str	r2, [r3, #20]
 396              		.loc 6 107 0
 397 005e 009B     		ldr	r3, [sp]
 398 0060 9B88     		ldrh	r3, [r3, #4]
 399              		.loc 6 108 0
 400 0062 43F40453 		orr	r3, r3, #8448
 401 0066 43F02C03 		orr	r3, r3, #44
 402 006a 9BB2     		uxth	r3, r3
 403 006c 1A46     		mov	r2, r3
 404              		.loc 6 107 0
 405 006e 039B     		ldr	r3, [sp, #12]
 406 0070 DA60     		str	r2, [r3, #12]
 407              		.loc 6 110 0
 408 0072 039B     		ldr	r3, [sp, #12]
 409 0074 0022     		movs	r2, #0
 410 0076 1A60     		str	r2, [r3]
 411              		.loc 6 111 0
 412 0078 039B     		ldr	r3, [sp, #12]
 413 007a 1B68     		ldr	r3, [r3]
 414              		.loc 6 112 0
 415 007c 039B     		ldr	r3, [sp, #12]
 416 007e 5B68     		ldr	r3, [r3, #4]
 417              		.loc 6 113 0
 418 0080 04B0     		add	sp, sp, #16
 419              		.cfi_def_cfa_offset 0
 420              		@ sp needed
 421 0082 7047     		bx	lr
 422              	.L19:
 423              		.align	2
 424              	.L18:
 425 0084 00100140 		.word	1073811456
 426 0088 00140140 		.word	1073812480
 427 008c 00BD0105 		.word	84000000
 428 0090 80DE8002 		.word	42000000
 429              		.cfi_endproc
 430              	.LFE253:
 431              		.size	usart_init, .-usart_init
 432 0094 AFF30080 		.section	.text.usart_deinit,"ax",%progbits
 432      AFF30080 
 432      AFF30080 
 433              		.align	2
 434              		.p2align 4,,15
 435              		.thumb
 436              		.thumb_func
 437              		.type	usart_deinit, %function
 438              	usart_deinit:
 439              	.LFB254:
 440              		.loc 6 121 0
 441              		.cfi_startproc
 442              		@ args = 0, pretend = 0, frame = 8
 443              		@ frame_needed = 0, uses_anonymous_args = 0
ARM GAS  /tmp/ccK5gGBe.s 			page 9


 444              		@ link register save eliminated.
 445 0000 82B0     		sub	sp, sp, #8
 446              		.cfi_def_cfa_offset 8
 447 0002 0190     		str	r0, [sp, #4]
 448              		.loc 6 123 0
 449 0004 019B     		ldr	r3, [sp, #4]
 450 0006 0022     		movs	r2, #0
 451 0008 DA60     		str	r2, [r3, #12]
 452              		.loc 6 124 0
 453 000a 019B     		ldr	r3, [sp, #4]
 454 000c 0022     		movs	r2, #0
 455 000e 1A61     		str	r2, [r3, #16]
 456              		.loc 6 125 0
 457 0010 019B     		ldr	r3, [sp, #4]
 458 0012 0022     		movs	r2, #0
 459 0014 5A61     		str	r2, [r3, #20]
 460              		.loc 6 126 0
 461 0016 02B0     		add	sp, sp, #8
 462              		.cfi_def_cfa_offset 0
 463              		@ sp needed
 464 0018 7047     		bx	lr
 465              		.cfi_endproc
 466              	.LFE254:
 467              		.size	usart_deinit, .-usart_deinit
 468 001a 00BFAFF3 		.section	.text.set_error,"ax",%progbits
 468      0080
 469              		.align	2
 470              		.p2align 4,,15
 471              		.thumb
 472              		.thumb_func
 473              		.type	set_error, %function
 474              	set_error:
 475              	.LFB255:
 476              		.loc 6 134 0
 477              		.cfi_startproc
 478              		@ args = 0, pretend = 0, frame = 16
 479              		@ frame_needed = 0, uses_anonymous_args = 0
 480 0000 00B5     		push	{lr}
 481              		.cfi_def_cfa_offset 4
 482              		.cfi_offset 14, -4
 483 0002 85B0     		sub	sp, sp, #20
 484              		.cfi_def_cfa_offset 24
 485 0004 0190     		str	r0, [sp, #4]
 486 0006 0B46     		mov	r3, r1
 487 0008 ADF80230 		strh	r3, [sp, #2]	@ movhi
 488              		.loc 6 135 0
 489 000c 0023     		movs	r3, #0
 490 000e 0393     		str	r3, [sp, #12]
 491              		.loc 6 137 0
 492 0010 BDF80230 		ldrh	r3, [sp, #2]
 493 0014 03F00803 		and	r3, r3, #8
 494 0018 002B     		cmp	r3, #0
 495 001a 03D0     		beq	.L22
 496              		.loc 6 138 0
 497 001c 039B     		ldr	r3, [sp, #12]
 498 001e 43F08003 		orr	r3, r3, #128
 499 0022 0393     		str	r3, [sp, #12]
ARM GAS  /tmp/ccK5gGBe.s 			page 10


 500              	.L22:
 501              		.loc 6 139 0
 502 0024 BDF80230 		ldrh	r3, [sp, #2]
 503 0028 03F00103 		and	r3, r3, #1
 504 002c 002B     		cmp	r3, #0
 505 002e 03D0     		beq	.L23
 506              		.loc 6 140 0
 507 0030 039B     		ldr	r3, [sp, #12]
 508 0032 43F02003 		orr	r3, r3, #32
 509 0036 0393     		str	r3, [sp, #12]
 510              	.L23:
 511              		.loc 6 141 0
 512 0038 BDF80230 		ldrh	r3, [sp, #2]
 513 003c 03F00203 		and	r3, r3, #2
 514 0040 002B     		cmp	r3, #0
 515 0042 03D0     		beq	.L24
 516              		.loc 6 142 0
 517 0044 039B     		ldr	r3, [sp, #12]
 518 0046 43F04003 		orr	r3, r3, #64
 519 004a 0393     		str	r3, [sp, #12]
 520              	.L24:
 521              		.loc 6 143 0
 522 004c BDF80230 		ldrh	r3, [sp, #2]
 523 0050 03F00403 		and	r3, r3, #4
 524 0054 002B     		cmp	r3, #0
 525 0056 03D0     		beq	.L25
 526              		.loc 6 144 0
 527 0058 039B     		ldr	r3, [sp, #12]
 528 005a 43F48073 		orr	r3, r3, #256
 529 005e 0393     		str	r3, [sp, #12]
 530              	.L25:
 531              		.loc 6 145 0
 532 0060 019B     		ldr	r3, [sp, #4]
 533 0062 0433     		adds	r3, r3, #4
 534 0064 1846     		mov	r0, r3
 535 0066 0399     		ldr	r1, [sp, #12]
 536 0068 FFF7FEFF 		bl	osalEventBroadcastFlagsI
 537              		.loc 6 146 0
 538 006c 05B0     		add	sp, sp, #20
 539              		.cfi_def_cfa_offset 4
 540              		@ sp needed
 541 006e 5DF804FB 		ldr	pc, [sp], #4
 542              		.cfi_endproc
 543              	.LFE255:
 544              		.size	set_error, .-set_error
 545 0072 00BFAFF3 		.section	.text.serve_interrupt,"ax",%progbits
 545      0080AFF3 
 545      0080AFF3 
 545      0080
 546              		.align	2
 547              		.p2align 4,,15
 548              		.thumb
 549              		.thumb_func
 550              		.type	serve_interrupt, %function
 551              	serve_interrupt:
 552              	.LFB256:
 553              		.loc 6 153 0
ARM GAS  /tmp/ccK5gGBe.s 			page 11


 554              		.cfi_startproc
 555              		@ args = 0, pretend = 0, frame = 24
 556              		@ frame_needed = 0, uses_anonymous_args = 0
 557 0000 00B5     		push	{lr}
 558              		.cfi_def_cfa_offset 4
 559              		.cfi_offset 14, -4
 560 0002 87B0     		sub	sp, sp, #28
 561              		.cfi_def_cfa_offset 32
 562 0004 0190     		str	r0, [sp, #4]
 563              		.loc 6 154 0
 564 0006 019B     		ldr	r3, [sp, #4]
 565 0008 5B6F     		ldr	r3, [r3, #116]
 566 000a 0493     		str	r3, [sp, #16]
 567              		.loc 6 155 0
 568 000c 049B     		ldr	r3, [sp, #16]
 569 000e DB68     		ldr	r3, [r3, #12]
 570 0010 ADF80E30 		strh	r3, [sp, #14]	@ movhi
 571              		.loc 6 156 0
 572 0014 049B     		ldr	r3, [sp, #16]
 573 0016 1B68     		ldr	r3, [r3]
 574 0018 ADF81630 		strh	r3, [sp, #22]	@ movhi
 575              		.loc 6 159 0
 576 001c BDF81630 		ldrh	r3, [sp, #22]
 577 0020 03F48073 		and	r3, r3, #256
 578 0024 002B     		cmp	r3, #0
 579 0026 0ED0     		beq	.L27
 580              		.loc 6 160 0
 581 0028 FFF7FEFF 		bl	osalSysLockFromISR
 582              		.loc 6 161 0
 583 002c 019B     		ldr	r3, [sp, #4]
 584 002e 0433     		adds	r3, r3, #4
 585 0030 1846     		mov	r0, r3
 586 0032 4FF40071 		mov	r1, #512
 587 0036 FFF7FEFF 		bl	osalEventBroadcastFlagsI
 588              		.loc 6 162 0
 589 003a 049B     		ldr	r3, [sp, #16]
 590 003c 6FF48072 		mvn	r2, #256
 591 0040 1A60     		str	r2, [r3]
 592              		.loc 6 163 0
 593 0042 FFF7FEFF 		bl	osalSysUnlockFromISR
 594              	.L27:
 595              		.loc 6 167 0
 596 0046 FFF7FEFF 		bl	osalSysLockFromISR
 597              		.loc 6 168 0
 598 004a 1FE0     		b	.L28
 599              	.L31:
 600              	.LBB10:
 601              		.loc 6 173 0
 602 004c BDF81630 		ldrh	r3, [sp, #22]
 603 0050 03F00F03 		and	r3, r3, #15
 604 0054 002B     		cmp	r3, #0
 605 0056 05D0     		beq	.L29
 606              		.loc 6 174 0
 607 0058 BDF81630 		ldrh	r3, [sp, #22]
 608 005c 0198     		ldr	r0, [sp, #4]
 609 005e 1946     		mov	r1, r3
 610 0060 FFF7FEFF 		bl	set_error
ARM GAS  /tmp/ccK5gGBe.s 			page 12


 611              	.L29:
 612              		.loc 6 175 0
 613 0064 049B     		ldr	r3, [sp, #16]
 614 0066 5B68     		ldr	r3, [r3, #4]
 615 0068 8DF80D30 		strb	r3, [sp, #13]
 616              		.loc 6 176 0
 617 006c BDF81630 		ldrh	r3, [sp, #22]
 618 0070 03F02003 		and	r3, r3, #32
 619 0074 002B     		cmp	r3, #0
 620 0076 05D0     		beq	.L30
 621              		.loc 6 177 0
 622 0078 9DF80D30 		ldrb	r3, [sp, #13]	@ zero_extendqisi2
 623 007c 0198     		ldr	r0, [sp, #4]
 624 007e 1946     		mov	r1, r3
 625 0080 FFF7FEFF 		bl	sdIncomingDataI
 626              	.L30:
 627              		.loc 6 178 0
 628 0084 049B     		ldr	r3, [sp, #16]
 629 0086 1B68     		ldr	r3, [r3]
 630 0088 ADF81630 		strh	r3, [sp, #22]	@ movhi
 631              	.L28:
 632              	.LBE10:
 633              		.loc 6 168 0
 634 008c BDF81630 		ldrh	r3, [sp, #22]
 635 0090 03F02F03 		and	r3, r3, #47
 636 0094 002B     		cmp	r3, #0
 637 0096 D9D1     		bne	.L31
 638              		.loc 6 180 0
 639 0098 FFF7FEFF 		bl	osalSysUnlockFromISR
 640              		.loc 6 183 0
 641 009c BDF80E30 		ldrh	r3, [sp, #14]
 642 00a0 03F08003 		and	r3, r3, #128
 643 00a4 002B     		cmp	r3, #0
 644 00a6 24D0     		beq	.L32
 645              		.loc 6 183 0 is_stmt 0 discriminator 1
 646 00a8 BDF81630 		ldrh	r3, [sp, #22]
 647 00ac 03F08003 		and	r3, r3, #128
 648 00b0 002B     		cmp	r3, #0
 649 00b2 1ED0     		beq	.L32
 650              	.LBB11:
 651              		.loc 6 185 0 is_stmt 1
 652 00b4 FFF7FEFF 		bl	osalSysLockFromISR
 653              		.loc 6 186 0
 654 00b8 019B     		ldr	r3, [sp, #4]
 655 00ba 3033     		adds	r3, r3, #48
 656 00bc 1846     		mov	r0, r3
 657 00be FFF7FEFF 		bl	chOQGetI
 658 00c2 0290     		str	r0, [sp, #8]
 659              		.loc 6 187 0
 660 00c4 029B     		ldr	r3, [sp, #8]
 661 00c6 002B     		cmp	r3, #0
 662 00c8 0EDA     		bge	.L33
 663              		.loc 6 188 0
 664 00ca 019B     		ldr	r3, [sp, #4]
 665 00cc 0433     		adds	r3, r3, #4
 666 00ce 1846     		mov	r0, r3
 667 00d0 0821     		movs	r1, #8
ARM GAS  /tmp/ccK5gGBe.s 			page 13


 668 00d2 FFF7FEFF 		bl	osalEventBroadcastFlagsI
 669              		.loc 6 189 0
 670 00d6 BDF80E30 		ldrh	r3, [sp, #14]
 671 00da 23F0C003 		bic	r3, r3, #192
 672 00de 43F04002 		orr	r2, r3, #64
 673 00e2 049B     		ldr	r3, [sp, #16]
 674 00e4 DA60     		str	r2, [r3, #12]
 675 00e6 02E0     		b	.L34
 676              	.L33:
 677              		.loc 6 192 0
 678 00e8 029A     		ldr	r2, [sp, #8]
 679 00ea 049B     		ldr	r3, [sp, #16]
 680 00ec 5A60     		str	r2, [r3, #4]
 681              	.L34:
 682              		.loc 6 193 0
 683 00ee FFF7FEFF 		bl	osalSysUnlockFromISR
 684              	.L32:
 685              	.LBE11:
 686              		.loc 6 197 0
 687 00f2 BDF81630 		ldrh	r3, [sp, #22]
 688 00f6 03F04003 		and	r3, r3, #64
 689 00fa 002B     		cmp	r3, #0
 690 00fc 1BD0     		beq	.L26
 691              		.loc 6 198 0
 692 00fe FFF7FEFF 		bl	osalSysLockFromISR
 693              		.loc 6 199 0
 694 0102 019B     		ldr	r3, [sp, #4]
 695 0104 3033     		adds	r3, r3, #48
 696 0106 1846     		mov	r0, r3
 697 0108 FFF7FEFF 		bl	chOQIsEmptyI
 698 010c 0346     		mov	r3, r0
 699 010e 002B     		cmp	r3, #0
 700 0110 05D0     		beq	.L36
 701              		.loc 6 200 0
 702 0112 019B     		ldr	r3, [sp, #4]
 703 0114 0433     		adds	r3, r3, #4
 704 0116 1846     		mov	r0, r3
 705 0118 1021     		movs	r1, #16
 706 011a FFF7FEFF 		bl	osalEventBroadcastFlagsI
 707              	.L36:
 708              		.loc 6 201 0
 709 011e BDF80E30 		ldrh	r3, [sp, #14]
 710 0122 23F04002 		bic	r2, r3, #64
 711 0126 049B     		ldr	r3, [sp, #16]
 712 0128 DA60     		str	r2, [r3, #12]
 713              		.loc 6 202 0
 714 012a 049B     		ldr	r3, [sp, #16]
 715 012c 6FF04002 		mvn	r2, #64
 716 0130 1A60     		str	r2, [r3]
 717              		.loc 6 203 0
 718 0132 FFF7FEFF 		bl	osalSysUnlockFromISR
 719              	.L26:
 720              		.loc 6 205 0
 721 0136 07B0     		add	sp, sp, #28
 722              		.cfi_def_cfa_offset 4
 723              		@ sp needed
 724 0138 5DF804FB 		ldr	pc, [sp], #4
ARM GAS  /tmp/ccK5gGBe.s 			page 14


 725              		.cfi_endproc
 726              	.LFE256:
 727              		.size	serve_interrupt, .-serve_interrupt
 728 013c AFF30080 		.section	.text.notify2,"ax",%progbits
 729              		.align	2
 730              		.p2align 4,,15
 731              		.thumb
 732              		.thumb_func
 733              		.type	notify2, %function
 734              	notify2:
 735              	.LFB257:
 736              		.loc 6 216 0
 737              		.cfi_startproc
 738              		@ args = 0, pretend = 0, frame = 8
 739              		@ frame_needed = 0, uses_anonymous_args = 0
 740              		@ link register save eliminated.
 741 0000 82B0     		sub	sp, sp, #8
 742              		.cfi_def_cfa_offset 8
 743 0002 0190     		str	r0, [sp, #4]
 744              		.loc 6 219 0
 745 0004 034A     		ldr	r2, .L38
 746 0006 034B     		ldr	r3, .L38
 747 0008 DB68     		ldr	r3, [r3, #12]
 748 000a 43F08003 		orr	r3, r3, #128
 749 000e D360     		str	r3, [r2, #12]
 750              		.loc 6 220 0
 751 0010 02B0     		add	sp, sp, #8
 752              		.cfi_def_cfa_offset 0
 753              		@ sp needed
 754 0012 7047     		bx	lr
 755              	.L39:
 756              		.align	2
 757              	.L38:
 758 0014 00440040 		.word	1073759232
 759              		.cfi_endproc
 760              	.LFE257:
 761              		.size	notify2, .-notify2
 762 0018 AFF30080 		.section	.text.VectorD8,"ax",%progbits
 762      AFF30080 
 763              		.align	2
 764              		.p2align 4,,15
 765              		.global	VectorD8
 766              		.thumb
 767              		.thumb_func
 768              		.type	VectorD8, %function
 769              	VectorD8:
 770              	.LFB258:
 771              		.loc 6 287 0
 772              		.cfi_startproc
 773              		@ args = 0, pretend = 0, frame = 0
 774              		@ frame_needed = 0, uses_anonymous_args = 0
 775 0000 08B5     		push	{r3, lr}
 776              		.cfi_def_cfa_offset 8
 777              		.cfi_offset 3, -8
 778              		.cfi_offset 14, -4
 779              		.loc 6 291 0
 780 0002 0348     		ldr	r0, .L41
ARM GAS  /tmp/ccK5gGBe.s 			page 15


 781 0004 FFF7FEFF 		bl	serve_interrupt
 782              		.loc 6 293 0
 783 0008 FFF7FEFF 		bl	_port_irq_epilogue
 784              		.loc 6 294 0
 785 000c 08BD     		pop	{r3, pc}
 786              	.L42:
 787 000e 00BF     		.align	2
 788              	.L41:
 789 0010 00000000 		.word	SD2
 790              		.cfi_endproc
 791              	.LFE258:
 792              		.size	VectorD8, .-VectorD8
 793 0014 AFF30080 		.section	.text.sd_lld_init,"ax",%progbits
 793      AFF30080 
 793      AFF30080 
 794              		.align	2
 795              		.p2align 4,,15
 796              		.global	sd_lld_init
 797              		.thumb
 798              		.thumb_func
 799              		.type	sd_lld_init, %function
 800              	sd_lld_init:
 801              	.LFB259:
 802              		.loc 6 382 0
 803              		.cfi_startproc
 804              		@ args = 0, pretend = 0, frame = 0
 805              		@ frame_needed = 0, uses_anonymous_args = 0
 806 0000 08B5     		push	{r3, lr}
 807              		.cfi_def_cfa_offset 8
 808              		.cfi_offset 3, -8
 809              		.cfi_offset 14, -4
 810              		.loc 6 390 0
 811 0002 0448     		ldr	r0, .L44
 812 0004 0021     		movs	r1, #0
 813 0006 044A     		ldr	r2, .L44+4
 814 0008 FFF7FEFF 		bl	sdObjectInit
 815              		.loc 6 391 0
 816 000c 014B     		ldr	r3, .L44
 817 000e 034A     		ldr	r2, .L44+8
 818 0010 5A67     		str	r2, [r3, #116]
 819              		.loc 6 413 0
 820 0012 08BD     		pop	{r3, pc}
 821              	.L45:
 822              		.align	2
 823              	.L44:
 824 0014 00000000 		.word	SD2
 825 0018 00000000 		.word	notify2
 826 001c 00440040 		.word	1073759232
 827              		.cfi_endproc
 828              	.LFE259:
 829              		.size	sd_lld_init, .-sd_lld_init
 830              		.section	.text.sd_lld_start,"ax",%progbits
 831              		.align	2
 832              		.p2align 4,,15
 833              		.global	sd_lld_start
 834              		.thumb
 835              		.thumb_func
ARM GAS  /tmp/ccK5gGBe.s 			page 16


 836              		.type	sd_lld_start, %function
 837              	sd_lld_start:
 838              	.LFB260:
 839              		.loc 6 425 0
 840              		.cfi_startproc
 841              		@ args = 0, pretend = 0, frame = 8
 842              		@ frame_needed = 0, uses_anonymous_args = 0
 843 0000 00B5     		push	{lr}
 844              		.cfi_def_cfa_offset 4
 845              		.cfi_offset 14, -4
 846 0002 83B0     		sub	sp, sp, #12
 847              		.cfi_def_cfa_offset 16
 848 0004 0190     		str	r0, [sp, #4]
 849 0006 0091     		str	r1, [sp]
 850              		.loc 6 427 0
 851 0008 009B     		ldr	r3, [sp]
 852 000a 002B     		cmp	r3, #0
 853 000c 01D1     		bne	.L47
 854              		.loc 6 428 0
 855 000e 0D4B     		ldr	r3, .L49
 856 0010 0093     		str	r3, [sp]
 857              	.L47:
 858              		.loc 6 430 0
 859 0012 019B     		ldr	r3, [sp, #4]
 860 0014 1B7A     		ldrb	r3, [r3, #8]	@ zero_extendqisi2
 861 0016 012B     		cmp	r3, #1
 862 0018 0DD1     		bne	.L48
 863              		.loc 6 438 0
 864 001a 019B     		ldr	r3, [sp, #4]
 865 001c 0A4A     		ldr	r2, .L49+4
 866 001e 9342     		cmp	r3, r2
 867 0020 09D1     		bne	.L48
 868              		.loc 6 439 0
 869 0022 0A4A     		ldr	r2, .L49+8
 870 0024 094B     		ldr	r3, .L49+8
 871 0026 1B6C     		ldr	r3, [r3, #64]
 872 0028 43F40033 		orr	r3, r3, #131072
 873 002c 1364     		str	r3, [r2, #64]
 874              		.loc 6 440 0
 875 002e 2620     		movs	r0, #38
 876 0030 0C21     		movs	r1, #12
 877 0032 FFF7FEFF 		bl	nvicEnableVector
 878              	.L48:
 879              		.loc 6 468 0
 880 0036 0198     		ldr	r0, [sp, #4]
 881 0038 0099     		ldr	r1, [sp]
 882 003a FFF7FEFF 		bl	usart_init
 883              		.loc 6 469 0
 884 003e 03B0     		add	sp, sp, #12
 885              		.cfi_def_cfa_offset 4
 886              		@ sp needed
 887 0040 5DF804FB 		ldr	pc, [sp], #4
 888              	.L50:
 889              		.align	2
 890              	.L49:
 891 0044 00000000 		.word	default_config
 892 0048 00000000 		.word	SD2
ARM GAS  /tmp/ccK5gGBe.s 			page 17


 893 004c 00380240 		.word	1073887232
 894              		.cfi_endproc
 895              	.LFE260:
 896              		.size	sd_lld_start, .-sd_lld_start
 897              		.section	.text.sd_lld_stop,"ax",%progbits
 898              		.align	2
 899              		.p2align 4,,15
 900              		.global	sd_lld_stop
 901              		.thumb
 902              		.thumb_func
 903              		.type	sd_lld_stop, %function
 904              	sd_lld_stop:
 905              	.LFB261:
 906              		.loc 6 480 0
 907              		.cfi_startproc
 908              		@ args = 0, pretend = 0, frame = 8
 909              		@ frame_needed = 0, uses_anonymous_args = 0
 910 0000 00B5     		push	{lr}
 911              		.cfi_def_cfa_offset 4
 912              		.cfi_offset 14, -4
 913 0002 83B0     		sub	sp, sp, #12
 914              		.cfi_def_cfa_offset 16
 915 0004 0190     		str	r0, [sp, #4]
 916              		.loc 6 482 0
 917 0006 019B     		ldr	r3, [sp, #4]
 918 0008 1B7A     		ldrb	r3, [r3, #8]	@ zero_extendqisi2
 919 000a 022B     		cmp	r3, #2
 920 000c 12D1     		bne	.L51
 921              		.loc 6 483 0
 922 000e 019B     		ldr	r3, [sp, #4]
 923 0010 5B6F     		ldr	r3, [r3, #116]
 924 0012 1846     		mov	r0, r3
 925 0014 FFF7FEFF 		bl	usart_deinit
 926              		.loc 6 492 0
 927 0018 019B     		ldr	r3, [sp, #4]
 928 001a 084A     		ldr	r2, .L53
 929 001c 9342     		cmp	r3, r2
 930 001e 09D1     		bne	.L51
 931              		.loc 6 493 0
 932 0020 074A     		ldr	r2, .L53+4
 933 0022 074B     		ldr	r3, .L53+4
 934 0024 1B6C     		ldr	r3, [r3, #64]
 935 0026 23F40033 		bic	r3, r3, #131072
 936 002a 1364     		str	r3, [r2, #64]
 937              		.loc 6 494 0
 938 002c 2620     		movs	r0, #38
 939 002e FFF7FEFF 		bl	nvicDisableVector
 940              		.loc 6 495 0
 941 0032 00BF     		nop
 942              	.L51:
 943              		.loc 6 527 0
 944 0034 03B0     		add	sp, sp, #12
 945              		.cfi_def_cfa_offset 4
 946              		@ sp needed
 947 0036 5DF804FB 		ldr	pc, [sp], #4
 948              	.L54:
 949 003a 00BF     		.align	2
ARM GAS  /tmp/ccK5gGBe.s 			page 18


 950              	.L53:
 951 003c 00000000 		.word	SD2
 952 0040 00380240 		.word	1073887232
 953              		.cfi_endproc
 954              	.LFE261:
 955              		.size	sd_lld_stop, .-sd_lld_stop
 956 0044 AFF30080 		.text
 956      AFF30080 
 956      AFF30080 
 957              	.Letext0:
 958              		.file 7 "/opt/gcc-arm-none-eabi/lib/gcc/arm-none-eabi/4.9.3/include/stddef.h"
 959              		.file 8 "/opt/gcc-arm-none-eabi/arm-none-eabi/include/machine/_default_types.h"
 960              		.file 9 "/opt/gcc-arm-none-eabi/arm-none-eabi/include/stdint.h"
 961              		.file 10 "/home/makkmarci/workspace/CLEAN/ChibiOS/os/rt/ports/ARMCMx/compilers/GCC/chtypes.h"
 962              		.file 11 "/home/makkmarci/workspace/CLEAN/ChibiOS/os/rt/include/chsystypes.h"
 963              		.file 12 "/home/makkmarci/workspace/CLEAN/ChibiOS/os/rt/include/chschd.h"
 964              		.file 13 "/home/makkmarci/workspace/CLEAN/ChibiOS/os/ext/CMSIS/ST/stm32f407xx.h"
 965              		.file 14 "/home/makkmarci/workspace/CLEAN/ChibiOS/os/rt/ports/ARMCMx/chcore.h"
 966              		.file 15 "/home/makkmarci/workspace/CLEAN/ChibiOS/os/rt/include/chtm.h"
 967              		.file 16 "/home/makkmarci/workspace/CLEAN/ChibiOS/os/rt/include/chsem.h"
 968              		.file 17 "/home/makkmarci/workspace/CLEAN/ChibiOS/os/rt/include/chmtx.h"
 969              		.file 18 "/home/makkmarci/workspace/CLEAN/ChibiOS/os/rt/include/chevents.h"
 970              		.file 19 "/home/makkmarci/workspace/CLEAN/ChibiOS/os/hal/include/serial.h"
 971              		.file 20 "/home/makkmarci/workspace/CLEAN/ChibiOS/os/hal/ports/STM32/LLD/USARTv1/serial_lld.h"
 972              		.file 21 "/home/makkmarci/workspace/CLEAN/ChibiOS/os/ext/CMSIS/include/core_cm4.h"