ARM GAS  /tmp/ccK5gGBe.s 			page 1


   1              		.syntax unified
   2              		.cpu cortex-m4
   3              		.eabi_attribute 27, 1
   4              		.eabi_attribute 28, 1
   5              		.fpu fpv4-sp-d16
   6              		.eabi_attribute 20, 1
   7              		.eabi_attribute 21, 1
   8              		.eabi_attribute 23, 3
   9              		.eabi_attribute 24, 1
  10              		.eabi_attribute 25, 1
  11              		.eabi_attribute 26, 1
  12              		.eabi_attribute 30, 6
  13              		.eabi_attribute 34, 1
  14              		.eabi_attribute 18, 4
  15              		.thumb
  16              		.file	"serial_lld.c"
  17              		.text
  18              	.Ltext0:
  19              		.cfi_sections	.debug_frame
  20              		.section	.text.port_lock,"ax",%progbits
  21              		.align	2
  22              		.p2align 4,,15
  23              		.thumb
  24              		.thumb_func
  25              		.type	port_lock, %function
  26              	port_lock:
  27              	.LFB116:
  28              		.file 1 "/home/makkmarci/workspace/CLEAN/ChibiOS/os/rt/ports/ARMCMx/chcore_v7m.h"
  29              		.loc 1 444 0
  30              		.cfi_startproc
  31              		@ args = 0, pretend = 0, frame = 8
  32              		@ frame_needed = 0, uses_anonymous_args = 0
  33              		@ link register save eliminated.
  34 0000 82B0     		sub	sp, sp, #8
  35              		.cfi_def_cfa_offset 8
  36 0002 2023     		movs	r3, #32
  37 0004 0193     		str	r3, [sp, #4]
  38              	.LBB6:
  39              	.LBB7:
  40              		.file 2 "/home/makkmarci/workspace/CLEAN/ChibiOS/os/ext/CMSIS/include/core_cmFunc.h"
  41              		.loc 2 546 0
  42 0006 019B     		ldr	r3, [sp, #4]
  43              	@ 546 "/home/makkmarci/workspace/CLEAN/ChibiOS/os/ext/CMSIS/include/core_cmFunc.h" 1
  44 0008 83F31188 		MSR basepri, r3
  45              	@ 0 "" 2
  46              		.thumb
  47              	.LBE7:
  48              	.LBE6:
  49              		.loc 1 451 0
  50 000c 02B0     		add	sp, sp, #8
  51              		.cfi_def_cfa_offset 0
  52              		@ sp needed
  53 000e 7047     		bx	lr
  54              		.cfi_endproc
  55              	.LFE116:
  56              		.size	port_lock, .-port_lock
  57              		.section	.text.port_unlock,"ax",%progbits
ARM GAS  /tmp/ccK5gGBe.s 			page 2


  58              		.align	2
  59              		.p2align 4,,15
  60              		.thumb
  61              		.thumb_func
  62              		.type	port_unlock, %function
  63              	port_unlock:
  64              	.LFB117:
  65              		.loc 1 458 0
  66              		.cfi_startproc
  67              		@ args = 0, pretend = 0, frame = 8
  68              		@ frame_needed = 0, uses_anonymous_args = 0
  69              		@ link register save eliminated.
  70 0000 82B0     		sub	sp, sp, #8
  71              		.cfi_def_cfa_offset 8
  72 0002 0023     		movs	r3, #0
  73 0004 0193     		str	r3, [sp, #4]
  74              	.LBB8:
  75              	.LBB9:
  76              		.loc 2 546 0
  77 0006 019B     		ldr	r3, [sp, #4]
  78              	@ 546 "/home/makkmarci/workspace/CLEAN/ChibiOS/os/ext/CMSIS/include/core_cmFunc.h" 1
  79 0008 83F31188 		MSR basepri, r3
  80              	@ 0 "" 2
  81              		.thumb
  82              	.LBE9:
  83              	.LBE8:
  84              		.loc 1 465 0
  85 000c 02B0     		add	sp, sp, #8
  86              		.cfi_def_cfa_offset 0
  87              		@ sp needed
  88 000e 7047     		bx	lr
  89              		.cfi_endproc
  90              	.LFE117:
  91              		.size	port_unlock, .-port_unlock
  92              		.section	.text.port_lock_from_isr,"ax",%progbits
  93              		.align	2
  94              		.p2align 4,,15
  95              		.thumb
  96              		.thumb_func
  97              		.type	port_lock_from_isr, %function
  98              	port_lock_from_isr:
  99              	.LFB118:
 100              		.loc 1 473 0
 101              		.cfi_startproc
 102              		@ args = 0, pretend = 0, frame = 0
 103              		@ frame_needed = 0, uses_anonymous_args = 0
 104 0000 08B5     		push	{r3, lr}
 105              		.cfi_def_cfa_offset 8
 106              		.cfi_offset 3, -8
 107              		.cfi_offset 14, -4
 108              		.loc 1 475 0
 109 0002 FFF7FEFF 		bl	port_lock
 110              		.loc 1 476 0
 111 0006 08BD     		pop	{r3, pc}
 112              		.cfi_endproc
 113              	.LFE118:
 114              		.size	port_lock_from_isr, .-port_lock_from_isr
ARM GAS  /tmp/ccK5gGBe.s 			page 3


 115 0008 AFF30080 		.section	.text.port_unlock_from_isr,"ax",%progbits
 115      AFF30080 
 116              		.align	2
 117              		.p2align 4,,15
 118              		.thumb
 119              		.thumb_func
 120              		.type	port_unlock_from_isr, %function
 121              	port_unlock_from_isr:
 122              	.LFB119:
 123              		.loc 1 484 0
 124              		.cfi_startproc
 125              		@ args = 0, pretend = 0, frame = 0
 126              		@ frame_needed = 0, uses_anonymous_args = 0
 127 0000 08B5     		push	{r3, lr}
 128              		.cfi_def_cfa_offset 8
 129              		.cfi_offset 3, -8
 130              		.cfi_offset 14, -4
 131              		.loc 1 486 0
 132 0002 FFF7FEFF 		bl	port_unlock
 133              		.loc 1 487 0
 134 0006 08BD     		pop	{r3, pc}
 135              		.cfi_endproc
 136              	.LFE119:
 137              		.size	port_unlock_from_isr, .-port_unlock_from_isr
 138 0008 AFF30080 		.section	.text.chSysLockFromISR,"ax",%progbits
 138      AFF30080 
 139              		.align	2
 140              		.p2align 4,,15
 141              		.thumb
 142              		.thumb_func
 143              		.type	chSysLockFromISR, %function
 144              	chSysLockFromISR:
 145              	.LFB147:
 146              		.file 3 "/home/makkmarci/workspace/CLEAN/ChibiOS/os/rt/include/chsys.h"
 147              		.loc 3 386 0
 148              		.cfi_startproc
 149              		@ args = 0, pretend = 0, frame = 0
 150              		@ frame_needed = 0, uses_anonymous_args = 0
 151 0000 08B5     		push	{r3, lr}
 152              		.cfi_def_cfa_offset 8
 153              		.cfi_offset 3, -8
 154              		.cfi_offset 14, -4
 155              		.loc 3 388 0
 156 0002 FFF7FEFF 		bl	port_lock_from_isr
 157              		.loc 3 391 0
 158 0006 08BD     		pop	{r3, pc}
 159              		.cfi_endproc
 160              	.LFE147:
 161              		.size	chSysLockFromISR, .-chSysLockFromISR
 162              		.section	.text.chSysUnlockFromISR,"ax",%progbits
 163              		.align	2
 164              		.p2align 4,,15
 165              		.thumb
 166              		.thumb_func
 167              		.type	chSysUnlockFromISR, %function
 168              	chSysUnlockFromISR:
 169              	.LFB148:
ARM GAS  /tmp/ccK5gGBe.s 			page 4


 170              		.loc 3 406 0
 171              		.cfi_startproc
 172              		@ args = 0, pretend = 0, frame = 0
 173              		@ frame_needed = 0, uses_anonymous_args = 0
 174 0000 08B5     		push	{r3, lr}
 175              		.cfi_def_cfa_offset 8
 176              		.cfi_offset 3, -8
 177              		.cfi_offset 14, -4
 178              		.loc 3 410 0
 179 0002 FFF7FEFF 		bl	port_unlock_from_isr
 180              		.loc 3 411 0
 181 0006 08BD     		pop	{r3, pc}
 182              		.cfi_endproc
 183              	.LFE148:
 184              		.size	chSysUnlockFromISR, .-chSysUnlockFromISR
 185 0008 AFF30080 		.section	.text.chOQIsEmptyI,"ax",%progbits
 185      AFF30080 
 186              		.align	2
 187              		.p2align 4,,15
 188              		.thumb
 189              		.thumb_func
 190              		.type	chOQIsEmptyI, %function
 191              	chOQIsEmptyI:
 192              	.LFB213:
 193              		.file 4 "/home/makkmarci/workspace/CLEAN/ChibiOS/os/rt/include/chqueues.h"
 194              		.loc 4 386 0
 195              		.cfi_startproc
 196              		@ args = 0, pretend = 0, frame = 8
 197              		@ frame_needed = 0, uses_anonymous_args = 0
 198              		@ link register save eliminated.
 199 0000 82B0     		sub	sp, sp, #8
 200              		.cfi_def_cfa_offset 8
 201 0002 0190     		str	r0, [sp, #4]
 202              		.loc 4 390 0
 203 0004 019B     		ldr	r3, [sp, #4]
 204 0006 5A69     		ldr	r2, [r3, #20]
 205 0008 019B     		ldr	r3, [sp, #4]
 206 000a 9B69     		ldr	r3, [r3, #24]
 207 000c 9A42     		cmp	r2, r3
 208 000e 05D1     		bne	.L8
 209              		.loc 4 390 0 is_stmt 0 discriminator 1
 210 0010 019B     		ldr	r3, [sp, #4]
 211 0012 9B68     		ldr	r3, [r3, #8]
 212 0014 002B     		cmp	r3, #0
 213 0016 01D0     		beq	.L8
 214              		.loc 4 390 0 discriminator 3
 215 0018 0123     		movs	r3, #1
 216 001a 00E0     		b	.L9
 217              	.L8:
 218              		.loc 4 390 0 discriminator 4
 219 001c 0023     		movs	r3, #0
 220              	.L9:
 221              		.loc 4 390 0 discriminator 6
 222 001e 03F00103 		and	r3, r3, #1
 223 0022 DBB2     		uxtb	r3, r3
 224              		.loc 4 391 0 is_stmt 1 discriminator 6
 225 0024 1846     		mov	r0, r3
ARM GAS  /tmp/ccK5gGBe.s 			page 5


 226 0026 02B0     		add	sp, sp, #8
 227              		.cfi_def_cfa_offset 0
 228              		@ sp needed
 229 0028 7047     		bx	lr
 230              		.cfi_endproc
 231              	.LFE213:
 232              		.size	chOQIsEmptyI, .-chOQIsEmptyI
 233 002a 00BFAFF3 		.section	.text.osalSysLockFromISR,"ax",%progbits
 233      0080
 234              		.align	2
 235              		.p2align 4,,15
 236              		.thumb
 237              		.thumb_func
 238              		.type	osalSysLockFromISR, %function
 239              	osalSysLockFromISR:
 240              	.LFB222:
 241              		.file 5 "/home/makkmarci/workspace/CLEAN/ChibiOS/os/hal/osal/rt/osal.h"
 242              		.loc 5 467 0
 243              		.cfi_startproc
 244              		@ args = 0, pretend = 0, frame = 0
 245              		@ frame_needed = 0, uses_anonymous_args = 0
 246 0000 08B5     		push	{r3, lr}
 247              		.cfi_def_cfa_offset 8
 248              		.cfi_offset 3, -8
 249              		.cfi_offset 14, -4
 250              		.loc 5 469 0
 251 0002 FFF7FEFF 		bl	chSysLockFromISR
 252              		.loc 5 470 0
 253 0006 08BD     		pop	{r3, pc}
 254              		.cfi_endproc
 255              	.LFE222:
 256              		.size	osalSysLockFromISR, .-osalSysLockFromISR
 257              		.section	.text.osalSysUnlockFromISR,"ax",%progbits
 258              		.align	2
 259              		.p2align 4,,15
 260              		.thumb
 261              		.thumb_func
 262              		.type	osalSysUnlockFromISR, %function
 263              	osalSysUnlockFromISR:
 264              	.LFB223:
 265              		.loc 5 478 0
 266              		.cfi_startproc
 267              		@ args = 0, pretend = 0, frame = 0
 268              		@ frame_needed = 0, uses_anonymous_args = 0
 269 0000 08B5     		push	{r3, lr}
 270              		.cfi_def_cfa_offset 8
 271              		.cfi_offset 3, -8
 272              		.cfi_offset 14, -4
 273              		.loc 5 480 0
 274 0002 FFF7FEFF 		bl	chSysUnlockFromISR
 275              		.loc 5 481 0
 276 0006 08BD     		pop	{r3, pc}
 277              		.cfi_endproc
 278              	.LFE223:
 279              		.size	osalSysUnlockFromISR, .-osalSysUnlockFromISR
 280 0008 AFF30080 		.section	.text.osalEventBroadcastFlagsI,"ax",%progbits
 280      AFF30080 
ARM GAS  /tmp/ccK5gGBe.s 			page 6


 281              		.align	2
 282              		.p2align 4,,15
 283              		.thumb
 284              		.thumb_func
 285              		.type	osalEventBroadcastFlagsI, %function
 286              	osalEventBroadcastFlagsI:
 287              	.LFB242:
 288              		.loc 5 796 0
 289              		.cfi_startproc
 290              		@ args = 0, pretend = 0, frame = 8
 291              		@ frame_needed = 0, uses_anonymous_args = 0
 292 0000 00B5     		push	{lr}
 293              		.cfi_def_cfa_offset 4
 294              		.cfi_offset 14, -4
 295 0002 83B0     		sub	sp, sp, #12
 296              		.cfi_def_cfa_offset 16
 297 0004 0190     		str	r0, [sp, #4]
 298 0006 0091     		str	r1, [sp]
 299              		.loc 5 798 0
 300 0008 0198     		ldr	r0, [sp, #4]
 301 000a 0099     		ldr	r1, [sp]
 302 000c FFF7FEFF 		bl	chEvtBroadcastFlagsI
 303              		.loc 5 799 0
 304 0010 03B0     		add	sp, sp, #12
 305              		.cfi_def_cfa_offset 4
 306              		@ sp needed
 307 0012 5DF804FB 		ldr	pc, [sp], #4
 308              		.cfi_endproc
 309              	.LFE242:
 310              		.size	osalEventBroadcastFlagsI, .-osalEventBroadcastFlagsI
 311              		.global	SD2
 312 0016 00BFAFF3 		.section	.bss.SD2,"aw",%nobits
 312      0080AFF3 
 312      0080
 313              		.align	2
 314              		.type	SD2, %object
 315              		.size	SD2, 120
 316              	SD2:
 317 0000 00000000 		.space	120
 317      00000000 
 317      00000000 
 317      00000000 
 317      00000000 
 318              		.section	.rodata.default_config,"a",%progbits
 319              		.align	2
 320              		.type	default_config, %object
 321              		.size	default_config, 12
 322              	default_config:
 323 0000 00960000 		.word	38400
 324 0004 0000     		.short	0
 325 0006 0040     		.short	16384
 326 0008 0000     		.short	0
 327 000a 0000     		.space	2
 328              		.section	.text.usart_init,"ax",%progbits
 329              		.align	2
 330              		.p2align 4,,15
 331              		.thumb
ARM GAS  /tmp/ccK5gGBe.s 			page 7


 332              		.thumb_func
 333              		.type	usart_init, %function
 334              	usart_init:
 335              	.LFB253:
 336              		.file 6 "/home/makkmarci/workspace/CLEAN/ChibiOS/os/hal/ports/STM32/LLD/USARTv1/serial_lld.c"
 337              		.loc 6 91 0
 338              		.cfi_startproc
 339              		@ args = 0, pretend = 0, frame = 16
 340              		@ frame_needed = 0, uses_anonymous_args = 0
 341              		@ link register save eliminated.
 342 0000 84B0     		sub	sp, sp, #16
 343              		.cfi_def_cfa_offset 16
 344 0002 0190     		str	r0, [sp, #4]
 345 0004 0091     		str	r1, [sp]
 346              		.loc 6 92 0
 347 0006 019B     		ldr	r3, [sp, #4]
 348 0008 5B6F     		ldr	r3, [r3, #116]
 349 000a 0393     		str	r3, [sp, #12]
 350              		.loc 6 96 0
 351 000c 019B     		ldr	r3, [sp, #4]
 352 000e 5B6F     		ldr	r3, [r3, #116]
 353 0010 1C4A     		ldr	r2, .L18
 354 0012 9342     		cmp	r3, r2
 355 0014 04D0     		beq	.L15
 356              		.loc 6 96 0 is_stmt 0 discriminator 1
 357 0016 019B     		ldr	r3, [sp, #4]
 358 0018 5B6F     		ldr	r3, [r3, #116]
 359 001a 1B4A     		ldr	r2, .L18+4
 360 001c 9342     		cmp	r3, r2
 361 001e 07D1     		bne	.L16
 362              	.L15:
 363              		.loc 6 100 0 is_stmt 1
 364 0020 009B     		ldr	r3, [sp]
 365 0022 1B68     		ldr	r3, [r3]
 366 0024 194A     		ldr	r2, .L18+8
 367 0026 B2FBF3F2 		udiv	r2, r2, r3
 368 002a 039B     		ldr	r3, [sp, #12]
 369 002c 9A60     		str	r2, [r3, #8]
 370 002e 06E0     		b	.L17
 371              	.L16:
 372              		.loc 6 102 0
 373 0030 009B     		ldr	r3, [sp]
 374 0032 1B68     		ldr	r3, [r3]
 375 0034 164A     		ldr	r2, .L18+12
 376 0036 B2FBF3F2 		udiv	r2, r2, r3
 377 003a 039B     		ldr	r3, [sp, #12]
 378 003c 9A60     		str	r2, [r3, #8]
 379              	.L17:
 380              		.loc 6 105 0
 381 003e 009B     		ldr	r3, [sp]
 382 0040 DB88     		ldrh	r3, [r3, #6]
 383 0042 43F04003 		orr	r3, r3, #64
 384 0046 9BB2     		uxth	r3, r3
 385 0048 1A46     		mov	r2, r3
 386 004a 039B     		ldr	r3, [sp, #12]
 387 004c 1A61     		str	r2, [r3, #16]
 388              		.loc 6 106 0
ARM GAS  /tmp/ccK5gGBe.s 			page 8


 389 004e 009B     		ldr	r3, [sp]
 390 0050 1B89     		ldrh	r3, [r3, #8]
 391 0052 43F00103 		orr	r3, r3, #1
 392 0056 9BB2     		uxth	r3, r3
 393 0058 1A46     		mov	r2, r3
 394 005a 039B     		ldr	r3, [sp, #12]
 395 005c 5A61     		str	r2, [r3, #20]
 396              		.loc 6 107 0
 397 005e 009B     		ldr	r3, [sp]
 398 0060 9B88     		ldrh	r3, [r3, #4]
 399              		.loc 6 108 0
 400 0062 43F40453 		orr	r3, r3, #8448
 401 0066 43F02C03 		orr	r3, r3, #44
 402 006a 9BB2     		uxth	r3, r3
 403 006c 1A46     		mov	r2, r3
 404              		.loc 6 107 0
 405 006e 039B     		ldr	r3, [sp, #12]
 406 0070 DA60     		str	r2, [r3, #12]
 407              		.loc 6 110 0
 408 0072 039B     		ldr	r3, [sp, #12]
 409 0074 0022     		movs	r2, #0
 410 0076 1A60     		str	r2, [r3]
 411              		.loc 6 111 0
 412 0078 039B     		ldr	r3, [sp, #12]
 413 007a 1B68     		ldr	r3, [r3]
 414              		.loc 6 112 0
 415 007c 039B     		ldr	r3, [sp, #12]
 416 007e 5B68     		ldr	r3, [r3, #4]
 417              		.loc 6 113 0
 418 0080 04B0     		add	sp, sp, #16
 419              		.cfi_def_cfa_offset 0
 420              		@ sp needed
 421 0082 7047     		bx	lr
 422              	.L19:
 423              		.align	2
 424              	.L18:
 425 0084 00100140 		.word	1073811456
 426 0088 00140140 		.word	1073812480
 427 008c 00BD0105 		.word	84000000
 428 0090 80DE8002 		.word	42000000
 429              		.cfi_endproc
 430              	.LFE253:
 431              		.size	usart_init, .-usart_init
 432 0094 AFF30080 		.section	.text.usart_deinit,"ax",%progbits
 432      AFF30080 
 432      AFF30080 
 433              		.align	2
 434              		.p2align 4,,15
 435              		.thumb
 436              		.thumb_func
 437              		.type	usart_deinit, %function
 438              	usart_deinit:
 439              	.LFB254:
 440              		.loc 6 121 0
 441              		.cfi_startproc
 442              		@ args = 0, pretend = 0, frame = 8
 443              		@ frame_needed = 0, uses_anonymous_args = 0
ARM GAS  /tmp/ccK5gGBe.s 			page 9


 444              		@ link register save eliminated.
 445 0000 82B0     		sub	sp, sp, #8
 446              		.cfi_def_cfa_offset 8
 447 0002 0190     		str	r0, [sp, #4]
 448              		.loc 6 123 0
 449 0004 019B     		ldr	r3, [sp, #4]
 450 0006 0022     		movs	r2, #0
 451 0008 DA60     		str	r2, [r3, #12]
 452              		.loc 6 124 0
 453 000a 019B     		ldr	r3, [sp, #4]
 454 000c 0022     		movs	r2, #0
 455 000e 1A61     		str	r2, [r3, #16]
 456              		.loc 6 125 0
 457 0010 019B     		ldr	r3, [sp, #4]
 458 0012 0022     		movs	r2, #0
 459 0014 5A61     		str	r2, [r3, #20]
 460              		.loc 6 126 0
 461 0016 02B0     		add	sp, sp, #8
 462              		.cfi_def_cfa_offset 0
 463              		@ sp needed
 464 0018 7047     		bx	lr
 465              		.cfi_endproc
 466              	.LFE254:
 467              		.size	usart_deinit, .-usart_deinit
 468 001a 00BFAFF3 		.section	.text.set_error,"ax",%progbits
 468      0080
 469              		.align	2
 470              		.p2align 4,,15
 471              		.thumb
 472              		.thumb_func
 473              		.type	set_error, %function
 474              	set_error:
 475              	.LFB255:
 476              		.loc 6 134 0
 477              		.cfi_startproc
 478              		@ args = 0, pretend = 0, frame = 16
 479              		@ frame_needed = 0, uses_anonymous_args = 0
 480 0000 00B5     		push	{lr}
 481              		.cfi_def_cfa_offset 4
 482              		.cfi_offset 14, -4
 483 0002 85B0     		sub	sp, sp, #20
 484              		.cfi_def_cfa_offset 24
 485 0004 0190     		str	r0, [sp, #4]
 486 0006 0B46     		mov	r3, r1
 487 0008 ADF80230 		strh	r3, [sp, #2]	@ movhi
 488              		.loc 6 135 0
 489 000c 0023     		movs	r3, #0
 490 000e 0393     		str	r3, [sp, #12]
 491              		.loc 6 137 0
 492 0010 BDF80230 		ldrh	r3, [sp, #2]
 493 0014 03F00803 		and	r3, r3, #8
 494 0018 002B     		cmp	r3, #0
 495 001a 03D0     		beq	.L22
 496              		.loc 6 138 0
 497 001c 039B     		ldr	r3, [sp, #12]
 498 001e 43F08003 		orr	r3, r3, #128
 499 0022 0393     		str	r3, [sp, #12]
ARM GAS  /tmp/ccK5gGBe.s 			page 10


 500              	.L22:
 501              		.loc 6 139 0
 502 0024 BDF80230 		ldrh	r3, [sp, #2]
 503 0028 03F00103 		and	r3, r3, #1
 504 002c 002B     		cmp	r3, #0
 505 002e 03D0     		beq	.L23
 506              		.loc 6 140 0
 507 0030 039B     		ldr	r3, [sp, #12]
 508 0032 43F02003 		orr	r3, r3, #32
 509 0036 0393     		str	r3, [sp, #12]
 510              	.L23:
 511              		.loc 6 141 0
 512 0038 BDF80230 		ldrh	r3, [sp, #2]
 513 003c 03F00203 		and	r3, r3, #2
 514 0040 002B     		cmp	r3, #0
 515 0042 03D0     		beq	.L24
 516              		.loc 6 142 0
 517 0044 039B     		ldr	r3, [sp, #12]
 518 0046 43F04003 		orr	r3, r3, #64
 519 004a 0393     		str	r3, [sp, #12]
 520              	.L24:
 521              		.loc 6 143 0
 522 004c BDF80230 		ldrh	r3, [sp, #2]
 523 0050 03F00403 		and	r3, r3, #4
 524 0054 002B     		cmp	r3, #0
 525 0056 03D0     		beq	.L25
 526              		.loc 6 144 0
 527 0058 039B     		ldr	r3, [sp, #12]
 528 005a 43F48073 		orr	r3, r3, #256
 529 005e 0393     		str	r3, [sp, #12]
 530              	.L25:
 531              		.loc 6 145 0
 532 0060 019B     		ldr	r3, [sp, #4]
 533 0062 0433     		adds	r3, r3, #4
 534 0064 1846     		mov	r0, r3
 535 0066 0399     		ldr	r1, [sp, #12]
 536 0068 FFF7FEFF 		bl	osalEventBroadcastFlagsI
 537              		.loc 6 146 0
 538 006c 05B0     		add	sp, sp, #20
 539              		.cfi_def_cfa_offset 4
 540              		@ sp needed
 541 006e 5DF804FB 		ldr	pc, [sp], #4
 542              		.cfi_endproc
 543              	.LFE255:
 544              		.size	set_error, .-set_error
 545 0072 00BFAFF3 		.section	.text.serve_interrupt,"ax",%progbits
 545      0080AFF3 
 545      0080AFF3 
 545      0080
 546              		.align	2
 547              		.p2align 4,,15
 548              		.thumb
 549              		.thumb_func
 550              		.type	serve_interrupt, %function
 551              	serve_interrupt:
 552              	.LFB256:
 553              		.loc 6 153 0
ARM GAS  /tmp/ccK5gGBe.s 			page 11


 554              		.cfi_startproc
 555              		@ args = 0, pretend = 0, frame = 24
 556              		@ frame_needed = 0, uses_anonymous_args = 0
 557 0000 00B5     		push	{lr}
 558              		.cfi_def_cfa_offset 4
 559              		.cfi_offset 14, -4
 560 0002 87B0     		sub	sp, sp, #28
 561              		.cfi_def_cfa_offset 32
 562 0004 0190     		str	r0, [sp, #4]
 563              		.loc 6 154 0
 564 0006 019B     		ldr	r3, [sp, #4]
 565 0008 5B6F     		ldr	r3, [r3, #116]
 566 000a 0493     		str	r3, [sp, #16]
 567              		.loc 6 155 0
 568 000c 049B     		ldr	r3, [sp, #16]
 569 000e DB68     		ldr	r3, [r3, #12]
 570 0010 ADF80E30 		strh	r3, [sp, #14]	@ movhi
 571              		.loc 6 156 0
 572 0014 049B     		ldr	r3, [sp, #16]
 573 0016 1B68     		ldr	r3, [r3]
 574 0018 ADF81630 		strh	r3, [sp, #22]	@ movhi
 575              		.loc 6 159 0
 576 001c BDF81630 		ldrh	r3, [sp, #22]
 577 0020 03F48073 		and	r3, r3, #256
 578 0024 002B     		cmp	r3, #0
 579 0026 0ED0     		beq	.L27
 580              		.loc 6 160 0
 581 0028 FFF7FEFF 		bl	osalSysLockFromISR
 582              		.loc 6 161 0
 583 002c 019B     		ldr	r3, [sp, #4]
 584 002e 0433     		adds	r3, r3, #4
 585 0030 1846     		mov	r0, r3
 586 0032 4FF40071 		mov	r1, #512
 587 0036 FFF7FEFF 		bl	osalEventBroadcastFlagsI
 588              		.loc 6 162 0
 589 003a 049B     		ldr	r3, [sp, #16]
 590 003c 6FF48072 		mvn	r2, #256
 591 0040 1A60     		str	r2, [r3]
 592              		.loc 6 163 0
 593 0042 FFF7FEFF 		bl	osalSysUnlockFromISR
 594              	.L27:
 595              		.loc 6 167 0
 596 0046 FFF7FEFF 		bl	osalSysLockFromISR
 597              		.loc 6 168 0
 598 004a 1FE0     		b	.L28
 599              	.L31:
 600              	.LBB10:
 601              		.loc 6 173 0
 602 004c BDF81630 		ldrh	r3, [sp, #22]
 603 0050 03F00F03 		and	r3, r3, #15
 604 0054 002B     		cmp	r3, #0
 605 0056 05D0     		beq	.L29
 606              		.loc 6 174 0
 607 0058 BDF81630 		ldrh	r3, [sp, #22]
 608 005c 0198     		ldr	r0, [sp, #4]
 609 005e 1946     		mov	r1, r3
 610 0060 FFF7FEFF 		bl	set_error
ARM GAS  /tmp/ccK5gGBe.s 			page 12


 611              	.L29:
 612              		.loc 6 175 0
 613 0064 049B     		ldr	r3, [sp, #16]
 614 0066 5B68     		ldr	r3, [r3, #4]
 615 0068 8DF80D30 		strb	r3, [sp, #13]
 616              		.loc 6 176 0
 617 006c BDF81630 		ldrh	r3, [sp, #22]
 618 0070 03F02003 		and	r3, r3, #32
 619 0074 002B     		cmp	r3, #0
 620 0076 05D0     		beq	.L30
 621              		.loc 6 177 0
 622 0078 9DF80D30 		ldrb	r3, [sp, #13]	@ zero_extendqisi2
 623 007c 0198     		ldr	r0, [sp, #4]
 624 007e 1946     		mov	r1, r3
 625 0080 FFF7FEFF 		bl	sdIncomingDataI
 626              	.L30:
 627              		.loc 6 178 0
 628 0084 049B     		ldr	r3, [sp, #16]
 629 0086 1B68     		ldr	r3, [r3]
 630 0088 ADF81630 		strh	r3, [sp, #22]	@ movhi
 631              	.L28:
 632              	.LBE10:
 633              		.loc 6 168 0
 634 008c BDF81630 		ldrh	r3, [sp, #22]
 635 0090 03F02F03 		and	r3, r3, #47
 636 0094 002B     		cmp	r3, #0
 637 0096 D9D1     		bne	.L31
 638              		.loc 6 180 0
 639 0098 FFF7FEFF 		bl	osalSysUnlockFromISR
 640              		.loc 6 183 0
 641 009c BDF80E30 		ldrh	r3, [sp, #14]
 642 00a0 03F08003 		and	r3, r3, #128
 643 00a4 002B     		cmp	r3, #0
 644 00a6 24D0     		beq	.L32
 645              		.loc 6 183 0 is_stmt 0 discriminator 1
 646 00a8 BDF81630 		ldrh	r3, [sp, #22]
 647 00ac 03F08003 		and	r3, r3, #128
 648 00b0 002B     		cmp	r3, #0
 649 00b2 1ED0     		beq	.L32
 650              	.LBB11:
 651              		.loc 6 185 0 is_stmt 1
 652 00b4 FFF7FEFF 		bl	osalSysLockFromISR
 653              		.loc 6 186 0
 654 00b8 019B     		ldr	r3, [sp, #4]
 655 00ba 3033     		adds	r3, r3, #48
 656 00bc 1846     		mov	r0, r3
 657 00be FFF7FEFF 		bl	chOQGetI
 658 00c2 0290     		str	r0, [sp, #8]
 659              		.loc 6 187 0
 660 00c4 029B     		ldr	r3, [sp, #8]
 661 00c6 002B     		cmp	r3, #0
 662 00c8 0EDA     		bge	.L33
 663              		.loc 6 188 0
 664 00ca 019B     		ldr	r3, [sp, #4]
 665 00cc 0433     		adds	r3, r3, #4
 666 00ce 1846     		mov	r0, r3
 667 00d0 0821     		movs	r1, #8
ARM GAS  /tmp/ccK5gGBe.s 			page 13


 668 00d2 FFF7FEFF 		bl	osalEventBroadcastFlagsI
 669              		.loc 6 189 0
 670 00d6 BDF80E30 		ldrh	r3, [sp, #14]
 671 00da 23F0C003 		bic	r3, r3, #192
 672 00de 43F04002 		orr	r2, r3, #64
 673 00e2 049B     		ldr	r3, [sp, #16]
 674 00e4 DA60     		str	r2, [r3, #12]
 675 00e6 02E0     		b	.L34
 676              	.L33:
 677              		.loc 6 192 0
 678 00e8 029A     		ldr	r2, [sp, #8]
 679 00ea 049B     		ldr	r3, [sp, #16]
 680 00ec 5A60     		str	r2, [r3, #4]
 681              	.L34:
 682              		.loc 6 193 0
 683 00ee FFF7FEFF 		bl	osalSysUnlockFromISR
 684              	.L32:
 685              	.LBE11:
 686              		.loc 6 197 0
 687 00f2 BDF81630 		ldrh	r3, [sp, #22]
 688 00f6 03F04003 		and	r3, r3, #64
 689 00fa 002B     		cmp	r3, #0
 690 00fc 1BD0     		beq	.L26
 691              		.loc 6 198 0
 692 00fe FFF7FEFF 		bl	osalSysLockFromISR
 693              		.loc 6 199 0
 694 0102 019B     		ldr	r3, [sp, #4]
 695 0104 3033     		adds	r3, r3, #48
 696 0106 1846     		mov	r0, r3
 697 0108 FFF7FEFF 		bl	chOQIsEmptyI
 698 010c 0346     		mov	r3, r0
 699 010e 002B     		cmp	r3, #0
 700 0110 05D0     		beq	.L36
 701              		.loc 6 200 0
 702 0112 019B     		ldr	r3, [sp, #4]
 703 0114 0433     		adds	r3, r3, #4
 704 0116 1846     		mov	r0, r3
 705 0118 1021     		movs	r1, #16
 706 011a FFF7FEFF 		bl	osalEventBroadcastFlagsI
 707              	.L36:
 708              		.loc 6 201 0
 709 011e BDF80E30 		ldrh	r3, [sp, #14]
 710 0122 23F04002 		bic	r2, r3, #64
 711 0126 049B     		ldr	r3, [sp, #16]
 712 0128 DA60     		str	r2, [r3, #12]
 713              		.loc 6 202 0
 714 012a 049B     		ldr	r3, [sp, #16]
 715 012c 6FF04002 		mvn	r2, #64
 716 0130 1A60     		str	r2, [r3]
 717              		.loc 6 203 0
 718 0132 FFF7FEFF 		bl	osalSysUnlockFromISR
 719              	.L26:
 720              		.loc 6 205 0
 721 0136 07B0     		add	sp, sp, #28
 722              		.cfi_def_cfa_offset 4
 723              		@ sp needed
 724 0138 5DF804FB 		ldr	pc, [sp], #4
ARM GAS  /tmp/ccK5gGBe.s 			page 14


 725              		.cfi_endproc
 726              	.LFE256:
 727              		.size	serve_interrupt, .-serve_interrupt
 728 013c AFF30080 		.section	.text.notify2,"ax",%progbits
 729              		.align	2
 730              		.p2align 4,,15
 731              		.thumb
 732              		.thumb_func
 733              		.type	notify2, %function
 734              	notify2:
 735              	.LFB257:
 736              		.loc 6 216 0
 737              		.cfi_startproc
 738              		@ args = 0, pretend = 0, frame = 8
 739              		@ frame_needed = 0, uses_anonymous_args = 0
 740              		@ link register save eliminated.
 741 0000 82B0     		sub	sp, sp, #8
 742              		.cfi_def_cfa_offset 8
 743 0002 0190     		str	r0, [sp, #4]
 744              		.loc 6 219 0
 745 0004 034A     		ldr	r2, .L38
 746 0006 034B     		ldr	r3, .L38
 747 0008 DB68     		ldr	r3, [r3, #12]
 748 000a 43F08003 		orr	r3, r3, #128
 749 000e D360     		str	r3, [r2, #12]
 750              		.loc 6 220 0
 751 0010 02B0     		add	sp, sp, #8
 752              		.cfi_def_cfa_offset 0
 753              		@ sp needed
 754 0012 7047     		bx	lr
 755              	.L39:
 756              		.align	2
 757              	.L38:
 758 0014 00440040 		.word	1073759232
 759              		.cfi_endproc
 760              	.LFE257:
 761              		.size	notify2, .-notify2
 762 0018 AFF30080 		.section	.text.VectorD8,"ax",%progbits
 762      AFF30080 
 763              		.align	2
 764              		.p2align 4,,15
 765              		.global	VectorD8
 766              		.thumb
 767              		.thumb_func
 768              		.type	VectorD8, %function
 769              	VectorD8:
 770              	.LFB258:
 771              		.loc 6 287 0
 772              		.cfi_startproc
 773              		@ args = 0, pretend = 0, frame = 0
 774              		@ frame_needed = 0, uses_anonymous_args = 0
 775 0000 08B5     		push	{r3, lr}
 776              		.cfi_def_cfa_offset 8
 777              		.cfi_offset 3, -8
 778              		.cfi_offset 14, -4
 779              		.loc 6 291 0
 780 0002 0348     		ldr	r0, .L41
ARM GAS  /tmp/ccK5gGBe.s 			page 15


 781 0004 FFF7FEFF 		bl	serve_interrupt
 782              		.loc 6 293 0
 783 0008 FFF7FEFF 		bl	_port_irq_epilogue
 784              		.loc 6 294 0
 785 000c 08BD     		pop	{r3, pc}
 786              	.L42:
 787 000e 00BF     		.align	2
 788              	.L41:
 789 0010 00000000 		.word	SD2
 790              		.cfi_endproc
 791              	.LFE258:
 792              		.size	VectorD8, .-VectorD8
 793 0014 AFF30080 		.section	.text.sd_lld_init,"ax",%progbits
 793      AFF30080 
 793      AFF30080 
 794              		.align	2
 795              		.p2align 4,,15
 796              		.global	sd_lld_init
 797              		.thumb
 798              		.thumb_func
 799              		.type	sd_lld_init, %function
 800              	sd_lld_init:
 801              	.LFB259:
 802              		.loc 6 382 0
 803              		.cfi_startproc
 804              		@ args = 0, pretend = 0, frame = 0
 805              		@ frame_needed = 0, uses_anonymous_args = 0
 806 0000 08B5     		push	{r3, lr}
 807              		.cfi_def_cfa_offset 8
 808              		.cfi_offset 3, -8
 809              		.cfi_offset 14, -4
 810              		.loc 6 390 0
 811 0002 0448     		ldr	r0, .L44
 812 0004 0021     		movs	r1, #0
 813 0006 044A     		ldr	r2, .L44+4
 814 0008 FFF7FEFF 		bl	sdObjectInit
 815              		.loc 6 391 0
 816 000c 014B     		ldr	r3, .L44
 817 000e 034A     		ldr	r2, .L44+8
 818 0010 5A67     		str	r2, [r3, #116]
 819              		.loc 6 413 0
 820 0012 08BD     		pop	{r3, pc}
 821              	.L45:
 822              		.align	2
 823              	.L44:
 824 0014 00000000 		.word	SD2
 825 0018 00000000 		.word	notify2
 826 001c 00440040 		.word	1073759232
 827              		.cfi_endproc
 828              	.LFE259:
 829              		.size	sd_lld_init, .-sd_lld_init
 830              		.section	.text.sd_lld_start,"ax",%progbits
 831              		.align	2
 832              		.p2align 4,,15
 833              		.global	sd_lld_start
 834              		.thumb
 835              		.thumb_func
ARM GAS  /tmp/ccK5gGBe.s 			page 16


 836              		.type	sd_lld_start, %function
 837              	sd_lld_start:
 838              	.LFB260:
 839              		.loc 6 425 0
 840              		.cfi_startproc
 841              		@ args = 0, pretend = 0, frame = 8
 842              		@ frame_needed = 0, uses_anonymous_args = 0
 843 0000 00B5     		push	{lr}
 844              		.cfi_def_cfa_offset 4
 845              		.cfi_offset 14, -4
 846 0002 83B0     		sub	sp, sp, #12
 847              		.cfi_def_cfa_offset 16
 848 0004 0190     		str	r0, [sp, #4]
 849 0006 0091     		str	r1, [sp]
 850              		.loc 6 427 0
 851 0008 009B     		ldr	r3, [sp]
 852 000a 002B     		cmp	r3, #0
 853 000c 01D1     		bne	.L47
 854              		.loc 6 428 0
 855 000e 0D4B     		ldr	r3, .L49
 856 0010 0093     		str	r3, [sp]
 857              	.L47:
 858              		.loc 6 430 0
 859 0012 019B     		ldr	r3, [sp, #4]
 860 0014 1B7A     		ldrb	r3, [r3, #8]	@ zero_extendqisi2
 861 0016 012B     		cmp	r3, #1
 862 0018 0DD1     		bne	.L48
 863              		.loc 6 438 0
 864 001a 019B     		ldr	r3, [sp, #4]
 865 001c 0A4A     		ldr	r2, .L49+4
 866 001e 9342     		cmp	r3, r2
 867 0020 09D1     		bne	.L48
 868              		.loc 6 439 0
 869 0022 0A4A     		ldr	r2, .L49+8
 870 0024 094B     		ldr	r3, .L49+8
 871 0026 1B6C     		ldr	r3, [r3, #64]
 872 0028 43F40033 		orr	r3, r3, #131072
 873 002c 1364     		str	r3, [r2, #64]
 874              		.loc 6 440 0
 875 002e 2620     		movs	r0, #38
 876 0030 0C21     		movs	r1, #12
 877 0032 FFF7FEFF 		bl	nvicEnableVector
 878              	.L48:
 879              		.loc 6 468 0
 880 0036 0198     		ldr	r0, [sp, #4]
 881 0038 0099     		ldr	r1, [sp]
 882 003a FFF7FEFF 		bl	usart_init
 883              		.loc 6 469 0
 884 003e 03B0     		add	sp, sp, #12
 885              		.cfi_def_cfa_offset 4
 886              		@ sp needed
 887 0040 5DF804FB 		ldr	pc, [sp], #4
 888              	.L50:
 889              		.align	2
 890              	.L49:
 891 0044 00000000 		.word	default_config
 892 0048 00000000 		.word	SD2
ARM GAS  /tmp/ccK5gGBe.s 			page 17


 893 004c 00380240 		.word	1073887232
 894              		.cfi_endproc
 895              	.LFE260:
 896              		.size	sd_lld_start, .-sd_lld_start
 897              		.section	.text.sd_lld_stop,"ax",%progbits
 898              		.align	2
 899              		.p2align 4,,15
 900              		.global	sd_lld_stop
 901              		.thumb
 902              		.thumb_func
 903              		.type	sd_lld_stop, %function
 904              	sd_lld_stop:
 905              	.LFB261:
 906              		.loc 6 480 0
 907              		.cfi_startproc
 908              		@ args = 0, pretend = 0, frame = 8
 909              		@ frame_needed = 0, uses_anonymous_args = 0
 910 0000 00B5     		push	{lr}
 911              		.cfi_def_cfa_offset 4
 912              		.cfi_offset 14, -4
 913 0002 83B0     		sub	sp, sp, #12
 914              		.cfi_def_cfa_offset 16
 915 0004 0190     		str	r0, [sp, #4]
 916              		.loc 6 482 0
 917 0006 019B     		ldr	r3, [sp, #4]
 918 0008 1B7A     		ldrb	r3, [r3, #8]	@ zero_extendqisi2
 919 000a 022B     		cmp	r3, #2
 920 000c 12D1     		bne	.L51
 921              		.loc 6 483 0
 922 000e 019B     		ldr	r3, [sp, #4]
 923 0010 5B6F     		ldr	r3, [r3, #116]
 924 0012 1846     		mov	r0, r3
 925 0014 FFF7FEFF 		bl	usart_deinit
 926              		.loc 6 492 0
 927 0018 019B     		ldr	r3, [sp, #4]
 928 001a 084A     		ldr	r2, .L53
 929 001c 9342     		cmp	r3, r2
 930 001e 09D1     		bne	.L51
 931              		.loc 6 493 0
 932 0020 074A     		ldr	r2, .L53+4
 933 0022 074B     		ldr	r3, .L53+4
 934 0024 1B6C     		ldr	r3, [r3, #64]
 935 0026 23F40033 		bic	r3, r3, #131072
 936 002a 1364     		str	r3, [r2, #64]
 937              		.loc 6 494 0
 938 002c 2620     		movs	r0, #38
 939 002e FFF7FEFF 		bl	nvicDisableVector
 940              		.loc 6 495 0
 941 0032 00BF     		nop
 942              	.L51:
 943              		.loc 6 527 0
 944 0034 03B0     		add	sp, sp, #12
 945              		.cfi_def_cfa_offset 4
 946              		@ sp needed
 947 0036 5DF804FB 		ldr	pc, [sp], #4
 948              	.L54:
 949 003a 00BF     		.align	2
ARM GAS  /tmp/ccK5gGBe.s 			page 18


 950              	.L53:
 951 003c 00000000 		.word	SD2
 952 0040 00380240 		.word	1073887232
 953              		.cfi_endproc
 954              	.LFE261:
 955              		.size	sd_lld_stop, .-sd_lld_stop
 956 0044 AFF30080 		.text
 956      AFF30080 
 956      AFF30080 
 957              	.Letext0:
 958              		.file 7 "/opt/gcc-arm-none-eabi/lib/gcc/arm-none-eabi/4.9.3/include/stddef.h"
 959              		.file 8 "/opt/gcc-arm-none-eabi/arm-none-eabi/include/machine/_default_types.h"
 960              		.file 9 "/opt/gcc-arm-none-eabi/arm-none-eabi/include/stdint.h"
 961              		.file 10 "/home/makkmarci/workspace/CLEAN/ChibiOS/os/rt/ports/ARMCMx/compilers/GCC/chtypes.h"
 962              		.file 11 "/home/makkmarci/workspace/CLEAN/ChibiOS/os/rt/include/chsystypes.h"
 963              		.file 12 "/home/makkmarci/workspace/CLEAN/ChibiOS/os/rt/include/chschd.h"
 964              		.file 13 "/home/makkmarci/workspace/CLEAN/ChibiOS/os/ext/CMSIS/ST/stm32f407xx.h"
 965              		.file 14 "/home/makkmarci/workspace/CLEAN/ChibiOS/os/rt/ports/ARMCMx/chcore.h"
 966              		.file 15 "/home/makkmarci/workspace/CLEAN/ChibiOS/os/rt/include/chtm.h"
 967              		.file 16 "/home/makkmarci/workspace/CLEAN/ChibiOS/os/rt/include/chsem.h"
 968              		.file 17 "/home/makkmarci/workspace/CLEAN/ChibiOS/os/rt/include/chmtx.h"
 969              		.file 18 "/home/makkmarci/workspace/CLEAN/ChibiOS/os/rt/include/chevents.h"
 970              		.file 19 "/home/makkmarci/workspace/CLEAN/ChibiOS/os/hal/include/serial.h"
 971              		.file 20 "/home/makkmarci/workspace/CLEAN/ChibiOS/os/hal/ports/STM32/LLD/USARTv1/serial_lld.h"
 972              		.file 21 "/home/makkmarci/workspace/CLEAN/ChibiOS/os/ext/CMSIS/include/core_cm4.h"
 973              		.section	.debug_info,"",%progbits
 974              	.Ldebug_info0:
 975 0000 23100000 		.4byte	0x1023
 976 0004 0400     		.2byte	0x4
 977 0006 00000000 		.4byte	.Ldebug_abbrev0
 978 000a 04       		.byte	0x4
 979 000b 01       		.uleb128 0x1
 980 000c DC020000 		.4byte	.LASF200
 981 0010 01       		.byte	0x1
 982 0011 8F080000 		.4byte	.LASF201
 983 0015 00000000 		.4byte	.Ldebug_ranges0+0
 984 0019 00000000 		.4byte	0
 985 001d 00000000 		.4byte	.Ldebug_line0
 986 0021 02       		.uleb128 0x2
 987 0022 04       		.byte	0x4
 988 0023 05       		.byte	0x5
 989 0024 696E7400 		.ascii	"int\000"
 990 0028 03       		.uleb128 0x3
 991 0029 00000000 		.4byte	.LASF2
 992 002d 07       		.byte	0x7
 993 002e D4       		.byte	0xd4
 994 002f 33000000 		.4byte	0x33
 995 0033 04       		.uleb128 0x4
 996 0034 04       		.byte	0x4
 997 0035 07       		.byte	0x7
 998 0036 FE050000 		.4byte	.LASF0
 999 003a 04       		.uleb128 0x4
 1000 003b 01       		.byte	0x1
 1001 003c 06       		.byte	0x6
 1002 003d DA010000 		.4byte	.LASF1
 1003 0041 03       		.uleb128 0x3
 1004 0042 ED000000 		.4byte	.LASF3
ARM GAS  /tmp/ccK5gGBe.s 			page 19


 1005 0046 08       		.byte	0x8
 1006 0047 1D       		.byte	0x1d
 1007 0048 4C000000 		.4byte	0x4c
 1008 004c 04       		.uleb128 0x4
 1009 004d 01       		.byte	0x1
 1010 004e 08       		.byte	0x8
 1011 004f 36020000 		.4byte	.LASF4
 1012 0053 04       		.uleb128 0x4
 1013 0054 02       		.byte	0x2
 1014 0055 05       		.byte	0x5
 1015 0056 F6070000 		.4byte	.LASF5
 1016 005a 03       		.uleb128 0x3
 1017 005b C2020000 		.4byte	.LASF6
 1018 005f 08       		.byte	0x8
 1019 0060 2B       		.byte	0x2b
 1020 0061 65000000 		.4byte	0x65
 1021 0065 04       		.uleb128 0x4
 1022 0066 02       		.byte	0x2
 1023 0067 07       		.byte	0x7
 1024 0068 12090000 		.4byte	.LASF7
 1025 006c 03       		.uleb128 0x3
 1026 006d 4C090000 		.4byte	.LASF8
 1027 0071 08       		.byte	0x8
 1028 0072 3F       		.byte	0x3f
 1029 0073 77000000 		.4byte	0x77
 1030 0077 04       		.uleb128 0x4
 1031 0078 04       		.byte	0x4
 1032 0079 05       		.byte	0x5
 1033 007a 34010000 		.4byte	.LASF9
 1034 007e 03       		.uleb128 0x3
 1035 007f 3D050000 		.4byte	.LASF10
 1036 0083 08       		.byte	0x8
 1037 0084 41       		.byte	0x41
 1038 0085 89000000 		.4byte	0x89
 1039 0089 04       		.uleb128 0x4
 1040 008a 04       		.byte	0x4
 1041 008b 07       		.byte	0x7
 1042 008c 90040000 		.4byte	.LASF11
 1043 0090 04       		.uleb128 0x4
 1044 0091 08       		.byte	0x8
 1045 0092 05       		.byte	0x5
 1046 0093 48050000 		.4byte	.LASF12
 1047 0097 03       		.uleb128 0x3
 1048 0098 85040000 		.4byte	.LASF13
 1049 009c 08       		.byte	0x8
 1050 009d 5B       		.byte	0x5b
 1051 009e A2000000 		.4byte	0xa2
 1052 00a2 04       		.uleb128 0x4
 1053 00a3 08       		.byte	0x8
 1054 00a4 07       		.byte	0x7
 1055 00a5 D4060000 		.4byte	.LASF14
 1056 00a9 03       		.uleb128 0x3
 1057 00aa ED010000 		.4byte	.LASF15
 1058 00ae 09       		.byte	0x9
 1059 00af 15       		.byte	0x15
 1060 00b0 41000000 		.4byte	0x41
 1061 00b4 03       		.uleb128 0x3
ARM GAS  /tmp/ccK5gGBe.s 			page 20


 1062 00b5 F3060000 		.4byte	.LASF16
 1063 00b9 09       		.byte	0x9
 1064 00ba 21       		.byte	0x21
 1065 00bb 5A000000 		.4byte	0x5a
 1066 00bf 03       		.uleb128 0x3
 1067 00c0 4B000000 		.4byte	.LASF17
 1068 00c4 09       		.byte	0x9
 1069 00c5 2C       		.byte	0x2c
 1070 00c6 6C000000 		.4byte	0x6c
 1071 00ca 03       		.uleb128 0x3
 1072 00cb 78080000 		.4byte	.LASF18
 1073 00cf 09       		.byte	0x9
 1074 00d0 2D       		.byte	0x2d
 1075 00d1 7E000000 		.4byte	0x7e
 1076 00d5 03       		.uleb128 0x3
 1077 00d6 0D080000 		.4byte	.LASF19
 1078 00da 09       		.byte	0x9
 1079 00db 39       		.byte	0x39
 1080 00dc 97000000 		.4byte	0x97
 1081 00e0 05       		.uleb128 0x5
 1082 00e1 BF000000 		.4byte	0xbf
 1083 00e5 05       		.uleb128 0x5
 1084 00e6 CA000000 		.4byte	0xca
 1085 00ea 03       		.uleb128 0x3
 1086 00eb 0B060000 		.4byte	.LASF20
 1087 00ef 0A       		.byte	0xa
 1088 00f0 46       		.byte	0x46
 1089 00f1 CA000000 		.4byte	0xca
 1090 00f5 03       		.uleb128 0x3
 1091 00f6 78070000 		.4byte	.LASF21
 1092 00fa 0A       		.byte	0xa
 1093 00fb 49       		.byte	0x49
 1094 00fc A9000000 		.4byte	0xa9
 1095 0100 03       		.uleb128 0x3
 1096 0101 7F010000 		.4byte	.LASF22
 1097 0105 0A       		.byte	0xa
 1098 0106 4A       		.byte	0x4a
 1099 0107 A9000000 		.4byte	0xa9
 1100 010b 03       		.uleb128 0x3
 1101 010c 57080000 		.4byte	.LASF23
 1102 0110 0A       		.byte	0xa
 1103 0111 4B       		.byte	0x4b
 1104 0112 A9000000 		.4byte	0xa9
 1105 0116 03       		.uleb128 0x3
 1106 0117 32000000 		.4byte	.LASF24
 1107 011b 0A       		.byte	0xa
 1108 011c 4D       		.byte	0x4d
 1109 011d CA000000 		.4byte	0xca
 1110 0121 03       		.uleb128 0x3
 1111 0122 FC060000 		.4byte	.LASF25
 1112 0126 0A       		.byte	0xa
 1113 0127 4E       		.byte	0x4e
 1114 0128 BF000000 		.4byte	0xbf
 1115 012c 03       		.uleb128 0x3
 1116 012d F5010000 		.4byte	.LASF26
 1117 0131 0A       		.byte	0xa
 1118 0132 50       		.byte	0x50
ARM GAS  /tmp/ccK5gGBe.s 			page 21


 1119 0133 CA000000 		.4byte	0xca
 1120 0137 03       		.uleb128 0x3
 1121 0138 13070000 		.4byte	.LASF27
 1122 013c 0A       		.byte	0xa
 1123 013d 51       		.byte	0x51
 1124 013e CA000000 		.4byte	0xca
 1125 0142 03       		.uleb128 0x3
 1126 0143 25040000 		.4byte	.LASF28
 1127 0147 0A       		.byte	0xa
 1128 0148 52       		.byte	0x52
 1129 0149 BF000000 		.4byte	0xbf
 1130 014d 03       		.uleb128 0x3
 1131 014e 17000000 		.4byte	.LASF29
 1132 0152 0B       		.byte	0xb
 1133 0153 33       		.byte	0x33
 1134 0154 CA000000 		.4byte	0xca
 1135 0158 03       		.uleb128 0x3
 1136 0159 50060000 		.4byte	.LASF30
 1137 015d 0B       		.byte	0xb
 1138 015e 3F       		.byte	0x3f
 1139 015f 63010000 		.4byte	0x163
 1140 0163 06       		.uleb128 0x6
 1141 0164 AF040000 		.4byte	.LASF50
 1142 0168 44       		.byte	0x44
 1143 0169 0C       		.byte	0xc
 1144 016a C2       		.byte	0xc2
 1145 016b 50020000 		.4byte	0x250
 1146 016f 07       		.uleb128 0x7
 1147 0170 3D010000 		.4byte	.LASF31
 1148 0174 0C       		.byte	0xc
 1149 0175 C3       		.byte	0xc3
 1150 0176 5B020000 		.4byte	0x25b
 1151 017a 00       		.byte	0
 1152 017b 07       		.uleb128 0x7
 1153 017c 58010000 		.4byte	.LASF32
 1154 0180 0C       		.byte	0xc
 1155 0181 C5       		.byte	0xc5
 1156 0182 5B020000 		.4byte	0x25b
 1157 0186 04       		.byte	0x4
 1158 0187 07       		.uleb128 0x7
 1159 0188 BB020000 		.4byte	.LASF33
 1160 018c 0C       		.byte	0xc
 1161 018d C7       		.byte	0xc7
 1162 018e 16010000 		.4byte	0x116
 1163 0192 08       		.byte	0x8
 1164 0193 07       		.uleb128 0x7
 1165 0194 2C000000 		.4byte	.LASF34
 1166 0198 0C       		.byte	0xc
 1167 0199 C8       		.byte	0xc8
 1168 019a A5060000 		.4byte	0x6a5
 1169 019e 0C       		.byte	0xc
 1170 019f 07       		.uleb128 0x7
 1171 01a0 2C010000 		.4byte	.LASF35
 1172 01a4 0C       		.byte	0xc
 1173 01a5 CA       		.byte	0xca
 1174 01a6 5B020000 		.4byte	0x25b
 1175 01aa 10       		.byte	0x10
ARM GAS  /tmp/ccK5gGBe.s 			page 22


 1176 01ab 07       		.uleb128 0x7
 1177 01ac EB060000 		.4byte	.LASF36
 1178 01b0 0C       		.byte	0xc
 1179 01b1 CB       		.byte	0xcb
 1180 01b2 5B020000 		.4byte	0x25b
 1181 01b6 14       		.byte	0x14
 1182 01b7 07       		.uleb128 0x7
 1183 01b8 67090000 		.4byte	.LASF37
 1184 01bc 0C       		.byte	0xc
 1185 01bd D2       		.byte	0xd2
 1186 01be EA080000 		.4byte	0x8ea
 1187 01c2 18       		.byte	0x18
 1188 01c3 07       		.uleb128 0x7
 1189 01c4 87090000 		.4byte	.LASF38
 1190 01c8 0C       		.byte	0xc
 1191 01c9 DD       		.byte	0xdd
 1192 01ca 00010000 		.4byte	0x100
 1193 01ce 1C       		.byte	0x1c
 1194 01cf 07       		.uleb128 0x7
 1195 01d0 E2050000 		.4byte	.LASF39
 1196 01d4 0C       		.byte	0xc
 1197 01d5 E1       		.byte	0xe1
 1198 01d6 F5000000 		.4byte	0xf5
 1199 01da 1D       		.byte	0x1d
 1200 01db 07       		.uleb128 0x7
 1201 01dc 1B060000 		.4byte	.LASF40
 1202 01e0 0C       		.byte	0xc
 1203 01e1 E6       		.byte	0xe6
 1204 01e2 0B010000 		.4byte	0x10b
 1205 01e6 1E       		.byte	0x1e
 1206 01e7 08       		.uleb128 0x8
 1207 01e8 705F7500 		.ascii	"p_u\000"
 1208 01ec 0C       		.byte	0xc
 1209 01ed 3101     		.2byte	0x131
 1210 01ef 25080000 		.4byte	0x825
 1211 01f3 20       		.byte	0x20
 1212 01f4 09       		.uleb128 0x9
 1213 01f5 D2050000 		.4byte	.LASF41
 1214 01f9 0C       		.byte	0xc
 1215 01fa 3601     		.2byte	0x136
 1216 01fc 61020000 		.4byte	0x261
 1217 0200 24       		.byte	0x24
 1218 0201 09       		.uleb128 0x9
 1219 0202 3A000000 		.4byte	.LASF42
 1220 0206 0C       		.byte	0xc
 1221 0207 3C01     		.2byte	0x13c
 1222 0209 85020000 		.4byte	0x285
 1223 020d 28       		.byte	0x28
 1224 020e 09       		.uleb128 0x9
 1225 020f 75090000 		.4byte	.LASF43
 1226 0213 0C       		.byte	0xc
 1227 0214 4001     		.2byte	0x140
 1228 0216 21010000 		.4byte	0x121
 1229 021a 30       		.byte	0x30
 1230 021b 09       		.uleb128 0x9
 1231 021c 39040000 		.4byte	.LASF44
 1232 0220 0C       		.byte	0xc
ARM GAS  /tmp/ccK5gGBe.s 			page 23


 1233 0221 4601     		.2byte	0x146
 1234 0223 2C010000 		.4byte	0x12c
 1235 0227 34       		.byte	0x34
 1236 0228 09       		.uleb128 0x9
 1237 0229 98010000 		.4byte	.LASF45
 1238 022d 0C       		.byte	0xc
 1239 022e 4D01     		.2byte	0x14d
 1240 0230 E4080000 		.4byte	0x8e4
 1241 0234 38       		.byte	0x38
 1242 0235 09       		.uleb128 0x9
 1243 0236 6C060000 		.4byte	.LASF46
 1244 023a 0C       		.byte	0xc
 1245 023b 5101     		.2byte	0x151
 1246 023d 16010000 		.4byte	0x116
 1247 0241 3C       		.byte	0x3c
 1248 0242 09       		.uleb128 0x9
 1249 0243 13060000 		.4byte	.LASF47
 1250 0247 0C       		.byte	0xc
 1251 0248 5801     		.2byte	0x158
 1252 024a 38030000 		.4byte	0x338
 1253 024e 40       		.byte	0x40
 1254 024f 00       		.byte	0
 1255 0250 03       		.uleb128 0x3
 1256 0251 59060000 		.4byte	.LASF48
 1257 0255 0B       		.byte	0xb
 1258 0256 44       		.byte	0x44
 1259 0257 5B020000 		.4byte	0x25b
 1260 025b 0A       		.uleb128 0xa
 1261 025c 04       		.byte	0x4
 1262 025d 58010000 		.4byte	0x158
 1263 0261 03       		.uleb128 0x3
 1264 0262 5F080000 		.4byte	.LASF49
 1265 0266 0B       		.byte	0xb
 1266 0267 49       		.byte	0x49
 1267 0268 6C020000 		.4byte	0x26c
 1268 026c 06       		.uleb128 0x6
 1269 026d 19050000 		.4byte	.LASF51
 1270 0271 04       		.byte	0x4
 1271 0272 0C       		.byte	0xc
 1272 0273 B0       		.byte	0xb0
 1273 0274 85020000 		.4byte	0x285
 1274 0278 07       		.uleb128 0x7
 1275 0279 3D010000 		.4byte	.LASF31
 1276 027d 0C       		.byte	0xc
 1277 027e B1       		.byte	0xb1
 1278 027f 5B020000 		.4byte	0x25b
 1279 0283 00       		.byte	0
 1280 0284 00       		.byte	0
 1281 0285 03       		.uleb128 0x3
 1282 0286 88010000 		.4byte	.LASF52
 1283 028a 0B       		.byte	0xb
 1284 028b 50       		.byte	0x50
 1285 028c 90020000 		.4byte	0x290
 1286 0290 06       		.uleb128 0x6
 1287 0291 02070000 		.4byte	.LASF53
 1288 0295 08       		.byte	0x8
 1289 0296 0C       		.byte	0xc
ARM GAS  /tmp/ccK5gGBe.s 			page 24


 1290 0297 B7       		.byte	0xb7
 1291 0298 B5020000 		.4byte	0x2b5
 1292 029c 07       		.uleb128 0x7
 1293 029d 3D010000 		.4byte	.LASF31
 1294 02a1 0C       		.byte	0xc
 1295 02a2 B8       		.byte	0xb8
 1296 02a3 5B020000 		.4byte	0x25b
 1297 02a7 00       		.byte	0
 1298 02a8 07       		.uleb128 0x7
 1299 02a9 58010000 		.4byte	.LASF32
 1300 02ad 0C       		.byte	0xc
 1301 02ae B9       		.byte	0xb9
 1302 02af 5B020000 		.4byte	0x25b
 1303 02b3 04       		.byte	0x4
 1304 02b4 00       		.byte	0
 1305 02b5 03       		.uleb128 0x3
 1306 02b6 E7040000 		.4byte	.LASF54
 1307 02ba 0B       		.byte	0xb
 1308 02bb 57       		.byte	0x57
 1309 02bc C0020000 		.4byte	0x2c0
 1310 02c0 0B       		.uleb128 0xb
 1311 02c1 4B040000 		.4byte	.LASF55
 1312 02c5 1C       		.byte	0x1c
 1313 02c6 0C       		.byte	0xc
 1314 02c7 9001     		.2byte	0x190
 1315 02c9 1C030000 		.4byte	0x31c
 1316 02cd 09       		.uleb128 0x9
 1317 02ce 53070000 		.4byte	.LASF56
 1318 02d2 0C       		.byte	0xc
 1319 02d3 9101     		.2byte	0x191
 1320 02d5 85020000 		.4byte	0x285
 1321 02d9 00       		.byte	0
 1322 02da 09       		.uleb128 0x9
 1323 02db 26080000 		.4byte	.LASF57
 1324 02df 0C       		.byte	0xc
 1325 02e0 9201     		.2byte	0x192
 1326 02e2 16010000 		.4byte	0x116
 1327 02e6 08       		.byte	0x8
 1328 02e7 09       		.uleb128 0x9
 1329 02e8 45000000 		.4byte	.LASF58
 1330 02ec 0C       		.byte	0xc
 1331 02ed 9401     		.2byte	0x194
 1332 02ef A5060000 		.4byte	0x6a5
 1333 02f3 0C       		.byte	0xc
 1334 02f4 09       		.uleb128 0x9
 1335 02f5 76020000 		.4byte	.LASF59
 1336 02f9 0C       		.byte	0xc
 1337 02fa 9701     		.2byte	0x197
 1338 02fc 5B020000 		.4byte	0x25b
 1339 0300 10       		.byte	0x10
 1340 0301 09       		.uleb128 0x9
 1341 0302 AE070000 		.4byte	.LASF60
 1342 0306 0C       		.byte	0xc
 1343 0307 9801     		.2byte	0x198
 1344 0309 5B020000 		.4byte	0x25b
 1345 030d 14       		.byte	0x14
 1346 030e 09       		.uleb128 0x9
ARM GAS  /tmp/ccK5gGBe.s 			page 25


 1347 030f 26070000 		.4byte	.LASF61
 1348 0313 0C       		.byte	0xc
 1349 0314 9B01     		.2byte	0x19b
 1350 0316 5B020000 		.4byte	0x25b
 1351 031a 18       		.byte	0x18
 1352 031b 00       		.byte	0
 1353 031c 03       		.uleb128 0x3
 1354 031d 67000000 		.4byte	.LASF62
 1355 0321 0B       		.byte	0xb
 1356 0322 5C       		.byte	0x5c
 1357 0323 27030000 		.4byte	0x327
 1358 0327 0A       		.uleb128 0xa
 1359 0328 04       		.byte	0x4
 1360 0329 2D030000 		.4byte	0x32d
 1361 032d 0C       		.uleb128 0xc
 1362 032e 38030000 		.4byte	0x338
 1363 0332 0D       		.uleb128 0xd
 1364 0333 38030000 		.4byte	0x338
 1365 0337 00       		.byte	0
 1366 0338 0E       		.uleb128 0xe
 1367 0339 04       		.byte	0x4
 1368 033a 03       		.uleb128 0x3
 1369 033b D7040000 		.4byte	.LASF63
 1370 033f 0B       		.byte	0xb
 1371 0340 61       		.byte	0x61
 1372 0341 45030000 		.4byte	0x345
 1373 0345 0B       		.uleb128 0xb
 1374 0346 B5060000 		.4byte	.LASF64
 1375 034a 14       		.byte	0x14
 1376 034b 0C       		.byte	0xc
 1377 034c 6B01     		.2byte	0x16b
 1378 034e 94030000 		.4byte	0x394
 1379 0352 09       		.uleb128 0x9
 1380 0353 77050000 		.4byte	.LASF65
 1381 0357 0C       		.byte	0xc
 1382 0358 6C01     		.2byte	0x16c
 1383 035a FC080000 		.4byte	0x8fc
 1384 035e 00       		.byte	0
 1385 035f 09       		.uleb128 0x9
 1386 0360 7F050000 		.4byte	.LASF66
 1387 0364 0C       		.byte	0xc
 1388 0365 6D01     		.2byte	0x16d
 1389 0367 FC080000 		.4byte	0x8fc
 1390 036b 04       		.byte	0x4
 1391 036c 09       		.uleb128 0x9
 1392 036d 98060000 		.4byte	.LASF67
 1393 0371 0C       		.byte	0xc
 1394 0372 6E01     		.2byte	0x16e
 1395 0374 4D010000 		.4byte	0x14d
 1396 0378 08       		.byte	0x8
 1397 0379 09       		.uleb128 0x9
 1398 037a 2B040000 		.4byte	.LASF68
 1399 037e 0C       		.byte	0xc
 1400 037f 6F01     		.2byte	0x16f
 1401 0381 1C030000 		.4byte	0x31c
 1402 0385 0C       		.byte	0xc
 1403 0386 09       		.uleb128 0x9
ARM GAS  /tmp/ccK5gGBe.s 			page 26


 1404 0387 DD000000 		.4byte	.LASF69
 1405 038b 0C       		.byte	0xc
 1406 038c 7101     		.2byte	0x171
 1407 038e 38030000 		.4byte	0x338
 1408 0392 10       		.byte	0x10
 1409 0393 00       		.byte	0
 1410 0394 03       		.uleb128 0x3
 1411 0395 B9040000 		.4byte	.LASF70
 1412 0399 0B       		.byte	0xb
 1413 039a 66       		.byte	0x66
 1414 039b 9F030000 		.4byte	0x39f
 1415 039f 0B       		.uleb128 0xb
 1416 03a0 70000000 		.4byte	.LASF71
 1417 03a4 10       		.byte	0x10
 1418 03a5 0C       		.byte	0xc
 1419 03a6 7B01     		.2byte	0x17b
 1420 03a8 E1030000 		.4byte	0x3e1
 1421 03ac 09       		.uleb128 0x9
 1422 03ad 77050000 		.4byte	.LASF65
 1423 03b1 0C       		.byte	0xc
 1424 03b2 7C01     		.2byte	0x17c
 1425 03b4 FC080000 		.4byte	0x8fc
 1426 03b8 00       		.byte	0
 1427 03b9 09       		.uleb128 0x9
 1428 03ba 7F050000 		.4byte	.LASF66
 1429 03be 0C       		.byte	0xc
 1430 03bf 7E01     		.2byte	0x17e
 1431 03c1 FC080000 		.4byte	0x8fc
 1432 03c5 04       		.byte	0x4
 1433 03c6 09       		.uleb128 0x9
 1434 03c7 98060000 		.4byte	.LASF67
 1435 03cb 0C       		.byte	0xc
 1436 03cc 8001     		.2byte	0x180
 1437 03ce 4D010000 		.4byte	0x14d
 1438 03d2 08       		.byte	0x8
 1439 03d3 09       		.uleb128 0x9
 1440 03d4 92070000 		.4byte	.LASF72
 1441 03d8 0C       		.byte	0xc
 1442 03d9 8201     		.2byte	0x182
 1443 03db 02090000 		.4byte	0x902
 1444 03df 0C       		.byte	0xc
 1445 03e0 00       		.byte	0
 1446 03e1 03       		.uleb128 0x3
 1447 03e2 7E020000 		.4byte	.LASF73
 1448 03e6 0B       		.byte	0xb
 1449 03e7 6B       		.byte	0x6b
 1450 03e8 EC030000 		.4byte	0x3ec
 1451 03ec 0B       		.uleb128 0xb
 1452 03ed 2D080000 		.4byte	.LASF74
 1453 03f1 04       		.byte	0x4
 1454 03f2 0C       		.byte	0xc
 1455 03f3 A201     		.2byte	0x1a2
 1456 03f5 07040000 		.4byte	0x407
 1457 03f9 09       		.uleb128 0x9
 1458 03fa 6C020000 		.4byte	.LASF75
 1459 03fe 0C       		.byte	0xc
 1460 03ff AA01     		.2byte	0x1aa
ARM GAS  /tmp/ccK5gGBe.s 			page 27


 1461 0401 07090000 		.4byte	0x907
 1462 0405 00       		.byte	0
 1463 0406 00       		.byte	0
 1464 0407 03       		.uleb128 0x3
 1465 0408 31090000 		.4byte	.LASF76
 1466 040c 0B       		.byte	0xb
 1467 040d 70       		.byte	0x70
 1468 040e 12040000 		.4byte	0x412
 1469 0412 0F       		.uleb128 0xf
 1470 0413 6E080000 		.4byte	.LASF77
 1471 0417 D801     		.2byte	0x1d8
 1472 0419 0C       		.byte	0xc
 1473 041a C201     		.2byte	0x1c2
 1474 041c 6E040000 		.4byte	0x46e
 1475 0420 09       		.uleb128 0x9
 1476 0421 72070000 		.4byte	.LASF78
 1477 0425 0C       		.byte	0xc
 1478 0426 C601     		.2byte	0x1c6
 1479 0428 B5020000 		.4byte	0x2b5
 1480 042c 00       		.byte	0
 1481 042d 09       		.uleb128 0x9
 1482 042e 48080000 		.4byte	.LASF79
 1483 0432 0C       		.byte	0xc
 1484 0433 CA01     		.2byte	0x1ca
 1485 0435 94030000 		.4byte	0x394
 1486 0439 1C       		.byte	0x1c
 1487 043a 08       		.uleb128 0x8
 1488 043b 64626700 		.ascii	"dbg\000"
 1489 043f 0C       		.byte	0xc
 1490 0440 CE01     		.2byte	0x1ce
 1491 0442 E1030000 		.4byte	0x3e1
 1492 0446 2C       		.byte	0x2c
 1493 0447 09       		.uleb128 0x9
 1494 0448 30070000 		.4byte	.LASF80
 1495 044c 0C       		.byte	0xc
 1496 044d D201     		.2byte	0x1d2
 1497 044f 58010000 		.4byte	0x158
 1498 0453 30       		.byte	0x30
 1499 0454 08       		.uleb128 0x8
 1500 0455 746D00   		.ascii	"tm\000"
 1501 0458 0C       		.byte	0xc
 1502 0459 D701     		.2byte	0x1d7
 1503 045b 1A080000 		.4byte	0x81a
 1504 045f 74       		.byte	0x74
 1505 0460 09       		.uleb128 0x9
 1506 0461 EF050000 		.4byte	.LASF81
 1507 0465 0C       		.byte	0xc
 1508 0466 E301     		.2byte	0x1e3
 1509 0468 0C090000 		.4byte	0x90c
 1510 046c 78       		.byte	0x78
 1511 046d 00       		.byte	0
 1512 046e 04       		.uleb128 0x4
 1513 046f 04       		.byte	0x4
 1514 0470 07       		.byte	0x7
 1515 0471 07000000 		.4byte	.LASF82
 1516 0475 10       		.uleb128 0x10
 1517 0476 CA000000 		.4byte	0xca
ARM GAS  /tmp/ccK5gGBe.s 			page 28


 1518 047a 85040000 		.4byte	0x485
 1519 047e 11       		.uleb128 0x11
 1520 047f 6E040000 		.4byte	0x46e
 1521 0483 01       		.byte	0x1
 1522 0484 00       		.byte	0
 1523 0485 12       		.uleb128 0x12
 1524 0486 88       		.byte	0x88
 1525 0487 0D       		.byte	0xd
 1526 0488 6702     		.2byte	0x267
 1527 048a 14060000 		.4byte	0x614
 1528 048e 08       		.uleb128 0x8
 1529 048f 435200   		.ascii	"CR\000"
 1530 0492 0D       		.byte	0xd
 1531 0493 6902     		.2byte	0x269
 1532 0495 E5000000 		.4byte	0xe5
 1533 0499 00       		.byte	0
 1534 049a 09       		.uleb128 0x9
 1535 049b 35050000 		.4byte	.LASF83
 1536 049f 0D       		.byte	0xd
 1537 04a0 6A02     		.2byte	0x26a
 1538 04a2 E5000000 		.4byte	0xe5
 1539 04a6 04       		.byte	0x4
 1540 04a7 09       		.uleb128 0x9
 1541 04a8 59040000 		.4byte	.LASF84
 1542 04ac 0D       		.byte	0xd
 1543 04ad 6B02     		.2byte	0x26b
 1544 04af E5000000 		.4byte	0xe5
 1545 04b3 08       		.byte	0x8
 1546 04b4 08       		.uleb128 0x8
 1547 04b5 43495200 		.ascii	"CIR\000"
 1548 04b9 0D       		.byte	0xd
 1549 04ba 6C02     		.2byte	0x26c
 1550 04bc E5000000 		.4byte	0xe5
 1551 04c0 0C       		.byte	0xc
 1552 04c1 09       		.uleb128 0x9
 1553 04c2 B2020000 		.4byte	.LASF85
 1554 04c6 0D       		.byte	0xd
 1555 04c7 6D02     		.2byte	0x26d
 1556 04c9 E5000000 		.4byte	0xe5
 1557 04cd 10       		.byte	0x10
 1558 04ce 09       		.uleb128 0x9
 1559 04cf C7070000 		.4byte	.LASF86
 1560 04d3 0D       		.byte	0xd
 1561 04d4 6E02     		.2byte	0x26e
 1562 04d6 E5000000 		.4byte	0xe5
 1563 04da 14       		.byte	0x14
 1564 04db 09       		.uleb128 0x9
 1565 04dc 47060000 		.4byte	.LASF87
 1566 04e0 0D       		.byte	0xd
 1567 04e1 6F02     		.2byte	0x26f
 1568 04e3 E5000000 		.4byte	0xe5
 1569 04e7 18       		.byte	0x18
 1570 04e8 09       		.uleb128 0x9
 1571 04e9 22020000 		.4byte	.LASF88
 1572 04ed 0D       		.byte	0xd
 1573 04ee 7002     		.2byte	0x270
 1574 04f0 CA000000 		.4byte	0xca
ARM GAS  /tmp/ccK5gGBe.s 			page 29


 1575 04f4 1C       		.byte	0x1c
 1576 04f5 09       		.uleb128 0x9
 1577 04f6 A1060000 		.4byte	.LASF89
 1578 04fa 0D       		.byte	0xd
 1579 04fb 7102     		.2byte	0x271
 1580 04fd E5000000 		.4byte	0xe5
 1581 0501 20       		.byte	0x20
 1582 0502 09       		.uleb128 0x9
 1583 0503 8C050000 		.4byte	.LASF90
 1584 0507 0D       		.byte	0xd
 1585 0508 7202     		.2byte	0x272
 1586 050a E5000000 		.4byte	0xe5
 1587 050e 24       		.byte	0x24
 1588 050f 09       		.uleb128 0x9
 1589 0510 2C020000 		.4byte	.LASF91
 1590 0514 0D       		.byte	0xd
 1591 0515 7302     		.2byte	0x273
 1592 0517 75040000 		.4byte	0x475
 1593 051b 28       		.byte	0x28
 1594 051c 09       		.uleb128 0x9
 1595 051d 8A070000 		.4byte	.LASF92
 1596 0521 0D       		.byte	0xd
 1597 0522 7402     		.2byte	0x274
 1598 0524 E5000000 		.4byte	0xe5
 1599 0528 30       		.byte	0x30
 1600 0529 09       		.uleb128 0x9
 1601 052a CD020000 		.4byte	.LASF93
 1602 052e 0D       		.byte	0xd
 1603 052f 7502     		.2byte	0x275
 1604 0531 E5000000 		.4byte	0xe5
 1605 0535 34       		.byte	0x34
 1606 0536 09       		.uleb128 0x9
 1607 0537 A6070000 		.4byte	.LASF94
 1608 053b 0D       		.byte	0xd
 1609 053c 7602     		.2byte	0x276
 1610 053e E5000000 		.4byte	0xe5
 1611 0542 38       		.byte	0x38
 1612 0543 09       		.uleb128 0x9
 1613 0544 9D020000 		.4byte	.LASF95
 1614 0548 0D       		.byte	0xd
 1615 0549 7702     		.2byte	0x277
 1616 054b CA000000 		.4byte	0xca
 1617 054f 3C       		.byte	0x3c
 1618 0550 09       		.uleb128 0x9
 1619 0551 C6060000 		.4byte	.LASF96
 1620 0555 0D       		.byte	0xd
 1621 0556 7802     		.2byte	0x278
 1622 0558 E5000000 		.4byte	0xe5
 1623 055c 40       		.byte	0x40
 1624 055d 09       		.uleb128 0x9
 1625 055e B2010000 		.4byte	.LASF97
 1626 0562 0D       		.byte	0xd
 1627 0563 7902     		.2byte	0x279
 1628 0565 E5000000 		.4byte	0xe5
 1629 0569 44       		.byte	0x44
 1630 056a 09       		.uleb128 0x9
 1631 056b 44020000 		.4byte	.LASF98
ARM GAS  /tmp/ccK5gGBe.s 			page 30


 1632 056f 0D       		.byte	0xd
 1633 0570 7A02     		.2byte	0x27a
 1634 0572 75040000 		.4byte	0x475
 1635 0576 48       		.byte	0x48
 1636 0577 09       		.uleb128 0x9
 1637 0578 C3010000 		.4byte	.LASF99
 1638 057c 0D       		.byte	0xd
 1639 057d 7B02     		.2byte	0x27b
 1640 057f E5000000 		.4byte	0xe5
 1641 0583 50       		.byte	0x50
 1642 0584 09       		.uleb128 0x9
 1643 0585 FD000000 		.4byte	.LASF100
 1644 0589 0D       		.byte	0xd
 1645 058a 7C02     		.2byte	0x27c
 1646 058c E5000000 		.4byte	0xe5
 1647 0590 54       		.byte	0x54
 1648 0591 09       		.uleb128 0x9
 1649 0592 3B070000 		.4byte	.LASF101
 1650 0596 0D       		.byte	0xd
 1651 0597 7D02     		.2byte	0x27d
 1652 0599 E5000000 		.4byte	0xe5
 1653 059d 58       		.byte	0x58
 1654 059e 09       		.uleb128 0x9
 1655 059f 4E020000 		.4byte	.LASF102
 1656 05a3 0D       		.byte	0xd
 1657 05a4 7E02     		.2byte	0x27e
 1658 05a6 CA000000 		.4byte	0xca
 1659 05aa 5C       		.byte	0x5c
 1660 05ab 09       		.uleb128 0x9
 1661 05ac 3D060000 		.4byte	.LASF103
 1662 05b0 0D       		.byte	0xd
 1663 05b1 7F02     		.2byte	0x27f
 1664 05b3 E5000000 		.4byte	0xe5
 1665 05b7 60       		.byte	0x60
 1666 05b8 09       		.uleb128 0x9
 1667 05b9 BE050000 		.4byte	.LASF104
 1668 05bd 0D       		.byte	0xd
 1669 05be 8002     		.2byte	0x280
 1670 05c0 E5000000 		.4byte	0xe5
 1671 05c4 64       		.byte	0x64
 1672 05c5 09       		.uleb128 0x9
 1673 05c6 58020000 		.4byte	.LASF105
 1674 05ca 0D       		.byte	0xd
 1675 05cb 8102     		.2byte	0x281
 1676 05cd 75040000 		.4byte	0x475
 1677 05d1 68       		.byte	0x68
 1678 05d2 09       		.uleb128 0x9
 1679 05d3 20040000 		.4byte	.LASF106
 1680 05d7 0D       		.byte	0xd
 1681 05d8 8202     		.2byte	0x282
 1682 05da E5000000 		.4byte	0xe5
 1683 05de 70       		.byte	0x70
 1684 05df 08       		.uleb128 0x8
 1685 05e0 43535200 		.ascii	"CSR\000"
 1686 05e4 0D       		.byte	0xd
 1687 05e5 8302     		.2byte	0x283
 1688 05e7 E5000000 		.4byte	0xe5
ARM GAS  /tmp/ccK5gGBe.s 			page 31


 1689 05eb 74       		.byte	0x74
 1690 05ec 09       		.uleb128 0x9
 1691 05ed 62020000 		.4byte	.LASF107
 1692 05f1 0D       		.byte	0xd
 1693 05f2 8402     		.2byte	0x284
 1694 05f4 75040000 		.4byte	0x475
 1695 05f8 78       		.byte	0x78
 1696 05f9 09       		.uleb128 0x9
 1697 05fa 71050000 		.4byte	.LASF108
 1698 05fe 0D       		.byte	0xd
 1699 05ff 8502     		.2byte	0x285
 1700 0601 E5000000 		.4byte	0xe5
 1701 0605 80       		.byte	0x80
 1702 0606 09       		.uleb128 0x9
 1703 0607 21000000 		.4byte	.LASF109
 1704 060b 0D       		.byte	0xd
 1705 060c 8602     		.2byte	0x286
 1706 060e E5000000 		.4byte	0xe5
 1707 0612 84       		.byte	0x84
 1708 0613 00       		.byte	0
 1709 0614 13       		.uleb128 0x13
 1710 0615 EA070000 		.4byte	.LASF110
 1711 0619 0D       		.byte	0xd
 1712 061a 8802     		.2byte	0x288
 1713 061c 85040000 		.4byte	0x485
 1714 0620 12       		.uleb128 0x12
 1715 0621 1C       		.byte	0x1c
 1716 0622 0D       		.byte	0xd
 1717 0623 0903     		.2byte	0x309
 1718 0625 83060000 		.4byte	0x683
 1719 0629 08       		.uleb128 0x8
 1720 062a 535200   		.ascii	"SR\000"
 1721 062d 0D       		.byte	0xd
 1722 062e 0B03     		.2byte	0x30b
 1723 0630 E5000000 		.4byte	0xe5
 1724 0634 00       		.byte	0
 1725 0635 08       		.uleb128 0x8
 1726 0636 445200   		.ascii	"DR\000"
 1727 0639 0D       		.byte	0xd
 1728 063a 0C03     		.2byte	0x30c
 1729 063c E5000000 		.4byte	0xe5
 1730 0640 04       		.byte	0x4
 1731 0641 08       		.uleb128 0x8
 1732 0642 42525200 		.ascii	"BRR\000"
 1733 0646 0D       		.byte	0xd
 1734 0647 0D03     		.2byte	0x30d
 1735 0649 E5000000 		.4byte	0xe5
 1736 064d 08       		.byte	0x8
 1737 064e 08       		.uleb128 0x8
 1738 064f 43523100 		.ascii	"CR1\000"
 1739 0653 0D       		.byte	0xd
 1740 0654 0E03     		.2byte	0x30e
 1741 0656 E5000000 		.4byte	0xe5
 1742 065a 0C       		.byte	0xc
 1743 065b 08       		.uleb128 0x8
 1744 065c 43523200 		.ascii	"CR2\000"
 1745 0660 0D       		.byte	0xd
ARM GAS  /tmp/ccK5gGBe.s 			page 32


 1746 0661 0F03     		.2byte	0x30f
 1747 0663 E5000000 		.4byte	0xe5
 1748 0667 10       		.byte	0x10
 1749 0668 08       		.uleb128 0x8
 1750 0669 43523300 		.ascii	"CR3\000"
 1751 066d 0D       		.byte	0xd
 1752 066e 1003     		.2byte	0x310
 1753 0670 E5000000 		.4byte	0xe5
 1754 0674 14       		.byte	0x14
 1755 0675 09       		.uleb128 0x9
 1756 0676 87050000 		.4byte	.LASF111
 1757 067a 0D       		.byte	0xd
 1758 067b 1103     		.2byte	0x311
 1759 067d E5000000 		.4byte	0xe5
 1760 0681 18       		.byte	0x18
 1761 0682 00       		.byte	0
 1762 0683 13       		.uleb128 0x13
 1763 0684 01040000 		.4byte	.LASF112
 1764 0688 0D       		.byte	0xd
 1765 0689 1203     		.2byte	0x312
 1766 068b 20060000 		.4byte	0x620
 1767 068f 03       		.uleb128 0x3
 1768 0690 A9010000 		.4byte	.LASF113
 1769 0694 0E       		.byte	0xe
 1770 0695 65       		.byte	0x65
 1771 0696 38030000 		.4byte	0x338
 1772 069a 03       		.uleb128 0x3
 1773 069b F6030000 		.4byte	.LASF114
 1774 069f 0E       		.byte	0xe
 1775 06a0 6D       		.byte	0x6d
 1776 06a1 D5000000 		.4byte	0xd5
 1777 06a5 06       		.uleb128 0x6
 1778 06a6 01020000 		.4byte	.LASF115
 1779 06aa 04       		.byte	0x4
 1780 06ab 0E       		.byte	0xe
 1781 06ac 89       		.byte	0x89
 1782 06ad BE060000 		.4byte	0x6be
 1783 06b1 14       		.uleb128 0x14
 1784 06b2 72313300 		.ascii	"r13\000"
 1785 06b6 0E       		.byte	0xe
 1786 06b7 8A       		.byte	0x8a
 1787 06b8 FF070000 		.4byte	0x7ff
 1788 06bc 00       		.byte	0
 1789 06bd 00       		.byte	0
 1790 06be 06       		.uleb128 0x6
 1791 06bf 77060000 		.4byte	.LASF116
 1792 06c3 64       		.byte	0x64
 1793 06c4 01       		.byte	0x1
 1794 06c5 F4       		.byte	0xf4
 1795 06c6 FF070000 		.4byte	0x7ff
 1796 06ca 14       		.uleb128 0x14
 1797 06cb 73313600 		.ascii	"s16\000"
 1798 06cf 01       		.byte	0x1
 1799 06d0 F6       		.byte	0xf6
 1800 06d1 8F060000 		.4byte	0x68f
 1801 06d5 00       		.byte	0
 1802 06d6 14       		.uleb128 0x14
ARM GAS  /tmp/ccK5gGBe.s 			page 33


 1803 06d7 73313700 		.ascii	"s17\000"
 1804 06db 01       		.byte	0x1
 1805 06dc F7       		.byte	0xf7
 1806 06dd 8F060000 		.4byte	0x68f
 1807 06e1 04       		.byte	0x4
 1808 06e2 14       		.uleb128 0x14
 1809 06e3 73313800 		.ascii	"s18\000"
 1810 06e7 01       		.byte	0x1
 1811 06e8 F8       		.byte	0xf8
 1812 06e9 8F060000 		.4byte	0x68f
 1813 06ed 08       		.byte	0x8
 1814 06ee 14       		.uleb128 0x14
 1815 06ef 73313900 		.ascii	"s19\000"
 1816 06f3 01       		.byte	0x1
 1817 06f4 F9       		.byte	0xf9
 1818 06f5 8F060000 		.4byte	0x68f
 1819 06f9 0C       		.byte	0xc
 1820 06fa 14       		.uleb128 0x14
 1821 06fb 73323000 		.ascii	"s20\000"
 1822 06ff 01       		.byte	0x1
 1823 0700 FA       		.byte	0xfa
 1824 0701 8F060000 		.4byte	0x68f
 1825 0705 10       		.byte	0x10
 1826 0706 14       		.uleb128 0x14
 1827 0707 73323100 		.ascii	"s21\000"
 1828 070b 01       		.byte	0x1
 1829 070c FB       		.byte	0xfb
 1830 070d 8F060000 		.4byte	0x68f
 1831 0711 14       		.byte	0x14
 1832 0712 14       		.uleb128 0x14
 1833 0713 73323200 		.ascii	"s22\000"
 1834 0717 01       		.byte	0x1
 1835 0718 FC       		.byte	0xfc
 1836 0719 8F060000 		.4byte	0x68f
 1837 071d 18       		.byte	0x18
 1838 071e 14       		.uleb128 0x14
 1839 071f 73323300 		.ascii	"s23\000"
 1840 0723 01       		.byte	0x1
 1841 0724 FD       		.byte	0xfd
 1842 0725 8F060000 		.4byte	0x68f
 1843 0729 1C       		.byte	0x1c
 1844 072a 14       		.uleb128 0x14
 1845 072b 73323400 		.ascii	"s24\000"
 1846 072f 01       		.byte	0x1
 1847 0730 FE       		.byte	0xfe
 1848 0731 8F060000 		.4byte	0x68f
 1849 0735 20       		.byte	0x20
 1850 0736 14       		.uleb128 0x14
 1851 0737 73323500 		.ascii	"s25\000"
 1852 073b 01       		.byte	0x1
 1853 073c FF       		.byte	0xff
 1854 073d 8F060000 		.4byte	0x68f
 1855 0741 24       		.byte	0x24
 1856 0742 08       		.uleb128 0x8
 1857 0743 73323600 		.ascii	"s26\000"
 1858 0747 01       		.byte	0x1
 1859 0748 0001     		.2byte	0x100
ARM GAS  /tmp/ccK5gGBe.s 			page 34


 1860 074a 8F060000 		.4byte	0x68f
 1861 074e 28       		.byte	0x28
 1862 074f 08       		.uleb128 0x8
 1863 0750 73323700 		.ascii	"s27\000"
 1864 0754 01       		.byte	0x1
 1865 0755 0101     		.2byte	0x101
 1866 0757 8F060000 		.4byte	0x68f
 1867 075b 2C       		.byte	0x2c
 1868 075c 08       		.uleb128 0x8
 1869 075d 73323800 		.ascii	"s28\000"
 1870 0761 01       		.byte	0x1
 1871 0762 0201     		.2byte	0x102
 1872 0764 8F060000 		.4byte	0x68f
 1873 0768 30       		.byte	0x30
 1874 0769 08       		.uleb128 0x8
 1875 076a 73323900 		.ascii	"s29\000"
 1876 076e 01       		.byte	0x1
 1877 076f 0301     		.2byte	0x103
 1878 0771 8F060000 		.4byte	0x68f
 1879 0775 34       		.byte	0x34
 1880 0776 08       		.uleb128 0x8
 1881 0777 73333000 		.ascii	"s30\000"
 1882 077b 01       		.byte	0x1
 1883 077c 0401     		.2byte	0x104
 1884 077e 8F060000 		.4byte	0x68f
 1885 0782 38       		.byte	0x38
 1886 0783 08       		.uleb128 0x8
 1887 0784 73333100 		.ascii	"s31\000"
 1888 0788 01       		.byte	0x1
 1889 0789 0501     		.2byte	0x105
 1890 078b 8F060000 		.4byte	0x68f
 1891 078f 3C       		.byte	0x3c
 1892 0790 08       		.uleb128 0x8
 1893 0791 723400   		.ascii	"r4\000"
 1894 0794 01       		.byte	0x1
 1895 0795 0701     		.2byte	0x107
 1896 0797 8F060000 		.4byte	0x68f
 1897 079b 40       		.byte	0x40
 1898 079c 08       		.uleb128 0x8
 1899 079d 723500   		.ascii	"r5\000"
 1900 07a0 01       		.byte	0x1
 1901 07a1 0801     		.2byte	0x108
 1902 07a3 8F060000 		.4byte	0x68f
 1903 07a7 44       		.byte	0x44
 1904 07a8 08       		.uleb128 0x8
 1905 07a9 723600   		.ascii	"r6\000"
 1906 07ac 01       		.byte	0x1
 1907 07ad 0901     		.2byte	0x109
 1908 07af 8F060000 		.4byte	0x68f
 1909 07b3 48       		.byte	0x48
 1910 07b4 08       		.uleb128 0x8
 1911 07b5 723700   		.ascii	"r7\000"
 1912 07b8 01       		.byte	0x1
 1913 07b9 0A01     		.2byte	0x10a
 1914 07bb 8F060000 		.4byte	0x68f
 1915 07bf 4C       		.byte	0x4c
 1916 07c0 08       		.uleb128 0x8
ARM GAS  /tmp/ccK5gGBe.s 			page 35


 1917 07c1 723800   		.ascii	"r8\000"
 1918 07c4 01       		.byte	0x1
 1919 07c5 0B01     		.2byte	0x10b
 1920 07c7 8F060000 		.4byte	0x68f
 1921 07cb 50       		.byte	0x50
 1922 07cc 08       		.uleb128 0x8
 1923 07cd 723900   		.ascii	"r9\000"
 1924 07d0 01       		.byte	0x1
 1925 07d1 0C01     		.2byte	0x10c
 1926 07d3 8F060000 		.4byte	0x68f
 1927 07d7 54       		.byte	0x54
 1928 07d8 08       		.uleb128 0x8
 1929 07d9 72313000 		.ascii	"r10\000"
 1930 07dd 01       		.byte	0x1
 1931 07de 0D01     		.2byte	0x10d
 1932 07e0 8F060000 		.4byte	0x68f
 1933 07e4 58       		.byte	0x58
 1934 07e5 08       		.uleb128 0x8
 1935 07e6 72313100 		.ascii	"r11\000"
 1936 07ea 01       		.byte	0x1
 1937 07eb 0E01     		.2byte	0x10e
 1938 07ed 8F060000 		.4byte	0x68f
 1939 07f1 5C       		.byte	0x5c
 1940 07f2 08       		.uleb128 0x8
 1941 07f3 6C7200   		.ascii	"lr\000"
 1942 07f6 01       		.byte	0x1
 1943 07f7 0F01     		.2byte	0x10f
 1944 07f9 8F060000 		.4byte	0x68f
 1945 07fd 60       		.byte	0x60
 1946 07fe 00       		.byte	0
 1947 07ff 0A       		.uleb128 0xa
 1948 0800 04       		.byte	0x4
 1949 0801 BE060000 		.4byte	0x6be
 1950 0805 15       		.uleb128 0x15
 1951 0806 04       		.byte	0x4
 1952 0807 0F       		.byte	0xf
 1953 0808 38       		.byte	0x38
 1954 0809 1A080000 		.4byte	0x81a
 1955 080d 07       		.uleb128 0x7
 1956 080e 36060000 		.4byte	.LASF117
 1957 0812 0F       		.byte	0xf
 1958 0813 3C       		.byte	0x3c
 1959 0814 EA000000 		.4byte	0xea
 1960 0818 00       		.byte	0
 1961 0819 00       		.byte	0
 1962 081a 03       		.uleb128 0x3
 1963 081b B6070000 		.4byte	.LASF118
 1964 081f 0F       		.byte	0xf
 1965 0820 3D       		.byte	0x3d
 1966 0821 05080000 		.4byte	0x805
 1967 0825 16       		.uleb128 0x16
 1968 0826 04       		.byte	0x4
 1969 0827 0C       		.byte	0xc
 1970 0828 FA       		.byte	0xfa
 1971 0829 82080000 		.4byte	0x882
 1972 082d 17       		.uleb128 0x17
 1973 082e 0B090000 		.4byte	.LASF119
ARM GAS  /tmp/ccK5gGBe.s 			page 36


 1974 0832 0C       		.byte	0xc
 1975 0833 0101     		.2byte	0x101
 1976 0835 21010000 		.4byte	0x121
 1977 0839 17       		.uleb128 0x17
 1978 083a E4000000 		.4byte	.LASF120
 1979 083e 0C       		.byte	0xc
 1980 083f 0801     		.2byte	0x108
 1981 0841 21010000 		.4byte	0x121
 1982 0845 17       		.uleb128 0x17
 1983 0846 D5020000 		.4byte	.LASF121
 1984 084a 0C       		.byte	0xc
 1985 084b 0F01     		.2byte	0x10f
 1986 084d 38030000 		.4byte	0x338
 1987 0851 17       		.uleb128 0x17
 1988 0852 09020000 		.4byte	.LASF122
 1989 0856 0C       		.byte	0xc
 1990 0857 1601     		.2byte	0x116
 1991 0859 82080000 		.4byte	0x882
 1992 085d 17       		.uleb128 0x17
 1993 085e 10000000 		.4byte	.LASF123
 1994 0862 0C       		.byte	0xc
 1995 0863 1E01     		.2byte	0x11e
 1996 0865 AD080000 		.4byte	0x8ad
 1997 0869 17       		.uleb128 0x17
 1998 086a 44040000 		.4byte	.LASF124
 1999 086e 0C       		.byte	0xc
 2000 086f 2701     		.2byte	0x127
 2001 0871 E4080000 		.4byte	0x8e4
 2002 0875 17       		.uleb128 0x17
 2003 0876 E6010000 		.4byte	.LASF125
 2004 087a 0C       		.byte	0xc
 2005 087b 2F01     		.2byte	0x12f
 2006 087d 2C010000 		.4byte	0x12c
 2007 0881 00       		.byte	0
 2008 0882 0A       		.uleb128 0xa
 2009 0883 04       		.byte	0x4
 2010 0884 50020000 		.4byte	0x250
 2011 0888 06       		.uleb128 0x6
 2012 0889 A2040000 		.4byte	.LASF126
 2013 088d 0C       		.byte	0xc
 2014 088e 10       		.byte	0x10
 2015 088f 34       		.byte	0x34
 2016 0890 AD080000 		.4byte	0x8ad
 2017 0894 07       		.uleb128 0x7
 2018 0895 DA070000 		.4byte	.LASF127
 2019 0899 10       		.byte	0x10
 2020 089a 35       		.byte	0x35
 2021 089b 85020000 		.4byte	0x285
 2022 089f 00       		.byte	0
 2023 08a0 07       		.uleb128 0x7
 2024 08a1 CE060000 		.4byte	.LASF128
 2025 08a5 10       		.byte	0x10
 2026 08a6 37       		.byte	0x37
 2027 08a7 42010000 		.4byte	0x142
 2028 08ab 08       		.byte	0x8
 2029 08ac 00       		.byte	0
 2030 08ad 0A       		.uleb128 0xa
ARM GAS  /tmp/ccK5gGBe.s 			page 37


 2031 08ae 04       		.byte	0x4
 2032 08af 88080000 		.4byte	0x888
 2033 08b3 06       		.uleb128 0x6
 2034 08b4 16080000 		.4byte	.LASF129
 2035 08b8 10       		.byte	0x10
 2036 08b9 11       		.byte	0x11
 2037 08ba 39       		.byte	0x39
 2038 08bb E4080000 		.4byte	0x8e4
 2039 08bf 07       		.uleb128 0x7
 2040 08c0 56050000 		.4byte	.LASF130
 2041 08c4 11       		.byte	0x11
 2042 08c5 3A       		.byte	0x3a
 2043 08c6 85020000 		.4byte	0x285
 2044 08ca 00       		.byte	0
 2045 08cb 07       		.uleb128 0x7
 2046 08cc D5000000 		.4byte	.LASF131
 2047 08d0 11       		.byte	0x11
 2048 08d1 3C       		.byte	0x3c
 2049 08d2 5B020000 		.4byte	0x25b
 2050 08d6 08       		.byte	0x8
 2051 08d7 07       		.uleb128 0x7
 2052 08d8 6E090000 		.4byte	.LASF132
 2053 08dc 11       		.byte	0x11
 2054 08dd 3E       		.byte	0x3e
 2055 08de 27090000 		.4byte	0x927
 2056 08e2 0C       		.byte	0xc
 2057 08e3 00       		.byte	0
 2058 08e4 0A       		.uleb128 0xa
 2059 08e5 04       		.byte	0x4
 2060 08e6 B3080000 		.4byte	0x8b3
 2061 08ea 0A       		.uleb128 0xa
 2062 08eb 04       		.byte	0x4
 2063 08ec F0080000 		.4byte	0x8f0
 2064 08f0 18       		.uleb128 0x18
 2065 08f1 F5080000 		.4byte	0x8f5
 2066 08f5 04       		.uleb128 0x4
 2067 08f6 01       		.byte	0x1
 2068 08f7 08       		.byte	0x8
 2069 08f8 AD020000 		.4byte	.LASF133
 2070 08fc 0A       		.uleb128 0xa
 2071 08fd 04       		.byte	0x4
 2072 08fe 3A030000 		.4byte	0x33a
 2073 0902 05       		.uleb128 0x5
 2074 0903 4D010000 		.4byte	0x14d
 2075 0907 05       		.uleb128 0x5
 2076 0908 EA080000 		.4byte	0x8ea
 2077 090c 10       		.uleb128 0x10
 2078 090d 9A060000 		.4byte	0x69a
 2079 0911 1C090000 		.4byte	0x91c
 2080 0915 11       		.uleb128 0x11
 2081 0916 6E040000 		.4byte	0x46e
 2082 091a 2B       		.byte	0x2b
 2083 091b 00       		.byte	0
 2084 091c 03       		.uleb128 0x3
 2085 091d 4F080000 		.4byte	.LASF134
 2086 0921 11       		.byte	0x11
 2087 0922 34       		.byte	0x34
ARM GAS  /tmp/ccK5gGBe.s 			page 38


 2088 0923 B3080000 		.4byte	0x8b3
 2089 0927 0A       		.uleb128 0xa
 2090 0928 04       		.byte	0x4
 2091 0929 1C090000 		.4byte	0x91c
 2092 092d 03       		.uleb128 0x3
 2093 092e 0F040000 		.4byte	.LASF135
 2094 0932 12       		.byte	0x12
 2095 0933 34       		.byte	0x34
 2096 0934 38090000 		.4byte	0x938
 2097 0938 06       		.uleb128 0x6
 2098 0939 FC080000 		.4byte	.LASF136
 2099 093d 14       		.byte	0x14
 2100 093e 12       		.byte	0x12
 2101 093f 39       		.byte	0x39
 2102 0940 81090000 		.4byte	0x981
 2103 0944 07       		.uleb128 0x7
 2104 0945 CF040000 		.4byte	.LASF137
 2105 0949 12       		.byte	0x12
 2106 094a 3A       		.byte	0x3a
 2107 094b 81090000 		.4byte	0x981
 2108 094f 00       		.byte	0
 2109 0950 07       		.uleb128 0x7
 2110 0951 7B090000 		.4byte	.LASF138
 2111 0955 12       		.byte	0x12
 2112 0956 3D       		.byte	0x3d
 2113 0957 5B020000 		.4byte	0x25b
 2114 095b 04       		.byte	0x4
 2115 095c 07       		.uleb128 0x7
 2116 095d 2C060000 		.4byte	.LASF139
 2117 0961 12       		.byte	0x12
 2118 0962 3F       		.byte	0x3f
 2119 0963 2C010000 		.4byte	0x12c
 2120 0967 08       		.byte	0x8
 2121 0968 07       		.uleb128 0x7
 2122 0969 8D000000 		.4byte	.LASF140
 2123 096d 12       		.byte	0x12
 2124 096e 41       		.byte	0x41
 2125 096f 37010000 		.4byte	0x137
 2126 0973 0C       		.byte	0xc
 2127 0974 07       		.uleb128 0x7
 2128 0975 22060000 		.4byte	.LASF141
 2129 0979 12       		.byte	0x12
 2130 097a 43       		.byte	0x43
 2131 097b 37010000 		.4byte	0x137
 2132 097f 10       		.byte	0x10
 2133 0980 00       		.byte	0
 2134 0981 0A       		.uleb128 0xa
 2135 0982 04       		.byte	0x4
 2136 0983 2D090000 		.4byte	0x92d
 2137 0987 06       		.uleb128 0x6
 2138 0988 00080000 		.4byte	.LASF142
 2139 098c 04       		.byte	0x4
 2140 098d 12       		.byte	0x12
 2141 098e 4A       		.byte	0x4a
 2142 098f A0090000 		.4byte	0x9a0
 2143 0993 07       		.uleb128 0x7
 2144 0994 73040000 		.4byte	.LASF143
ARM GAS  /tmp/ccK5gGBe.s 			page 39


 2145 0998 12       		.byte	0x12
 2146 0999 4B       		.byte	0x4b
 2147 099a 81090000 		.4byte	0x981
 2148 099e 00       		.byte	0
 2149 099f 00       		.byte	0
 2150 09a0 03       		.uleb128 0x3
 2151 09a1 95050000 		.4byte	.LASF144
 2152 09a5 12       		.byte	0x12
 2153 09a6 4E       		.byte	0x4e
 2154 09a7 87090000 		.4byte	0x987
 2155 09ab 03       		.uleb128 0x3
 2156 09ac 3D080000 		.4byte	.LASF145
 2157 09b0 04       		.byte	0x4
 2158 09b1 3F       		.byte	0x3f
 2159 09b2 B6090000 		.4byte	0x9b6
 2160 09b6 06       		.uleb128 0x6
 2161 09b7 BA010000 		.4byte	.LASF146
 2162 09bb 24       		.byte	0x24
 2163 09bc 04       		.byte	0x4
 2164 09bd 4D       		.byte	0x4d
 2165 09be 230A0000 		.4byte	0xa23
 2166 09c2 07       		.uleb128 0x7
 2167 09c3 68070000 		.4byte	.LASF147
 2168 09c7 04       		.byte	0x4
 2169 09c8 4E       		.byte	0x4e
 2170 09c9 85020000 		.4byte	0x285
 2171 09cd 00       		.byte	0
 2172 09ce 07       		.uleb128 0x7
 2173 09cf 7B040000 		.4byte	.LASF148
 2174 09d3 04       		.byte	0x4
 2175 09d4 4F       		.byte	0x4f
 2176 09d5 28000000 		.4byte	0x28
 2177 09d9 08       		.byte	0x8
 2178 09da 07       		.uleb128 0x7
 2179 09db 1A010000 		.4byte	.LASF149
 2180 09df 04       		.byte	0x4
 2181 09e0 50       		.byte	0x50
 2182 09e1 450A0000 		.4byte	0xa45
 2183 09e5 0C       		.byte	0xc
 2184 09e6 07       		.uleb128 0x7
 2185 09e7 F7000000 		.4byte	.LASF150
 2186 09eb 04       		.byte	0x4
 2187 09ec 51       		.byte	0x51
 2188 09ed 450A0000 		.4byte	0xa45
 2189 09f1 10       		.byte	0x10
 2190 09f2 07       		.uleb128 0x7
 2191 09f3 F4040000 		.4byte	.LASF151
 2192 09f7 04       		.byte	0x4
 2193 09f8 53       		.byte	0x53
 2194 09f9 450A0000 		.4byte	0xa45
 2195 09fd 14       		.byte	0x14
 2196 09fe 07       		.uleb128 0x7
 2197 09ff 50010000 		.4byte	.LASF152
 2198 0a03 04       		.byte	0x4
 2199 0a04 54       		.byte	0x54
 2200 0a05 450A0000 		.4byte	0xa45
 2201 0a09 18       		.byte	0x18
ARM GAS  /tmp/ccK5gGBe.s 			page 40


 2202 0a0a 07       		.uleb128 0x7
 2203 0a0b 23010000 		.4byte	.LASF153
 2204 0a0f 04       		.byte	0x4
 2205 0a10 55       		.byte	0x55
 2206 0a11 230A0000 		.4byte	0xa23
 2207 0a15 1C       		.byte	0x1c
 2208 0a16 07       		.uleb128 0x7
 2209 0a17 D3010000 		.4byte	.LASF154
 2210 0a1b 04       		.byte	0x4
 2211 0a1c 56       		.byte	0x56
 2212 0a1d 38030000 		.4byte	0x338
 2213 0a21 20       		.byte	0x20
 2214 0a22 00       		.byte	0
 2215 0a23 03       		.uleb128 0x3
 2216 0a24 C8050000 		.4byte	.LASF155
 2217 0a28 04       		.byte	0x4
 2218 0a29 42       		.byte	0x42
 2219 0a2a 2E0A0000 		.4byte	0xa2e
 2220 0a2e 0A       		.uleb128 0xa
 2221 0a2f 04       		.byte	0x4
 2222 0a30 340A0000 		.4byte	0xa34
 2223 0a34 0C       		.uleb128 0xc
 2224 0a35 3F0A0000 		.4byte	0xa3f
 2225 0a39 0D       		.uleb128 0xd
 2226 0a3a 3F0A0000 		.4byte	0xa3f
 2227 0a3e 00       		.byte	0
 2228 0a3f 0A       		.uleb128 0xa
 2229 0a40 04       		.byte	0x4
 2230 0a41 AB090000 		.4byte	0x9ab
 2231 0a45 0A       		.uleb128 0xa
 2232 0a46 04       		.byte	0x4
 2233 0a47 A9000000 		.4byte	0xa9
 2234 0a4b 03       		.uleb128 0x3
 2235 0a4c 81080000 		.4byte	.LASF156
 2236 0a50 04       		.byte	0x4
 2237 0a51 64       		.byte	0x64
 2238 0a52 AB090000 		.4byte	0x9ab
 2239 0a56 03       		.uleb128 0x3
 2240 0a57 3D090000 		.4byte	.LASF157
 2241 0a5b 04       		.byte	0x4
 2242 0a5c 71       		.byte	0x71
 2243 0a5d AB090000 		.4byte	0x9ab
 2244 0a61 19       		.uleb128 0x19
 2245 0a62 28000000 		.4byte	0x28
 2246 0a66 7A0A0000 		.4byte	0xa7a
 2247 0a6a 0D       		.uleb128 0xd
 2248 0a6b 38030000 		.4byte	0x338
 2249 0a6f 0D       		.uleb128 0xd
 2250 0a70 7A0A0000 		.4byte	0xa7a
 2251 0a74 0D       		.uleb128 0xd
 2252 0a75 28000000 		.4byte	0x28
 2253 0a79 00       		.byte	0
 2254 0a7a 0A       		.uleb128 0xa
 2255 0a7b 04       		.byte	0x4
 2256 0a7c 800A0000 		.4byte	0xa80
 2257 0a80 18       		.uleb128 0x18
 2258 0a81 A9000000 		.4byte	0xa9
ARM GAS  /tmp/ccK5gGBe.s 			page 41


 2259 0a85 0A       		.uleb128 0xa
 2260 0a86 04       		.byte	0x4
 2261 0a87 610A0000 		.4byte	0xa61
 2262 0a8b 19       		.uleb128 0x19
 2263 0a8c 28000000 		.4byte	0x28
 2264 0a90 A40A0000 		.4byte	0xaa4
 2265 0a94 0D       		.uleb128 0xd
 2266 0a95 38030000 		.4byte	0x338
 2267 0a99 0D       		.uleb128 0xd
 2268 0a9a 450A0000 		.4byte	0xa45
 2269 0a9e 0D       		.uleb128 0xd
 2270 0a9f 28000000 		.4byte	0x28
 2271 0aa3 00       		.byte	0
 2272 0aa4 0A       		.uleb128 0xa
 2273 0aa5 04       		.byte	0x4
 2274 0aa6 8B0A0000 		.4byte	0xa8b
 2275 0aaa 19       		.uleb128 0x19
 2276 0aab 21010000 		.4byte	0x121
 2277 0aaf BE0A0000 		.4byte	0xabe
 2278 0ab3 0D       		.uleb128 0xd
 2279 0ab4 38030000 		.4byte	0x338
 2280 0ab8 0D       		.uleb128 0xd
 2281 0ab9 A9000000 		.4byte	0xa9
 2282 0abd 00       		.byte	0
 2283 0abe 0A       		.uleb128 0xa
 2284 0abf 04       		.byte	0x4
 2285 0ac0 AA0A0000 		.4byte	0xaaa
 2286 0ac4 19       		.uleb128 0x19
 2287 0ac5 21010000 		.4byte	0x121
 2288 0ac9 D30A0000 		.4byte	0xad3
 2289 0acd 0D       		.uleb128 0xd
 2290 0ace 38030000 		.4byte	0x338
 2291 0ad2 00       		.byte	0
 2292 0ad3 0A       		.uleb128 0xa
 2293 0ad4 04       		.byte	0x4
 2294 0ad5 C40A0000 		.4byte	0xac4
 2295 0ad9 19       		.uleb128 0x19
 2296 0ada 21010000 		.4byte	0x121
 2297 0ade F20A0000 		.4byte	0xaf2
 2298 0ae2 0D       		.uleb128 0xd
 2299 0ae3 38030000 		.4byte	0x338
 2300 0ae7 0D       		.uleb128 0xd
 2301 0ae8 A9000000 		.4byte	0xa9
 2302 0aec 0D       		.uleb128 0xd
 2303 0aed 4D010000 		.4byte	0x14d
 2304 0af1 00       		.byte	0
 2305 0af2 0A       		.uleb128 0xa
 2306 0af3 04       		.byte	0x4
 2307 0af4 D90A0000 		.4byte	0xad9
 2308 0af8 19       		.uleb128 0x19
 2309 0af9 21010000 		.4byte	0x121
 2310 0afd 0C0B0000 		.4byte	0xb0c
 2311 0b01 0D       		.uleb128 0xd
 2312 0b02 38030000 		.4byte	0x338
 2313 0b06 0D       		.uleb128 0xd
 2314 0b07 4D010000 		.4byte	0x14d
 2315 0b0b 00       		.byte	0
ARM GAS  /tmp/ccK5gGBe.s 			page 42


 2316 0b0c 0A       		.uleb128 0xa
 2317 0b0d 04       		.byte	0x4
 2318 0b0e F80A0000 		.4byte	0xaf8
 2319 0b12 19       		.uleb128 0x19
 2320 0b13 28000000 		.4byte	0x28
 2321 0b17 300B0000 		.4byte	0xb30
 2322 0b1b 0D       		.uleb128 0xd
 2323 0b1c 38030000 		.4byte	0x338
 2324 0b20 0D       		.uleb128 0xd
 2325 0b21 7A0A0000 		.4byte	0xa7a
 2326 0b25 0D       		.uleb128 0xd
 2327 0b26 28000000 		.4byte	0x28
 2328 0b2a 0D       		.uleb128 0xd
 2329 0b2b 4D010000 		.4byte	0x14d
 2330 0b2f 00       		.byte	0
 2331 0b30 0A       		.uleb128 0xa
 2332 0b31 04       		.byte	0x4
 2333 0b32 120B0000 		.4byte	0xb12
 2334 0b36 19       		.uleb128 0x19
 2335 0b37 28000000 		.4byte	0x28
 2336 0b3b 540B0000 		.4byte	0xb54
 2337 0b3f 0D       		.uleb128 0xd
 2338 0b40 38030000 		.4byte	0x338
 2339 0b44 0D       		.uleb128 0xd
 2340 0b45 450A0000 		.4byte	0xa45
 2341 0b49 0D       		.uleb128 0xd
 2342 0b4a 28000000 		.4byte	0x28
 2343 0b4e 0D       		.uleb128 0xd
 2344 0b4f 4D010000 		.4byte	0x14d
 2345 0b53 00       		.byte	0
 2346 0b54 0A       		.uleb128 0xa
 2347 0b55 04       		.byte	0x4
 2348 0b56 360B0000 		.4byte	0xb36
 2349 0b5a 04       		.uleb128 0x4
 2350 0b5b 01       		.byte	0x1
 2351 0b5c 02       		.byte	0x2
 2352 0b5d 97020000 		.4byte	.LASF158
 2353 0b61 1A       		.uleb128 0x1a
 2354 0b62 01       		.byte	0x1
 2355 0b63 13       		.byte	0x13
 2356 0b64 55       		.byte	0x55
 2357 0b65 7C0B0000 		.4byte	0xb7c
 2358 0b69 1B       		.uleb128 0x1b
 2359 0b6a 8D020000 		.4byte	.LASF159
 2360 0b6e 00       		.sleb128 0
 2361 0b6f 1B       		.uleb128 0x1b
 2362 0b70 56090000 		.4byte	.LASF160
 2363 0b74 01       		.sleb128 1
 2364 0b75 1B       		.uleb128 0x1b
 2365 0b76 9D070000 		.4byte	.LASF161
 2366 0b7a 02       		.sleb128 2
 2367 0b7b 00       		.byte	0
 2368 0b7c 03       		.uleb128 0x3
 2369 0b7d 80070000 		.4byte	.LASF162
 2370 0b81 13       		.byte	0x13
 2371 0b82 59       		.byte	0x59
 2372 0b83 610B0000 		.4byte	0xb61
ARM GAS  /tmp/ccK5gGBe.s 			page 43


 2373 0b87 03       		.uleb128 0x3
 2374 0b88 5B070000 		.4byte	.LASF163
 2375 0b8c 13       		.byte	0x13
 2376 0b8d 5E       		.byte	0x5e
 2377 0b8e 920B0000 		.4byte	0xb92
 2378 0b92 06       		.uleb128 0x6
 2379 0b93 5B070000 		.4byte	.LASF163
 2380 0b97 78       		.byte	0x78
 2381 0b98 13       		.byte	0x13
 2382 0b99 78       		.byte	0x78
 2383 0b9a FD0B0000 		.4byte	0xbfd
 2384 0b9e 14       		.uleb128 0x14
 2385 0b9f 766D7400 		.ascii	"vmt\000"
 2386 0ba3 13       		.byte	0x13
 2387 0ba4 7A       		.byte	0x7a
 2388 0ba5 AE0C0000 		.4byte	0xcae
 2389 0ba9 00       		.byte	0
 2390 0baa 07       		.uleb128 0x7
 2391 0bab DC050000 		.4byte	.LASF164
 2392 0baf 13       		.byte	0x13
 2393 0bb0 7B       		.byte	0x7b
 2394 0bb1 A0090000 		.4byte	0x9a0
 2395 0bb5 04       		.byte	0x4
 2396 0bb6 07       		.uleb128 0x7
 2397 0bb7 9D000000 		.4byte	.LASF165
 2398 0bbb 13       		.byte	0x13
 2399 0bbc 7B       		.byte	0x7b
 2400 0bbd 7C0B0000 		.4byte	0xb7c
 2401 0bc1 08       		.byte	0x8
 2402 0bc2 07       		.uleb128 0x7
 2403 0bc3 1F080000 		.4byte	.LASF166
 2404 0bc7 13       		.byte	0x13
 2405 0bc8 7B       		.byte	0x7b
 2406 0bc9 4B0A0000 		.4byte	0xa4b
 2407 0bcd 0C       		.byte	0xc
 2408 0bce 07       		.uleb128 0x7
 2409 0bcf A2010000 		.4byte	.LASF167
 2410 0bd3 13       		.byte	0x13
 2411 0bd4 7B       		.byte	0x7b
 2412 0bd5 560A0000 		.4byte	0xa56
 2413 0bd9 30       		.byte	0x30
 2414 0bda 14       		.uleb128 0x14
 2415 0bdb 696200   		.ascii	"ib\000"
 2416 0bde 13       		.byte	0x13
 2417 0bdf 7B       		.byte	0x7b
 2418 0be0 B90C0000 		.4byte	0xcb9
 2419 0be4 54       		.byte	0x54
 2420 0be5 14       		.uleb128 0x14
 2421 0be6 6F6200   		.ascii	"ob\000"
 2422 0be9 13       		.byte	0x13
 2423 0bea 7B       		.byte	0x7b
 2424 0beb B90C0000 		.4byte	0xcb9
 2425 0bef 64       		.byte	0x64
 2426 0bf0 07       		.uleb128 0x7
 2427 0bf1 CD010000 		.4byte	.LASF168
 2428 0bf5 13       		.byte	0x13
 2429 0bf6 7B       		.byte	0x7b
ARM GAS  /tmp/ccK5gGBe.s 			page 44


 2430 0bf7 C90C0000 		.4byte	0xcc9
 2431 0bfb 74       		.byte	0x74
 2432 0bfc 00       		.byte	0
 2433 0bfd 15       		.uleb128 0x15
 2434 0bfe 0C       		.byte	0xc
 2435 0bff 14       		.byte	0x14
 2436 0c00 D7       		.byte	0xd7
 2437 0c01 360C0000 		.4byte	0xc36
 2438 0c05 07       		.uleb128 0x7
 2439 0c06 33040000 		.4byte	.LASF169
 2440 0c0a 14       		.byte	0x14
 2441 0c0b DB       		.byte	0xdb
 2442 0c0c CA000000 		.4byte	0xca
 2443 0c10 00       		.byte	0
 2444 0c11 14       		.uleb128 0x14
 2445 0c12 63723100 		.ascii	"cr1\000"
 2446 0c16 14       		.byte	0x14
 2447 0c17 E0       		.byte	0xe0
 2448 0c18 B4000000 		.4byte	0xb4
 2449 0c1c 04       		.byte	0x4
 2450 0c1d 14       		.uleb128 0x14
 2451 0c1e 63723200 		.ascii	"cr2\000"
 2452 0c22 14       		.byte	0x14
 2453 0c23 E4       		.byte	0xe4
 2454 0c24 B4000000 		.4byte	0xb4
 2455 0c28 06       		.byte	0x6
 2456 0c29 14       		.uleb128 0x14
 2457 0c2a 63723300 		.ascii	"cr3\000"
 2458 0c2e 14       		.byte	0x14
 2459 0c2f E8       		.byte	0xe8
 2460 0c30 B4000000 		.4byte	0xb4
 2461 0c34 08       		.byte	0x8
 2462 0c35 00       		.byte	0
 2463 0c36 03       		.uleb128 0x3
 2464 0c37 53000000 		.4byte	.LASF170
 2465 0c3b 14       		.byte	0x14
 2466 0c3c E9       		.byte	0xe9
 2467 0c3d FD0B0000 		.4byte	0xbfd
 2468 0c41 06       		.uleb128 0x6
 2469 0c42 FC040000 		.4byte	.LASF171
 2470 0c46 20       		.byte	0x20
 2471 0c47 13       		.byte	0x13
 2472 0c48 6D       		.byte	0x6d
 2473 0c49 AE0C0000 		.4byte	0xcae
 2474 0c4d 07       		.uleb128 0x7
 2475 0c4e 87000000 		.4byte	.LASF172
 2476 0c52 13       		.byte	0x13
 2477 0c53 6E       		.byte	0x6e
 2478 0c54 850A0000 		.4byte	0xa85
 2479 0c58 00       		.byte	0
 2480 0c59 07       		.uleb128 0x7
 2481 0c5a EA050000 		.4byte	.LASF173
 2482 0c5e 13       		.byte	0x13
 2483 0c5f 6E       		.byte	0x6e
 2484 0c60 A40A0000 		.4byte	0xaa4
 2485 0c64 04       		.byte	0x4
 2486 0c65 14       		.uleb128 0x14
ARM GAS  /tmp/ccK5gGBe.s 			page 45


 2487 0c66 70757400 		.ascii	"put\000"
 2488 0c6a 13       		.byte	0x13
 2489 0c6b 6E       		.byte	0x6e
 2490 0c6c BE0A0000 		.4byte	0xabe
 2491 0c70 08       		.byte	0x8
 2492 0c71 14       		.uleb128 0x14
 2493 0c72 67657400 		.ascii	"get\000"
 2494 0c76 13       		.byte	0x13
 2495 0c77 6E       		.byte	0x6e
 2496 0c78 D30A0000 		.4byte	0xad3
 2497 0c7c 0C       		.byte	0xc
 2498 0c7d 07       		.uleb128 0x7
 2499 0c7e A3000000 		.4byte	.LASF174
 2500 0c82 13       		.byte	0x13
 2501 0c83 6E       		.byte	0x6e
 2502 0c84 F20A0000 		.4byte	0xaf2
 2503 0c88 10       		.byte	0x10
 2504 0c89 07       		.uleb128 0x7
 2505 0c8a F1030000 		.4byte	.LASF175
 2506 0c8e 13       		.byte	0x13
 2507 0c8f 6E       		.byte	0x6e
 2508 0c90 0C0B0000 		.4byte	0xb0c
 2509 0c94 14       		.byte	0x14
 2510 0c95 07       		.uleb128 0x7
 2511 0c96 60000000 		.4byte	.LASF176
 2512 0c9a 13       		.byte	0x13
 2513 0c9b 6E       		.byte	0x6e
 2514 0c9c 300B0000 		.4byte	0xb30
 2515 0ca0 18       		.byte	0x18
 2516 0ca1 07       		.uleb128 0x7
 2517 0ca2 07010000 		.4byte	.LASF177
 2518 0ca6 13       		.byte	0x13
 2519 0ca7 6E       		.byte	0x6e
 2520 0ca8 540B0000 		.4byte	0xb54
 2521 0cac 1C       		.byte	0x1c
 2522 0cad 00       		.byte	0
 2523 0cae 0A       		.uleb128 0xa
 2524 0caf 04       		.byte	0x4
 2525 0cb0 B40C0000 		.4byte	0xcb4
 2526 0cb4 18       		.uleb128 0x18
 2527 0cb5 410C0000 		.4byte	0xc41
 2528 0cb9 10       		.uleb128 0x10
 2529 0cba A9000000 		.4byte	0xa9
 2530 0cbe C90C0000 		.4byte	0xcc9
 2531 0cc2 11       		.uleb128 0x11
 2532 0cc3 6E040000 		.4byte	0x46e
 2533 0cc7 0F       		.byte	0xf
 2534 0cc8 00       		.byte	0
 2535 0cc9 0A       		.uleb128 0xa
 2536 0cca 04       		.byte	0x4
 2537 0ccb 83060000 		.4byte	0x683
 2538 0ccf 1C       		.uleb128 0x1c
 2539 0cd0 45070000 		.4byte	.LASF202
 2540 0cd4 02       		.byte	0x2
 2541 0cd5 2002     		.2byte	0x220
 2542 0cd7 03       		.byte	0x3
 2543 0cd8 E90C0000 		.4byte	0xce9
ARM GAS  /tmp/ccK5gGBe.s 			page 46


 2544 0cdc 1D       		.uleb128 0x1d
 2545 0cdd 20070000 		.4byte	.LASF203
 2546 0ce1 02       		.byte	0x2
 2547 0ce2 2002     		.2byte	0x220
 2548 0ce4 CA000000 		.4byte	0xca
 2549 0ce8 00       		.byte	0
 2550 0ce9 1E       		.uleb128 0x1e
 2551 0cea D0070000 		.4byte	.LASF178
 2552 0cee 01       		.byte	0x1
 2553 0cef BC01     		.2byte	0x1bc
 2554 0cf1 00000000 		.4byte	.LFB116
 2555 0cf5 10000000 		.4byte	.LFE116-.LFB116
 2556 0cf9 01       		.uleb128 0x1
 2557 0cfa 9C       		.byte	0x9c
 2558 0cfb 190D0000 		.4byte	0xd19
 2559 0cff 1F       		.uleb128 0x1f
 2560 0d00 CF0C0000 		.4byte	0xccf
 2561 0d04 06000000 		.4byte	.LBB6
 2562 0d08 06000000 		.4byte	.LBE6-.LBB6
 2563 0d0c 01       		.byte	0x1
 2564 0d0d BF01     		.2byte	0x1bf
 2565 0d0f 20       		.uleb128 0x20
 2566 0d10 DC0C0000 		.4byte	0xcdc
 2567 0d14 02       		.uleb128 0x2
 2568 0d15 91       		.byte	0x91
 2569 0d16 7C       		.sleb128 -4
 2570 0d17 00       		.byte	0
 2571 0d18 00       		.byte	0
 2572 0d19 1E       		.uleb128 0x1e
 2573 0d1a 44010000 		.4byte	.LASF179
 2574 0d1e 01       		.byte	0x1
 2575 0d1f CA01     		.2byte	0x1ca
 2576 0d21 00000000 		.4byte	.LFB117
 2577 0d25 10000000 		.4byte	.LFE117-.LFB117
 2578 0d29 01       		.uleb128 0x1
 2579 0d2a 9C       		.byte	0x9c
 2580 0d2b 490D0000 		.4byte	0xd49
 2581 0d2f 1F       		.uleb128 0x1f
 2582 0d30 CF0C0000 		.4byte	0xccf
 2583 0d34 06000000 		.4byte	.LBB8
 2584 0d38 06000000 		.4byte	.LBE8-.LBB8
 2585 0d3c 01       		.byte	0x1
 2586 0d3d CD01     		.2byte	0x1cd
 2587 0d3f 20       		.uleb128 0x20
 2588 0d40 DC0C0000 		.4byte	0xcdc
 2589 0d44 02       		.uleb128 0x2
 2590 0d45 91       		.byte	0x91
 2591 0d46 7C       		.sleb128 -4
 2592 0d47 00       		.byte	0
 2593 0d48 00       		.byte	0
 2594 0d49 21       		.uleb128 0x21
 2595 0d4a 5E050000 		.4byte	.LASF180
 2596 0d4e 01       		.byte	0x1
 2597 0d4f D901     		.2byte	0x1d9
 2598 0d51 00000000 		.4byte	.LFB118
 2599 0d55 08000000 		.4byte	.LFE118-.LFB118
 2600 0d59 01       		.uleb128 0x1
ARM GAS  /tmp/ccK5gGBe.s 			page 47


 2601 0d5a 9C       		.byte	0x9c
 2602 0d5b 21       		.uleb128 0x21
 2603 0d5c 83060000 		.4byte	.LASF181
 2604 0d60 01       		.byte	0x1
 2605 0d61 E401     		.2byte	0x1e4
 2606 0d63 00000000 		.4byte	.LFB119
 2607 0d67 08000000 		.4byte	.LFE119-.LFB119
 2608 0d6b 01       		.uleb128 0x1
 2609 0d6c 9C       		.byte	0x9c
 2610 0d6d 21       		.uleb128 0x21
 2611 0d6e 6E010000 		.4byte	.LASF182
 2612 0d72 03       		.byte	0x3
 2613 0d73 8201     		.2byte	0x182
 2614 0d75 00000000 		.4byte	.LFB147
 2615 0d79 08000000 		.4byte	.LFE147-.LFB147
 2616 0d7d 01       		.uleb128 0x1
 2617 0d7e 9C       		.byte	0x9c
 2618 0d7f 21       		.uleb128 0x21
 2619 0d80 0F020000 		.4byte	.LASF183
 2620 0d84 03       		.byte	0x3
 2621 0d85 9601     		.2byte	0x196
 2622 0d87 00000000 		.4byte	.LFB148
 2623 0d8b 08000000 		.4byte	.LFE148-.LFB148
 2624 0d8f 01       		.uleb128 0x1
 2625 0d90 9C       		.byte	0x9c
 2626 0d91 22       		.uleb128 0x22
 2627 0d92 A4050000 		.4byte	.LASF204
 2628 0d96 04       		.byte	0x4
 2629 0d97 8201     		.2byte	0x182
 2630 0d99 5A0B0000 		.4byte	0xb5a
 2631 0d9d 00000000 		.4byte	.LFB213
 2632 0da1 2A000000 		.4byte	.LFE213-.LFB213
 2633 0da5 01       		.uleb128 0x1
 2634 0da6 9C       		.byte	0x9c
 2635 0da7 BB0D0000 		.4byte	0xdbb
 2636 0dab 23       		.uleb128 0x23
 2637 0dac 6F717000 		.ascii	"oqp\000"
 2638 0db0 04       		.byte	0x4
 2639 0db1 8201     		.2byte	0x182
 2640 0db3 BB0D0000 		.4byte	0xdbb
 2641 0db7 02       		.uleb128 0x2
 2642 0db8 91       		.byte	0x91
 2643 0db9 7C       		.sleb128 -4
 2644 0dba 00       		.byte	0
 2645 0dbb 0A       		.uleb128 0xa
 2646 0dbc 04       		.byte	0x4
 2647 0dbd 560A0000 		.4byte	0xa56
 2648 0dc1 21       		.uleb128 0x21
 2649 0dc2 B8000000 		.4byte	.LASF184
 2650 0dc6 05       		.byte	0x5
 2651 0dc7 D301     		.2byte	0x1d3
 2652 0dc9 00000000 		.4byte	.LFB222
 2653 0dcd 08000000 		.4byte	.LFE222-.LFB222
 2654 0dd1 01       		.uleb128 0x1
 2655 0dd2 9C       		.byte	0x9c
 2656 0dd3 21       		.uleb128 0x21
 2657 0dd4 5E040000 		.4byte	.LASF185
ARM GAS  /tmp/ccK5gGBe.s 			page 48


 2658 0dd8 05       		.byte	0x5
 2659 0dd9 DE01     		.2byte	0x1de
 2660 0ddb 00000000 		.4byte	.LFB223
 2661 0ddf 08000000 		.4byte	.LFE223-.LFB223
 2662 0de3 01       		.uleb128 0x1
 2663 0de4 9C       		.byte	0x9c
 2664 0de5 24       		.uleb128 0x24
 2665 0de6 E3080000 		.4byte	.LASF186
 2666 0dea 05       		.byte	0x5
 2667 0deb 1B03     		.2byte	0x31b
 2668 0ded 00000000 		.4byte	.LFB242
 2669 0df1 16000000 		.4byte	.LFE242-.LFB242
 2670 0df5 01       		.uleb128 0x1
 2671 0df6 9C       		.byte	0x9c
 2672 0df7 1A0E0000 		.4byte	0xe1a
 2673 0dfb 23       		.uleb128 0x23
 2674 0dfc 65737000 		.ascii	"esp\000"
 2675 0e00 05       		.byte	0x5
 2676 0e01 1B03     		.2byte	0x31b
 2677 0e03 1A0E0000 		.4byte	0xe1a
 2678 0e07 02       		.uleb128 0x2
 2679 0e08 91       		.byte	0x91
 2680 0e09 74       		.sleb128 -12
 2681 0e0a 25       		.uleb128 0x25
 2682 0e0b A7020000 		.4byte	.LASF187
 2683 0e0f 05       		.byte	0x5
 2684 0e10 1C03     		.2byte	0x31c
 2685 0e12 37010000 		.4byte	0x137
 2686 0e16 02       		.uleb128 0x2
 2687 0e17 91       		.byte	0x91
 2688 0e18 70       		.sleb128 -16
 2689 0e19 00       		.byte	0
 2690 0e1a 0A       		.uleb128 0xa
 2691 0e1b 04       		.byte	0x4
 2692 0e1c A0090000 		.4byte	0x9a0
 2693 0e20 26       		.uleb128 0x26
 2694 0e21 AA060000 		.4byte	.LASF188
 2695 0e25 06       		.byte	0x6
 2696 0e26 5B       		.byte	0x5b
 2697 0e27 00000000 		.4byte	.LFB253
 2698 0e2b 94000000 		.4byte	.LFE253-.LFB253
 2699 0e2f 01       		.uleb128 0x1
 2700 0e30 9C       		.byte	0x9c
 2701 0e31 5E0E0000 		.4byte	0xe5e
 2702 0e35 27       		.uleb128 0x27
 2703 0e36 73647000 		.ascii	"sdp\000"
 2704 0e3a 06       		.byte	0x6
 2705 0e3b 5B       		.byte	0x5b
 2706 0e3c 5E0E0000 		.4byte	0xe5e
 2707 0e40 02       		.uleb128 0x2
 2708 0e41 91       		.byte	0x91
 2709 0e42 74       		.sleb128 -12
 2710 0e43 28       		.uleb128 0x28
 2711 0e44 96000000 		.4byte	.LASF189
 2712 0e48 06       		.byte	0x6
 2713 0e49 5B       		.byte	0x5b
 2714 0e4a 640E0000 		.4byte	0xe64
ARM GAS  /tmp/ccK5gGBe.s 			page 49


 2715 0e4e 02       		.uleb128 0x2
 2716 0e4f 91       		.byte	0x91
 2717 0e50 70       		.sleb128 -16
 2718 0e51 29       		.uleb128 0x29
 2719 0e52 7500     		.ascii	"u\000"
 2720 0e54 06       		.byte	0x6
 2721 0e55 5C       		.byte	0x5c
 2722 0e56 C90C0000 		.4byte	0xcc9
 2723 0e5a 02       		.uleb128 0x2
 2724 0e5b 91       		.byte	0x91
 2725 0e5c 7C       		.sleb128 -4
 2726 0e5d 00       		.byte	0
 2727 0e5e 0A       		.uleb128 0xa
 2728 0e5f 04       		.byte	0x4
 2729 0e60 870B0000 		.4byte	0xb87
 2730 0e64 0A       		.uleb128 0xa
 2731 0e65 04       		.byte	0x4
 2732 0e66 6A0E0000 		.4byte	0xe6a
 2733 0e6a 18       		.uleb128 0x18
 2734 0e6b 360C0000 		.4byte	0xc36
 2735 0e6f 26       		.uleb128 0x26
 2736 0e70 0C050000 		.4byte	.LASF190
 2737 0e74 06       		.byte	0x6
 2738 0e75 79       		.byte	0x79
 2739 0e76 00000000 		.4byte	.LFB254
 2740 0e7a 1A000000 		.4byte	.LFE254-.LFB254
 2741 0e7e 01       		.uleb128 0x1
 2742 0e7f 9C       		.byte	0x9c
 2743 0e80 910E0000 		.4byte	0xe91
 2744 0e84 27       		.uleb128 0x27
 2745 0e85 7500     		.ascii	"u\000"
 2746 0e87 06       		.byte	0x6
 2747 0e88 79       		.byte	0x79
 2748 0e89 C90C0000 		.4byte	0xcc9
 2749 0e8d 02       		.uleb128 0x2
 2750 0e8e 91       		.byte	0x91
 2751 0e8f 7C       		.sleb128 -4
 2752 0e90 00       		.byte	0
 2753 0e91 2A       		.uleb128 0x2a
 2754 0e92 CB000000 		.4byte	.LASF191
 2755 0e96 06       		.byte	0x6
 2756 0e97 86       		.byte	0x86
 2757 0e98 00000000 		.4byte	.LFB255
 2758 0e9c 72000000 		.4byte	.LFE255-.LFB255
 2759 0ea0 01       		.uleb128 0x1
 2760 0ea1 9C       		.byte	0x9c
 2761 0ea2 D00E0000 		.4byte	0xed0
 2762 0ea6 27       		.uleb128 0x27
 2763 0ea7 73647000 		.ascii	"sdp\000"
 2764 0eab 06       		.byte	0x6
 2765 0eac 86       		.byte	0x86
 2766 0ead 5E0E0000 		.4byte	0xe5e
 2767 0eb1 02       		.uleb128 0x2
 2768 0eb2 91       		.byte	0x91
 2769 0eb3 6C       		.sleb128 -20
 2770 0eb4 27       		.uleb128 0x27
 2771 0eb5 737200   		.ascii	"sr\000"
ARM GAS  /tmp/ccK5gGBe.s 			page 50


 2772 0eb8 06       		.byte	0x6
 2773 0eb9 86       		.byte	0x86
 2774 0eba B4000000 		.4byte	0xb4
 2775 0ebe 02       		.uleb128 0x2
 2776 0ebf 91       		.byte	0x91
 2777 0ec0 6A       		.sleb128 -22
 2778 0ec1 29       		.uleb128 0x29
 2779 0ec2 73747300 		.ascii	"sts\000"
 2780 0ec6 06       		.byte	0x6
 2781 0ec7 87       		.byte	0x87
 2782 0ec8 37010000 		.4byte	0x137
 2783 0ecc 02       		.uleb128 0x2
 2784 0ecd 91       		.byte	0x91
 2785 0ece 74       		.sleb128 -12
 2786 0ecf 00       		.byte	0
 2787 0ed0 2A       		.uleb128 0x2a
 2788 0ed1 A8000000 		.4byte	.LASF192
 2789 0ed5 06       		.byte	0x6
 2790 0ed6 99       		.byte	0x99
 2791 0ed7 00000000 		.4byte	.LFB256
 2792 0edb 3C010000 		.4byte	.LFE256-.LFB256
 2793 0edf 01       		.uleb128 0x1
 2794 0ee0 9C       		.byte	0x9c
 2795 0ee1 4B0F0000 		.4byte	0xf4b
 2796 0ee5 27       		.uleb128 0x27
 2797 0ee6 73647000 		.ascii	"sdp\000"
 2798 0eea 06       		.byte	0x6
 2799 0eeb 99       		.byte	0x99
 2800 0eec 5E0E0000 		.4byte	0xe5e
 2801 0ef0 02       		.uleb128 0x2
 2802 0ef1 91       		.byte	0x91
 2803 0ef2 64       		.sleb128 -28
 2804 0ef3 29       		.uleb128 0x29
 2805 0ef4 7500     		.ascii	"u\000"
 2806 0ef6 06       		.byte	0x6
 2807 0ef7 9A       		.byte	0x9a
 2808 0ef8 C90C0000 		.4byte	0xcc9
 2809 0efc 02       		.uleb128 0x2
 2810 0efd 91       		.byte	0x91
 2811 0efe 70       		.sleb128 -16
 2812 0eff 29       		.uleb128 0x29
 2813 0f00 63723100 		.ascii	"cr1\000"
 2814 0f04 06       		.byte	0x6
 2815 0f05 9B       		.byte	0x9b
 2816 0f06 B4000000 		.4byte	0xb4
 2817 0f0a 02       		.uleb128 0x2
 2818 0f0b 91       		.byte	0x91
 2819 0f0c 6E       		.sleb128 -18
 2820 0f0d 29       		.uleb128 0x29
 2821 0f0e 737200   		.ascii	"sr\000"
 2822 0f11 06       		.byte	0x6
 2823 0f12 9C       		.byte	0x9c
 2824 0f13 B4000000 		.4byte	0xb4
 2825 0f17 02       		.uleb128 0x2
 2826 0f18 91       		.byte	0x91
 2827 0f19 76       		.sleb128 -10
 2828 0f1a 2B       		.uleb128 0x2b
ARM GAS  /tmp/ccK5gGBe.s 			page 51


 2829 0f1b 4C000000 		.4byte	.LBB10
 2830 0f1f 40000000 		.4byte	.LBE10-.LBB10
 2831 0f23 340F0000 		.4byte	0xf34
 2832 0f27 29       		.uleb128 0x29
 2833 0f28 6200     		.ascii	"b\000"
 2834 0f2a 06       		.byte	0x6
 2835 0f2b AA       		.byte	0xaa
 2836 0f2c A9000000 		.4byte	0xa9
 2837 0f30 02       		.uleb128 0x2
 2838 0f31 91       		.byte	0x91
 2839 0f32 6D       		.sleb128 -19
 2840 0f33 00       		.byte	0
 2841 0f34 2C       		.uleb128 0x2c
 2842 0f35 B4000000 		.4byte	.LBB11
 2843 0f39 3E000000 		.4byte	.LBE11-.LBB11
 2844 0f3d 29       		.uleb128 0x29
 2845 0f3e 6200     		.ascii	"b\000"
 2846 0f40 06       		.byte	0x6
 2847 0f41 B8       		.byte	0xb8
 2848 0f42 21010000 		.4byte	0x121
 2849 0f46 02       		.uleb128 0x2
 2850 0f47 91       		.byte	0x91
 2851 0f48 68       		.sleb128 -24
 2852 0f49 00       		.byte	0
 2853 0f4a 00       		.byte	0
 2854 0f4b 26       		.uleb128 0x26
 2855 0f4c E2070000 		.4byte	.LASF193
 2856 0f50 06       		.byte	0x6
 2857 0f51 D8       		.byte	0xd8
 2858 0f52 00000000 		.4byte	.LFB257
 2859 0f56 18000000 		.4byte	.LFE257-.LFB257
 2860 0f5a 01       		.uleb128 0x1
 2861 0f5b 9C       		.byte	0x9c
 2862 0f5c 6E0F0000 		.4byte	0xf6e
 2863 0f60 27       		.uleb128 0x27
 2864 0f61 717000   		.ascii	"qp\000"
 2865 0f64 06       		.byte	0x6
 2866 0f65 D8       		.byte	0xd8
 2867 0f66 3F0A0000 		.4byte	0xa3f
 2868 0f6a 02       		.uleb128 0x2
 2869 0f6b 91       		.byte	0x91
 2870 0f6c 7C       		.sleb128 -4
 2871 0f6d 00       		.byte	0
 2872 0f6e 2D       		.uleb128 0x2d
 2873 0f6f 5E090000 		.4byte	.LASF194
 2874 0f73 06       		.byte	0x6
 2875 0f74 1F01     		.2byte	0x11f
 2876 0f76 00000000 		.4byte	.LFB258
 2877 0f7a 14000000 		.4byte	.LFE258-.LFB258
 2878 0f7e 01       		.uleb128 0x1
 2879 0f7f 9C       		.byte	0x9c
 2880 0f80 2D       		.uleb128 0x2d
 2881 0f81 29050000 		.4byte	.LASF195
 2882 0f85 06       		.byte	0x6
 2883 0f86 7E01     		.2byte	0x17e
 2884 0f88 00000000 		.4byte	.LFB259
 2885 0f8c 20000000 		.4byte	.LFE259-.LFB259
ARM GAS  /tmp/ccK5gGBe.s 			page 52


 2886 0f90 01       		.uleb128 0x1
 2887 0f91 9C       		.byte	0x9c
 2888 0f92 2E       		.uleb128 0x2e
 2889 0f93 0D010000 		.4byte	.LASF196
 2890 0f97 06       		.byte	0x6
 2891 0f98 A901     		.2byte	0x1a9
 2892 0f9a 00000000 		.4byte	.LFB260
 2893 0f9e 50000000 		.4byte	.LFE260-.LFB260
 2894 0fa2 01       		.uleb128 0x1
 2895 0fa3 9C       		.byte	0x9c
 2896 0fa4 C70F0000 		.4byte	0xfc7
 2897 0fa8 23       		.uleb128 0x23
 2898 0fa9 73647000 		.ascii	"sdp\000"
 2899 0fad 06       		.byte	0x6
 2900 0fae A901     		.2byte	0x1a9
 2901 0fb0 5E0E0000 		.4byte	0xe5e
 2902 0fb4 02       		.uleb128 0x2
 2903 0fb5 91       		.byte	0x91
 2904 0fb6 74       		.sleb128 -12
 2905 0fb7 25       		.uleb128 0x25
 2906 0fb8 96000000 		.4byte	.LASF189
 2907 0fbc 06       		.byte	0x6
 2908 0fbd A901     		.2byte	0x1a9
 2909 0fbf 640E0000 		.4byte	0xe64
 2910 0fc3 02       		.uleb128 0x2
 2911 0fc4 91       		.byte	0x91
 2912 0fc5 70       		.sleb128 -16
 2913 0fc6 00       		.byte	0
 2914 0fc7 2E       		.uleb128 0x2e
 2915 0fc8 25090000 		.4byte	.LASF197
 2916 0fcc 06       		.byte	0x6
 2917 0fcd E001     		.2byte	0x1e0
 2918 0fcf 00000000 		.4byte	.LFB261
 2919 0fd3 44000000 		.4byte	.LFE261-.LFB261
 2920 0fd7 01       		.uleb128 0x1
 2921 0fd8 9C       		.byte	0x9c
 2922 0fd9 ED0F0000 		.4byte	0xfed
 2923 0fdd 23       		.uleb128 0x23
 2924 0fde 73647000 		.ascii	"sdp\000"
 2925 0fe2 06       		.byte	0x6
 2926 0fe3 E001     		.2byte	0x1e0
 2927 0fe5 5E0E0000 		.4byte	0xe5e
 2928 0fe9 02       		.uleb128 0x2
 2929 0fea 91       		.byte	0x91
 2930 0feb 74       		.sleb128 -12
 2931 0fec 00       		.byte	0
 2932 0fed 2F       		.uleb128 0x2f
 2933 0fee 5F010000 		.4byte	.LASF198
 2934 0ff2 06       		.byte	0x6
 2935 0ff3 48       		.byte	0x48
 2936 0ff4 6A0E0000 		.4byte	0xe6a
 2937 0ff8 05       		.uleb128 0x5
 2938 0ff9 03       		.byte	0x3
 2939 0ffa 00000000 		.4byte	default_config
 2940 0ffe 30       		.uleb128 0x30
 2941 0fff B1050000 		.4byte	.LASF199
 2942 1003 15       		.byte	0x15
ARM GAS  /tmp/ccK5gGBe.s 			page 53


 2943 1004 A706     		.2byte	0x6a7
 2944 1006 E0000000 		.4byte	0xe0
 2945 100a 31       		.uleb128 0x31
 2946 100b 636800   		.ascii	"ch\000"
 2947 100e 0C       		.byte	0xc
 2948 100f 0902     		.2byte	0x209
 2949 1011 07040000 		.4byte	0x407
 2950 1015 32       		.uleb128 0x32
 2951 1016 53443200 		.ascii	"SD2\000"
 2952 101a 06       		.byte	0x6
 2953 101b 2C       		.byte	0x2c
 2954 101c 870B0000 		.4byte	0xb87
 2955 1020 05       		.uleb128 0x5
 2956 1021 03       		.byte	0x3
 2957 1022 00000000 		.4byte	SD2
 2958 1026 00       		.byte	0
 2959              		.section	.debug_abbrev,"",%progbits
 2960              	.Ldebug_abbrev0:
 2961 0000 01       		.uleb128 0x1
 2962 0001 11       		.uleb128 0x11
 2963 0002 01       		.byte	0x1
 2964 0003 25       		.uleb128 0x25
 2965 0004 0E       		.uleb128 0xe
 2966 0005 13       		.uleb128 0x13
 2967 0006 0B       		.uleb128 0xb
 2968 0007 03       		.uleb128 0x3
 2969 0008 0E       		.uleb128 0xe
 2970 0009 55       		.uleb128 0x55
 2971 000a 17       		.uleb128 0x17
 2972 000b 11       		.uleb128 0x11
 2973 000c 01       		.uleb128 0x1
 2974 000d 10       		.uleb128 0x10
 2975 000e 17       		.uleb128 0x17
 2976 000f 00       		.byte	0
 2977 0010 00       		.byte	0
 2978 0011 02       		.uleb128 0x2
 2979 0012 24       		.uleb128 0x24
 2980 0013 00       		.byte	0
 2981 0014 0B       		.uleb128 0xb
 2982 0015 0B       		.uleb128 0xb
 2983 0016 3E       		.uleb128 0x3e
 2984 0017 0B       		.uleb128 0xb
 2985 0018 03       		.uleb128 0x3
 2986 0019 08       		.uleb128 0x8
 2987 001a 00       		.byte	0
 2988 001b 00       		.byte	0
 2989 001c 03       		.uleb128 0x3
 2990 001d 16       		.uleb128 0x16
 2991 001e 00       		.byte	0
 2992 001f 03       		.uleb128 0x3
 2993 0020 0E       		.uleb128 0xe
 2994 0021 3A       		.uleb128 0x3a
 2995 0022 0B       		.uleb128 0xb
 2996 0023 3B       		.uleb128 0x3b
 2997 0024 0B       		.uleb128 0xb
 2998 0025 49       		.uleb128 0x49
 2999 0026 13       		.uleb128 0x13
ARM GAS  /tmp/ccK5gGBe.s 			page 54


 3000 0027 00       		.byte	0
 3001 0028 00       		.byte	0
 3002 0029 04       		.uleb128 0x4
 3003 002a 24       		.uleb128 0x24
 3004 002b 00       		.byte	0
 3005 002c 0B       		.uleb128 0xb
 3006 002d 0B       		.uleb128 0xb
 3007 002e 3E       		.uleb128 0x3e
 3008 002f 0B       		.uleb128 0xb
 3009 0030 03       		.uleb128 0x3
 3010 0031 0E       		.uleb128 0xe
 3011 0032 00       		.byte	0
 3012 0033 00       		.byte	0
 3013 0034 05       		.uleb128 0x5
 3014 0035 35       		.uleb128 0x35
 3015 0036 00       		.byte	0
 3016 0037 49       		.uleb128 0x49
 3017 0038 13       		.uleb128 0x13
 3018 0039 00       		.byte	0
 3019 003a 00       		.byte	0
 3020 003b 06       		.uleb128 0x6
 3021 003c 13       		.uleb128 0x13
 3022 003d 01       		.byte	0x1
 3023 003e 03       		.uleb128 0x3
 3024 003f 0E       		.uleb128 0xe
 3025 0040 0B       		.uleb128 0xb
 3026 0041 0B       		.uleb128 0xb
 3027 0042 3A       		.uleb128 0x3a
 3028 0043 0B       		.uleb128 0xb
 3029 0044 3B       		.uleb128 0x3b
 3030 0045 0B       		.uleb128 0xb
 3031 0046 01       		.uleb128 0x1
 3032 0047 13       		.uleb128 0x13
 3033 0048 00       		.byte	0
 3034 0049 00       		.byte	0
 3035 004a 07       		.uleb128 0x7
 3036 004b 0D       		.uleb128 0xd
 3037 004c 00       		.byte	0
 3038 004d 03       		.uleb128 0x3
 3039 004e 0E       		.uleb128 0xe
 3040 004f 3A       		.uleb128 0x3a
 3041 0050 0B       		.uleb128 0xb
 3042 0051 3B       		.uleb128 0x3b
 3043 0052 0B       		.uleb128 0xb
 3044 0053 49       		.uleb128 0x49
 3045 0054 13       		.uleb128 0x13
 3046 0055 38       		.uleb128 0x38
 3047 0056 0B       		.uleb128 0xb
 3048 0057 00       		.byte	0
 3049 0058 00       		.byte	0
 3050 0059 08       		.uleb128 0x8
 3051 005a 0D       		.uleb128 0xd
 3052 005b 00       		.byte	0
 3053 005c 03       		.uleb128 0x3
 3054 005d 08       		.uleb128 0x8
 3055 005e 3A       		.uleb128 0x3a
 3056 005f 0B       		.uleb128 0xb
ARM GAS  /tmp/ccK5gGBe.s 			page 55


 3057 0060 3B       		.uleb128 0x3b
 3058 0061 05       		.uleb128 0x5
 3059 0062 49       		.uleb128 0x49
 3060 0063 13       		.uleb128 0x13
 3061 0064 38       		.uleb128 0x38
 3062 0065 0B       		.uleb128 0xb
 3063 0066 00       		.byte	0
 3064 0067 00       		.byte	0
 3065 0068 09       		.uleb128 0x9
 3066 0069 0D       		.uleb128 0xd
 3067 006a 00       		.byte	0
 3068 006b 03       		.uleb128 0x3
 3069 006c 0E       		.uleb128 0xe
 3070 006d 3A       		.uleb128 0x3a
 3071 006e 0B       		.uleb128 0xb
 3072 006f 3B       		.uleb128 0x3b
 3073 0070 05       		.uleb128 0x5
 3074 0071 49       		.uleb128 0x49
 3075 0072 13       		.uleb128 0x13
 3076 0073 38       		.uleb128 0x38
 3077 0074 0B       		.uleb128 0xb
 3078 0075 00       		.byte	0
 3079 0076 00       		.byte	0
 3080 0077 0A       		.uleb128 0xa
 3081 0078 0F       		.uleb128 0xf
 3082 0079 00       		.byte	0
 3083 007a 0B       		.uleb128 0xb
 3084 007b 0B       		.uleb128 0xb
 3085 007c 49       		.uleb128 0x49
 3086 007d 13       		.uleb128 0x13
 3087 007e 00       		.byte	0
 3088 007f 00       		.byte	0
 3089 0080 0B       		.uleb128 0xb
 3090 0081 13       		.uleb128 0x13
 3091 0082 01       		.byte	0x1
 3092 0083 03       		.uleb128 0x3
 3093 0084 0E       		.uleb128 0xe
 3094 0085 0B       		.uleb128 0xb
 3095 0086 0B       		.uleb128 0xb
 3096 0087 3A       		.uleb128 0x3a
 3097 0088 0B       		.uleb128 0xb
 3098 0089 3B       		.uleb128 0x3b
 3099 008a 05       		.uleb128 0x5
 3100 008b 01       		.uleb128 0x1
 3101 008c 13       		.uleb128 0x13
 3102 008d 00       		.byte	0
 3103 008e 00       		.byte	0
 3104 008f 0C       		.uleb128 0xc
 3105 0090 15       		.uleb128 0x15
 3106 0091 01       		.byte	0x1
 3107 0092 27       		.uleb128 0x27
 3108 0093 19       		.uleb128 0x19
 3109 0094 01       		.uleb128 0x1
 3110 0095 13       		.uleb128 0x13
 3111 0096 00       		.byte	0
 3112 0097 00       		.byte	0
 3113 0098 0D       		.uleb128 0xd
ARM GAS  /tmp/ccK5gGBe.s 			page 56


 3114 0099 05       		.uleb128 0x5
 3115 009a 00       		.byte	0
 3116 009b 49       		.uleb128 0x49
 3117 009c 13       		.uleb128 0x13
 3118 009d 00       		.byte	0
 3119 009e 00       		.byte	0
 3120 009f 0E       		.uleb128 0xe
 3121 00a0 0F       		.uleb128 0xf
 3122 00a1 00       		.byte	0
 3123 00a2 0B       		.uleb128 0xb
 3124 00a3 0B       		.uleb128 0xb
 3125 00a4 00       		.byte	0
 3126 00a5 00       		.byte	0
 3127 00a6 0F       		.uleb128 0xf
 3128 00a7 13       		.uleb128 0x13
 3129 00a8 01       		.byte	0x1
 3130 00a9 03       		.uleb128 0x3
 3131 00aa 0E       		.uleb128 0xe
 3132 00ab 0B       		.uleb128 0xb
 3133 00ac 05       		.uleb128 0x5
 3134 00ad 3A       		.uleb128 0x3a
 3135 00ae 0B       		.uleb128 0xb
 3136 00af 3B       		.uleb128 0x3b
 3137 00b0 05       		.uleb128 0x5
 3138 00b1 01       		.uleb128 0x1
 3139 00b2 13       		.uleb128 0x13
 3140 00b3 00       		.byte	0
 3141 00b4 00       		.byte	0
 3142 00b5 10       		.uleb128 0x10
 3143 00b6 01       		.uleb128 0x1
 3144 00b7 01       		.byte	0x1
 3145 00b8 49       		.uleb128 0x49
 3146 00b9 13       		.uleb128 0x13
 3147 00ba 01       		.uleb128 0x1
 3148 00bb 13       		.uleb128 0x13
 3149 00bc 00       		.byte	0
 3150 00bd 00       		.byte	0
 3151 00be 11       		.uleb128 0x11
 3152 00bf 21       		.uleb128 0x21
 3153 00c0 00       		.byte	0
 3154 00c1 49       		.uleb128 0x49
 3155 00c2 13       		.uleb128 0x13
 3156 00c3 2F       		.uleb128 0x2f
 3157 00c4 0B       		.uleb128 0xb
 3158 00c5 00       		.byte	0
 3159 00c6 00       		.byte	0
 3160 00c7 12       		.uleb128 0x12
 3161 00c8 13       		.uleb128 0x13
 3162 00c9 01       		.byte	0x1
 3163 00ca 0B       		.uleb128 0xb
 3164 00cb 0B       		.uleb128 0xb
 3165 00cc 3A       		.uleb128 0x3a
 3166 00cd 0B       		.uleb128 0xb
 3167 00ce 3B       		.uleb128 0x3b
 3168 00cf 05       		.uleb128 0x5
 3169 00d0 01       		.uleb128 0x1
 3170 00d1 13       		.uleb128 0x13
ARM GAS  /tmp/ccK5gGBe.s 			page 57


 3171 00d2 00       		.byte	0
 3172 00d3 00       		.byte	0
 3173 00d4 13       		.uleb128 0x13
 3174 00d5 16       		.uleb128 0x16
 3175 00d6 00       		.byte	0
 3176 00d7 03       		.uleb128 0x3
 3177 00d8 0E       		.uleb128 0xe
 3178 00d9 3A       		.uleb128 0x3a
 3179 00da 0B       		.uleb128 0xb
 3180 00db 3B       		.uleb128 0x3b
 3181 00dc 05       		.uleb128 0x5
 3182 00dd 49       		.uleb128 0x49
 3183 00de 13       		.uleb128 0x13
 3184 00df 00       		.byte	0
 3185 00e0 00       		.byte	0
 3186 00e1 14       		.uleb128 0x14
 3187 00e2 0D       		.uleb128 0xd
 3188 00e3 00       		.byte	0
 3189 00e4 03       		.uleb128 0x3
 3190 00e5 08       		.uleb128 0x8
 3191 00e6 3A       		.uleb128 0x3a
 3192 00e7 0B       		.uleb128 0xb
 3193 00e8 3B       		.uleb128 0x3b
 3194 00e9 0B       		.uleb128 0xb
 3195 00ea 49       		.uleb128 0x49
 3196 00eb 13       		.uleb128 0x13
 3197 00ec 38       		.uleb128 0x38
 3198 00ed 0B       		.uleb128 0xb
 3199 00ee 00       		.byte	0
 3200 00ef 00       		.byte	0
 3201 00f0 15       		.uleb128 0x15
 3202 00f1 13       		.uleb128 0x13
 3203 00f2 01       		.byte	0x1
 3204 00f3 0B       		.uleb128 0xb
 3205 00f4 0B       		.uleb128 0xb
 3206 00f5 3A       		.uleb128 0x3a
 3207 00f6 0B       		.uleb128 0xb
 3208 00f7 3B       		.uleb128 0x3b
 3209 00f8 0B       		.uleb128 0xb
 3210 00f9 01       		.uleb128 0x1
 3211 00fa 13       		.uleb128 0x13
 3212 00fb 00       		.byte	0
 3213 00fc 00       		.byte	0
 3214 00fd 16       		.uleb128 0x16
 3215 00fe 17       		.uleb128 0x17
 3216 00ff 01       		.byte	0x1
 3217 0100 0B       		.uleb128 0xb
 3218 0101 0B       		.uleb128 0xb
 3219 0102 3A       		.uleb128 0x3a
 3220 0103 0B       		.uleb128 0xb
 3221 0104 3B       		.uleb128 0x3b
 3222 0105 0B       		.uleb128 0xb
 3223 0106 01       		.uleb128 0x1
 3224 0107 13       		.uleb128 0x13
 3225 0108 00       		.byte	0
 3226 0109 00       		.byte	0
 3227 010a 17       		.uleb128 0x17
ARM GAS  /tmp/ccK5gGBe.s 			page 58


 3228 010b 0D       		.uleb128 0xd
 3229 010c 00       		.byte	0
 3230 010d 03       		.uleb128 0x3
 3231 010e 0E       		.uleb128 0xe
 3232 010f 3A       		.uleb128 0x3a
 3233 0110 0B       		.uleb128 0xb
 3234 0111 3B       		.uleb128 0x3b
 3235 0112 05       		.uleb128 0x5
 3236 0113 49       		.uleb128 0x49
 3237 0114 13       		.uleb128 0x13
 3238 0115 00       		.byte	0
 3239 0116 00       		.byte	0
 3240 0117 18       		.uleb128 0x18
 3241 0118 26       		.uleb128 0x26
 3242 0119 00       		.byte	0
 3243 011a 49       		.uleb128 0x49
 3244 011b 13       		.uleb128 0x13
 3245 011c 00       		.byte	0
 3246 011d 00       		.byte	0
 3247 011e 19       		.uleb128 0x19
 3248 011f 15       		.uleb128 0x15
 3249 0120 01       		.byte	0x1
 3250 0121 27       		.uleb128 0x27
 3251 0122 19       		.uleb128 0x19
 3252 0123 49       		.uleb128 0x49
 3253 0124 13       		.uleb128 0x13
 3254 0125 01       		.uleb128 0x1
 3255 0126 13       		.uleb128 0x13
 3256 0127 00       		.byte	0
 3257 0128 00       		.byte	0
 3258 0129 1A       		.uleb128 0x1a
 3259 012a 04       		.uleb128 0x4
 3260 012b 01       		.byte	0x1
 3261 012c 0B       		.uleb128 0xb
 3262 012d 0B       		.uleb128 0xb
 3263 012e 3A       		.uleb128 0x3a
 3264 012f 0B       		.uleb128 0xb
 3265 0130 3B       		.uleb128 0x3b
 3266 0131 0B       		.uleb128 0xb
 3267 0132 01       		.uleb128 0x1
 3268 0133 13       		.uleb128 0x13
 3269 0134 00       		.byte	0
 3270 0135 00       		.byte	0
 3271 0136 1B       		.uleb128 0x1b
 3272 0137 28       		.uleb128 0x28
 3273 0138 00       		.byte	0
 3274 0139 03       		.uleb128 0x3
 3275 013a 0E       		.uleb128 0xe
 3276 013b 1C       		.uleb128 0x1c
 3277 013c 0D       		.uleb128 0xd
 3278 013d 00       		.byte	0
 3279 013e 00       		.byte	0
 3280 013f 1C       		.uleb128 0x1c
 3281 0140 2E       		.uleb128 0x2e
 3282 0141 01       		.byte	0x1
 3283 0142 03       		.uleb128 0x3
 3284 0143 0E       		.uleb128 0xe
ARM GAS  /tmp/ccK5gGBe.s 			page 59


 3285 0144 3A       		.uleb128 0x3a
 3286 0145 0B       		.uleb128 0xb
 3287 0146 3B       		.uleb128 0x3b
 3288 0147 05       		.uleb128 0x5
 3289 0148 27       		.uleb128 0x27
 3290 0149 19       		.uleb128 0x19
 3291 014a 20       		.uleb128 0x20
 3292 014b 0B       		.uleb128 0xb
 3293 014c 01       		.uleb128 0x1
 3294 014d 13       		.uleb128 0x13
 3295 014e 00       		.byte	0
 3296 014f 00       		.byte	0
 3297 0150 1D       		.uleb128 0x1d
 3298 0151 05       		.uleb128 0x5
 3299 0152 00       		.byte	0
 3300 0153 03       		.uleb128 0x3
 3301 0154 0E       		.uleb128 0xe
 3302 0155 3A       		.uleb128 0x3a
 3303 0156 0B       		.uleb128 0xb
 3304 0157 3B       		.uleb128 0x3b
 3305 0158 05       		.uleb128 0x5
 3306 0159 49       		.uleb128 0x49
 3307 015a 13       		.uleb128 0x13
 3308 015b 00       		.byte	0
 3309 015c 00       		.byte	0
 3310 015d 1E       		.uleb128 0x1e
 3311 015e 2E       		.uleb128 0x2e
 3312 015f 01       		.byte	0x1
 3313 0160 03       		.uleb128 0x3
 3314 0161 0E       		.uleb128 0xe
 3315 0162 3A       		.uleb128 0x3a
 3316 0163 0B       		.uleb128 0xb
 3317 0164 3B       		.uleb128 0x3b
 3318 0165 05       		.uleb128 0x5
 3319 0166 27       		.uleb128 0x27
 3320 0167 19       		.uleb128 0x19
 3321 0168 11       		.uleb128 0x11
 3322 0169 01       		.uleb128 0x1
 3323 016a 12       		.uleb128 0x12
 3324 016b 06       		.uleb128 0x6
 3325 016c 40       		.uleb128 0x40
 3326 016d 18       		.uleb128 0x18
 3327 016e 9742     		.uleb128 0x2117
 3328 0170 19       		.uleb128 0x19
 3329 0171 01       		.uleb128 0x1
 3330 0172 13       		.uleb128 0x13
 3331 0173 00       		.byte	0
 3332 0174 00       		.byte	0
 3333 0175 1F       		.uleb128 0x1f
 3334 0176 1D       		.uleb128 0x1d
 3335 0177 01       		.byte	0x1
 3336 0178 31       		.uleb128 0x31
 3337 0179 13       		.uleb128 0x13
 3338 017a 11       		.uleb128 0x11
 3339 017b 01       		.uleb128 0x1
 3340 017c 12       		.uleb128 0x12
 3341 017d 06       		.uleb128 0x6
ARM GAS  /tmp/ccK5gGBe.s 			page 60


 3342 017e 58       		.uleb128 0x58
 3343 017f 0B       		.uleb128 0xb
 3344 0180 59       		.uleb128 0x59
 3345 0181 05       		.uleb128 0x5
 3346 0182 00       		.byte	0
 3347 0183 00       		.byte	0
 3348 0184 20       		.uleb128 0x20
 3349 0185 05       		.uleb128 0x5
 3350 0186 00       		.byte	0
 3351 0187 31       		.uleb128 0x31
 3352 0188 13       		.uleb128 0x13
 3353 0189 02       		.uleb128 0x2
 3354 018a 18       		.uleb128 0x18
 3355 018b 00       		.byte	0
 3356 018c 00       		.byte	0
 3357 018d 21       		.uleb128 0x21
 3358 018e 2E       		.uleb128 0x2e
 3359 018f 00       		.byte	0
 3360 0190 03       		.uleb128 0x3
 3361 0191 0E       		.uleb128 0xe
 3362 0192 3A       		.uleb128 0x3a
 3363 0193 0B       		.uleb128 0xb
 3364 0194 3B       		.uleb128 0x3b
 3365 0195 05       		.uleb128 0x5
 3366 0196 27       		.uleb128 0x27
 3367 0197 19       		.uleb128 0x19
 3368 0198 11       		.uleb128 0x11
 3369 0199 01       		.uleb128 0x1
 3370 019a 12       		.uleb128 0x12
 3371 019b 06       		.uleb128 0x6
 3372 019c 40       		.uleb128 0x40
 3373 019d 18       		.uleb128 0x18
 3374 019e 9642     		.uleb128 0x2116
 3375 01a0 19       		.uleb128 0x19
 3376 01a1 00       		.byte	0
 3377 01a2 00       		.byte	0
 3378 01a3 22       		.uleb128 0x22
 3379 01a4 2E       		.uleb128 0x2e
 3380 01a5 01       		.byte	0x1
 3381 01a6 03       		.uleb128 0x3
 3382 01a7 0E       		.uleb128 0xe
 3383 01a8 3A       		.uleb128 0x3a
 3384 01a9 0B       		.uleb128 0xb
 3385 01aa 3B       		.uleb128 0x3b
 3386 01ab 05       		.uleb128 0x5
 3387 01ac 27       		.uleb128 0x27
 3388 01ad 19       		.uleb128 0x19
 3389 01ae 49       		.uleb128 0x49
 3390 01af 13       		.uleb128 0x13
 3391 01b0 11       		.uleb128 0x11
 3392 01b1 01       		.uleb128 0x1
 3393 01b2 12       		.uleb128 0x12
 3394 01b3 06       		.uleb128 0x6
 3395 01b4 40       		.uleb128 0x40
 3396 01b5 18       		.uleb128 0x18
 3397 01b6 9742     		.uleb128 0x2117
 3398 01b8 19       		.uleb128 0x19
ARM GAS  /tmp/ccK5gGBe.s 			page 61


 3399 01b9 01       		.uleb128 0x1
 3400 01ba 13       		.uleb128 0x13
 3401 01bb 00       		.byte	0
 3402 01bc 00       		.byte	0
 3403 01bd 23       		.uleb128 0x23
 3404 01be 05       		.uleb128 0x5
 3405 01bf 00       		.byte	0
 3406 01c0 03       		.uleb128 0x3
 3407 01c1 08       		.uleb128 0x8
 3408 01c2 3A       		.uleb128 0x3a
 3409 01c3 0B       		.uleb128 0xb
 3410 01c4 3B       		.uleb128 0x3b
 3411 01c5 05       		.uleb128 0x5
 3412 01c6 49       		.uleb128 0x49
 3413 01c7 13       		.uleb128 0x13
 3414 01c8 02       		.uleb128 0x2
 3415 01c9 18       		.uleb128 0x18
 3416 01ca 00       		.byte	0
 3417 01cb 00       		.byte	0
 3418 01cc 24       		.uleb128 0x24
 3419 01cd 2E       		.uleb128 0x2e
 3420 01ce 01       		.byte	0x1
 3421 01cf 03       		.uleb128 0x3
 3422 01d0 0E       		.uleb128 0xe
 3423 01d1 3A       		.uleb128 0x3a
 3424 01d2 0B       		.uleb128 0xb
 3425 01d3 3B       		.uleb128 0x3b
 3426 01d4 05       		.uleb128 0x5
 3427 01d5 27       		.uleb128 0x27
 3428 01d6 19       		.uleb128 0x19
 3429 01d7 11       		.uleb128 0x11
 3430 01d8 01       		.uleb128 0x1
 3431 01d9 12       		.uleb128 0x12
 3432 01da 06       		.uleb128 0x6
 3433 01db 40       		.uleb128 0x40
 3434 01dc 18       		.uleb128 0x18
 3435 01dd 9642     		.uleb128 0x2116
 3436 01df 19       		.uleb128 0x19
 3437 01e0 01       		.uleb128 0x1
 3438 01e1 13       		.uleb128 0x13
 3439 01e2 00       		.byte	0
 3440 01e3 00       		.byte	0
 3441 01e4 25       		.uleb128 0x25
 3442 01e5 05       		.uleb128 0x5
 3443 01e6 00       		.byte	0
 3444 01e7 03       		.uleb128 0x3
 3445 01e8 0E       		.uleb128 0xe
 3446 01e9 3A       		.uleb128 0x3a
 3447 01ea 0B       		.uleb128 0xb
 3448 01eb 3B       		.uleb128 0x3b
 3449 01ec 05       		.uleb128 0x5
 3450 01ed 49       		.uleb128 0x49
 3451 01ee 13       		.uleb128 0x13
 3452 01ef 02       		.uleb128 0x2
 3453 01f0 18       		.uleb128 0x18
 3454 01f1 00       		.byte	0
 3455 01f2 00       		.byte	0
ARM GAS  /tmp/ccK5gGBe.s 			page 62


 3456 01f3 26       		.uleb128 0x26
 3457 01f4 2E       		.uleb128 0x2e
 3458 01f5 01       		.byte	0x1
 3459 01f6 03       		.uleb128 0x3
 3460 01f7 0E       		.uleb128 0xe
 3461 01f8 3A       		.uleb128 0x3a
 3462 01f9 0B       		.uleb128 0xb
 3463 01fa 3B       		.uleb128 0x3b
 3464 01fb 0B       		.uleb128 0xb
 3465 01fc 27       		.uleb128 0x27
 3466 01fd 19       		.uleb128 0x19
 3467 01fe 11       		.uleb128 0x11
 3468 01ff 01       		.uleb128 0x1
 3469 0200 12       		.uleb128 0x12
 3470 0201 06       		.uleb128 0x6
 3471 0202 40       		.uleb128 0x40
 3472 0203 18       		.uleb128 0x18
 3473 0204 9742     		.uleb128 0x2117
 3474 0206 19       		.uleb128 0x19
 3475 0207 01       		.uleb128 0x1
 3476 0208 13       		.uleb128 0x13
 3477 0209 00       		.byte	0
 3478 020a 00       		.byte	0
 3479 020b 27       		.uleb128 0x27
 3480 020c 05       		.uleb128 0x5
 3481 020d 00       		.byte	0
 3482 020e 03       		.uleb128 0x3
 3483 020f 08       		.uleb128 0x8
 3484 0210 3A       		.uleb128 0x3a
 3485 0211 0B       		.uleb128 0xb
 3486 0212 3B       		.uleb128 0x3b
 3487 0213 0B       		.uleb128 0xb
 3488 0214 49       		.uleb128 0x49
 3489 0215 13       		.uleb128 0x13
 3490 0216 02       		.uleb128 0x2
 3491 0217 18       		.uleb128 0x18
 3492 0218 00       		.byte	0
 3493 0219 00       		.byte	0
 3494 021a 28       		.uleb128 0x28
 3495 021b 05       		.uleb128 0x5
 3496 021c 00       		.byte	0
 3497 021d 03       		.uleb128 0x3
 3498 021e 0E       		.uleb128 0xe
 3499 021f 3A       		.uleb128 0x3a
 3500 0220 0B       		.uleb128 0xb
 3501 0221 3B       		.uleb128 0x3b
 3502 0222 0B       		.uleb128 0xb
 3503 0223 49       		.uleb128 0x49
 3504 0224 13       		.uleb128 0x13
 3505 0225 02       		.uleb128 0x2
 3506 0226 18       		.uleb128 0x18
 3507 0227 00       		.byte	0
 3508 0228 00       		.byte	0
 3509 0229 29       		.uleb128 0x29
 3510 022a 34       		.uleb128 0x34
 3511 022b 00       		.byte	0
 3512 022c 03       		.uleb128 0x3
ARM GAS  /tmp/ccK5gGBe.s 			page 63


 3513 022d 08       		.uleb128 0x8
 3514 022e 3A       		.uleb128 0x3a
 3515 022f 0B       		.uleb128 0xb
 3516 0230 3B       		.uleb128 0x3b
 3517 0231 0B       		.uleb128 0xb
 3518 0232 49       		.uleb128 0x49
 3519 0233 13       		.uleb128 0x13
 3520 0234 02       		.uleb128 0x2
 3521 0235 18       		.uleb128 0x18
 3522 0236 00       		.byte	0
 3523 0237 00       		.byte	0
 3524 0238 2A       		.uleb128 0x2a
 3525 0239 2E       		.uleb128 0x2e
 3526 023a 01       		.byte	0x1
 3527 023b 03       		.uleb128 0x3
 3528 023c 0E       		.uleb128 0xe
 3529 023d 3A       		.uleb128 0x3a
 3530 023e 0B       		.uleb128 0xb
 3531 023f 3B       		.uleb128 0x3b
 3532 0240 0B       		.uleb128 0xb
 3533 0241 27       		.uleb128 0x27
 3534 0242 19       		.uleb128 0x19
 3535 0243 11       		.uleb128 0x11
 3536 0244 01       		.uleb128 0x1
 3537 0245 12       		.uleb128 0x12
 3538 0246 06       		.uleb128 0x6
 3539 0247 40       		.uleb128 0x40
 3540 0248 18       		.uleb128 0x18
 3541 0249 9642     		.uleb128 0x2116
 3542 024b 19       		.uleb128 0x19
 3543 024c 01       		.uleb128 0x1
 3544 024d 13       		.uleb128 0x13
 3545 024e 00       		.byte	0
 3546 024f 00       		.byte	0
 3547 0250 2B       		.uleb128 0x2b
 3548 0251 0B       		.uleb128 0xb
 3549 0252 01       		.byte	0x1
 3550 0253 11       		.uleb128 0x11
 3551 0254 01       		.uleb128 0x1
 3552 0255 12       		.uleb128 0x12
 3553 0256 06       		.uleb128 0x6
 3554 0257 01       		.uleb128 0x1
 3555 0258 13       		.uleb128 0x13
 3556 0259 00       		.byte	0
 3557 025a 00       		.byte	0
 3558 025b 2C       		.uleb128 0x2c
 3559 025c 0B       		.uleb128 0xb
 3560 025d 01       		.byte	0x1
 3561 025e 11       		.uleb128 0x11
 3562 025f 01       		.uleb128 0x1
 3563 0260 12       		.uleb128 0x12
 3564 0261 06       		.uleb128 0x6
 3565 0262 00       		.byte	0
 3566 0263 00       		.byte	0
 3567 0264 2D       		.uleb128 0x2d
 3568 0265 2E       		.uleb128 0x2e
 3569 0266 00       		.byte	0
ARM GAS  /tmp/ccK5gGBe.s 			page 64


 3570 0267 3F       		.uleb128 0x3f
 3571 0268 19       		.uleb128 0x19
 3572 0269 03       		.uleb128 0x3
 3573 026a 0E       		.uleb128 0xe
 3574 026b 3A       		.uleb128 0x3a
 3575 026c 0B       		.uleb128 0xb
 3576 026d 3B       		.uleb128 0x3b
 3577 026e 05       		.uleb128 0x5
 3578 026f 27       		.uleb128 0x27
 3579 0270 19       		.uleb128 0x19
 3580 0271 11       		.uleb128 0x11
 3581 0272 01       		.uleb128 0x1
 3582 0273 12       		.uleb128 0x12
 3583 0274 06       		.uleb128 0x6
 3584 0275 40       		.uleb128 0x40
 3585 0276 18       		.uleb128 0x18
 3586 0277 9642     		.uleb128 0x2116
 3587 0279 19       		.uleb128 0x19
 3588 027a 00       		.byte	0
 3589 027b 00       		.byte	0
 3590 027c 2E       		.uleb128 0x2e
 3591 027d 2E       		.uleb128 0x2e
 3592 027e 01       		.byte	0x1
 3593 027f 3F       		.uleb128 0x3f
 3594 0280 19       		.uleb128 0x19
 3595 0281 03       		.uleb128 0x3
 3596 0282 0E       		.uleb128 0xe
 3597 0283 3A       		.uleb128 0x3a
 3598 0284 0B       		.uleb128 0xb
 3599 0285 3B       		.uleb128 0x3b
 3600 0286 05       		.uleb128 0x5
 3601 0287 27       		.uleb128 0x27
 3602 0288 19       		.uleb128 0x19
 3603 0289 11       		.uleb128 0x11
 3604 028a 01       		.uleb128 0x1
 3605 028b 12       		.uleb128 0x12
 3606 028c 06       		.uleb128 0x6
 3607 028d 40       		.uleb128 0x40
 3608 028e 18       		.uleb128 0x18
 3609 028f 9642     		.uleb128 0x2116
 3610 0291 19       		.uleb128 0x19
 3611 0292 01       		.uleb128 0x1
 3612 0293 13       		.uleb128 0x13
 3613 0294 00       		.byte	0
 3614 0295 00       		.byte	0
 3615 0296 2F       		.uleb128 0x2f
 3616 0297 34       		.uleb128 0x34
 3617 0298 00       		.byte	0
 3618 0299 03       		.uleb128 0x3
 3619 029a 0E       		.uleb128 0xe
 3620 029b 3A       		.uleb128 0x3a
 3621 029c 0B       		.uleb128 0xb
 3622 029d 3B       		.uleb128 0x3b
 3623 029e 0B       		.uleb128 0xb
 3624 029f 49       		.uleb128 0x49
 3625 02a0 13       		.uleb128 0x13
 3626 02a1 02       		.uleb128 0x2
ARM GAS  /tmp/ccK5gGBe.s 			page 65


 3627 02a2 18       		.uleb128 0x18
 3628 02a3 00       		.byte	0
 3629 02a4 00       		.byte	0
 3630 02a5 30       		.uleb128 0x30
 3631 02a6 34       		.uleb128 0x34
 3632 02a7 00       		.byte	0
 3633 02a8 03       		.uleb128 0x3
 3634 02a9 0E       		.uleb128 0xe
 3635 02aa 3A       		.uleb128 0x3a
 3636 02ab 0B       		.uleb128 0xb
 3637 02ac 3B       		.uleb128 0x3b
 3638 02ad 05       		.uleb128 0x5
 3639 02ae 49       		.uleb128 0x49
 3640 02af 13       		.uleb128 0x13
 3641 02b0 3F       		.uleb128 0x3f
 3642 02b1 19       		.uleb128 0x19
 3643 02b2 3C       		.uleb128 0x3c
 3644 02b3 19       		.uleb128 0x19
 3645 02b4 00       		.byte	0
 3646 02b5 00       		.byte	0
 3647 02b6 31       		.uleb128 0x31
 3648 02b7 34       		.uleb128 0x34
 3649 02b8 00       		.byte	0
 3650 02b9 03       		.uleb128 0x3
 3651 02ba 08       		.uleb128 0x8
 3652 02bb 3A       		.uleb128 0x3a
 3653 02bc 0B       		.uleb128 0xb
 3654 02bd 3B       		.uleb128 0x3b
 3655 02be 05       		.uleb128 0x5
 3656 02bf 49       		.uleb128 0x49
 3657 02c0 13       		.uleb128 0x13
 3658 02c1 3F       		.uleb128 0x3f
 3659 02c2 19       		.uleb128 0x19
 3660 02c3 3C       		.uleb128 0x3c
 3661 02c4 19       		.uleb128 0x19
 3662 02c5 00       		.byte	0
 3663 02c6 00       		.byte	0
 3664 02c7 32       		.uleb128 0x32
 3665 02c8 34       		.uleb128 0x34
 3666 02c9 00       		.byte	0
 3667 02ca 03       		.uleb128 0x3
 3668 02cb 08       		.uleb128 0x8
 3669 02cc 3A       		.uleb128 0x3a
 3670 02cd 0B       		.uleb128 0xb
 3671 02ce 3B       		.uleb128 0x3b
 3672 02cf 0B       		.uleb128 0xb
 3673 02d0 49       		.uleb128 0x49
 3674 02d1 13       		.uleb128 0x13
 3675 02d2 3F       		.uleb128 0x3f
 3676 02d3 19       		.uleb128 0x19
 3677 02d4 02       		.uleb128 0x2
 3678 02d5 18       		.uleb128 0x18
 3679 02d6 00       		.byte	0
 3680 02d7 00       		.byte	0
 3681 02d8 00       		.byte	0
 3682              		.section	.debug_aranges,"",%progbits
 3683 0000 AC000000 		.4byte	0xac
ARM GAS  /tmp/ccK5gGBe.s 			page 66


 3684 0004 0200     		.2byte	0x2
 3685 0006 00000000 		.4byte	.Ldebug_info0
 3686 000a 04       		.byte	0x4
 3687 000b 00       		.byte	0
 3688 000c 0000     		.2byte	0
 3689 000e 0000     		.2byte	0
 3690 0010 00000000 		.4byte	.LFB116
 3691 0014 10000000 		.4byte	.LFE116-.LFB116
 3692 0018 00000000 		.4byte	.LFB117
 3693 001c 10000000 		.4byte	.LFE117-.LFB117
 3694 0020 00000000 		.4byte	.LFB118
 3695 0024 08000000 		.4byte	.LFE118-.LFB118
 3696 0028 00000000 		.4byte	.LFB119
 3697 002c 08000000 		.4byte	.LFE119-.LFB119
 3698 0030 00000000 		.4byte	.LFB147
 3699 0034 08000000 		.4byte	.LFE147-.LFB147
 3700 0038 00000000 		.4byte	.LFB148
 3701 003c 08000000 		.4byte	.LFE148-.LFB148
 3702 0040 00000000 		.4byte	.LFB213
 3703 0044 2A000000 		.4byte	.LFE213-.LFB213
 3704 0048 00000000 		.4byte	.LFB222
 3705 004c 08000000 		.4byte	.LFE222-.LFB222
 3706 0050 00000000 		.4byte	.LFB223
 3707 0054 08000000 		.4byte	.LFE223-.LFB223
 3708 0058 00000000 		.4byte	.LFB242
 3709 005c 16000000 		.4byte	.LFE242-.LFB242
 3710 0060 00000000 		.4byte	.LFB253
 3711 0064 94000000 		.4byte	.LFE253-.LFB253
 3712 0068 00000000 		.4byte	.LFB254
 3713 006c 1A000000 		.4byte	.LFE254-.LFB254
 3714 0070 00000000 		.4byte	.LFB255
 3715 0074 72000000 		.4byte	.LFE255-.LFB255
 3716 0078 00000000 		.4byte	.LFB256
 3717 007c 3C010000 		.4byte	.LFE256-.LFB256
 3718 0080 00000000 		.4byte	.LFB257
 3719 0084 18000000 		.4byte	.LFE257-.LFB257
 3720 0088 00000000 		.4byte	.LFB258
 3721 008c 14000000 		.4byte	.LFE258-.LFB258
 3722 0090 00000000 		.4byte	.LFB259
 3723 0094 20000000 		.4byte	.LFE259-.LFB259
 3724 0098 00000000 		.4byte	.LFB260
 3725 009c 50000000 		.4byte	.LFE260-.LFB260
 3726 00a0 00000000 		.4byte	.LFB261
 3727 00a4 44000000 		.4byte	.LFE261-.LFB261
 3728 00a8 00000000 		.4byte	0
 3729 00ac 00000000 		.4byte	0
 3730              		.section	.debug_ranges,"",%progbits
 3731              	.Ldebug_ranges0:
 3732 0000 00000000 		.4byte	.LFB116
 3733 0004 10000000 		.4byte	.LFE116
 3734 0008 00000000 		.4byte	.LFB117
 3735 000c 10000000 		.4byte	.LFE117
 3736 0010 00000000 		.4byte	.LFB118
 3737 0014 08000000 		.4byte	.LFE118
 3738 0018 00000000 		.4byte	.LFB119
 3739 001c 08000000 		.4byte	.LFE119
 3740 0020 00000000 		.4byte	.LFB147
ARM GAS  /tmp/ccK5gGBe.s 			page 67


 3741 0024 08000000 		.4byte	.LFE147
 3742 0028 00000000 		.4byte	.LFB148
 3743 002c 08000000 		.4byte	.LFE148
 3744 0030 00000000 		.4byte	.LFB213
 3745 0034 2A000000 		.4byte	.LFE213
 3746 0038 00000000 		.4byte	.LFB222
 3747 003c 08000000 		.4byte	.LFE222
 3748 0040 00000000 		.4byte	.LFB223
 3749 0044 08000000 		.4byte	.LFE223
 3750 0048 00000000 		.4byte	.LFB242
 3751 004c 16000000 		.4byte	.LFE242
 3752 0050 00000000 		.4byte	.LFB253
 3753 0054 94000000 		.4byte	.LFE253
 3754 0058 00000000 		.4byte	.LFB254
 3755 005c 1A000000 		.4byte	.LFE254
 3756 0060 00000000 		.4byte	.LFB255
 3757 0064 72000000 		.4byte	.LFE255
 3758 0068 00000000 		.4byte	.LFB256
 3759 006c 3C010000 		.4byte	.LFE256
 3760 0070 00000000 		.4byte	.LFB257
 3761 0074 18000000 		.4byte	.LFE257
 3762 0078 00000000 		.4byte	.LFB258
 3763 007c 14000000 		.4byte	.LFE258
 3764 0080 00000000 		.4byte	.LFB259
 3765 0084 20000000 		.4byte	.LFE259
 3766 0088 00000000 		.4byte	.LFB260
 3767 008c 50000000 		.4byte	.LFE260
 3768 0090 00000000 		.4byte	.LFB261
 3769 0094 44000000 		.4byte	.LFE261
 3770 0098 00000000 		.4byte	0
 3771 009c 00000000 		.4byte	0
 3772              		.section	.debug_line,"",%progbits
 3773              	.Ldebug_line0:
 3774 0000 B7050000 		.section	.debug_str,"MS",%progbits,1
 3774      0200B203 
 3774      00000201 
 3774      FB0E0D00 
 3774      01010101 
 3775              	.LASF2:
 3776 0000 73697A65 		.ascii	"size_t\000"
 3776      5F7400
 3777              	.LASF82:
 3778 0007 73697A65 		.ascii	"sizetype\000"
 3778      74797065 
 3778      00
 3779              	.LASF123:
 3780 0010 77747365 		.ascii	"wtsemp\000"
 3780      6D7000
 3781              	.LASF29:
 3782 0017 73797374 		.ascii	"systime_t\000"
 3782      696D655F 
 3782      7400
 3783              	.LASF109:
 3784 0021 504C4C49 		.ascii	"PLLI2SCFGR\000"
 3784      32534346 
 3784      475200
 3785              	.LASF34:
ARM GAS  /tmp/ccK5gGBe.s 			page 68


 3786 002c 705F6374 		.ascii	"p_ctx\000"
 3786      7800
 3787              	.LASF24:
 3788 0032 74707269 		.ascii	"tprio_t\000"
 3788      6F5F7400 
 3789              	.LASF42:
 3790 003a 705F6D73 		.ascii	"p_msgqueue\000"
 3790      67717565 
 3790      756500
 3791              	.LASF58:
 3792 0045 725F6374 		.ascii	"r_ctx\000"
 3792      7800
 3793              	.LASF17:
 3794 004b 696E7433 		.ascii	"int32_t\000"
 3794      325F7400 
 3795              	.LASF170:
 3796 0053 53657269 		.ascii	"SerialConfig\000"
 3796      616C436F 
 3796      6E666967 
 3796      00
 3797              	.LASF176:
 3798 0060 77726974 		.ascii	"writet\000"
 3798      657400
 3799              	.LASF62:
 3800 0067 76746675 		.ascii	"vtfunc_t\000"
 3800      6E635F74 
 3800      00
 3801              	.LASF71:
 3802 0070 63685F76 		.ascii	"ch_virtual_timers_list\000"
 3802      69727475 
 3802      616C5F74 
 3802      696D6572 
 3802      735F6C69 
 3803              	.LASF172:
 3804 0087 77726974 		.ascii	"write\000"
 3804      6500
 3805              	.LASF140:
 3806 008d 656C5F66 		.ascii	"el_flags\000"
 3806      6C616773 
 3806      00
 3807              	.LASF189:
 3808 0096 636F6E66 		.ascii	"config\000"
 3808      696700
 3809              	.LASF165:
 3810 009d 73746174 		.ascii	"state\000"
 3810      6500
 3811              	.LASF174:
 3812 00a3 70757474 		.ascii	"putt\000"
 3812      00
 3813              	.LASF192:
 3814 00a8 73657276 		.ascii	"serve_interrupt\000"
 3814      655F696E 
 3814      74657272 
 3814      75707400 
 3815              	.LASF184:
 3816 00b8 6F73616C 		.ascii	"osalSysLockFromISR\000"
 3816      5379734C 
ARM GAS  /tmp/ccK5gGBe.s 			page 69


 3816      6F636B46 
 3816      726F6D49 
 3816      535200
 3817              	.LASF191:
 3818 00cb 7365745F 		.ascii	"set_error\000"
 3818      6572726F 
 3818      7200
 3819              	.LASF131:
 3820 00d5 6D5F6F77 		.ascii	"m_owner\000"
 3820      6E657200 
 3821              	.LASF69:
 3822 00dd 76745F70 		.ascii	"vt_par\000"
 3822      617200
 3823              	.LASF120:
 3824 00e4 65786974 		.ascii	"exitcode\000"
 3824      636F6465 
 3824      00
 3825              	.LASF3:
 3826 00ed 5F5F7569 		.ascii	"__uint8_t\000"
 3826      6E74385F 
 3826      7400
 3827              	.LASF150:
 3828 00f7 715F746F 		.ascii	"q_top\000"
 3828      7000
 3829              	.LASF100:
 3830 00fd 41484232 		.ascii	"AHB2LPENR\000"
 3830      4C50454E 
 3830      5200
 3831              	.LASF177:
 3832 0107 72656164 		.ascii	"readt\000"
 3832      7400
 3833              	.LASF196:
 3834 010d 73645F6C 		.ascii	"sd_lld_start\000"
 3834      6C645F73 
 3834      74617274 
 3834      00
 3835              	.LASF149:
 3836 011a 715F6275 		.ascii	"q_buffer\000"
 3836      66666572 
 3836      00
 3837              	.LASF153:
 3838 0123 715F6E6F 		.ascii	"q_notify\000"
 3838      74696679 
 3838      00
 3839              	.LASF35:
 3840 012c 705F6E65 		.ascii	"p_newer\000"
 3840      77657200 
 3841              	.LASF9:
 3842 0134 6C6F6E67 		.ascii	"long int\000"
 3842      20696E74 
 3842      00
 3843              	.LASF31:
 3844 013d 705F6E65 		.ascii	"p_next\000"
 3844      787400
 3845              	.LASF179:
 3846 0144 706F7274 		.ascii	"port_unlock\000"
 3846      5F756E6C 
ARM GAS  /tmp/ccK5gGBe.s 			page 70


 3846      6F636B00 
 3847              	.LASF152:
 3848 0150 715F7264 		.ascii	"q_rdptr\000"
 3848      70747200 
 3849              	.LASF32:
 3850 0158 705F7072 		.ascii	"p_prev\000"
 3850      657600
 3851              	.LASF198:
 3852 015f 64656661 		.ascii	"default_config\000"
 3852      756C745F 
 3852      636F6E66 
 3852      696700
 3853              	.LASF182:
 3854 016e 63685379 		.ascii	"chSysLockFromISR\000"
 3854      734C6F63 
 3854      6B46726F 
 3854      6D495352 
 3854      00
 3855              	.LASF22:
 3856 017f 74737461 		.ascii	"tstate_t\000"
 3856      74655F74 
 3856      00
 3857              	.LASF52:
 3858 0188 74687265 		.ascii	"threads_queue_t\000"
 3858      6164735F 
 3858      71756575 
 3858      655F7400 
 3859              	.LASF45:
 3860 0198 705F6D74 		.ascii	"p_mtxlist\000"
 3860      786C6973 
 3860      7400
 3861              	.LASF167:
 3862 01a2 6F717565 		.ascii	"oqueue\000"
 3862      756500
 3863              	.LASF113:
 3864 01a9 72656761 		.ascii	"regarm_t\000"
 3864      726D5F74 
 3864      00
 3865              	.LASF97:
 3866 01b2 41504232 		.ascii	"APB2ENR\000"
 3866      454E5200 
 3867              	.LASF146:
 3868 01ba 696F5F71 		.ascii	"io_queue\000"
 3868      75657565 
 3868      00
 3869              	.LASF99:
 3870 01c3 41484231 		.ascii	"AHB1LPENR\000"
 3870      4C50454E 
 3870      5200
 3871              	.LASF168:
 3872 01cd 75736172 		.ascii	"usart\000"
 3872      7400
 3873              	.LASF154:
 3874 01d3 715F6C69 		.ascii	"q_link\000"
 3874      6E6B00
 3875              	.LASF1:
 3876 01da 7369676E 		.ascii	"signed char\000"
ARM GAS  /tmp/ccK5gGBe.s 			page 71


 3876      65642063 
 3876      68617200 
 3877              	.LASF125:
 3878 01e6 65776D61 		.ascii	"ewmask\000"
 3878      736B00
 3879              	.LASF15:
 3880 01ed 75696E74 		.ascii	"uint8_t\000"
 3880      385F7400 
 3881              	.LASF26:
 3882 01f5 6576656E 		.ascii	"eventmask_t\000"
 3882      746D6173 
 3882      6B5F7400 
 3883              	.LASF115:
 3884 0201 636F6E74 		.ascii	"context\000"
 3884      65787400 
 3885              	.LASF122:
 3886 0209 77747472 		.ascii	"wttrp\000"
 3886      7000
 3887              	.LASF183:
 3888 020f 63685379 		.ascii	"chSysUnlockFromISR\000"
 3888      73556E6C 
 3888      6F636B46 
 3888      726F6D49 
 3888      535200
 3889              	.LASF88:
 3890 0222 52455345 		.ascii	"RESERVED0\000"
 3890      52564544 
 3890      3000
 3891              	.LASF91:
 3892 022c 52455345 		.ascii	"RESERVED1\000"
 3892      52564544 
 3892      3100
 3893              	.LASF4:
 3894 0236 756E7369 		.ascii	"unsigned char\000"
 3894      676E6564 
 3894      20636861 
 3894      7200
 3895              	.LASF98:
 3896 0244 52455345 		.ascii	"RESERVED3\000"
 3896      52564544 
 3896      3300
 3897              	.LASF102:
 3898 024e 52455345 		.ascii	"RESERVED4\000"
 3898      52564544 
 3898      3400
 3899              	.LASF105:
 3900 0258 52455345 		.ascii	"RESERVED5\000"
 3900      52564544 
 3900      3500
 3901              	.LASF107:
 3902 0262 52455345 		.ascii	"RESERVED6\000"
 3902      52564544 
 3902      3600
 3903              	.LASF75:
 3904 026c 70616E69 		.ascii	"panic_msg\000"
 3904      635F6D73 
 3904      6700
ARM GAS  /tmp/ccK5gGBe.s 			page 72


 3905              	.LASF59:
 3906 0276 725F6E65 		.ascii	"r_newer\000"
 3906      77657200 
 3907              	.LASF73:
 3908 027e 73797374 		.ascii	"system_debug_t\000"
 3908      656D5F64 
 3908      65627567 
 3908      5F7400
 3909              	.LASF159:
 3910 028d 53445F55 		.ascii	"SD_UNINIT\000"
 3910      4E494E49 
 3910      5400
 3911              	.LASF158:
 3912 0297 5F426F6F 		.ascii	"_Bool\000"
 3912      6C00
 3913              	.LASF95:
 3914 029d 52455345 		.ascii	"RESERVED2\000"
 3914      52564544 
 3914      3200
 3915              	.LASF187:
 3916 02a7 666C6167 		.ascii	"flags\000"
 3916      7300
 3917              	.LASF133:
 3918 02ad 63686172 		.ascii	"char\000"
 3918      00
 3919              	.LASF85:
 3920 02b2 41484231 		.ascii	"AHB1RSTR\000"
 3920      52535452 
 3920      00
 3921              	.LASF33:
 3922 02bb 705F7072 		.ascii	"p_prio\000"
 3922      696F00
 3923              	.LASF6:
 3924 02c2 5F5F7569 		.ascii	"__uint16_t\000"
 3924      6E743136 
 3924      5F7400
 3925              	.LASF93:
 3926 02cd 41484232 		.ascii	"AHB2ENR\000"
 3926      454E5200 
 3927              	.LASF121:
 3928 02d5 77746F62 		.ascii	"wtobjp\000"
 3928      6A7000
 3929              	.LASF200:
 3930 02dc 474E5520 		.ascii	"GNU C 4.9.3 20150303 (release) [ARM/embedded-4_9-br"
 3930      4320342E 
 3930      392E3320 
 3930      32303135 
 3930      30333033 
 3931 030f 616E6368 		.ascii	"anch revision 221220] -mcpu=cortex-m4 -mfloat-abi=h"
 3931      20726576 
 3931      6973696F 
 3931      6E203232 
 3931      31323230 
 3932 0342 61726420 		.ascii	"ard -mfpu=fpv4-sp-d16 -mno-thumb-interwork -mthumb "
 3932      2D6D6670 
 3932      753D6670 
 3932      76342D73 
ARM GAS  /tmp/ccK5gGBe.s 			page 73


 3932      702D6431 
 3933 0375 2D676764 		.ascii	"-ggdb -fomit-frame-pointer -falign-functions=16 -ff"
 3933      62202D66 
 3933      6F6D6974 
 3933      2D667261 
 3933      6D652D70 
 3934 03a8 756E6374 		.ascii	"unction-sections -fdata-sections -fno-common -fsing"
 3934      696F6E2D 
 3934      73656374 
 3934      696F6E73 
 3934      202D6664 
 3935 03db 6C652D70 		.ascii	"le-precision-constant\000"
 3935      72656369 
 3935      73696F6E 
 3935      2D636F6E 
 3935      7374616E 
 3936              	.LASF175:
 3937 03f1 67657474 		.ascii	"gett\000"
 3937      00
 3938              	.LASF114:
 3939 03f6 73746B61 		.ascii	"stkalign_t\000"
 3939      6C69676E 
 3939      5F7400
 3940              	.LASF112:
 3941 0401 55534152 		.ascii	"USART_TypeDef\000"
 3941      545F5479 
 3941      70654465 
 3941      6600
 3942              	.LASF135:
 3943 040f 6576656E 		.ascii	"event_listener_t\000"
 3943      745F6C69 
 3943      7374656E 
 3943      65725F74 
 3943      00
 3944              	.LASF106:
 3945 0420 42444352 		.ascii	"BDCR\000"
 3945      00
 3946              	.LASF28:
 3947 0425 636E745F 		.ascii	"cnt_t\000"
 3947      7400
 3948              	.LASF68:
 3949 042b 76745F66 		.ascii	"vt_func\000"
 3949      756E6300 
 3950              	.LASF169:
 3951 0433 73706565 		.ascii	"speed\000"
 3951      6400
 3952              	.LASF44:
 3953 0439 705F6570 		.ascii	"p_epending\000"
 3953      656E6469 
 3953      6E6700
 3954              	.LASF124:
 3955 0444 77746D74 		.ascii	"wtmtxp\000"
 3955      787000
 3956              	.LASF55:
 3957 044b 63685F72 		.ascii	"ch_ready_list\000"
 3957      65616479 
 3957      5F6C6973 
ARM GAS  /tmp/ccK5gGBe.s 			page 74


 3957      7400
 3958              	.LASF84:
 3959 0459 43464752 		.ascii	"CFGR\000"
 3959      00
 3960              	.LASF185:
 3961 045e 6F73616C 		.ascii	"osalSysUnlockFromISR\000"
 3961      53797355 
 3961      6E6C6F63 
 3961      6B46726F 
 3961      6D495352 
 3962              	.LASF143:
 3963 0473 65735F6E 		.ascii	"es_next\000"
 3963      65787400 
 3964              	.LASF148:
 3965 047b 715F636F 		.ascii	"q_counter\000"
 3965      756E7465 
 3965      7200
 3966              	.LASF13:
 3967 0485 5F5F7569 		.ascii	"__uint64_t\000"
 3967      6E743634 
 3967      5F7400
 3968              	.LASF11:
 3969 0490 6C6F6E67 		.ascii	"long unsigned int\000"
 3969      20756E73 
 3969      69676E65 
 3969      6420696E 
 3969      7400
 3970              	.LASF126:
 3971 04a2 63685F73 		.ascii	"ch_semaphore\000"
 3971      656D6170 
 3971      686F7265 
 3971      00
 3972              	.LASF50:
 3973 04af 63685F74 		.ascii	"ch_thread\000"
 3973      68726561 
 3973      6400
 3974              	.LASF70:
 3975 04b9 76697274 		.ascii	"virtual_timers_list_t\000"
 3975      75616C5F 
 3975      74696D65 
 3975      72735F6C 
 3975      6973745F 
 3976              	.LASF137:
 3977 04cf 656C5F6E 		.ascii	"el_next\000"
 3977      65787400 
 3978              	.LASF63:
 3979 04d7 76697274 		.ascii	"virtual_timer_t\000"
 3979      75616C5F 
 3979      74696D65 
 3979      725F7400 
 3980              	.LASF54:
 3981 04e7 72656164 		.ascii	"ready_list_t\000"
 3981      795F6C69 
 3981      73745F74 
 3981      00
 3982              	.LASF151:
 3983 04f4 715F7772 		.ascii	"q_wrptr\000"
ARM GAS  /tmp/ccK5gGBe.s 			page 75


 3983      70747200 
 3984              	.LASF171:
 3985 04fc 53657269 		.ascii	"SerialDriverVMT\000"
 3985      616C4472 
 3985      69766572 
 3985      564D5400 
 3986              	.LASF190:
 3987 050c 75736172 		.ascii	"usart_deinit\000"
 3987      745F6465 
 3987      696E6974 
 3987      00
 3988              	.LASF51:
 3989 0519 63685F74 		.ascii	"ch_threads_list\000"
 3989      68726561 
 3989      64735F6C 
 3989      69737400 
 3990              	.LASF195:
 3991 0529 73645F6C 		.ascii	"sd_lld_init\000"
 3991      6C645F69 
 3991      6E697400 
 3992              	.LASF83:
 3993 0535 504C4C43 		.ascii	"PLLCFGR\000"
 3993      46475200 
 3994              	.LASF10:
 3995 053d 5F5F7569 		.ascii	"__uint32_t\000"
 3995      6E743332 
 3995      5F7400
 3996              	.LASF12:
 3997 0548 6C6F6E67 		.ascii	"long long int\000"
 3997      206C6F6E 
 3997      6720696E 
 3997      7400
 3998              	.LASF130:
 3999 0556 6D5F7175 		.ascii	"m_queue\000"
 3999      65756500 
 4000              	.LASF180:
 4001 055e 706F7274 		.ascii	"port_lock_from_isr\000"
 4001      5F6C6F63 
 4001      6B5F6672 
 4001      6F6D5F69 
 4001      737200
 4002              	.LASF108:
 4003 0571 53534347 		.ascii	"SSCGR\000"
 4003      5200
 4004              	.LASF65:
 4005 0577 76745F6E 		.ascii	"vt_next\000"
 4005      65787400 
 4006              	.LASF66:
 4007 057f 76745F70 		.ascii	"vt_prev\000"
 4007      72657600 
 4008              	.LASF111:
 4009 0587 47545052 		.ascii	"GTPR\000"
 4009      00
 4010              	.LASF90:
 4011 058c 41504232 		.ascii	"APB2RSTR\000"
 4011      52535452 
 4011      00
ARM GAS  /tmp/ccK5gGBe.s 			page 76


 4012              	.LASF144:
 4013 0595 6576656E 		.ascii	"event_source_t\000"
 4013      745F736F 
 4013      75726365 
 4013      5F7400
 4014              	.LASF204:
 4015 05a4 63684F51 		.ascii	"chOQIsEmptyI\000"
 4015      4973456D 
 4015      70747949 
 4015      00
 4016              	.LASF199:
 4017 05b1 49544D5F 		.ascii	"ITM_RxBuffer\000"
 4017      52784275 
 4017      66666572 
 4017      00
 4018              	.LASF104:
 4019 05be 41504232 		.ascii	"APB2LPENR\000"
 4019      4C50454E 
 4019      5200
 4020              	.LASF155:
 4021 05c8 716E6F74 		.ascii	"qnotify_t\000"
 4021      6966795F 
 4021      7400
 4022              	.LASF41:
 4023 05d2 705F7761 		.ascii	"p_waiting\000"
 4023      6974696E 
 4023      6700
 4024              	.LASF164:
 4025 05dc 6576656E 		.ascii	"event\000"
 4025      7400
 4026              	.LASF39:
 4027 05e2 705F666C 		.ascii	"p_flags\000"
 4027      61677300 
 4028              	.LASF173:
 4029 05ea 72656164 		.ascii	"read\000"
 4029      00
 4030              	.LASF81:
 4031 05ef 69646C65 		.ascii	"idle_thread_wa\000"
 4031      5F746872 
 4031      6561645F 
 4031      776100
 4032              	.LASF0:
 4033 05fe 756E7369 		.ascii	"unsigned int\000"
 4033      676E6564 
 4033      20696E74 
 4033      00
 4034              	.LASF20:
 4035 060b 7274636E 		.ascii	"rtcnt_t\000"
 4035      745F7400 
 4036              	.LASF47:
 4037 0613 705F6D70 		.ascii	"p_mpool\000"
 4037      6F6F6C00 
 4038              	.LASF40:
 4039 061b 705F7265 		.ascii	"p_refs\000"
 4039      667300
 4040              	.LASF141:
 4041 0622 656C5F77 		.ascii	"el_wflags\000"
ARM GAS  /tmp/ccK5gGBe.s 			page 77


 4041      666C6167 
 4041      7300
 4042              	.LASF139:
 4043 062c 656C5F65 		.ascii	"el_events\000"
 4043      76656E74 
 4043      7300
 4044              	.LASF117:
 4045 0636 6F666673 		.ascii	"offset\000"
 4045      657400
 4046              	.LASF103:
 4047 063d 41504231 		.ascii	"APB1LPENR\000"
 4047      4C50454E 
 4047      5200
 4048              	.LASF87:
 4049 0647 41484233 		.ascii	"AHB3RSTR\000"
 4049      52535452 
 4049      00
 4050              	.LASF30:
 4051 0650 74687265 		.ascii	"thread_t\000"
 4051      61645F74 
 4051      00
 4052              	.LASF48:
 4053 0659 74687265 		.ascii	"thread_reference_t\000"
 4053      61645F72 
 4053      65666572 
 4053      656E6365 
 4053      5F7400
 4054              	.LASF46:
 4055 066c 705F7265 		.ascii	"p_realprio\000"
 4055      616C7072 
 4055      696F00
 4056              	.LASF116:
 4057 0677 706F7274 		.ascii	"port_intctx\000"
 4057      5F696E74 
 4057      63747800 
 4058              	.LASF181:
 4059 0683 706F7274 		.ascii	"port_unlock_from_isr\000"
 4059      5F756E6C 
 4059      6F636B5F 
 4059      66726F6D 
 4059      5F697372 
 4060              	.LASF67:
 4061 0698 76745F64 		.ascii	"vt_delta\000"
 4061      656C7461 
 4061      00
 4062              	.LASF89:
 4063 06a1 41504231 		.ascii	"APB1RSTR\000"
 4063      52535452 
 4063      00
 4064              	.LASF188:
 4065 06aa 75736172 		.ascii	"usart_init\000"
 4065      745F696E 
 4065      697400
 4066              	.LASF64:
 4067 06b5 63685F76 		.ascii	"ch_virtual_timer\000"
 4067      69727475 
 4067      616C5F74 
ARM GAS  /tmp/ccK5gGBe.s 			page 78


 4067      696D6572 
 4067      00
 4068              	.LASF96:
 4069 06c6 41504231 		.ascii	"APB1ENR\000"
 4069      454E5200 
 4070              	.LASF128:
 4071 06ce 735F636E 		.ascii	"s_cnt\000"
 4071      7400
 4072              	.LASF14:
 4073 06d4 6C6F6E67 		.ascii	"long long unsigned int\000"
 4073      206C6F6E 
 4073      6720756E 
 4073      7369676E 
 4073      65642069 
 4074              	.LASF36:
 4075 06eb 705F6F6C 		.ascii	"p_older\000"
 4075      64657200 
 4076              	.LASF16:
 4077 06f3 75696E74 		.ascii	"uint16_t\000"
 4077      31365F74 
 4077      00
 4078              	.LASF25:
 4079 06fc 6D73675F 		.ascii	"msg_t\000"
 4079      7400
 4080              	.LASF53:
 4081 0702 63685F74 		.ascii	"ch_threads_queue\000"
 4081      68726561 
 4081      64735F71 
 4081      75657565 
 4081      00
 4082              	.LASF27:
 4083 0713 6576656E 		.ascii	"eventflags_t\000"
 4083      74666C61 
 4083      67735F74 
 4083      00
 4084              	.LASF203:
 4085 0720 76616C75 		.ascii	"value\000"
 4085      6500
 4086              	.LASF61:
 4087 0726 725F6375 		.ascii	"r_current\000"
 4087      7272656E 
 4087      7400
 4088              	.LASF80:
 4089 0730 6D61696E 		.ascii	"mainthread\000"
 4089      74687265 
 4089      616400
 4090              	.LASF101:
 4091 073b 41484233 		.ascii	"AHB3LPENR\000"
 4091      4C50454E 
 4091      5200
 4092              	.LASF202:
 4093 0745 5F5F7365 		.ascii	"__set_BASEPRI\000"
 4093      745F4241 
 4093      53455052 
 4093      4900
 4094              	.LASF56:
 4095 0753 725F7175 		.ascii	"r_queue\000"
ARM GAS  /tmp/ccK5gGBe.s 			page 79


 4095      65756500 
 4096              	.LASF163:
 4097 075b 53657269 		.ascii	"SerialDriver\000"
 4097      616C4472 
 4097      69766572 
 4097      00
 4098              	.LASF147:
 4099 0768 715F7761 		.ascii	"q_waiting\000"
 4099      6974696E 
 4099      6700
 4100              	.LASF78:
 4101 0772 726C6973 		.ascii	"rlist\000"
 4101      7400
 4102              	.LASF21:
 4103 0778 746D6F64 		.ascii	"tmode_t\000"
 4103      655F7400 
 4104              	.LASF162:
 4105 0780 73647374 		.ascii	"sdstate_t\000"
 4105      6174655F 
 4105      7400
 4106              	.LASF92:
 4107 078a 41484231 		.ascii	"AHB1ENR\000"
 4107      454E5200 
 4108              	.LASF72:
 4109 0792 76745F73 		.ascii	"vt_systime\000"
 4109      79737469 
 4109      6D6500
 4110              	.LASF161:
 4111 079d 53445F52 		.ascii	"SD_READY\000"
 4111      45414459 
 4111      00
 4112              	.LASF94:
 4113 07a6 41484233 		.ascii	"AHB3ENR\000"
 4113      454E5200 
 4114              	.LASF60:
 4115 07ae 725F6F6C 		.ascii	"r_older\000"
 4115      64657200 
 4116              	.LASF118:
 4117 07b6 746D5F63 		.ascii	"tm_calibration_t\000"
 4117      616C6962 
 4117      72617469 
 4117      6F6E5F74 
 4117      00
 4118              	.LASF86:
 4119 07c7 41484232 		.ascii	"AHB2RSTR\000"
 4119      52535452 
 4119      00
 4120              	.LASF178:
 4121 07d0 706F7274 		.ascii	"port_lock\000"
 4121      5F6C6F63 
 4121      6B00
 4122              	.LASF127:
 4123 07da 735F7175 		.ascii	"s_queue\000"
 4123      65756500 
 4124              	.LASF193:
 4125 07e2 6E6F7469 		.ascii	"notify2\000"
 4125      66793200 
ARM GAS  /tmp/ccK5gGBe.s 			page 80


 4126              	.LASF110:
 4127 07ea 5243435F 		.ascii	"RCC_TypeDef\000"
 4127      54797065 
 4127      44656600 
 4128              	.LASF5:
 4129 07f6 73686F72 		.ascii	"short int\000"
 4129      7420696E 
 4129      7400
 4130              	.LASF142:
 4131 0800 6576656E 		.ascii	"event_source\000"
 4131      745F736F 
 4131      75726365 
 4131      00
 4132              	.LASF19:
 4133 080d 75696E74 		.ascii	"uint64_t\000"
 4133      36345F74 
 4133      00
 4134              	.LASF129:
 4135 0816 63685F6D 		.ascii	"ch_mutex\000"
 4135      75746578 
 4135      00
 4136              	.LASF166:
 4137 081f 69717565 		.ascii	"iqueue\000"
 4137      756500
 4138              	.LASF57:
 4139 0826 725F7072 		.ascii	"r_prio\000"
 4139      696F00
 4140              	.LASF74:
 4141 082d 63685F73 		.ascii	"ch_system_debug\000"
 4141      79737465 
 4141      6D5F6465 
 4141      62756700 
 4142              	.LASF145:
 4143 083d 696F5F71 		.ascii	"io_queue_t\000"
 4143      75657565 
 4143      5F7400
 4144              	.LASF79:
 4145 0848 76746C69 		.ascii	"vtlist\000"
 4145      737400
 4146              	.LASF134:
 4147 084f 6D757465 		.ascii	"mutex_t\000"
 4147      785F7400 
 4148              	.LASF23:
 4149 0857 74726566 		.ascii	"trefs_t\000"
 4149      735F7400 
 4150              	.LASF49:
 4151 085f 74687265 		.ascii	"threads_list_t\000"
 4151      6164735F 
 4151      6C697374 
 4151      5F7400
 4152              	.LASF77:
 4153 086e 63685F73 		.ascii	"ch_system\000"
 4153      79737465 
 4153      6D00
 4154              	.LASF18:
 4155 0878 75696E74 		.ascii	"uint32_t\000"
 4155      33325F74 
ARM GAS  /tmp/ccK5gGBe.s 			page 81


 4155      00
 4156              	.LASF156:
 4157 0881 696E7075 		.ascii	"input_queue_t\000"
 4157      745F7175 
 4157      6575655F 
 4157      7400
 4158              	.LASF201:
 4159 088f 2F686F6D 		.ascii	"/home/makkmarci/workspace/CLEAN/ChibiOS/os/hal/port"
 4159      652F6D61 
 4159      6B6B6D61 
 4159      7263692F 
 4159      776F726B 
 4160 08c2 732F5354 		.ascii	"s/STM32/LLD/USARTv1/serial_lld.c\000"
 4160      4D33322F 
 4160      4C4C442F 
 4160      55534152 
 4160      5476312F 
 4161              	.LASF186:
 4162 08e3 6F73616C 		.ascii	"osalEventBroadcastFlagsI\000"
 4162      4576656E 
 4162      7442726F 
 4162      61646361 
 4162      7374466C 
 4163              	.LASF136:
 4164 08fc 6576656E 		.ascii	"event_listener\000"
 4164      745F6C69 
 4164      7374656E 
 4164      657200
 4165              	.LASF119:
 4166 090b 7264796D 		.ascii	"rdymsg\000"
 4166      736700
 4167              	.LASF7:
 4168 0912 73686F72 		.ascii	"short unsigned int\000"
 4168      7420756E 
 4168      7369676E 
 4168      65642069 
 4168      6E7400
 4169              	.LASF197:
 4170 0925 73645F6C 		.ascii	"sd_lld_stop\000"
 4170      6C645F73 
 4170      746F7000 
 4171              	.LASF76:
 4172 0931 63685F73 		.ascii	"ch_system_t\000"
 4172      79737465 
 4172      6D5F7400 
 4173              	.LASF157:
 4174 093d 6F757470 		.ascii	"output_queue_t\000"
 4174      75745F71 
 4174      75657565 
 4174      5F7400
 4175              	.LASF8:
 4176 094c 5F5F696E 		.ascii	"__int32_t\000"
 4176      7433325F 
 4176      7400
 4177              	.LASF160:
 4178 0956 53445F53 		.ascii	"SD_STOP\000"
 4178      544F5000 
ARM GAS  /tmp/ccK5gGBe.s 			page 82


 4179              	.LASF194:
 4180 095e 56656374 		.ascii	"VectorD8\000"
 4180      6F724438 
 4180      00
 4181              	.LASF37:
 4182 0967 705F6E61 		.ascii	"p_name\000"
 4182      6D6500
 4183              	.LASF132:
 4184 096e 6D5F6E65 		.ascii	"m_next\000"
 4184      787400
 4185              	.LASF43:
 4186 0975 705F6D73 		.ascii	"p_msg\000"
 4186      6700
 4187              	.LASF138:
 4188 097b 656C5F6C 		.ascii	"el_listener\000"
 4188      69737465 
 4188      6E657200 
 4189              	.LASF38:
 4190 0987 705F7374 		.ascii	"p_state\000"
 4190      61746500 
 4191              		.ident	"GCC: (GNU Tools for ARM Embedded Processors) 4.9.3 20150303 (release) [ARM/embedded-4_9-br
ARM GAS  /tmp/ccK5gGBe.s 			page 83


DEFINED SYMBOLS
                            *ABS*:00000000 serial_lld.c
     /tmp/ccK5gGBe.s:21     .text.port_lock:00000000 $t
     /tmp/ccK5gGBe.s:26     .text.port_lock:00000000 port_lock
     /tmp/ccK5gGBe.s:58     .text.port_unlock:00000000 $t
     /tmp/ccK5gGBe.s:63     .text.port_unlock:00000000 port_unlock
     /tmp/ccK5gGBe.s:93     .text.port_lock_from_isr:00000000 $t
     /tmp/ccK5gGBe.s:98     .text.port_lock_from_isr:00000000 port_lock_from_isr
     /tmp/ccK5gGBe.s:116    .text.port_unlock_from_isr:00000000 $t
     /tmp/ccK5gGBe.s:121    .text.port_unlock_from_isr:00000000 port_unlock_from_isr
     /tmp/ccK5gGBe.s:139    .text.chSysLockFromISR:00000000 $t
     /tmp/ccK5gGBe.s:144    .text.chSysLockFromISR:00000000 chSysLockFromISR
     /tmp/ccK5gGBe.s:163    .text.chSysUnlockFromISR:00000000 $t
     /tmp/ccK5gGBe.s:168    .text.chSysUnlockFromISR:00000000 chSysUnlockFromISR
     /tmp/ccK5gGBe.s:186    .text.chOQIsEmptyI:00000000 $t
     /tmp/ccK5gGBe.s:191    .text.chOQIsEmptyI:00000000 chOQIsEmptyI
     /tmp/ccK5gGBe.s:234    .text.osalSysLockFromISR:00000000 $t
     /tmp/ccK5gGBe.s:239    .text.osalSysLockFromISR:00000000 osalSysLockFromISR
     /tmp/ccK5gGBe.s:258    .text.osalSysUnlockFromISR:00000000 $t
     /tmp/ccK5gGBe.s:263    .text.osalSysUnlockFromISR:00000000 osalSysUnlockFromISR
     /tmp/ccK5gGBe.s:281    .text.osalEventBroadcastFlagsI:00000000 $t
     /tmp/ccK5gGBe.s:286    .text.osalEventBroadcastFlagsI:00000000 osalEventBroadcastFlagsI
     /tmp/ccK5gGBe.s:316    .bss.SD2:00000000 SD2
     /tmp/ccK5gGBe.s:313    .bss.SD2:00000000 $d
     /tmp/ccK5gGBe.s:319    .rodata.default_config:00000000 $d
     /tmp/ccK5gGBe.s:322    .rodata.default_config:00000000 default_config
     /tmp/ccK5gGBe.s:329    .text.usart_init:00000000 $t
     /tmp/ccK5gGBe.s:334    .text.usart_init:00000000 usart_init
     /tmp/ccK5gGBe.s:425    .text.usart_init:00000084 $d
     /tmp/ccK5gGBe.s:433    .text.usart_deinit:00000000 $t
     /tmp/ccK5gGBe.s:438    .text.usart_deinit:00000000 usart_deinit
     /tmp/ccK5gGBe.s:469    .text.set_error:00000000 $t
     /tmp/ccK5gGBe.s:474    .text.set_error:00000000 set_error
     /tmp/ccK5gGBe.s:546    .text.serve_interrupt:00000000 $t
     /tmp/ccK5gGBe.s:551    .text.serve_interrupt:00000000 serve_interrupt
     /tmp/ccK5gGBe.s:729    .text.notify2:00000000 $t
     /tmp/ccK5gGBe.s:734    .text.notify2:00000000 notify2
     /tmp/ccK5gGBe.s:758    .text.notify2:00000014 $d
     /tmp/ccK5gGBe.s:763    .text.VectorD8:00000000 $t
     /tmp/ccK5gGBe.s:769    .text.VectorD8:00000000 VectorD8
     /tmp/ccK5gGBe.s:789    .text.VectorD8:00000010 $d
     /tmp/ccK5gGBe.s:794    .text.sd_lld_init:00000000 $t
     /tmp/ccK5gGBe.s:800    .text.sd_lld_init:00000000 sd_lld_init
     /tmp/ccK5gGBe.s:824    .text.sd_lld_init:00000014 $d
     /tmp/ccK5gGBe.s:831    .text.sd_lld_start:00000000 $t
     /tmp/ccK5gGBe.s:837    .text.sd_lld_start:00000000 sd_lld_start
     /tmp/ccK5gGBe.s:891    .text.sd_lld_start:00000044 $d
     /tmp/ccK5gGBe.s:898    .text.sd_lld_stop:00000000 $t
     /tmp/ccK5gGBe.s:904    .text.sd_lld_stop:00000000 sd_lld_stop
     /tmp/ccK5gGBe.s:951    .text.sd_lld_stop:0000003c $d
                     .debug_frame:00000010 $d
     /tmp/ccK5gGBe.s:432    .text.usart_init:00000094 $t
     /tmp/ccK5gGBe.s:762    .text.notify2:00000018 $t
     /tmp/ccK5gGBe.s:793    .text.VectorD8:00000014 $t
     /tmp/ccK5gGBe.s:956    .text.sd_lld_stop:00000044 $t

UNDEFINED SYMBOLS
ARM GAS  /tmp/ccK5gGBe.s 			page 84


chEvtBroadcastFlagsI
sdIncomingDataI
chOQGetI
_port_irq_epilogue
sdObjectInit
nvicEnableVector
nvicDisableVector
