ARM GAS  /tmp/cce4XLMQ.s 			page 1


   1              		.syntax unified
   2              		.cpu cortex-m4
   3              		.eabi_attribute 27, 1
   4              		.eabi_attribute 28, 1
   5              		.fpu fpv4-sp-d16
   6              		.eabi_attribute 20, 1
   7              		.eabi_attribute 21, 1
   8              		.eabi_attribute 23, 3
   9              		.eabi_attribute 24, 1
  10              		.eabi_attribute 25, 1
  11              		.eabi_attribute 26, 1
  12              		.eabi_attribute 30, 6
  13              		.eabi_attribute 34, 1
  14              		.eabi_attribute 18, 4
  15              		.thumb
  16              		.file	"serial.c"
  17              		.text
  18              	.Ltext0:
  19              		.cfi_sections	.debug_frame
  20              		.section	.text.port_lock,"ax",%progbits
  21              		.align	2
  22              		.p2align 4,,15
  23              		.thumb
  24              		.thumb_func
  25              		.type	port_lock, %function
  26              	port_lock:
  27              	.LFB116:
  28              		.file 1 "/home/makkmarci/workspace/CLEAN/ChibiOS/os/rt/ports/ARMCMx/chcore_v7m.h"
  29              		.loc 1 444 0
  30              		.cfi_startproc
  31              		@ args = 0, pretend = 0, frame = 8
  32              		@ frame_needed = 0, uses_anonymous_args = 0
  33              		@ link register save eliminated.
  34 0000 82B0     		sub	sp, sp, #8
  35              		.cfi_def_cfa_offset 8
  36 0002 2023     		movs	r3, #32
  37 0004 0193     		str	r3, [sp, #4]
  38              	.LBB6:
  39              	.LBB7:
  40              		.file 2 "/home/makkmarci/workspace/CLEAN/ChibiOS/os/ext/CMSIS/include/core_cmFunc.h"
  41              		.loc 2 546 0
  42 0006 019B     		ldr	r3, [sp, #4]
  43              	@ 546 "/home/makkmarci/workspace/CLEAN/ChibiOS/os/ext/CMSIS/include/core_cmFunc.h" 1
  44 0008 83F31188 		MSR basepri, r3
  45              	@ 0 "" 2
  46              		.thumb
  47              	.LBE7:
  48              	.LBE6:
  49              		.loc 1 451 0
  50 000c 02B0     		add	sp, sp, #8
  51              		.cfi_def_cfa_offset 0
  52              		@ sp needed
  53 000e 7047     		bx	lr
  54              		.cfi_endproc
  55              	.LFE116:
  56              		.size	port_lock, .-port_lock
  57              		.section	.text.port_unlock,"ax",%progbits
ARM GAS  /tmp/cce4XLMQ.s 			page 2


  58              		.align	2
  59              		.p2align 4,,15
  60              		.thumb
  61              		.thumb_func
  62              		.type	port_unlock, %function
  63              	port_unlock:
  64              	.LFB117:
  65              		.loc 1 458 0
  66              		.cfi_startproc
  67              		@ args = 0, pretend = 0, frame = 8
  68              		@ frame_needed = 0, uses_anonymous_args = 0
  69              		@ link register save eliminated.
  70 0000 82B0     		sub	sp, sp, #8
  71              		.cfi_def_cfa_offset 8
  72 0002 0023     		movs	r3, #0
  73 0004 0193     		str	r3, [sp, #4]
  74              	.LBB8:
  75              	.LBB9:
  76              		.loc 2 546 0
  77 0006 019B     		ldr	r3, [sp, #4]
  78              	@ 546 "/home/makkmarci/workspace/CLEAN/ChibiOS/os/ext/CMSIS/include/core_cmFunc.h" 1
  79 0008 83F31188 		MSR basepri, r3
  80              	@ 0 "" 2
  81              		.thumb
  82              	.LBE9:
  83              	.LBE8:
  84              		.loc 1 465 0
  85 000c 02B0     		add	sp, sp, #8
  86              		.cfi_def_cfa_offset 0
  87              		@ sp needed
  88 000e 7047     		bx	lr
  89              		.cfi_endproc
  90              	.LFE117:
  91              		.size	port_unlock, .-port_unlock
  92              		.section	.text.chSysLock,"ax",%progbits
  93              		.align	2
  94              		.p2align 4,,15
  95              		.thumb
  96              		.thumb_func
  97              		.type	chSysLock, %function
  98              	chSysLock:
  99              	.LFB145:
 100              		.file 3 "/home/makkmarci/workspace/CLEAN/ChibiOS/os/rt/include/chsys.h"
 101              		.loc 3 346 0
 102              		.cfi_startproc
 103              		@ args = 0, pretend = 0, frame = 0
 104              		@ frame_needed = 0, uses_anonymous_args = 0
 105 0000 08B5     		push	{r3, lr}
 106              		.cfi_def_cfa_offset 8
 107              		.cfi_offset 3, -8
 108              		.cfi_offset 14, -4
 109              		.loc 3 348 0
 110 0002 FFF7FEFF 		bl	port_lock
 111              		.loc 3 351 0
 112 0006 08BD     		pop	{r3, pc}
 113              		.cfi_endproc
 114              	.LFE145:
ARM GAS  /tmp/cce4XLMQ.s 			page 3


 115              		.size	chSysLock, .-chSysLock
 116              		.section	.text.chSysUnlock,"ax",%progbits
 117              		.align	2
 118              		.p2align 4,,15
 119              		.thumb
 120              		.thumb_func
 121              		.type	chSysUnlock, %function
 122              	chSysUnlock:
 123              	.LFB146:
 124              		.loc 3 358 0
 125              		.cfi_startproc
 126              		@ args = 0, pretend = 0, frame = 0
 127              		@ frame_needed = 0, uses_anonymous_args = 0
 128 0000 08B5     		push	{r3, lr}
 129              		.cfi_def_cfa_offset 8
 130              		.cfi_offset 3, -8
 131              		.cfi_offset 14, -4
 132              		.loc 3 371 0
 133 0002 FFF7FEFF 		bl	port_unlock
 134              		.loc 3 372 0
 135 0006 08BD     		pop	{r3, pc}
 136              		.cfi_endproc
 137              	.LFE146:
 138              		.size	chSysUnlock, .-chSysUnlock
 139 0008 AFF30080 		.section	.text.chEvtObjectInit,"ax",%progbits
 139      AFF30080 
 140              		.align	2
 141              		.p2align 4,,15
 142              		.thumb
 143              		.thumb_func
 144              		.type	chEvtObjectInit, %function
 145              	chEvtObjectInit:
 146              	.LFB191:
 147              		.file 4 "/home/makkmarci/workspace/CLEAN/ChibiOS/os/rt/include/chevents.h"
 148              		.loc 4 170 0
 149              		.cfi_startproc
 150              		@ args = 0, pretend = 0, frame = 8
 151              		@ frame_needed = 0, uses_anonymous_args = 0
 152              		@ link register save eliminated.
 153 0000 82B0     		sub	sp, sp, #8
 154              		.cfi_def_cfa_offset 8
 155 0002 0190     		str	r0, [sp, #4]
 156              		.loc 4 172 0
 157 0004 019B     		ldr	r3, [sp, #4]
 158 0006 019A     		ldr	r2, [sp, #4]
 159 0008 1A60     		str	r2, [r3]
 160              		.loc 4 173 0
 161 000a 02B0     		add	sp, sp, #8
 162              		.cfi_def_cfa_offset 0
 163              		@ sp needed
 164 000c 7047     		bx	lr
 165              		.cfi_endproc
 166              	.LFE191:
 167              		.size	chEvtObjectInit, .-chEvtObjectInit
 168 000e 00BF     		.section	.text.chIQIsEmptyI,"ax",%progbits
 169              		.align	2
 170              		.p2align 4,,15
ARM GAS  /tmp/cce4XLMQ.s 			page 4


 171              		.thumb
 172              		.thumb_func
 173              		.type	chIQIsEmptyI, %function
 174              	chIQIsEmptyI:
 175              	.LFB208:
 176              		.file 5 "/home/makkmarci/workspace/CLEAN/ChibiOS/os/rt/include/chqueues.h"
 177              		.loc 5 303 0
 178              		.cfi_startproc
 179              		@ args = 0, pretend = 0, frame = 8
 180              		@ frame_needed = 0, uses_anonymous_args = 0
 181              		@ link register save eliminated.
 182 0000 82B0     		sub	sp, sp, #8
 183              		.cfi_def_cfa_offset 8
 184 0002 0190     		str	r0, [sp, #4]
 185              		.loc 5 307 0
 186 0004 019B     		ldr	r3, [sp, #4]
 187 0006 9B68     		ldr	r3, [r3, #8]
 188 0008 002B     		cmp	r3, #0
 189 000a 0CBF     		ite	eq
 190 000c 0123     		moveq	r3, #1
 191 000e 0023     		movne	r3, #0
 192 0010 DBB2     		uxtb	r3, r3
 193              		.loc 5 308 0
 194 0012 1846     		mov	r0, r3
 195 0014 02B0     		add	sp, sp, #8
 196              		.cfi_def_cfa_offset 0
 197              		@ sp needed
 198 0016 7047     		bx	lr
 199              		.cfi_endproc
 200              	.LFE208:
 201              		.size	chIQIsEmptyI, .-chIQIsEmptyI
 202 0018 AFF30080 		.section	.text.osalSysLock,"ax",%progbits
 202      AFF30080 
 203              		.align	2
 204              		.p2align 4,,15
 205              		.thumb
 206              		.thumb_func
 207              		.type	osalSysLock, %function
 208              	osalSysLock:
 209              	.LFB220:
 210              		.file 6 "/home/makkmarci/workspace/CLEAN/ChibiOS/os/hal/osal/rt/osal.h"
 211              		.loc 6 445 0
 212              		.cfi_startproc
 213              		@ args = 0, pretend = 0, frame = 0
 214              		@ frame_needed = 0, uses_anonymous_args = 0
 215 0000 08B5     		push	{r3, lr}
 216              		.cfi_def_cfa_offset 8
 217              		.cfi_offset 3, -8
 218              		.cfi_offset 14, -4
 219              		.loc 6 447 0
 220 0002 FFF7FEFF 		bl	chSysLock
 221              		.loc 6 448 0
 222 0006 08BD     		pop	{r3, pc}
 223              		.cfi_endproc
 224              	.LFE220:
 225              		.size	osalSysLock, .-osalSysLock
 226              		.section	.text.osalSysUnlock,"ax",%progbits
ARM GAS  /tmp/cce4XLMQ.s 			page 5


 227              		.align	2
 228              		.p2align 4,,15
 229              		.thumb
 230              		.thumb_func
 231              		.type	osalSysUnlock, %function
 232              	osalSysUnlock:
 233              	.LFB221:
 234              		.loc 6 456 0
 235              		.cfi_startproc
 236              		@ args = 0, pretend = 0, frame = 0
 237              		@ frame_needed = 0, uses_anonymous_args = 0
 238 0000 08B5     		push	{r3, lr}
 239              		.cfi_def_cfa_offset 8
 240              		.cfi_offset 3, -8
 241              		.cfi_offset 14, -4
 242              		.loc 6 458 0
 243 0002 FFF7FEFF 		bl	chSysUnlock
 244              		.loc 6 459 0
 245 0006 08BD     		pop	{r3, pc}
 246              		.cfi_endproc
 247              	.LFE221:
 248              		.size	osalSysUnlock, .-osalSysUnlock
 249 0008 AFF30080 		.section	.text.osalOsRescheduleS,"ax",%progbits
 249      AFF30080 
 250              		.align	2
 251              		.p2align 4,,15
 252              		.thumb
 253              		.thumb_func
 254              		.type	osalOsRescheduleS, %function
 255              	osalOsRescheduleS:
 256              	.LFB228:
 257              		.loc 6 552 0
 258              		.cfi_startproc
 259              		@ args = 0, pretend = 0, frame = 0
 260              		@ frame_needed = 0, uses_anonymous_args = 0
 261 0000 08B5     		push	{r3, lr}
 262              		.cfi_def_cfa_offset 8
 263              		.cfi_offset 3, -8
 264              		.cfi_offset 14, -4
 265              		.loc 6 554 0
 266 0002 FFF7FEFF 		bl	chSchRescheduleS
 267              		.loc 6 555 0
 268 0006 08BD     		pop	{r3, pc}
 269              		.cfi_endproc
 270              	.LFE228:
 271              		.size	osalOsRescheduleS, .-osalOsRescheduleS
 272 0008 AFF30080 		.section	.text.osalEventObjectInit,"ax",%progbits
 272      AFF30080 
 273              		.align	2
 274              		.p2align 4,,15
 275              		.thumb
 276              		.thumb_func
 277              		.type	osalEventObjectInit, %function
 278              	osalEventObjectInit:
 279              	.LFB241:
 280              		.loc 6 775 0
 281              		.cfi_startproc
ARM GAS  /tmp/cce4XLMQ.s 			page 6


 282              		@ args = 0, pretend = 0, frame = 8
 283              		@ frame_needed = 0, uses_anonymous_args = 0
 284 0000 00B5     		push	{lr}
 285              		.cfi_def_cfa_offset 4
 286              		.cfi_offset 14, -4
 287 0002 83B0     		sub	sp, sp, #12
 288              		.cfi_def_cfa_offset 16
 289 0004 0190     		str	r0, [sp, #4]
 290              		.loc 6 777 0
 291 0006 0198     		ldr	r0, [sp, #4]
 292 0008 FFF7FEFF 		bl	chEvtObjectInit
 293              		.loc 6 778 0
 294 000c 03B0     		add	sp, sp, #12
 295              		.cfi_def_cfa_offset 4
 296              		@ sp needed
 297 000e 5DF804FB 		ldr	pc, [sp], #4
 298              		.cfi_endproc
 299              	.LFE241:
 300              		.size	osalEventObjectInit, .-osalEventObjectInit
 301 0012 00BFAFF3 		.section	.text.osalEventBroadcastFlagsI,"ax",%progbits
 301      0080AFF3 
 301      0080AFF3 
 301      0080
 302              		.align	2
 303              		.p2align 4,,15
 304              		.thumb
 305              		.thumb_func
 306              		.type	osalEventBroadcastFlagsI, %function
 307              	osalEventBroadcastFlagsI:
 308              	.LFB242:
 309              		.loc 6 796 0
 310              		.cfi_startproc
 311              		@ args = 0, pretend = 0, frame = 8
 312              		@ frame_needed = 0, uses_anonymous_args = 0
 313 0000 00B5     		push	{lr}
 314              		.cfi_def_cfa_offset 4
 315              		.cfi_offset 14, -4
 316 0002 83B0     		sub	sp, sp, #12
 317              		.cfi_def_cfa_offset 16
 318 0004 0190     		str	r0, [sp, #4]
 319 0006 0091     		str	r1, [sp]
 320              		.loc 6 798 0
 321 0008 0198     		ldr	r0, [sp, #4]
 322 000a 0099     		ldr	r1, [sp]
 323 000c FFF7FEFF 		bl	chEvtBroadcastFlagsI
 324              		.loc 6 799 0
 325 0010 03B0     		add	sp, sp, #12
 326              		.cfi_def_cfa_offset 4
 327              		@ sp needed
 328 0012 5DF804FB 		ldr	pc, [sp], #4
 329              		.cfi_endproc
 330              	.LFE242:
 331              		.size	osalEventBroadcastFlagsI, .-osalEventBroadcastFlagsI
 332 0016 00BFAFF3 		.section	.text.write,"ax",%progbits
 332      0080AFF3 
 332      0080
 333              		.align	2
ARM GAS  /tmp/cce4XLMQ.s 			page 7


 334              		.p2align 4,,15
 335              		.thumb
 336              		.thumb_func
 337              		.type	write, %function
 338              	write:
 339              	.LFB253:
 340              		.file 7 "/home/makkmarci/workspace/CLEAN/ChibiOS/os/hal/src/serial.c"
 341              		.loc 7 50 0
 342              		.cfi_startproc
 343              		@ args = 0, pretend = 0, frame = 16
 344              		@ frame_needed = 0, uses_anonymous_args = 0
 345 0000 00B5     		push	{lr}
 346              		.cfi_def_cfa_offset 4
 347              		.cfi_offset 14, -4
 348 0002 85B0     		sub	sp, sp, #20
 349              		.cfi_def_cfa_offset 24
 350 0004 0390     		str	r0, [sp, #12]
 351 0006 0291     		str	r1, [sp, #8]
 352 0008 0192     		str	r2, [sp, #4]
 353              		.loc 7 52 0
 354 000a 039B     		ldr	r3, [sp, #12]
 355 000c 3033     		adds	r3, r3, #48
 356 000e 1846     		mov	r0, r3
 357 0010 0299     		ldr	r1, [sp, #8]
 358 0012 019A     		ldr	r2, [sp, #4]
 359 0014 4FF0FF33 		mov	r3, #-1
 360 0018 FFF7FEFF 		bl	chOQWriteTimeout
 361 001c 0346     		mov	r3, r0
 362              		.loc 7 54 0
 363 001e 1846     		mov	r0, r3
 364 0020 05B0     		add	sp, sp, #20
 365              		.cfi_def_cfa_offset 4
 366              		@ sp needed
 367 0022 5DF804FB 		ldr	pc, [sp], #4
 368              		.cfi_endproc
 369              	.LFE253:
 370              		.size	write, .-write
 371 0026 00BFAFF3 		.section	.text.read,"ax",%progbits
 371      0080AFF3 
 371      0080
 372              		.align	2
 373              		.p2align 4,,15
 374              		.thumb
 375              		.thumb_func
 376              		.type	read, %function
 377              	read:
 378              	.LFB254:
 379              		.loc 7 56 0
 380              		.cfi_startproc
 381              		@ args = 0, pretend = 0, frame = 16
 382              		@ frame_needed = 0, uses_anonymous_args = 0
 383 0000 00B5     		push	{lr}
 384              		.cfi_def_cfa_offset 4
 385              		.cfi_offset 14, -4
 386 0002 85B0     		sub	sp, sp, #20
 387              		.cfi_def_cfa_offset 24
 388 0004 0390     		str	r0, [sp, #12]
ARM GAS  /tmp/cce4XLMQ.s 			page 8


 389 0006 0291     		str	r1, [sp, #8]
 390 0008 0192     		str	r2, [sp, #4]
 391              		.loc 7 58 0
 392 000a 039B     		ldr	r3, [sp, #12]
 393 000c 0C33     		adds	r3, r3, #12
 394 000e 1846     		mov	r0, r3
 395 0010 0299     		ldr	r1, [sp, #8]
 396 0012 019A     		ldr	r2, [sp, #4]
 397 0014 4FF0FF33 		mov	r3, #-1
 398 0018 FFF7FEFF 		bl	chIQReadTimeout
 399 001c 0346     		mov	r3, r0
 400              		.loc 7 60 0
 401 001e 1846     		mov	r0, r3
 402 0020 05B0     		add	sp, sp, #20
 403              		.cfi_def_cfa_offset 4
 404              		@ sp needed
 405 0022 5DF804FB 		ldr	pc, [sp], #4
 406              		.cfi_endproc
 407              	.LFE254:
 408              		.size	read, .-read
 409 0026 00BFAFF3 		.section	.text.put,"ax",%progbits
 409      0080AFF3 
 409      0080
 410              		.align	2
 411              		.p2align 4,,15
 412              		.thumb
 413              		.thumb_func
 414              		.type	put, %function
 415              	put:
 416              	.LFB255:
 417              		.loc 7 62 0
 418              		.cfi_startproc
 419              		@ args = 0, pretend = 0, frame = 8
 420              		@ frame_needed = 0, uses_anonymous_args = 0
 421 0000 00B5     		push	{lr}
 422              		.cfi_def_cfa_offset 4
 423              		.cfi_offset 14, -4
 424 0002 83B0     		sub	sp, sp, #12
 425              		.cfi_def_cfa_offset 16
 426 0004 0190     		str	r0, [sp, #4]
 427 0006 0B46     		mov	r3, r1
 428 0008 8DF80330 		strb	r3, [sp, #3]
 429              		.loc 7 64 0
 430 000c 019B     		ldr	r3, [sp, #4]
 431 000e 03F13002 		add	r2, r3, #48
 432 0012 9DF80330 		ldrb	r3, [sp, #3]	@ zero_extendqisi2
 433 0016 1046     		mov	r0, r2
 434 0018 1946     		mov	r1, r3
 435 001a 4FF0FF32 		mov	r2, #-1
 436 001e FFF7FEFF 		bl	chOQPutTimeout
 437 0022 0346     		mov	r3, r0
 438              		.loc 7 65 0
 439 0024 1846     		mov	r0, r3
 440 0026 03B0     		add	sp, sp, #12
 441              		.cfi_def_cfa_offset 4
 442              		@ sp needed
 443 0028 5DF804FB 		ldr	pc, [sp], #4
ARM GAS  /tmp/cce4XLMQ.s 			page 9


 444              		.cfi_endproc
 445              	.LFE255:
 446              		.size	put, .-put
 447 002c AFF30080 		.section	.text.get,"ax",%progbits
 448              		.align	2
 449              		.p2align 4,,15
 450              		.thumb
 451              		.thumb_func
 452              		.type	get, %function
 453              	get:
 454              	.LFB256:
 455              		.loc 7 67 0
 456              		.cfi_startproc
 457              		@ args = 0, pretend = 0, frame = 8
 458              		@ frame_needed = 0, uses_anonymous_args = 0
 459 0000 00B5     		push	{lr}
 460              		.cfi_def_cfa_offset 4
 461              		.cfi_offset 14, -4
 462 0002 83B0     		sub	sp, sp, #12
 463              		.cfi_def_cfa_offset 16
 464 0004 0190     		str	r0, [sp, #4]
 465              		.loc 7 69 0
 466 0006 019B     		ldr	r3, [sp, #4]
 467 0008 0C33     		adds	r3, r3, #12
 468 000a 1846     		mov	r0, r3
 469 000c 4FF0FF31 		mov	r1, #-1
 470 0010 FFF7FEFF 		bl	chIQGetTimeout
 471 0014 0346     		mov	r3, r0
 472              		.loc 7 70 0
 473 0016 1846     		mov	r0, r3
 474 0018 03B0     		add	sp, sp, #12
 475              		.cfi_def_cfa_offset 4
 476              		@ sp needed
 477 001a 5DF804FB 		ldr	pc, [sp], #4
 478              		.cfi_endproc
 479              	.LFE256:
 480              		.size	get, .-get
 481 001e 00BF     		.section	.text.putt,"ax",%progbits
 482              		.align	2
 483              		.p2align 4,,15
 484              		.thumb
 485              		.thumb_func
 486              		.type	putt, %function
 487              	putt:
 488              	.LFB257:
 489              		.loc 7 72 0
 490              		.cfi_startproc
 491              		@ args = 0, pretend = 0, frame = 16
 492              		@ frame_needed = 0, uses_anonymous_args = 0
 493 0000 00B5     		push	{lr}
 494              		.cfi_def_cfa_offset 4
 495              		.cfi_offset 14, -4
 496 0002 85B0     		sub	sp, sp, #20
 497              		.cfi_def_cfa_offset 24
 498 0004 0390     		str	r0, [sp, #12]
 499 0006 0B46     		mov	r3, r1
 500 0008 0192     		str	r2, [sp, #4]
ARM GAS  /tmp/cce4XLMQ.s 			page 10


 501 000a 8DF80B30 		strb	r3, [sp, #11]
 502              		.loc 7 74 0
 503 000e 039B     		ldr	r3, [sp, #12]
 504 0010 03F13002 		add	r2, r3, #48
 505 0014 9DF80B30 		ldrb	r3, [sp, #11]	@ zero_extendqisi2
 506 0018 1046     		mov	r0, r2
 507 001a 1946     		mov	r1, r3
 508 001c 019A     		ldr	r2, [sp, #4]
 509 001e FFF7FEFF 		bl	chOQPutTimeout
 510 0022 0346     		mov	r3, r0
 511              		.loc 7 75 0
 512 0024 1846     		mov	r0, r3
 513 0026 05B0     		add	sp, sp, #20
 514              		.cfi_def_cfa_offset 4
 515              		@ sp needed
 516 0028 5DF804FB 		ldr	pc, [sp], #4
 517              		.cfi_endproc
 518              	.LFE257:
 519              		.size	putt, .-putt
 520 002c AFF30080 		.section	.text.gett,"ax",%progbits
 521              		.align	2
 522              		.p2align 4,,15
 523              		.thumb
 524              		.thumb_func
 525              		.type	gett, %function
 526              	gett:
 527              	.LFB258:
 528              		.loc 7 77 0
 529              		.cfi_startproc
 530              		@ args = 0, pretend = 0, frame = 8
 531              		@ frame_needed = 0, uses_anonymous_args = 0
 532 0000 00B5     		push	{lr}
 533              		.cfi_def_cfa_offset 4
 534              		.cfi_offset 14, -4
 535 0002 83B0     		sub	sp, sp, #12
 536              		.cfi_def_cfa_offset 16
 537 0004 0190     		str	r0, [sp, #4]
 538 0006 0091     		str	r1, [sp]
 539              		.loc 7 79 0
 540 0008 019B     		ldr	r3, [sp, #4]
 541 000a 0C33     		adds	r3, r3, #12
 542 000c 1846     		mov	r0, r3
 543 000e 0099     		ldr	r1, [sp]
 544 0010 FFF7FEFF 		bl	chIQGetTimeout
 545 0014 0346     		mov	r3, r0
 546              		.loc 7 80 0
 547 0016 1846     		mov	r0, r3
 548 0018 03B0     		add	sp, sp, #12
 549              		.cfi_def_cfa_offset 4
 550              		@ sp needed
 551 001a 5DF804FB 		ldr	pc, [sp], #4
 552              		.cfi_endproc
 553              	.LFE258:
 554              		.size	gett, .-gett
 555 001e 00BF     		.section	.text.writet,"ax",%progbits
 556              		.align	2
 557              		.p2align 4,,15
ARM GAS  /tmp/cce4XLMQ.s 			page 11


 558              		.thumb
 559              		.thumb_func
 560              		.type	writet, %function
 561              	writet:
 562              	.LFB259:
 563              		.loc 7 82 0
 564              		.cfi_startproc
 565              		@ args = 0, pretend = 0, frame = 16
 566              		@ frame_needed = 0, uses_anonymous_args = 0
 567 0000 00B5     		push	{lr}
 568              		.cfi_def_cfa_offset 4
 569              		.cfi_offset 14, -4
 570 0002 85B0     		sub	sp, sp, #20
 571              		.cfi_def_cfa_offset 24
 572 0004 0390     		str	r0, [sp, #12]
 573 0006 0291     		str	r1, [sp, #8]
 574 0008 0192     		str	r2, [sp, #4]
 575 000a 0093     		str	r3, [sp]
 576              		.loc 7 84 0
 577 000c 039B     		ldr	r3, [sp, #12]
 578 000e 3033     		adds	r3, r3, #48
 579 0010 1846     		mov	r0, r3
 580 0012 0299     		ldr	r1, [sp, #8]
 581 0014 019A     		ldr	r2, [sp, #4]
 582 0016 009B     		ldr	r3, [sp]
 583 0018 FFF7FEFF 		bl	chOQWriteTimeout
 584 001c 0346     		mov	r3, r0
 585              		.loc 7 85 0
 586 001e 1846     		mov	r0, r3
 587 0020 05B0     		add	sp, sp, #20
 588              		.cfi_def_cfa_offset 4
 589              		@ sp needed
 590 0022 5DF804FB 		ldr	pc, [sp], #4
 591              		.cfi_endproc
 592              	.LFE259:
 593              		.size	writet, .-writet
 594 0026 00BFAFF3 		.section	.text.readt,"ax",%progbits
 594      0080AFF3 
 594      0080
 595              		.align	2
 596              		.p2align 4,,15
 597              		.thumb
 598              		.thumb_func
 599              		.type	readt, %function
 600              	readt:
 601              	.LFB260:
 602              		.loc 7 87 0
 603              		.cfi_startproc
 604              		@ args = 0, pretend = 0, frame = 16
 605              		@ frame_needed = 0, uses_anonymous_args = 0
 606 0000 00B5     		push	{lr}
 607              		.cfi_def_cfa_offset 4
 608              		.cfi_offset 14, -4
 609 0002 85B0     		sub	sp, sp, #20
 610              		.cfi_def_cfa_offset 24
 611 0004 0390     		str	r0, [sp, #12]
 612 0006 0291     		str	r1, [sp, #8]
ARM GAS  /tmp/cce4XLMQ.s 			page 12


 613 0008 0192     		str	r2, [sp, #4]
 614 000a 0093     		str	r3, [sp]
 615              		.loc 7 89 0
 616 000c 039B     		ldr	r3, [sp, #12]
 617 000e 0C33     		adds	r3, r3, #12
 618 0010 1846     		mov	r0, r3
 619 0012 0299     		ldr	r1, [sp, #8]
 620 0014 019A     		ldr	r2, [sp, #4]
 621 0016 009B     		ldr	r3, [sp]
 622 0018 FFF7FEFF 		bl	chIQReadTimeout
 623 001c 0346     		mov	r3, r0
 624              		.loc 7 90 0
 625 001e 1846     		mov	r0, r3
 626 0020 05B0     		add	sp, sp, #20
 627              		.cfi_def_cfa_offset 4
 628              		@ sp needed
 629 0022 5DF804FB 		ldr	pc, [sp], #4
 630              		.cfi_endproc
 631              	.LFE260:
 632              		.size	readt, .-readt
 633 0026 00BFAFF3 		.section	.rodata.vmt,"a",%progbits
 633      0080AFF3 
 633      0080
 634              		.align	2
 635              		.type	vmt, %object
 636              		.size	vmt, 32
 637              	vmt:
 638 0000 00000000 		.word	write
 639 0004 00000000 		.word	read
 640 0008 00000000 		.word	put
 641 000c 00000000 		.word	get
 642 0010 00000000 		.word	putt
 643 0014 00000000 		.word	gett
 644 0018 00000000 		.word	writet
 645 001c 00000000 		.word	readt
 646              		.section	.text.sdInit,"ax",%progbits
 647              		.align	2
 648              		.p2align 4,,15
 649              		.global	sdInit
 650              		.thumb
 651              		.thumb_func
 652              		.type	sdInit, %function
 653              	sdInit:
 654              	.LFB261:
 655              		.loc 7 108 0
 656              		.cfi_startproc
 657              		@ args = 0, pretend = 0, frame = 0
 658              		@ frame_needed = 0, uses_anonymous_args = 0
 659 0000 08B5     		push	{r3, lr}
 660              		.cfi_def_cfa_offset 8
 661              		.cfi_offset 3, -8
 662              		.cfi_offset 14, -4
 663              		.loc 7 110 0
 664 0002 FFF7FEFF 		bl	sd_lld_init
 665              		.loc 7 111 0
 666 0006 08BD     		pop	{r3, pc}
 667              		.cfi_endproc
ARM GAS  /tmp/cce4XLMQ.s 			page 13


 668              	.LFE261:
 669              		.size	sdInit, .-sdInit
 670              		.section	.text.sdObjectInit,"ax",%progbits
 671              		.align	2
 672              		.p2align 4,,15
 673              		.global	sdObjectInit
 674              		.thumb
 675              		.thumb_func
 676              		.type	sdObjectInit, %function
 677              	sdObjectInit:
 678              	.LFB262:
 679              		.loc 7 128 0
 680              		.cfi_startproc
 681              		@ args = 0, pretend = 0, frame = 16
 682              		@ frame_needed = 0, uses_anonymous_args = 0
 683 0000 00B5     		push	{lr}
 684              		.cfi_def_cfa_offset 4
 685              		.cfi_offset 14, -4
 686 0002 87B0     		sub	sp, sp, #28
 687              		.cfi_def_cfa_offset 32
 688 0004 0590     		str	r0, [sp, #20]
 689 0006 0491     		str	r1, [sp, #16]
 690 0008 0392     		str	r2, [sp, #12]
 691              		.loc 7 130 0
 692 000a 059B     		ldr	r3, [sp, #20]
 693 000c 144A     		ldr	r2, .L31
 694 000e 1A60     		str	r2, [r3]
 695              		.loc 7 131 0
 696 0010 059B     		ldr	r3, [sp, #20]
 697 0012 0433     		adds	r3, r3, #4
 698 0014 1846     		mov	r0, r3
 699 0016 FFF7FEFF 		bl	osalEventObjectInit
 700              		.loc 7 132 0
 701 001a 059B     		ldr	r3, [sp, #20]
 702 001c 0122     		movs	r2, #1
 703 001e 1A72     		strb	r2, [r3, #8]
 704              		.loc 7 133 0
 705 0020 059B     		ldr	r3, [sp, #20]
 706 0022 03F10C01 		add	r1, r3, #12
 707 0026 059B     		ldr	r3, [sp, #20]
 708 0028 03F15402 		add	r2, r3, #84
 709 002c 059B     		ldr	r3, [sp, #20]
 710 002e 0093     		str	r3, [sp]
 711 0030 0846     		mov	r0, r1
 712 0032 1146     		mov	r1, r2
 713 0034 1022     		movs	r2, #16
 714 0036 049B     		ldr	r3, [sp, #16]
 715 0038 FFF7FEFF 		bl	chIQObjectInit
 716              		.loc 7 134 0
 717 003c 059B     		ldr	r3, [sp, #20]
 718 003e 03F13001 		add	r1, r3, #48
 719 0042 059B     		ldr	r3, [sp, #20]
 720 0044 03F16402 		add	r2, r3, #100
 721 0048 059B     		ldr	r3, [sp, #20]
 722 004a 0093     		str	r3, [sp]
 723 004c 0846     		mov	r0, r1
 724 004e 1146     		mov	r1, r2
ARM GAS  /tmp/cce4XLMQ.s 			page 14


 725 0050 1022     		movs	r2, #16
 726 0052 039B     		ldr	r3, [sp, #12]
 727 0054 FFF7FEFF 		bl	chOQObjectInit
 728              		.loc 7 135 0
 729 0058 07B0     		add	sp, sp, #28
 730              		.cfi_def_cfa_offset 4
 731              		@ sp needed
 732 005a 5DF804FB 		ldr	pc, [sp], #4
 733              	.L32:
 734 005e 00BF     		.align	2
 735              	.L31:
 736 0060 00000000 		.word	vmt
 737              		.cfi_endproc
 738              	.LFE262:
 739              		.size	sdObjectInit, .-sdObjectInit
 740 0064 AFF30080 		.section	.text.sdStart,"ax",%progbits
 740      AFF30080 
 740      AFF30080 
 741              		.align	2
 742              		.p2align 4,,15
 743              		.global	sdStart
 744              		.thumb
 745              		.thumb_func
 746              		.type	sdStart, %function
 747              	sdStart:
 748              	.LFB263:
 749              		.loc 7 147 0
 750              		.cfi_startproc
 751              		@ args = 0, pretend = 0, frame = 8
 752              		@ frame_needed = 0, uses_anonymous_args = 0
 753 0000 00B5     		push	{lr}
 754              		.cfi_def_cfa_offset 4
 755              		.cfi_offset 14, -4
 756 0002 83B0     		sub	sp, sp, #12
 757              		.cfi_def_cfa_offset 16
 758 0004 0190     		str	r0, [sp, #4]
 759 0006 0091     		str	r1, [sp]
 760              		.loc 7 151 0
 761 0008 FFF7FEFF 		bl	osalSysLock
 762              		.loc 7 154 0
 763 000c 0198     		ldr	r0, [sp, #4]
 764 000e 0099     		ldr	r1, [sp]
 765 0010 FFF7FEFF 		bl	sd_lld_start
 766              		.loc 7 155 0
 767 0014 019B     		ldr	r3, [sp, #4]
 768 0016 0222     		movs	r2, #2
 769 0018 1A72     		strb	r2, [r3, #8]
 770              		.loc 7 156 0
 771 001a FFF7FEFF 		bl	osalSysUnlock
 772              		.loc 7 157 0
 773 001e 03B0     		add	sp, sp, #12
 774              		.cfi_def_cfa_offset 4
 775              		@ sp needed
 776 0020 5DF804FB 		ldr	pc, [sp], #4
 777              		.cfi_endproc
 778              	.LFE263:
 779              		.size	sdStart, .-sdStart
ARM GAS  /tmp/cce4XLMQ.s 			page 15


 780 0024 AFF30080 		.section	.text.sdStop,"ax",%progbits
 780      AFF30080 
 780      AFF30080 
 781              		.align	2
 782              		.p2align 4,,15
 783              		.global	sdStop
 784              		.thumb
 785              		.thumb_func
 786              		.type	sdStop, %function
 787              	sdStop:
 788              	.LFB264:
 789              		.loc 7 168 0
 790              		.cfi_startproc
 791              		@ args = 0, pretend = 0, frame = 8
 792              		@ frame_needed = 0, uses_anonymous_args = 0
 793 0000 00B5     		push	{lr}
 794              		.cfi_def_cfa_offset 4
 795              		.cfi_offset 14, -4
 796 0002 83B0     		sub	sp, sp, #12
 797              		.cfi_def_cfa_offset 16
 798 0004 0190     		str	r0, [sp, #4]
 799              		.loc 7 172 0
 800 0006 FFF7FEFF 		bl	osalSysLock
 801              		.loc 7 175 0
 802 000a 0198     		ldr	r0, [sp, #4]
 803 000c FFF7FEFF 		bl	sd_lld_stop
 804              		.loc 7 176 0
 805 0010 019B     		ldr	r3, [sp, #4]
 806 0012 0122     		movs	r2, #1
 807 0014 1A72     		strb	r2, [r3, #8]
 808              		.loc 7 177 0
 809 0016 019B     		ldr	r3, [sp, #4]
 810 0018 3033     		adds	r3, r3, #48
 811 001a 1846     		mov	r0, r3
 812 001c FFF7FEFF 		bl	chOQResetI
 813              		.loc 7 178 0
 814 0020 019B     		ldr	r3, [sp, #4]
 815 0022 0C33     		adds	r3, r3, #12
 816 0024 1846     		mov	r0, r3
 817 0026 FFF7FEFF 		bl	chIQResetI
 818              		.loc 7 179 0
 819 002a FFF7FEFF 		bl	osalOsRescheduleS
 820              		.loc 7 180 0
 821 002e FFF7FEFF 		bl	osalSysUnlock
 822              		.loc 7 181 0
 823 0032 03B0     		add	sp, sp, #12
 824              		.cfi_def_cfa_offset 4
 825              		@ sp needed
 826 0034 5DF804FB 		ldr	pc, [sp], #4
 827              		.cfi_endproc
 828              	.LFE264:
 829              		.size	sdStop, .-sdStop
 830 0038 AFF30080 		.section	.text.sdIncomingDataI,"ax",%progbits
 830      AFF30080 
 831              		.align	2
 832              		.p2align 4,,15
 833              		.global	sdIncomingDataI
ARM GAS  /tmp/cce4XLMQ.s 			page 16


 834              		.thumb
 835              		.thumb_func
 836              		.type	sdIncomingDataI, %function
 837              	sdIncomingDataI:
 838              	.LFB265:
 839              		.loc 7 199 0
 840              		.cfi_startproc
 841              		@ args = 0, pretend = 0, frame = 8
 842              		@ frame_needed = 0, uses_anonymous_args = 0
 843 0000 00B5     		push	{lr}
 844              		.cfi_def_cfa_offset 4
 845              		.cfi_offset 14, -4
 846 0002 83B0     		sub	sp, sp, #12
 847              		.cfi_def_cfa_offset 16
 848 0004 0190     		str	r0, [sp, #4]
 849 0006 0B46     		mov	r3, r1
 850 0008 8DF80330 		strb	r3, [sp, #3]
 851              		.loc 7 204 0
 852 000c 019B     		ldr	r3, [sp, #4]
 853 000e 0C33     		adds	r3, r3, #12
 854 0010 1846     		mov	r0, r3
 855 0012 FFF7FEFF 		bl	chIQIsEmptyI
 856 0016 0346     		mov	r3, r0
 857 0018 002B     		cmp	r3, #0
 858 001a 05D0     		beq	.L36
 859              		.loc 7 205 0
 860 001c 019B     		ldr	r3, [sp, #4]
 861 001e 0433     		adds	r3, r3, #4
 862 0020 1846     		mov	r0, r3
 863 0022 0421     		movs	r1, #4
 864 0024 FFF7FEFF 		bl	osalEventBroadcastFlagsI
 865              	.L36:
 866              		.loc 7 206 0
 867 0028 019B     		ldr	r3, [sp, #4]
 868 002a 03F10C02 		add	r2, r3, #12
 869 002e 9DF80330 		ldrb	r3, [sp, #3]	@ zero_extendqisi2
 870 0032 1046     		mov	r0, r2
 871 0034 1946     		mov	r1, r3
 872 0036 FFF7FEFF 		bl	chIQPutI
 873 003a 0346     		mov	r3, r0
 874 003c 002B     		cmp	r3, #0
 875 003e 05DA     		bge	.L35
 876              		.loc 7 207 0
 877 0040 019B     		ldr	r3, [sp, #4]
 878 0042 0433     		adds	r3, r3, #4
 879 0044 1846     		mov	r0, r3
 880 0046 8021     		movs	r1, #128
 881 0048 FFF7FEFF 		bl	osalEventBroadcastFlagsI
 882              	.L35:
 883              		.loc 7 208 0
 884 004c 03B0     		add	sp, sp, #12
 885              		.cfi_def_cfa_offset 4
 886              		@ sp needed
 887 004e 5DF804FB 		ldr	pc, [sp], #4
 888              		.cfi_endproc
 889              	.LFE265:
 890              		.size	sdIncomingDataI, .-sdIncomingDataI
ARM GAS  /tmp/cce4XLMQ.s 			page 17


 891 0052 00BFAFF3 		.section	.text.sdRequestDataI,"ax",%progbits
 891      0080AFF3 
 891      0080AFF3 
 891      0080
 892              		.align	2
 893              		.p2align 4,,15
 894              		.global	sdRequestDataI
 895              		.thumb
 896              		.thumb_func
 897              		.type	sdRequestDataI, %function
 898              	sdRequestDataI:
 899              	.LFB266:
 900              		.loc 7 225 0
 901              		.cfi_startproc
 902              		@ args = 0, pretend = 0, frame = 16
 903              		@ frame_needed = 0, uses_anonymous_args = 0
 904 0000 00B5     		push	{lr}
 905              		.cfi_def_cfa_offset 4
 906              		.cfi_offset 14, -4
 907 0002 85B0     		sub	sp, sp, #20
 908              		.cfi_def_cfa_offset 24
 909 0004 0190     		str	r0, [sp, #4]
 910              		.loc 7 231 0
 911 0006 019B     		ldr	r3, [sp, #4]
 912 0008 3033     		adds	r3, r3, #48
 913 000a 1846     		mov	r0, r3
 914 000c FFF7FEFF 		bl	chOQGetI
 915 0010 0390     		str	r0, [sp, #12]
 916              		.loc 7 232 0
 917 0012 039B     		ldr	r3, [sp, #12]
 918 0014 002B     		cmp	r3, #0
 919 0016 05DA     		bge	.L39
 920              		.loc 7 233 0
 921 0018 019B     		ldr	r3, [sp, #4]
 922 001a 0433     		adds	r3, r3, #4
 923 001c 1846     		mov	r0, r3
 924 001e 0821     		movs	r1, #8
 925 0020 FFF7FEFF 		bl	osalEventBroadcastFlagsI
 926              	.L39:
 927              		.loc 7 234 0
 928 0024 039B     		ldr	r3, [sp, #12]
 929              		.loc 7 235 0
 930 0026 1846     		mov	r0, r3
 931 0028 05B0     		add	sp, sp, #20
 932              		.cfi_def_cfa_offset 4
 933              		@ sp needed
 934 002a 5DF804FB 		ldr	pc, [sp], #4
 935              		.cfi_endproc
 936              	.LFE266:
 937              		.size	sdRequestDataI, .-sdRequestDataI
 938 002e 00BF     		.text
 939              	.Letext0:
 940              		.file 8 "/opt/gcc-arm-none-eabi/lib/gcc/arm-none-eabi/4.9.3/include/stddef.h"
 941              		.file 9 "/opt/gcc-arm-none-eabi/arm-none-eabi/include/machine/_default_types.h"
 942              		.file 10 "/opt/gcc-arm-none-eabi/arm-none-eabi/include/stdint.h"
 943              		.file 11 "/home/makkmarci/workspace/CLEAN/ChibiOS/os/rt/ports/ARMCMx/compilers/GCC/chtypes.h"
 944              		.file 12 "/home/makkmarci/workspace/CLEAN/ChibiOS/os/rt/include/chsystypes.h"
ARM GAS  /tmp/cce4XLMQ.s 			page 18


 945              		.file 13 "/home/makkmarci/workspace/CLEAN/ChibiOS/os/rt/include/chschd.h"
 946              		.file 14 "/home/makkmarci/workspace/CLEAN/ChibiOS/os/ext/CMSIS/ST/stm32f407xx.h"
 947              		.file 15 "/home/makkmarci/workspace/CLEAN/ChibiOS/os/rt/ports/ARMCMx/chcore.h"
 948              		.file 16 "/home/makkmarci/workspace/CLEAN/ChibiOS/os/rt/include/chtm.h"
 949              		.file 17 "/home/makkmarci/workspace/CLEAN/ChibiOS/os/rt/include/chsem.h"
 950              		.file 18 "/home/makkmarci/workspace/CLEAN/ChibiOS/os/rt/include/chmtx.h"
 951              		.file 19 "/home/makkmarci/workspace/CLEAN/ChibiOS/os/hal/include/serial.h"
 952              		.file 20 "/home/makkmarci/workspace/CLEAN/ChibiOS/os/hal/ports/STM32/LLD/USARTv1/serial_lld.h"
 953              		.file 21 "/home/makkmarci/workspace/CLEAN/ChibiOS/os/ext/CMSIS/include/core_cm4.h"