ARM GAS  /tmp/ccbN9Kog.s 			page 1


   1              		.syntax unified
   2              		.cpu cortex-m4
   3              		.eabi_attribute 27, 1
   4              		.eabi_attribute 28, 1
   5              		.fpu fpv4-sp-d16
   6              		.eabi_attribute 20, 1
   7              		.eabi_attribute 21, 1
   8              		.eabi_attribute 23, 3
   9              		.eabi_attribute 24, 1
  10              		.eabi_attribute 25, 1
  11              		.eabi_attribute 26, 1
  12              		.eabi_attribute 30, 6
  13              		.eabi_attribute 34, 1
  14              		.eabi_attribute 18, 4
  15              		.thumb
  16              		.file	"shell.c"
  17              		.text
  18              	.Ltext0:
  19              		.cfi_sections	.debug_frame
  20              		.section	.text.port_lock,"ax",%progbits
  21              		.align	2
  22              		.p2align 4,,15
  23              		.thumb
  24              		.thumb_func
  25              		.type	port_lock, %function
  26              	port_lock:
  27              	.LFB116:
  28              		.file 1 "/home/makkmarci/workspace/CLEAN/ChibiOS/os/rt/ports/ARMCMx/chcore_v7m.h"
  29              		.loc 1 444 0
  30              		.cfi_startproc
  31              		@ args = 0, pretend = 0, frame = 8
  32              		@ frame_needed = 0, uses_anonymous_args = 0
  33              		@ link register save eliminated.
  34 0000 82B0     		sub	sp, sp, #8
  35              		.cfi_def_cfa_offset 8
  36 0002 2023     		movs	r3, #32
  37 0004 0193     		str	r3, [sp, #4]
  38              	.LBB6:
  39              	.LBB7:
  40              		.file 2 "/home/makkmarci/workspace/CLEAN/ChibiOS/os/ext/CMSIS/include/core_cmFunc.h"
  41              		.loc 2 546 0
  42 0006 019B     		ldr	r3, [sp, #4]
  43              	@ 546 "/home/makkmarci/workspace/CLEAN/ChibiOS/os/ext/CMSIS/include/core_cmFunc.h" 1
  44 0008 83F31188 		MSR basepri, r3
  45              	@ 0 "" 2
  46              		.thumb
  47              	.LBE7:
  48              	.LBE6:
  49              		.loc 1 451 0
  50 000c 02B0     		add	sp, sp, #8
  51              		.cfi_def_cfa_offset 0
  52              		@ sp needed
  53 000e 7047     		bx	lr
  54              		.cfi_endproc
  55              	.LFE116:
  56              		.size	port_lock, .-port_lock
  57              		.section	.text.port_unlock,"ax",%progbits
ARM GAS  /tmp/ccbN9Kog.s 			page 2


  58              		.align	2
  59              		.p2align 4,,15
  60              		.thumb
  61              		.thumb_func
  62              		.type	port_unlock, %function
  63              	port_unlock:
  64              	.LFB117:
  65              		.loc 1 458 0
  66              		.cfi_startproc
  67              		@ args = 0, pretend = 0, frame = 8
  68              		@ frame_needed = 0, uses_anonymous_args = 0
  69              		@ link register save eliminated.
  70 0000 82B0     		sub	sp, sp, #8
  71              		.cfi_def_cfa_offset 8
  72 0002 0023     		movs	r3, #0
  73 0004 0193     		str	r3, [sp, #4]
  74              	.LBB8:
  75              	.LBB9:
  76              		.loc 2 546 0
  77 0006 019B     		ldr	r3, [sp, #4]
  78              	@ 546 "/home/makkmarci/workspace/CLEAN/ChibiOS/os/ext/CMSIS/include/core_cmFunc.h" 1
  79 0008 83F31188 		MSR basepri, r3
  80              	@ 0 "" 2
  81              		.thumb
  82              	.LBE9:
  83              	.LBE8:
  84              		.loc 1 465 0
  85 000c 02B0     		add	sp, sp, #8
  86              		.cfi_def_cfa_offset 0
  87              		@ sp needed
  88 000e 7047     		bx	lr
  89              		.cfi_endproc
  90              	.LFE117:
  91              		.size	port_unlock, .-port_unlock
  92              		.section	.text.chSysLock,"ax",%progbits
  93              		.align	2
  94              		.p2align 4,,15
  95              		.thumb
  96              		.thumb_func
  97              		.type	chSysLock, %function
  98              	chSysLock:
  99              	.LFB145:
 100              		.file 3 "/home/makkmarci/workspace/CLEAN/ChibiOS/os/rt/include/chsys.h"
 101              		.loc 3 346 0
 102              		.cfi_startproc
 103              		@ args = 0, pretend = 0, frame = 0
 104              		@ frame_needed = 0, uses_anonymous_args = 0
 105 0000 08B5     		push	{r3, lr}
 106              		.cfi_def_cfa_offset 8
 107              		.cfi_offset 3, -8
 108              		.cfi_offset 14, -4
 109              		.loc 3 348 0
 110 0002 FFF7FEFF 		bl	port_lock
 111              		.loc 3 351 0
 112 0006 08BD     		pop	{r3, pc}
 113              		.cfi_endproc
 114              	.LFE145:
ARM GAS  /tmp/ccbN9Kog.s 			page 3


 115              		.size	chSysLock, .-chSysLock
 116              		.section	.text.chSysUnlock,"ax",%progbits
 117              		.align	2
 118              		.p2align 4,,15
 119              		.thumb
 120              		.thumb_func
 121              		.type	chSysUnlock, %function
 122              	chSysUnlock:
 123              	.LFB146:
 124              		.loc 3 358 0
 125              		.cfi_startproc
 126              		@ args = 0, pretend = 0, frame = 0
 127              		@ frame_needed = 0, uses_anonymous_args = 0
 128 0000 08B5     		push	{r3, lr}
 129              		.cfi_def_cfa_offset 8
 130              		.cfi_offset 3, -8
 131              		.cfi_offset 14, -4
 132              		.loc 3 371 0
 133 0002 FFF7FEFF 		bl	port_unlock
 134              		.loc 3 372 0
 135 0006 08BD     		pop	{r3, pc}
 136              		.cfi_endproc
 137              	.LFE146:
 138              		.size	chSysUnlock, .-chSysUnlock
 139 0008 AFF30080 		.section	.text.chVTGetSystemTimeX,"ax",%progbits
 139      AFF30080 
 140              		.align	2
 141              		.p2align 4,,15
 142              		.thumb
 143              		.thumb_func
 144              		.type	chVTGetSystemTimeX, %function
 145              	chVTGetSystemTimeX:
 146              	.LFB153:
 147              		.file 4 "/home/makkmarci/workspace/CLEAN/ChibiOS/os/rt/include/chvt.h"
 148              		.loc 4 228 0
 149              		.cfi_startproc
 150              		@ args = 0, pretend = 0, frame = 0
 151              		@ frame_needed = 0, uses_anonymous_args = 0
 152              		@ link register save eliminated.
 153              		.loc 4 231 0
 154 0000 014B     		ldr	r3, .L7
 155 0002 9B6A     		ldr	r3, [r3, #40]
 156              		.loc 4 235 0
 157 0004 1846     		mov	r0, r3
 158 0006 7047     		bx	lr
 159              	.L8:
 160              		.align	2
 161              	.L7:
 162 0008 00000000 		.word	ch
 163              		.cfi_endproc
 164              	.LFE153:
 165              		.size	chVTGetSystemTimeX, .-chVTGetSystemTimeX
 166 000c AFF30080 		.section	.text.chVTGetSystemTime,"ax",%progbits
 167              		.align	2
 168              		.p2align 4,,15
 169              		.thumb
 170              		.thumb_func
ARM GAS  /tmp/ccbN9Kog.s 			page 4


 171              		.type	chVTGetSystemTime, %function
 172              	chVTGetSystemTime:
 173              	.LFB154:
 174              		.loc 4 247 0
 175              		.cfi_startproc
 176              		@ args = 0, pretend = 0, frame = 8
 177              		@ frame_needed = 0, uses_anonymous_args = 0
 178 0000 00B5     		push	{lr}
 179              		.cfi_def_cfa_offset 4
 180              		.cfi_offset 14, -4
 181 0002 83B0     		sub	sp, sp, #12
 182              		.cfi_def_cfa_offset 16
 183              		.loc 4 250 0
 184 0004 FFF7FEFF 		bl	chSysLock
 185              		.loc 4 251 0
 186 0008 FFF7FEFF 		bl	chVTGetSystemTimeX
 187 000c 0190     		str	r0, [sp, #4]
 188              		.loc 4 252 0
 189 000e FFF7FEFF 		bl	chSysUnlock
 190              		.loc 4 254 0
 191 0012 019B     		ldr	r3, [sp, #4]
 192              		.loc 4 255 0
 193 0014 1846     		mov	r0, r3
 194 0016 03B0     		add	sp, sp, #12
 195              		.cfi_def_cfa_offset 4
 196              		@ sp needed
 197 0018 5DF804FB 		ldr	pc, [sp], #4
 198              		.cfi_endproc
 199              	.LFE154:
 200              		.size	chVTGetSystemTime, .-chVTGetSystemTime
 201 001c AFF30080 		.section	.text.chEvtObjectInit,"ax",%progbits
 202              		.align	2
 203              		.p2align 4,,15
 204              		.thumb
 205              		.thumb_func
 206              		.type	chEvtObjectInit, %function
 207              	chEvtObjectInit:
 208              	.LFB191:
 209              		.file 5 "/home/makkmarci/workspace/CLEAN/ChibiOS/os/rt/include/chevents.h"
 210              		.loc 5 170 0
 211              		.cfi_startproc
 212              		@ args = 0, pretend = 0, frame = 8
 213              		@ frame_needed = 0, uses_anonymous_args = 0
 214              		@ link register save eliminated.
 215 0000 82B0     		sub	sp, sp, #8
 216              		.cfi_def_cfa_offset 8
 217 0002 0190     		str	r0, [sp, #4]
 218              		.loc 5 172 0
 219 0004 019B     		ldr	r3, [sp, #4]
 220 0006 019A     		ldr	r2, [sp, #4]
 221 0008 1A60     		str	r2, [r3]
 222              		.loc 5 173 0
 223 000a 02B0     		add	sp, sp, #8
 224              		.cfi_def_cfa_offset 0
 225              		@ sp needed
 226 000c 7047     		bx	lr
 227              		.cfi_endproc
ARM GAS  /tmp/ccbN9Kog.s 			page 5


 228              	.LFE191:
 229              		.size	chEvtObjectInit, .-chEvtObjectInit
 230 000e 00BF     		.section	.text.chEvtBroadcastI,"ax",%progbits
 231              		.align	2
 232              		.p2align 4,,15
 233              		.thumb
 234              		.thumb_func
 235              		.type	chEvtBroadcastI, %function
 236              	chEvtBroadcastI:
 237              	.LFB196:
 238              		.loc 5 254 0
 239              		.cfi_startproc
 240              		@ args = 0, pretend = 0, frame = 8
 241              		@ frame_needed = 0, uses_anonymous_args = 0
 242 0000 00B5     		push	{lr}
 243              		.cfi_def_cfa_offset 4
 244              		.cfi_offset 14, -4
 245 0002 83B0     		sub	sp, sp, #12
 246              		.cfi_def_cfa_offset 16
 247 0004 0190     		str	r0, [sp, #4]
 248              		.loc 5 256 0
 249 0006 0198     		ldr	r0, [sp, #4]
 250 0008 0021     		movs	r1, #0
 251 000a FFF7FEFF 		bl	chEvtBroadcastFlagsI
 252              		.loc 5 257 0
 253 000e 03B0     		add	sp, sp, #12
 254              		.cfi_def_cfa_offset 4
 255              		@ sp needed
 256 0010 5DF804FB 		ldr	pc, [sp], #4
 257              		.cfi_endproc
 258              	.LFE196:
 259              		.size	chEvtBroadcastI, .-chEvtBroadcastI
 260 0014 AFF30080 		.section	.text.chprintf,"ax",%progbits
 260      AFF30080 
 260      AFF30080 
 261              		.align	2
 262              		.p2align 4,,15
 263              		.thumb
 264              		.thumb_func
 265              		.type	chprintf, %function
 266              	chprintf:
 267              	.LFB253:
 268              		.file 6 "/home/makkmarci/workspace/CLEAN/ChibiOS/os/hal/lib/streams/chprintf.h"
 269              		.loc 6 69 0
 270              		.cfi_startproc
 271              		@ args = 4, pretend = 12, frame = 16
 272              		@ frame_needed = 0, uses_anonymous_args = 1
 273 0000 0EB4     		push	{r1, r2, r3}
 274              		.cfi_def_cfa_offset 12
 275              		.cfi_offset 1, -12
 276              		.cfi_offset 2, -8
 277              		.cfi_offset 3, -4
 278 0002 00B5     		push	{lr}
 279              		.cfi_def_cfa_offset 16
 280              		.cfi_offset 14, -16
 281 0004 84B0     		sub	sp, sp, #16
 282              		.cfi_def_cfa_offset 32
ARM GAS  /tmp/ccbN9Kog.s 			page 6


 283 0006 0190     		str	r0, [sp, #4]
 284              		.loc 6 73 0
 285 0008 06AB     		add	r3, sp, #24
 286 000a 0293     		str	r3, [sp, #8]
 287              		.loc 6 74 0
 288 000c 0198     		ldr	r0, [sp, #4]
 289 000e 0599     		ldr	r1, [sp, #20]
 290 0010 029A     		ldr	r2, [sp, #8]
 291 0012 FFF7FEFF 		bl	chvprintf
 292 0016 0390     		str	r0, [sp, #12]
 293              		.loc 6 77 0
 294 0018 039B     		ldr	r3, [sp, #12]
 295              		.loc 6 78 0
 296 001a 1846     		mov	r0, r3
 297 001c 04B0     		add	sp, sp, #16
 298              		.cfi_def_cfa_offset 16
 299              		@ sp needed
 300 001e 5DF804EB 		ldr	lr, [sp], #4
 301              		.cfi_restore 14
 302              		.cfi_def_cfa_offset 12
 303 0022 03B0     		add	sp, sp, #12
 304              		.cfi_restore 3
 305              		.cfi_restore 2
 306              		.cfi_restore 1
 307              		.cfi_def_cfa_offset 0
 308 0024 7047     		bx	lr
 309              		.cfi_endproc
 310              	.LFE253:
 311              		.size	chprintf, .-chprintf
 312              		.global	shell_terminated
 313 0026 00BFAFF3 		.section	.bss.shell_terminated,"aw",%nobits
 313      0080AFF3 
 313      0080
 314              		.align	2
 315              		.type	shell_terminated, %object
 316              		.size	shell_terminated, 4
 317              	shell_terminated:
 318 0000 00000000 		.space	4
 319              		.section	.text._strtok,"ax",%progbits
 320              		.align	2
 321              		.p2align 4,,15
 322              		.thumb
 323              		.thumb_func
 324              		.type	_strtok, %function
 325              	_strtok:
 326              	.LFB254:
 327              		.file 7 "/home/makkmarci/workspace/CLEAN/ChibiOS/os/various/shell.c"
 328              		.loc 7 37 0
 329              		.cfi_startproc
 330              		@ args = 0, pretend = 0, frame = 24
 331              		@ frame_needed = 0, uses_anonymous_args = 0
 332 0000 00B5     		push	{lr}
 333              		.cfi_def_cfa_offset 4
 334              		.cfi_offset 14, -4
 335 0002 87B0     		sub	sp, sp, #28
 336              		.cfi_def_cfa_offset 32
 337 0004 0390     		str	r0, [sp, #12]
ARM GAS  /tmp/ccbN9Kog.s 			page 7


 338 0006 0291     		str	r1, [sp, #8]
 339 0008 0192     		str	r2, [sp, #4]
 340              		.loc 7 39 0
 341 000a 039B     		ldr	r3, [sp, #12]
 342 000c 002B     		cmp	r3, #0
 343 000e 02D0     		beq	.L16
 344              		.loc 7 40 0
 345 0010 019B     		ldr	r3, [sp, #4]
 346 0012 039A     		ldr	r2, [sp, #12]
 347 0014 1A60     		str	r2, [r3]
 348              	.L16:
 349              		.loc 7 41 0
 350 0016 019B     		ldr	r3, [sp, #4]
 351 0018 1B68     		ldr	r3, [r3]
 352 001a 0593     		str	r3, [sp, #20]
 353              		.loc 7 43 0
 354 001c 059B     		ldr	r3, [sp, #20]
 355 001e 002B     		cmp	r3, #0
 356 0020 01D1     		bne	.L17
 357              		.loc 7 44 0
 358 0022 0023     		movs	r3, #0
 359 0024 21E0     		b	.L18
 360              	.L17:
 361              		.loc 7 46 0
 362 0026 0598     		ldr	r0, [sp, #20]
 363 0028 0299     		ldr	r1, [sp, #8]
 364 002a FFF7FEFF 		bl	strspn
 365 002e 0246     		mov	r2, r0
 366 0030 059B     		ldr	r3, [sp, #20]
 367 0032 1344     		add	r3, r3, r2
 368 0034 0593     		str	r3, [sp, #20]
 369              		.loc 7 47 0
 370 0036 0598     		ldr	r0, [sp, #20]
 371 0038 0299     		ldr	r1, [sp, #8]
 372 003a FFF7FEFF 		bl	strpbrk
 373 003e 0246     		mov	r2, r0
 374 0040 019B     		ldr	r3, [sp, #4]
 375 0042 1A60     		str	r2, [r3]
 376              		.loc 7 48 0
 377 0044 019B     		ldr	r3, [sp, #4]
 378 0046 1B68     		ldr	r3, [r3]
 379 0048 002B     		cmp	r3, #0
 380 004a 06D0     		beq	.L19
 381              		.loc 7 49 0
 382 004c 019B     		ldr	r3, [sp, #4]
 383 004e 1B68     		ldr	r3, [r3]
 384 0050 591C     		adds	r1, r3, #1
 385 0052 019A     		ldr	r2, [sp, #4]
 386 0054 1160     		str	r1, [r2]
 387 0056 0022     		movs	r2, #0
 388 0058 1A70     		strb	r2, [r3]
 389              	.L19:
 390              		.loc 7 51 0
 391 005a 059B     		ldr	r3, [sp, #20]
 392 005c 1B78     		ldrb	r3, [r3]	@ zero_extendqisi2
 393 005e 002B     		cmp	r3, #0
 394 0060 01D0     		beq	.L20
ARM GAS  /tmp/ccbN9Kog.s 			page 8


 395              		.loc 7 51 0 is_stmt 0 discriminator 1
 396 0062 059B     		ldr	r3, [sp, #20]
 397 0064 00E0     		b	.L22
 398              	.L20:
 399              		.loc 7 51 0 discriminator 2
 400 0066 0023     		movs	r3, #0
 401              	.L22:
 402              		.loc 7 51 0
 403 0068 00BF     		nop
 404              	.L18:
 405              		.loc 7 52 0 is_stmt 1
 406 006a 1846     		mov	r0, r3
 407 006c 07B0     		add	sp, sp, #28
 408              		.cfi_def_cfa_offset 4
 409              		@ sp needed
 410 006e 5DF804FB 		ldr	pc, [sp], #4
 411              		.cfi_endproc
 412              	.LFE254:
 413              		.size	_strtok, .-_strtok
 414 0072 00BFAFF3 		.section	.rodata
 414      0080AFF3 
 414      0080AFF3 
 414      0080
 415              		.align	2
 416              	.LC0:
 417 0000 55736167 		.ascii	"Usage: %s\015\012\000"
 417      653A2025 
 417      730D0A00 
 418              		.section	.text.usage,"ax",%progbits
 419              		.align	2
 420              		.p2align 4,,15
 421              		.thumb
 422              		.thumb_func
 423              		.type	usage, %function
 424              	usage:
 425              	.LFB255:
 426              		.loc 7 54 0
 427              		.cfi_startproc
 428              		@ args = 0, pretend = 0, frame = 8
 429              		@ frame_needed = 0, uses_anonymous_args = 0
 430 0000 00B5     		push	{lr}
 431              		.cfi_def_cfa_offset 4
 432              		.cfi_offset 14, -4
 433 0002 83B0     		sub	sp, sp, #12
 434              		.cfi_def_cfa_offset 16
 435 0004 0190     		str	r0, [sp, #4]
 436 0006 0091     		str	r1, [sp]
 437              		.loc 7 56 0
 438 0008 0198     		ldr	r0, [sp, #4]
 439 000a 0349     		ldr	r1, .L24
 440 000c 009A     		ldr	r2, [sp]
 441 000e FFF7FEFF 		bl	chprintf
 442              		.loc 7 57 0
 443 0012 03B0     		add	sp, sp, #12
 444              		.cfi_def_cfa_offset 4
 445              		@ sp needed
 446 0014 5DF804FB 		ldr	pc, [sp], #4
ARM GAS  /tmp/ccbN9Kog.s 			page 9


 447              	.L25:
 448              		.align	2
 449              	.L24:
 450 0018 00000000 		.word	.LC0
 451              		.cfi_endproc
 452              	.LFE255:
 453              		.size	usage, .-usage
 454 001c AFF30080 		.section	.rodata
 455              		.align	2
 456              	.LC1:
 457 000c 25732000 		.ascii	"%s \000"
 458              		.section	.text.list_commands,"ax",%progbits
 459              		.align	2
 460              		.p2align 4,,15
 461              		.thumb
 462              		.thumb_func
 463              		.type	list_commands, %function
 464              	list_commands:
 465              	.LFB256:
 466              		.loc 7 59 0
 467              		.cfi_startproc
 468              		@ args = 0, pretend = 0, frame = 8
 469              		@ frame_needed = 0, uses_anonymous_args = 0
 470 0000 00B5     		push	{lr}
 471              		.cfi_def_cfa_offset 4
 472              		.cfi_offset 14, -4
 473 0002 83B0     		sub	sp, sp, #12
 474              		.cfi_def_cfa_offset 16
 475 0004 0190     		str	r0, [sp, #4]
 476 0006 0091     		str	r1, [sp]
 477              		.loc 7 61 0
 478 0008 09E0     		b	.L27
 479              	.L28:
 480              		.loc 7 62 0
 481 000a 009B     		ldr	r3, [sp]
 482 000c 1B68     		ldr	r3, [r3]
 483 000e 0198     		ldr	r0, [sp, #4]
 484 0010 0649     		ldr	r1, .L29
 485 0012 1A46     		mov	r2, r3
 486 0014 FFF7FEFF 		bl	chprintf
 487              		.loc 7 63 0
 488 0018 009B     		ldr	r3, [sp]
 489 001a 0833     		adds	r3, r3, #8
 490 001c 0093     		str	r3, [sp]
 491              	.L27:
 492              		.loc 7 61 0
 493 001e 009B     		ldr	r3, [sp]
 494 0020 1B68     		ldr	r3, [r3]
 495 0022 002B     		cmp	r3, #0
 496 0024 F1D1     		bne	.L28
 497              		.loc 7 65 0
 498 0026 03B0     		add	sp, sp, #12
 499              		.cfi_def_cfa_offset 4
 500              		@ sp needed
 501 0028 5DF804FB 		ldr	pc, [sp], #4
 502              	.L30:
 503              		.align	2
ARM GAS  /tmp/ccbN9Kog.s 			page 10


 504              	.L29:
 505 002c 0C000000 		.word	.LC1
 506              		.cfi_endproc
 507              	.LFE256:
 508              		.size	list_commands, .-list_commands
 509              		.section	.rodata
 510              		.align	2
 511              	.LC2:
 512 0010 696E666F 		.ascii	"info\000"
 512      00
 513 0015 000000   		.align	2
 514              	.LC3:
 515 0018 4B65726E 		.ascii	"Kernel:       %s\015\012\000"
 515      656C3A20 
 515      20202020 
 515      20202573 
 515      0D0A00
 516 002b 00       		.align	2
 517              	.LC4:
 518 002c 332E302E 		.ascii	"3.0.0p6\000"
 518      30703600 
 519              		.align	2
 520              	.LC5:
 521 0034 436F6D70 		.ascii	"Compiler:     %s\015\012\000"
 521      696C6572 
 521      3A202020 
 521      20202573 
 521      0D0A00
 522 0047 00       		.align	2
 523              	.LC6:
 524 0048 47434320 		.ascii	"GCC 4.9.3 20150303 (release) [ARM/embedded-4_9-bran"
 524      342E392E 
 524      33203230 
 524      31353033 
 524      30332028 
 525 007b 63682072 		.ascii	"ch revision 221220]\000"
 525      65766973 
 525      696F6E20 
 525      32323132 
 525      32305D00 
 526 008f 00       		.align	2
 527              	.LC7:
 528 0090 41726368 		.ascii	"Architecture: %s\015\012\000"
 528      69746563 
 528      74757265 
 528      3A202573 
 528      0D0A00
 529 00a3 00       		.align	2
 530              	.LC8:
 531 00a4 41524D76 		.ascii	"ARMv7-ME\000"
 531      372D4D45 
 531      00
 532 00ad 000000   		.align	2
 533              	.LC9:
 534 00b0 436F7265 		.ascii	"Core Variant: %s\015\012\000"
 534      20566172 
 534      69616E74 
ARM GAS  /tmp/ccbN9Kog.s 			page 11


 534      3A202573 
 534      0D0A00
 535 00c3 00       		.align	2
 536              	.LC10:
 537 00c4 436F7274 		.ascii	"Cortex-M4F\000"
 537      65782D4D 
 537      344600
 538 00cf 00       		.align	2
 539              	.LC11:
 540 00d0 506F7274 		.ascii	"Port Info:    %s\015\012\000"
 540      20496E66 
 540      6F3A2020 
 540      20202573 
 540      0D0A00
 541 00e3 00       		.align	2
 542              	.LC12:
 543 00e4 41647661 		.ascii	"Advanced kernel mode\000"
 543      6E636564 
 543      206B6572 
 543      6E656C20 
 543      6D6F6465 
 544 00f9 000000   		.align	2
 545              	.LC13:
 546 00fc 506C6174 		.ascii	"Platform:     %s\015\012\000"
 546      666F726D 
 546      3A202020 
 546      20202573 
 546      0D0A00
 547 010f 00       		.align	2
 548              	.LC14:
 549 0110 53544D33 		.ascii	"STM32F407 High Performance with DSP and FPU\000"
 549      32463430 
 549      37204869 
 549      67682050 
 549      6572666F 
 550              		.align	2
 551              	.LC15:
 552 013c 426F6172 		.ascii	"Board:        %s\015\012\000"
 552      643A2020 
 552      20202020 
 552      20202573 
 552      0D0A00
 553 014f 00       		.align	2
 554              	.LC16:
 555 0150 53544D69 		.ascii	"STMicroelectronics STM32F4-Discovery\000"
 555      63726F65 
 555      6C656374 
 555      726F6E69 
 555      63732053 
 556 0175 000000   		.align	2
 557              	.LC17:
 558 0178 4275696C 		.ascii	"Build time:   %s%s%s\015\012\000"
 558      64207469 
 558      6D653A20 
 558      20202573 
 558      25732573 
 559 018f 00       		.align	2
ARM GAS  /tmp/ccbN9Kog.s 			page 12


 560              	.LC18:
 561 0190 4A756E20 		.ascii	"Jun  8 2015\000"
 561      20382032 
 561      30313500 
 562              		.align	2
 563              	.LC19:
 564 019c 202D2000 		.ascii	" - \000"
 565              		.align	2
 566              	.LC20:
 567 01a0 32313A30 		.ascii	"21:09:05\000"
 567      393A3035 
 567      00
 568              		.section	.text.cmd_info,"ax",%progbits
 569              		.align	2
 570              		.p2align 4,,15
 571              		.thumb
 572              		.thumb_func
 573              		.type	cmd_info, %function
 574              	cmd_info:
 575              	.LFB257:
 576              		.loc 7 67 0
 577              		.cfi_startproc
 578              		@ args = 0, pretend = 0, frame = 16
 579              		@ frame_needed = 0, uses_anonymous_args = 0
 580 0000 00B5     		push	{lr}
 581              		.cfi_def_cfa_offset 4
 582              		.cfi_offset 14, -4
 583 0002 87B0     		sub	sp, sp, #28
 584              		.cfi_def_cfa_offset 32
 585 0004 0590     		str	r0, [sp, #20]
 586 0006 0491     		str	r1, [sp, #16]
 587 0008 0392     		str	r2, [sp, #12]
 588              		.loc 7 70 0
 589 000a 049B     		ldr	r3, [sp, #16]
 590 000c 002B     		cmp	r3, #0
 591 000e 04DD     		ble	.L32
 592              		.loc 7 71 0
 593 0010 0598     		ldr	r0, [sp, #20]
 594 0012 1949     		ldr	r1, .L34
 595 0014 FFF7FEFF 		bl	usage
 596              		.loc 7 72 0
 597 0018 2AE0     		b	.L31
 598              	.L32:
 599              		.loc 7 75 0
 600 001a 0598     		ldr	r0, [sp, #20]
 601 001c 1749     		ldr	r1, .L34+4
 602 001e 184A     		ldr	r2, .L34+8
 603 0020 FFF7FEFF 		bl	chprintf
 604              		.loc 7 77 0
 605 0024 0598     		ldr	r0, [sp, #20]
 606 0026 1749     		ldr	r1, .L34+12
 607 0028 174A     		ldr	r2, .L34+16
 608 002a FFF7FEFF 		bl	chprintf
 609              		.loc 7 79 0
 610 002e 0598     		ldr	r0, [sp, #20]
 611 0030 1649     		ldr	r1, .L34+20
 612 0032 174A     		ldr	r2, .L34+24
ARM GAS  /tmp/ccbN9Kog.s 			page 13


 613 0034 FFF7FEFF 		bl	chprintf
 614              		.loc 7 81 0
 615 0038 0598     		ldr	r0, [sp, #20]
 616 003a 1649     		ldr	r1, .L34+28
 617 003c 164A     		ldr	r2, .L34+32
 618 003e FFF7FEFF 		bl	chprintf
 619              		.loc 7 84 0
 620 0042 0598     		ldr	r0, [sp, #20]
 621 0044 1549     		ldr	r1, .L34+36
 622 0046 164A     		ldr	r2, .L34+40
 623 0048 FFF7FEFF 		bl	chprintf
 624              		.loc 7 87 0
 625 004c 0598     		ldr	r0, [sp, #20]
 626 004e 1549     		ldr	r1, .L34+44
 627 0050 154A     		ldr	r2, .L34+48
 628 0052 FFF7FEFF 		bl	chprintf
 629              		.loc 7 90 0
 630 0056 0598     		ldr	r0, [sp, #20]
 631 0058 1449     		ldr	r1, .L34+52
 632 005a 154A     		ldr	r2, .L34+56
 633 005c FFF7FEFF 		bl	chprintf
 634              		.loc 7 94 0
 635 0060 144B     		ldr	r3, .L34+60
 636 0062 0093     		str	r3, [sp]
 637 0064 0598     		ldr	r0, [sp, #20]
 638 0066 1449     		ldr	r1, .L34+64
 639 0068 144A     		ldr	r2, .L34+68
 640 006a 154B     		ldr	r3, .L34+72
 641 006c FFF7FEFF 		bl	chprintf
 642              	.L31:
 643              		.loc 7 97 0
 644 0070 07B0     		add	sp, sp, #28
 645              		.cfi_def_cfa_offset 4
 646              		@ sp needed
 647 0072 5DF804FB 		ldr	pc, [sp], #4
 648              	.L35:
 649 0076 00BF     		.align	2
 650              	.L34:
 651 0078 10000000 		.word	.LC2
 652 007c 18000000 		.word	.LC3
 653 0080 2C000000 		.word	.LC4
 654 0084 34000000 		.word	.LC5
 655 0088 48000000 		.word	.LC6
 656 008c 90000000 		.word	.LC7
 657 0090 A4000000 		.word	.LC8
 658 0094 B0000000 		.word	.LC9
 659 0098 C4000000 		.word	.LC10
 660 009c D0000000 		.word	.LC11
 661 00a0 E4000000 		.word	.LC12
 662 00a4 FC000000 		.word	.LC13
 663 00a8 10010000 		.word	.LC14
 664 00ac 3C010000 		.word	.LC15
 665 00b0 50010000 		.word	.LC16
 666 00b4 A0010000 		.word	.LC20
 667 00b8 78010000 		.word	.LC17
 668 00bc 90010000 		.word	.LC18
 669 00c0 9C010000 		.word	.LC19
ARM GAS  /tmp/ccbN9Kog.s 			page 14


 670              		.cfi_endproc
 671              	.LFE257:
 672              		.size	cmd_info, .-cmd_info
 673 00c4 AFF30080 		.section	.rodata
 673      AFF30080 
 673      AFF30080 
 674 01a9 000000   		.align	2
 675              	.LC21:
 676 01ac 73797374 		.ascii	"systime\000"
 676      696D6500 
 677              		.align	2
 678              	.LC22:
 679 01b4 256C750D 		.ascii	"%lu\015\012\000"
 679      0A00
 680              		.section	.text.cmd_systime,"ax",%progbits
 681              		.align	2
 682              		.p2align 4,,15
 683              		.thumb
 684              		.thumb_func
 685              		.type	cmd_systime, %function
 686              	cmd_systime:
 687              	.LFB258:
 688              		.loc 7 99 0
 689              		.cfi_startproc
 690              		@ args = 0, pretend = 0, frame = 16
 691              		@ frame_needed = 0, uses_anonymous_args = 0
 692 0000 00B5     		push	{lr}
 693              		.cfi_def_cfa_offset 4
 694              		.cfi_offset 14, -4
 695 0002 85B0     		sub	sp, sp, #20
 696              		.cfi_def_cfa_offset 24
 697 0004 0390     		str	r0, [sp, #12]
 698 0006 0291     		str	r1, [sp, #8]
 699 0008 0192     		str	r2, [sp, #4]
 700              		.loc 7 102 0
 701 000a 029B     		ldr	r3, [sp, #8]
 702 000c 002B     		cmp	r3, #0
 703 000e 04DD     		ble	.L37
 704              		.loc 7 103 0
 705 0010 0398     		ldr	r0, [sp, #12]
 706 0012 0749     		ldr	r1, .L39
 707 0014 FFF7FEFF 		bl	usage
 708              		.loc 7 104 0
 709 0018 07E0     		b	.L36
 710              	.L37:
 711              		.loc 7 106 0
 712 001a FFF7FEFF 		bl	chVTGetSystemTime
 713 001e 0346     		mov	r3, r0
 714 0020 0398     		ldr	r0, [sp, #12]
 715 0022 0449     		ldr	r1, .L39+4
 716 0024 1A46     		mov	r2, r3
 717 0026 FFF7FEFF 		bl	chprintf
 718              	.L36:
 719              		.loc 7 107 0
 720 002a 05B0     		add	sp, sp, #20
 721              		.cfi_def_cfa_offset 4
 722              		@ sp needed
ARM GAS  /tmp/ccbN9Kog.s 			page 15


 723 002c 5DF804FB 		ldr	pc, [sp], #4
 724              	.L40:
 725              		.align	2
 726              	.L39:
 727 0030 AC010000 		.word	.LC21
 728 0034 B4010000 		.word	.LC22
 729              		.cfi_endproc
 730              	.LFE258:
 731              		.size	cmd_systime, .-cmd_systime
 732 0038 AFF30080 		.section	.data.local_commands,"aw",%progbits
 732      AFF30080 
 733              		.align	2
 734              		.type	local_commands, %object
 735              		.size	local_commands, 24
 736              	local_commands:
 737 0000 10000000 		.word	.LC2
 738 0004 00000000 		.word	cmd_info
 739 0008 AC010000 		.word	.LC21
 740 000c 00000000 		.word	cmd_systime
 741 0010 00000000 		.word	0
 742 0014 00000000 		.word	0
 743              		.section	.text.cmdexec,"ax",%progbits
 744              		.align	2
 745              		.p2align 4,,15
 746              		.thumb
 747              		.thumb_func
 748              		.type	cmdexec, %function
 749              	cmdexec:
 750              	.LFB259:
 751              		.loc 7 119 0
 752              		.cfi_startproc
 753              		@ args = 4, pretend = 0, frame = 16
 754              		@ frame_needed = 0, uses_anonymous_args = 0
 755 0000 00B5     		push	{lr}
 756              		.cfi_def_cfa_offset 4
 757              		.cfi_offset 14, -4
 758 0002 85B0     		sub	sp, sp, #20
 759              		.cfi_def_cfa_offset 24
 760 0004 0390     		str	r0, [sp, #12]
 761 0006 0291     		str	r1, [sp, #8]
 762 0008 0192     		str	r2, [sp, #4]
 763 000a 0093     		str	r3, [sp]
 764              		.loc 7 121 0
 765 000c 13E0     		b	.L42
 766              	.L45:
 767              		.loc 7 122 0
 768 000e 039B     		ldr	r3, [sp, #12]
 769 0010 1B68     		ldr	r3, [r3]
 770 0012 1846     		mov	r0, r3
 771 0014 0199     		ldr	r1, [sp, #4]
 772 0016 FFF7FEFF 		bl	strcasecmp
 773 001a 0346     		mov	r3, r0
 774 001c 002B     		cmp	r3, #0
 775 001e 07D1     		bne	.L43
 776              		.loc 7 123 0
 777 0020 039B     		ldr	r3, [sp, #12]
 778 0022 5B68     		ldr	r3, [r3, #4]
ARM GAS  /tmp/ccbN9Kog.s 			page 16


 779 0024 0298     		ldr	r0, [sp, #8]
 780 0026 0099     		ldr	r1, [sp]
 781 0028 069A     		ldr	r2, [sp, #24]
 782 002a 9847     		blx	r3
 783              		.loc 7 124 0
 784 002c 0023     		movs	r3, #0
 785 002e 07E0     		b	.L44
 786              	.L43:
 787              		.loc 7 126 0
 788 0030 039B     		ldr	r3, [sp, #12]
 789 0032 0833     		adds	r3, r3, #8
 790 0034 0393     		str	r3, [sp, #12]
 791              	.L42:
 792              		.loc 7 121 0
 793 0036 039B     		ldr	r3, [sp, #12]
 794 0038 1B68     		ldr	r3, [r3]
 795 003a 002B     		cmp	r3, #0
 796 003c E7D1     		bne	.L45
 797              		.loc 7 128 0
 798 003e 0123     		movs	r3, #1
 799              	.L44:
 800              		.loc 7 129 0
 801 0040 1846     		mov	r0, r3
 802 0042 05B0     		add	sp, sp, #20
 803              		.cfi_def_cfa_offset 4
 804              		@ sp needed
 805 0044 5DF804FB 		ldr	pc, [sp], #4
 806              		.cfi_endproc
 807              	.LFE259:
 808              		.size	cmdexec, .-cmdexec
 809 0048 AFF30080 		.section	.rodata
 809      AFF30080 
 810 01ba 0000     		.align	2
 811              	.LC23:
 812 01bc 7368656C 		.ascii	"shell\000"
 812      6C00
 813 01c2 0000     		.align	2
 814              	.LC24:
 815 01c4 0D0A4368 		.ascii	"\015\012ChibiOS/RT Shell\015\012\000"
 815      6962694F 
 815      532F5254 
 815      20536865 
 815      6C6C0D0A 
 816 01d9 000000   		.align	2
 817              	.LC25:
 818 01dc 63683E20 		.ascii	"ch> \000"
 818      00
 819 01e1 000000   		.align	2
 820              	.LC26:
 821 01e4 0D0A6C6F 		.ascii	"\015\012logout\000"
 821      676F7574 
 821      00
 822 01ed 000000   		.align	2
 823              	.LC27:
 824 01f0 200900   		.ascii	" \011\000"
 825 01f3 00       		.align	2
 826              	.LC28:
ARM GAS  /tmp/ccbN9Kog.s 			page 17


 827 01f4 746F6F20 		.ascii	"too many arguments\015\012\000"
 827      6D616E79 
 827      20617267 
 827      756D656E 
 827      74730D0A 
 828 0209 000000   		.align	2
 829              	.LC29:
 830 020c 65786974 		.ascii	"exit\000"
 830      00
 831 0211 000000   		.align	2
 832              	.LC30:
 833 0214 68656C70 		.ascii	"help\000"
 833      00
 834 0219 000000   		.align	2
 835              	.LC31:
 836 021c 436F6D6D 		.ascii	"Commands: help exit \000"
 836      616E6473 
 836      3A206865 
 836      6C702065 
 836      78697420 
 837 0231 000000   		.align	2
 838              	.LC32:
 839 0234 0D0A00   		.ascii	"\015\012\000"
 840 0237 00       		.align	2
 841              	.LC33:
 842 0238 257300   		.ascii	"%s\000"
 843 023b 00       		.align	2
 844              	.LC34:
 845 023c 203F0D0A 		.ascii	" ?\015\012\000"
 845      00
 846              		.section	.text.shell_thread,"ax",%progbits
 847              		.align	2
 848              		.p2align 4,,15
 849              		.thumb
 850              		.thumb_func
 851              		.type	shell_thread, %function
 852              	shell_thread:
 853              	.LFB260:
 854              		.loc 7 136 0
 855              		.cfi_startproc
 856              		@ args = 0, pretend = 0, frame = 120
 857              		@ frame_needed = 0, uses_anonymous_args = 0
 858 0000 00B5     		push	{lr}
 859              		.cfi_def_cfa_offset 4
 860              		.cfi_offset 14, -4
 861 0002 A1B0     		sub	sp, sp, #132
 862              		.cfi_def_cfa_offset 136
 863 0004 0390     		str	r0, [sp, #12]
 864              		.loc 7 138 0
 865 0006 039B     		ldr	r3, [sp, #12]
 866 0008 1B68     		ldr	r3, [r3]
 867 000a 1D93     		str	r3, [sp, #116]
 868              		.loc 7 139 0
 869 000c 039B     		ldr	r3, [sp, #12]
 870 000e 5B68     		ldr	r3, [r3, #4]
 871 0010 1C93     		str	r3, [sp, #112]
 872              		.loc 7 143 0
ARM GAS  /tmp/ccbN9Kog.s 			page 18


 873 0012 554B     		ldr	r3, .L61
 874 0014 9B69     		ldr	r3, [r3, #24]
 875 0016 554A     		ldr	r2, .L61+4
 876 0018 9A61     		str	r2, [r3, #24]
 877              		.loc 7 144 0
 878 001a 1D98     		ldr	r0, [sp, #116]
 879 001c 5449     		ldr	r1, .L61+8
 880 001e FFF7FEFF 		bl	chprintf
 881              	.L60:
 882              		.loc 7 146 0
 883 0022 1D98     		ldr	r0, [sp, #116]
 884 0024 5349     		ldr	r1, .L61+12
 885 0026 FFF7FEFF 		bl	chprintf
 886              		.loc 7 147 0
 887 002a 0AAB     		add	r3, sp, #40
 888 002c 1D98     		ldr	r0, [sp, #116]
 889 002e 1946     		mov	r1, r3
 890 0030 4022     		movs	r2, #64
 891 0032 FFF7FEFF 		bl	shellGetLine
 892 0036 0346     		mov	r3, r0
 893 0038 002B     		cmp	r3, #0
 894 003a 04D0     		beq	.L47
 895              		.loc 7 148 0
 896 003c 1D98     		ldr	r0, [sp, #116]
 897 003e 4E49     		ldr	r1, .L61+16
 898 0040 FFF7FEFF 		bl	chprintf
 899              		.loc 7 149 0
 900 0044 89E0     		b	.L48
 901              	.L47:
 902              		.loc 7 151 0
 903 0046 0AAA     		add	r2, sp, #40
 904 0048 1AAB     		add	r3, sp, #104
 905 004a 1046     		mov	r0, r2
 906 004c 4B49     		ldr	r1, .L61+20
 907 004e 1A46     		mov	r2, r3
 908 0050 FFF7FEFF 		bl	_strtok
 909 0054 1B90     		str	r0, [sp, #108]
 910              		.loc 7 152 0
 911 0056 1B9B     		ldr	r3, [sp, #108]
 912 0058 1E93     		str	r3, [sp, #120]
 913              		.loc 7 153 0
 914 005a 0023     		movs	r3, #0
 915 005c 1F93     		str	r3, [sp, #124]
 916              		.loc 7 154 0
 917 005e 12E0     		b	.L49
 918              	.L52:
 919              		.loc 7 155 0
 920 0060 1F9B     		ldr	r3, [sp, #124]
 921 0062 032B     		cmp	r3, #3
 922 0064 06DD     		ble	.L50
 923              		.loc 7 156 0
 924 0066 1D98     		ldr	r0, [sp, #116]
 925 0068 4549     		ldr	r1, .L61+24
 926 006a FFF7FEFF 		bl	chprintf
 927              		.loc 7 157 0
 928 006e 0023     		movs	r3, #0
 929 0070 1E93     		str	r3, [sp, #120]
ARM GAS  /tmp/ccbN9Kog.s 			page 19


 930              		.loc 7 158 0
 931 0072 12E0     		b	.L51
 932              	.L50:
 933              		.loc 7 160 0
 934 0074 1F9B     		ldr	r3, [sp, #124]
 935 0076 5A1C     		adds	r2, r3, #1
 936 0078 1F92     		str	r2, [sp, #124]
 937 007a 9B00     		lsls	r3, r3, #2
 938 007c 20AA     		add	r2, sp, #128
 939 007e 1344     		add	r3, r3, r2
 940 0080 1B9A     		ldr	r2, [sp, #108]
 941 0082 43F86C2C 		str	r2, [r3, #-108]
 942              	.L49:
 943              		.loc 7 154 0
 944 0086 1AAB     		add	r3, sp, #104
 945 0088 0020     		movs	r0, #0
 946 008a 3C49     		ldr	r1, .L61+20
 947 008c 1A46     		mov	r2, r3
 948 008e FFF7FEFF 		bl	_strtok
 949 0092 1B90     		str	r0, [sp, #108]
 950 0094 1B9B     		ldr	r3, [sp, #108]
 951 0096 002B     		cmp	r3, #0
 952 0098 E2D1     		bne	.L52
 953              	.L51:
 954              		.loc 7 162 0
 955 009a 1F9B     		ldr	r3, [sp, #124]
 956 009c 9B00     		lsls	r3, r3, #2
 957 009e 20AA     		add	r2, sp, #128
 958 00a0 1344     		add	r3, r3, r2
 959 00a2 0022     		movs	r2, #0
 960 00a4 43F86C2C 		str	r2, [r3, #-108]
 961              		.loc 7 163 0
 962 00a8 1E9B     		ldr	r3, [sp, #120]
 963 00aa 002B     		cmp	r3, #0
 964 00ac 54D0     		beq	.L53
 965              		.loc 7 164 0
 966 00ae 1E98     		ldr	r0, [sp, #120]
 967 00b0 3449     		ldr	r1, .L61+28
 968 00b2 FFF7FEFF 		bl	strcasecmp
 969 00b6 0346     		mov	r3, r0
 970 00b8 002B     		cmp	r3, #0
 971 00ba 08D1     		bne	.L54
 972              		.loc 7 165 0
 973 00bc 1F9B     		ldr	r3, [sp, #124]
 974 00be 002B     		cmp	r3, #0
 975 00c0 04DD     		ble	.L55
 976              		.loc 7 166 0
 977 00c2 1D98     		ldr	r0, [sp, #116]
 978 00c4 2F49     		ldr	r1, .L61+28
 979 00c6 FFF7FEFF 		bl	usage
 980              		.loc 7 167 0
 981 00ca 45E0     		b	.L53
 982              	.L55:
 983              		.loc 7 169 0
 984 00cc 45E0     		b	.L48
 985              	.L54:
 986              		.loc 7 171 0
ARM GAS  /tmp/ccbN9Kog.s 			page 20


 987 00ce 1E98     		ldr	r0, [sp, #120]
 988 00d0 2D49     		ldr	r1, .L61+32
 989 00d2 FFF7FEFF 		bl	strcasecmp
 990 00d6 0346     		mov	r3, r0
 991 00d8 002B     		cmp	r3, #0
 992 00da 1BD1     		bne	.L56
 993              		.loc 7 172 0
 994 00dc 1F9B     		ldr	r3, [sp, #124]
 995 00de 002B     		cmp	r3, #0
 996 00e0 04DD     		ble	.L57
 997              		.loc 7 173 0
 998 00e2 1D98     		ldr	r0, [sp, #116]
 999 00e4 2849     		ldr	r1, .L61+32
 1000 00e6 FFF7FEFF 		bl	usage
 1001              		.loc 7 174 0
 1002 00ea 35E0     		b	.L53
 1003              	.L57:
 1004              		.loc 7 176 0
 1005 00ec 1D98     		ldr	r0, [sp, #116]
 1006 00ee 2749     		ldr	r1, .L61+36
 1007 00f0 FFF7FEFF 		bl	chprintf
 1008              		.loc 7 177 0
 1009 00f4 1D98     		ldr	r0, [sp, #116]
 1010 00f6 2649     		ldr	r1, .L61+40
 1011 00f8 FFF7FEFF 		bl	list_commands
 1012              		.loc 7 178 0
 1013 00fc 1C9B     		ldr	r3, [sp, #112]
 1014 00fe 002B     		cmp	r3, #0
 1015 0100 03D0     		beq	.L58
 1016              		.loc 7 179 0
 1017 0102 1D98     		ldr	r0, [sp, #116]
 1018 0104 1C99     		ldr	r1, [sp, #112]
 1019 0106 FFF7FEFF 		bl	list_commands
 1020              	.L58:
 1021              		.loc 7 180 0
 1022 010a 1D98     		ldr	r0, [sp, #116]
 1023 010c 2149     		ldr	r1, .L61+44
 1024 010e FFF7FEFF 		bl	chprintf
 1025 0112 21E0     		b	.L53
 1026              	.L56:
 1027              		.loc 7 182 0
 1028 0114 05AB     		add	r3, sp, #20
 1029 0116 0093     		str	r3, [sp]
 1030 0118 1D48     		ldr	r0, .L61+40
 1031 011a 1D99     		ldr	r1, [sp, #116]
 1032 011c 1E9A     		ldr	r2, [sp, #120]
 1033 011e 1F9B     		ldr	r3, [sp, #124]
 1034 0120 FFF7FEFF 		bl	cmdexec
 1035 0124 0346     		mov	r3, r0
 1036 0126 002B     		cmp	r3, #0
 1037 0128 16D0     		beq	.L53
 1038              		.loc 7 182 0 is_stmt 0 discriminator 1
 1039 012a 1C9B     		ldr	r3, [sp, #112]
 1040 012c 002B     		cmp	r3, #0
 1041 012e 0AD0     		beq	.L59
 1042              		.loc 7 183 0 is_stmt 1
 1043 0130 05AB     		add	r3, sp, #20
ARM GAS  /tmp/ccbN9Kog.s 			page 21


 1044 0132 0093     		str	r3, [sp]
 1045 0134 1C98     		ldr	r0, [sp, #112]
 1046 0136 1D99     		ldr	r1, [sp, #116]
 1047 0138 1E9A     		ldr	r2, [sp, #120]
 1048 013a 1F9B     		ldr	r3, [sp, #124]
 1049 013c FFF7FEFF 		bl	cmdexec
 1050 0140 0346     		mov	r3, r0
 1051 0142 002B     		cmp	r3, #0
 1052 0144 08D0     		beq	.L53
 1053              	.L59:
 1054              		.loc 7 184 0
 1055 0146 1D98     		ldr	r0, [sp, #116]
 1056 0148 1349     		ldr	r1, .L61+48
 1057 014a 1E9A     		ldr	r2, [sp, #120]
 1058 014c FFF7FEFF 		bl	chprintf
 1059              		.loc 7 185 0
 1060 0150 1D98     		ldr	r0, [sp, #116]
 1061 0152 1249     		ldr	r1, .L61+52
 1062 0154 FFF7FEFF 		bl	chprintf
 1063              	.L53:
 1064              		.loc 7 188 0
 1065 0158 63E7     		b	.L60
 1066              	.L48:
 1067              		.loc 7 189 0
 1068 015a 0020     		movs	r0, #0
 1069 015c FFF7FEFF 		bl	shellExit
 1070              		.loc 7 190 0
 1071 0160 21B0     		add	sp, sp, #132
 1072              		.cfi_def_cfa_offset 4
 1073              		@ sp needed
 1074 0162 5DF804FB 		ldr	pc, [sp], #4
 1075              	.L62:
 1076 0166 00BF     		.align	2
 1077              	.L61:
 1078 0168 00000000 		.word	ch
 1079 016c BC010000 		.word	.LC23
 1080 0170 C4010000 		.word	.LC24
 1081 0174 DC010000 		.word	.LC25
 1082 0178 E4010000 		.word	.LC26
 1083 017c F0010000 		.word	.LC27
 1084 0180 F4010000 		.word	.LC28
 1085 0184 0C020000 		.word	.LC29
 1086 0188 14020000 		.word	.LC30
 1087 018c 1C020000 		.word	.LC31
 1088 0190 00000000 		.word	local_commands
 1089 0194 34020000 		.word	.LC32
 1090 0198 38020000 		.word	.LC33
 1091 019c 3C020000 		.word	.LC34
 1092              		.cfi_endproc
 1093              	.LFE260:
 1094              		.size	shell_thread, .-shell_thread
 1095              		.section	.text.shellInit,"ax",%progbits
 1096              		.align	2
 1097              		.p2align 4,,15
 1098              		.global	shellInit
 1099              		.thumb
 1100              		.thumb_func
ARM GAS  /tmp/ccbN9Kog.s 			page 22


 1101              		.type	shellInit, %function
 1102              	shellInit:
 1103              	.LFB261:
 1104              		.loc 7 197 0
 1105              		.cfi_startproc
 1106              		@ args = 0, pretend = 0, frame = 0
 1107              		@ frame_needed = 0, uses_anonymous_args = 0
 1108 0000 08B5     		push	{r3, lr}
 1109              		.cfi_def_cfa_offset 8
 1110              		.cfi_offset 3, -8
 1111              		.cfi_offset 14, -4
 1112              		.loc 7 199 0
 1113 0002 0248     		ldr	r0, .L64
 1114 0004 FFF7FEFF 		bl	chEvtObjectInit
 1115              		.loc 7 200 0
 1116 0008 08BD     		pop	{r3, pc}
 1117              	.L65:
 1118 000a 00BF     		.align	2
 1119              	.L64:
 1120 000c 00000000 		.word	shell_terminated
 1121              		.cfi_endproc
 1122              	.LFE261:
 1123              		.size	shellInit, .-shellInit
 1124              		.section	.text.shellExit,"ax",%progbits
 1125              		.align	2
 1126              		.p2align 4,,15
 1127              		.global	shellExit
 1128              		.thumb
 1129              		.thumb_func
 1130              		.type	shellExit, %function
 1131              	shellExit:
 1132              	.LFB262:
 1133              		.loc 7 211 0
 1134              		.cfi_startproc
 1135              		@ args = 0, pretend = 0, frame = 8
 1136              		@ frame_needed = 0, uses_anonymous_args = 0
 1137 0000 00B5     		push	{lr}
 1138              		.cfi_def_cfa_offset 4
 1139              		.cfi_offset 14, -4
 1140 0002 83B0     		sub	sp, sp, #12
 1141              		.cfi_def_cfa_offset 16
 1142 0004 0190     		str	r0, [sp, #4]
 1143              		.loc 7 215 0
 1144 0006 FFF7FEFF 		bl	chSysLock
 1145              		.loc 7 216 0
 1146 000a 0448     		ldr	r0, .L67
 1147 000c FFF7FEFF 		bl	chEvtBroadcastI
 1148              		.loc 7 217 0
 1149 0010 0198     		ldr	r0, [sp, #4]
 1150 0012 FFF7FEFF 		bl	chThdExitS
 1151              		.loc 7 218 0
 1152 0016 03B0     		add	sp, sp, #12
 1153              		.cfi_def_cfa_offset 4
 1154              		@ sp needed
 1155 0018 5DF804FB 		ldr	pc, [sp], #4
 1156              	.L68:
 1157              		.align	2
ARM GAS  /tmp/ccbN9Kog.s 			page 23


 1158              	.L67:
 1159 001c 00000000 		.word	shell_terminated
 1160              		.cfi_endproc
 1161              	.LFE262:
 1162              		.size	shellExit, .-shellExit
 1163              		.section	.text.shellCreate,"ax",%progbits
 1164              		.align	2
 1165              		.p2align 4,,15
 1166              		.global	shellCreate
 1167              		.thumb
 1168              		.thumb_func
 1169              		.type	shellCreate, %function
 1170              	shellCreate:
 1171              	.LFB263:
 1172              		.loc 7 233 0
 1173              		.cfi_startproc
 1174              		@ args = 0, pretend = 0, frame = 16
 1175              		@ frame_needed = 0, uses_anonymous_args = 0
 1176 0000 00B5     		push	{lr}
 1177              		.cfi_def_cfa_offset 4
 1178              		.cfi_offset 14, -4
 1179 0002 87B0     		sub	sp, sp, #28
 1180              		.cfi_def_cfa_offset 32
 1181 0004 0590     		str	r0, [sp, #20]
 1182 0006 0491     		str	r1, [sp, #16]
 1183 0008 0392     		str	r2, [sp, #12]
 1184              		.loc 7 235 0
 1185 000a 059B     		ldr	r3, [sp, #20]
 1186 000c 0093     		str	r3, [sp]
 1187 000e 0020     		movs	r0, #0
 1188 0010 0499     		ldr	r1, [sp, #16]
 1189 0012 039A     		ldr	r2, [sp, #12]
 1190 0014 034B     		ldr	r3, .L71
 1191 0016 FFF7FEFF 		bl	chThdCreateFromHeap
 1192 001a 0346     		mov	r3, r0
 1193              		.loc 7 236 0
 1194 001c 1846     		mov	r0, r3
 1195 001e 07B0     		add	sp, sp, #28
 1196              		.cfi_def_cfa_offset 4
 1197              		@ sp needed
 1198 0020 5DF804FB 		ldr	pc, [sp], #4
 1199              	.L72:
 1200              		.align	2
 1201              	.L71:
 1202 0024 00000000 		.word	shell_thread
 1203              		.cfi_endproc
 1204              	.LFE263:
 1205              		.size	shellCreate, .-shellCreate
 1206 0028 AFF30080 		.section	.text.shellCreateStatic,"ax",%progbits
 1206      AFF30080 
 1207              		.align	2
 1208              		.p2align 4,,15
 1209              		.global	shellCreateStatic
 1210              		.thumb
 1211              		.thumb_func
 1212              		.type	shellCreateStatic, %function
 1213              	shellCreateStatic:
ARM GAS  /tmp/ccbN9Kog.s 			page 24


 1214              	.LFB264:
 1215              		.loc 7 251 0
 1216              		.cfi_startproc
 1217              		@ args = 0, pretend = 0, frame = 16
 1218              		@ frame_needed = 0, uses_anonymous_args = 0
 1219 0000 00B5     		push	{lr}
 1220              		.cfi_def_cfa_offset 4
 1221              		.cfi_offset 14, -4
 1222 0002 87B0     		sub	sp, sp, #28
 1223              		.cfi_def_cfa_offset 32
 1224 0004 0590     		str	r0, [sp, #20]
 1225 0006 0491     		str	r1, [sp, #16]
 1226 0008 0392     		str	r2, [sp, #12]
 1227 000a 0293     		str	r3, [sp, #8]
 1228              		.loc 7 253 0
 1229 000c 059B     		ldr	r3, [sp, #20]
 1230 000e 0093     		str	r3, [sp]
 1231 0010 0498     		ldr	r0, [sp, #16]
 1232 0012 0399     		ldr	r1, [sp, #12]
 1233 0014 029A     		ldr	r2, [sp, #8]
 1234 0016 044B     		ldr	r3, .L75
 1235 0018 FFF7FEFF 		bl	chThdCreateStatic
 1236 001c 0346     		mov	r3, r0
 1237              		.loc 7 254 0
 1238 001e 1846     		mov	r0, r3
 1239 0020 07B0     		add	sp, sp, #28
 1240              		.cfi_def_cfa_offset 4
 1241              		@ sp needed
 1242 0022 5DF804FB 		ldr	pc, [sp], #4
 1243              	.L76:
 1244 0026 00BF     		.align	2
 1245              	.L75:
 1246 0028 00000000 		.word	shell_thread
 1247              		.cfi_endproc
 1248              	.LFE264:
 1249              		.size	shellCreateStatic, .-shellCreateStatic
 1250 002c AFF30080 		.section	.rodata
 1251 0241 000000   		.align	2
 1252              	.LC35:
 1253 0244 5E4400   		.ascii	"^D\000"
 1254 0247 00       		.section	.text.shellGetLine,"ax",%progbits
 1255              		.align	2
 1256              		.p2align 4,,15
 1257              		.global	shellGetLine
 1258              		.thumb
 1259              		.thumb_func
 1260              		.type	shellGetLine, %function
 1261              	shellGetLine:
 1262              	.LFB265:
 1263              		.loc 7 268 0
 1264              		.cfi_startproc
 1265              		@ args = 0, pretend = 0, frame = 24
 1266              		@ frame_needed = 0, uses_anonymous_args = 0
 1267 0000 00B5     		push	{lr}
 1268              		.cfi_def_cfa_offset 4
 1269              		.cfi_offset 14, -4
 1270 0002 87B0     		sub	sp, sp, #28
ARM GAS  /tmp/ccbN9Kog.s 			page 25


 1271              		.cfi_def_cfa_offset 32
 1272 0004 0390     		str	r0, [sp, #12]
 1273 0006 0291     		str	r1, [sp, #8]
 1274 0008 0192     		str	r2, [sp, #4]
 1275              		.loc 7 269 0
 1276 000a 029B     		ldr	r3, [sp, #8]
 1277 000c 0593     		str	r3, [sp, #20]
 1278              	.L90:
 1279              	.LBB10:
 1280              		.loc 7 274 0
 1281 000e 039B     		ldr	r3, [sp, #12]
 1282 0010 1B68     		ldr	r3, [r3]
 1283 0012 5B68     		ldr	r3, [r3, #4]
 1284 0014 0DF11302 		add	r2, sp, #19
 1285 0018 0398     		ldr	r0, [sp, #12]
 1286 001a 1146     		mov	r1, r2
 1287 001c 0122     		movs	r2, #1
 1288 001e 9847     		blx	r3
 1289 0020 0346     		mov	r3, r0
 1290 0022 002B     		cmp	r3, #0
 1291 0024 01D1     		bne	.L78
 1292              		.loc 7 275 0
 1293 0026 0123     		movs	r3, #1
 1294 0028 58E0     		b	.L89
 1295              	.L78:
 1296              		.loc 7 276 0
 1297 002a 9DF81330 		ldrb	r3, [sp, #19]	@ zero_extendqisi2
 1298 002e 042B     		cmp	r3, #4
 1299 0030 05D1     		bne	.L80
 1300              		.loc 7 277 0
 1301 0032 0398     		ldr	r0, [sp, #12]
 1302 0034 2B49     		ldr	r1, .L91
 1303 0036 FFF7FEFF 		bl	chprintf
 1304              		.loc 7 278 0
 1305 003a 0123     		movs	r3, #1
 1306 003c 4EE0     		b	.L89
 1307              	.L80:
 1308              		.loc 7 280 0
 1309 003e 9DF81330 		ldrb	r3, [sp, #19]	@ zero_extendqisi2
 1310 0042 082B     		cmp	r3, #8
 1311 0044 03D0     		beq	.L81
 1312              		.loc 7 280 0 is_stmt 0 discriminator 1
 1313 0046 9DF81330 		ldrb	r3, [sp, #19]	@ zero_extendqisi2
 1314 004a 7F2B     		cmp	r3, #127
 1315 004c 1ED1     		bne	.L82
 1316              	.L81:
 1317              		.loc 7 281 0 is_stmt 1
 1318 004e 059A     		ldr	r2, [sp, #20]
 1319 0050 029B     		ldr	r3, [sp, #8]
 1320 0052 9A42     		cmp	r2, r3
 1321 0054 19D0     		beq	.L83
 1322              		.loc 7 282 0
 1323 0056 039B     		ldr	r3, [sp, #12]
 1324 0058 1B68     		ldr	r3, [r3]
 1325 005a 9B68     		ldr	r3, [r3, #8]
 1326 005c 9DF81320 		ldrb	r2, [sp, #19]	@ zero_extendqisi2
 1327 0060 0398     		ldr	r0, [sp, #12]
ARM GAS  /tmp/ccbN9Kog.s 			page 26


 1328 0062 1146     		mov	r1, r2
 1329 0064 9847     		blx	r3
 1330              		.loc 7 283 0
 1331 0066 039B     		ldr	r3, [sp, #12]
 1332 0068 1B68     		ldr	r3, [r3]
 1333 006a 9B68     		ldr	r3, [r3, #8]
 1334 006c 0398     		ldr	r0, [sp, #12]
 1335 006e 2021     		movs	r1, #32
 1336 0070 9847     		blx	r3
 1337              		.loc 7 284 0
 1338 0072 039B     		ldr	r3, [sp, #12]
 1339 0074 1B68     		ldr	r3, [r3]
 1340 0076 9B68     		ldr	r3, [r3, #8]
 1341 0078 9DF81320 		ldrb	r2, [sp, #19]	@ zero_extendqisi2
 1342 007c 0398     		ldr	r0, [sp, #12]
 1343 007e 1146     		mov	r1, r2
 1344 0080 9847     		blx	r3
 1345              		.loc 7 285 0
 1346 0082 059B     		ldr	r3, [sp, #20]
 1347 0084 013B     		subs	r3, r3, #1
 1348 0086 0593     		str	r3, [sp, #20]
 1349              		.loc 7 287 0
 1350 0088 27E0     		b	.L88
 1351              	.L83:
 1352 008a 26E0     		b	.L88
 1353              	.L82:
 1354              		.loc 7 289 0
 1355 008c 9DF81330 		ldrb	r3, [sp, #19]	@ zero_extendqisi2
 1356 0090 0D2B     		cmp	r3, #13
 1357 0092 08D1     		bne	.L85
 1358              		.loc 7 290 0
 1359 0094 0398     		ldr	r0, [sp, #12]
 1360 0096 1449     		ldr	r1, .L91+4
 1361 0098 FFF7FEFF 		bl	chprintf
 1362              		.loc 7 291 0
 1363 009c 059B     		ldr	r3, [sp, #20]
 1364 009e 0022     		movs	r2, #0
 1365 00a0 1A70     		strb	r2, [r3]
 1366              		.loc 7 292 0
 1367 00a2 0023     		movs	r3, #0
 1368 00a4 1AE0     		b	.L89
 1369              	.L85:
 1370              		.loc 7 294 0
 1371 00a6 9DF81330 		ldrb	r3, [sp, #19]	@ zero_extendqisi2
 1372 00aa 1F2B     		cmp	r3, #31
 1373 00ac 00D8     		bhi	.L86
 1374              		.loc 7 295 0
 1375 00ae 14E0     		b	.L88
 1376              	.L86:
 1377              		.loc 7 296 0
 1378 00b0 019B     		ldr	r3, [sp, #4]
 1379 00b2 013B     		subs	r3, r3, #1
 1380 00b4 029A     		ldr	r2, [sp, #8]
 1381 00b6 1A44     		add	r2, r2, r3
 1382 00b8 059B     		ldr	r3, [sp, #20]
 1383 00ba 9A42     		cmp	r2, r3
 1384 00bc 0DD9     		bls	.L88
ARM GAS  /tmp/ccbN9Kog.s 			page 27


 1385              		.loc 7 297 0
 1386 00be 039B     		ldr	r3, [sp, #12]
 1387 00c0 1B68     		ldr	r3, [r3]
 1388 00c2 9B68     		ldr	r3, [r3, #8]
 1389 00c4 9DF81320 		ldrb	r2, [sp, #19]	@ zero_extendqisi2
 1390 00c8 0398     		ldr	r0, [sp, #12]
 1391 00ca 1146     		mov	r1, r2
 1392 00cc 9847     		blx	r3
 1393              		.loc 7 298 0
 1394 00ce 059B     		ldr	r3, [sp, #20]
 1395 00d0 5A1C     		adds	r2, r3, #1
 1396 00d2 0592     		str	r2, [sp, #20]
 1397 00d4 9DF81320 		ldrb	r2, [sp, #19]	@ zero_extendqisi2
 1398 00d8 1A70     		strb	r2, [r3]
 1399              	.L88:
 1400              	.LBE10:
 1401              		.loc 7 300 0 discriminator 1
 1402 00da 98E7     		b	.L90
 1403              	.L89:
 1404              		.loc 7 301 0
 1405 00dc 1846     		mov	r0, r3
 1406 00de 07B0     		add	sp, sp, #28
 1407              		.cfi_def_cfa_offset 4
 1408              		@ sp needed
 1409 00e0 5DF804FB 		ldr	pc, [sp], #4
 1410              	.L92:
 1411              		.align	2
 1412              	.L91:
 1413 00e4 44020000 		.word	.LC35
 1414 00e8 34020000 		.word	.LC32
 1415              		.cfi_endproc
 1416              	.LFE265:
 1417              		.size	shellGetLine, .-shellGetLine
 1418 00ec AFF30080 		.text
 1419              	.Letext0:
 1420              		.file 8 "/opt/gcc-arm-none-eabi/lib/gcc/arm-none-eabi/4.9.3/include/stddef.h"
 1421              		.file 9 "/opt/gcc-arm-none-eabi/arm-none-eabi/include/machine/_default_types.h"
 1422              		.file 10 "/opt/gcc-arm-none-eabi/arm-none-eabi/include/stdint.h"
 1423              		.file 11 "/home/makkmarci/workspace/CLEAN/ChibiOS/os/rt/ports/ARMCMx/compilers/GCC/chtypes.h"
 1424              		.file 12 "/home/makkmarci/workspace/CLEAN/ChibiOS/os/rt/include/chsystypes.h"
 1425              		.file 13 "/home/makkmarci/workspace/CLEAN/ChibiOS/os/rt/include/chschd.h"
 1426              		.file 14 "/home/makkmarci/workspace/CLEAN/ChibiOS/os/rt/ports/ARMCMx/chcore.h"
 1427              		.file 15 "/home/makkmarci/workspace/CLEAN/ChibiOS/os/rt/include/chtm.h"
 1428              		.file 16 "/home/makkmarci/workspace/CLEAN/ChibiOS/os/rt/include/chsem.h"
 1429              		.file 17 "/home/makkmarci/workspace/CLEAN/ChibiOS/os/rt/include/chmtx.h"
 1430              		.file 18 "/home/makkmarci/workspace/CLEAN/ChibiOS/os/rt/include/chstreams.h"
 1431              		.file 19 "/home/makkmarci/workspace/CLEAN/ChibiOS/os/various/shell.h"
 1432              		.file 20 "/opt/gcc-arm-none-eabi/lib/gcc/arm-none-eabi/4.9.3/include/stdarg.h"
 1433              		.file 21 "<built-in>"
 1434              		.file 22 "/home/makkmarci/workspace/CLEAN/ChibiOS/os/ext/CMSIS/include/core_cm4.h"
 1435              		.section	.debug_info,"",%progbits
 1436              	.Ldebug_info0:
 1437 0000 9B0E0000 		.4byte	0xe9b
 1438 0004 0400     		.2byte	0x4
 1439 0006 00000000 		.4byte	.Ldebug_abbrev0
 1440 000a 04       		.byte	0x4
 1441 000b 01       		.uleb128 0x1
ARM GAS  /tmp/ccbN9Kog.s 			page 28


 1442 000c 79030000 		.4byte	.LASF162
 1443 0010 01       		.byte	0x1
 1444 0011 7E070000 		.4byte	.LASF163
 1445 0015 BA020000 		.4byte	.LASF164
 1446 0019 00000000 		.4byte	.Ldebug_ranges0+0
 1447 001d 00000000 		.4byte	0
 1448 0021 00000000 		.4byte	.Ldebug_line0
 1449 0025 02       		.uleb128 0x2
 1450 0026 04       		.byte	0x4
 1451 0027 05       		.byte	0x5
 1452 0028 696E7400 		.ascii	"int\000"
 1453 002c 03       		.uleb128 0x3
 1454 002d 0D000000 		.4byte	.LASF2
 1455 0031 08       		.byte	0x8
 1456 0032 D4       		.byte	0xd4
 1457 0033 37000000 		.4byte	0x37
 1458 0037 04       		.uleb128 0x4
 1459 0038 04       		.byte	0x4
 1460 0039 07       		.byte	0x7
 1461 003a F9010000 		.4byte	.LASF0
 1462 003e 04       		.uleb128 0x4
 1463 003f 01       		.byte	0x1
 1464 0040 06       		.byte	0x6
 1465 0041 F0000000 		.4byte	.LASF1
 1466 0045 03       		.uleb128 0x3
 1467 0046 1D000000 		.4byte	.LASF3
 1468 004a 09       		.byte	0x9
 1469 004b 1D       		.byte	0x1d
 1470 004c 50000000 		.4byte	0x50
 1471 0050 04       		.uleb128 0x4
 1472 0051 01       		.byte	0x1
 1473 0052 08       		.byte	0x8
 1474 0053 73050000 		.4byte	.LASF4
 1475 0057 04       		.uleb128 0x4
 1476 0058 02       		.byte	0x2
 1477 0059 05       		.byte	0x5
 1478 005a A8050000 		.4byte	.LASF5
 1479 005e 04       		.uleb128 0x4
 1480 005f 02       		.byte	0x2
 1481 0060 07       		.byte	0x7
 1482 0061 6E020000 		.4byte	.LASF6
 1483 0065 03       		.uleb128 0x3
 1484 0066 12030000 		.4byte	.LASF7
 1485 006a 09       		.byte	0x9
 1486 006b 3F       		.byte	0x3f
 1487 006c 70000000 		.4byte	0x70
 1488 0070 04       		.uleb128 0x4
 1489 0071 04       		.byte	0x4
 1490 0072 05       		.byte	0x5
 1491 0073 32010000 		.4byte	.LASF8
 1492 0077 03       		.uleb128 0x3
 1493 0078 D5010000 		.4byte	.LASF9
 1494 007c 09       		.byte	0x9
 1495 007d 41       		.byte	0x41
 1496 007e 82000000 		.4byte	0x82
 1497 0082 04       		.uleb128 0x4
 1498 0083 04       		.byte	0x4
ARM GAS  /tmp/ccbN9Kog.s 			page 29


 1499 0084 07       		.byte	0x7
 1500 0085 78060000 		.4byte	.LASF10
 1501 0089 04       		.uleb128 0x4
 1502 008a 08       		.byte	0x8
 1503 008b 05       		.byte	0x5
 1504 008c E2000000 		.4byte	.LASF11
 1505 0090 03       		.uleb128 0x3
 1506 0091 06050000 		.4byte	.LASF12
 1507 0095 09       		.byte	0x9
 1508 0096 5B       		.byte	0x5b
 1509 0097 9B000000 		.4byte	0x9b
 1510 009b 04       		.uleb128 0x4
 1511 009c 08       		.byte	0x8
 1512 009d 07       		.byte	0x7
 1513 009e 63000000 		.4byte	.LASF13
 1514 00a2 04       		.uleb128 0x4
 1515 00a3 04       		.byte	0x4
 1516 00a4 07       		.byte	0x7
 1517 00a5 46030000 		.4byte	.LASF14
 1518 00a9 05       		.uleb128 0x5
 1519 00aa 04       		.byte	0x4
 1520 00ab 06       		.uleb128 0x6
 1521 00ac 04       		.byte	0x4
 1522 00ad B1000000 		.4byte	0xb1
 1523 00b1 04       		.uleb128 0x4
 1524 00b2 01       		.byte	0x1
 1525 00b3 08       		.byte	0x8
 1526 00b4 99060000 		.4byte	.LASF15
 1527 00b8 06       		.uleb128 0x6
 1528 00b9 04       		.byte	0x4
 1529 00ba BE000000 		.4byte	0xbe
 1530 00be 07       		.uleb128 0x7
 1531 00bf B1000000 		.4byte	0xb1
 1532 00c3 03       		.uleb128 0x3
 1533 00c4 D9070000 		.4byte	.LASF16
 1534 00c8 0A       		.byte	0xa
 1535 00c9 15       		.byte	0x15
 1536 00ca 45000000 		.4byte	0x45
 1537 00ce 03       		.uleb128 0x3
 1538 00cf 6B050000 		.4byte	.LASF17
 1539 00d3 0A       		.byte	0xa
 1540 00d4 2C       		.byte	0x2c
 1541 00d5 65000000 		.4byte	0x65
 1542 00d9 03       		.uleb128 0x3
 1543 00da 50060000 		.4byte	.LASF18
 1544 00de 0A       		.byte	0xa
 1545 00df 2D       		.byte	0x2d
 1546 00e0 77000000 		.4byte	0x77
 1547 00e4 03       		.uleb128 0x3
 1548 00e5 14000000 		.4byte	.LASF19
 1549 00e9 0A       		.byte	0xa
 1550 00ea 39       		.byte	0x39
 1551 00eb 90000000 		.4byte	0x90
 1552 00ef 08       		.uleb128 0x8
 1553 00f0 CE000000 		.4byte	0xce
 1554 00f4 03       		.uleb128 0x3
 1555 00f5 48070000 		.4byte	.LASF20
ARM GAS  /tmp/ccbN9Kog.s 			page 30


 1556 00f9 0B       		.byte	0xb
 1557 00fa 46       		.byte	0x46
 1558 00fb D9000000 		.4byte	0xd9
 1559 00ff 03       		.uleb128 0x3
 1560 0100 E8020000 		.4byte	.LASF21
 1561 0104 0B       		.byte	0xb
 1562 0105 49       		.byte	0x49
 1563 0106 C3000000 		.4byte	0xc3
 1564 010a 03       		.uleb128 0x3
 1565 010b 48010000 		.4byte	.LASF22
 1566 010f 0B       		.byte	0xb
 1567 0110 4A       		.byte	0x4a
 1568 0111 C3000000 		.4byte	0xc3
 1569 0115 03       		.uleb128 0x3
 1570 0116 17050000 		.4byte	.LASF23
 1571 011a 0B       		.byte	0xb
 1572 011b 4B       		.byte	0x4b
 1573 011c C3000000 		.4byte	0xc3
 1574 0120 03       		.uleb128 0x3
 1575 0121 3E050000 		.4byte	.LASF24
 1576 0125 0B       		.byte	0xb
 1577 0126 4D       		.byte	0x4d
 1578 0127 D9000000 		.4byte	0xd9
 1579 012b 03       		.uleb128 0x3
 1580 012c A2020000 		.4byte	.LASF25
 1581 0130 0B       		.byte	0xb
 1582 0131 4E       		.byte	0x4e
 1583 0132 CE000000 		.4byte	0xce
 1584 0136 03       		.uleb128 0x3
 1585 0137 06030000 		.4byte	.LASF26
 1586 013b 0B       		.byte	0xb
 1587 013c 50       		.byte	0x50
 1588 013d D9000000 		.4byte	0xd9
 1589 0141 03       		.uleb128 0x3
 1590 0142 95020000 		.4byte	.LASF27
 1591 0146 0B       		.byte	0xb
 1592 0147 51       		.byte	0x51
 1593 0148 D9000000 		.4byte	0xd9
 1594 014c 03       		.uleb128 0x3
 1595 014d E0010000 		.4byte	.LASF28
 1596 0151 0B       		.byte	0xb
 1597 0152 52       		.byte	0x52
 1598 0153 CE000000 		.4byte	0xce
 1599 0157 03       		.uleb128 0x3
 1600 0158 C9060000 		.4byte	.LASF29
 1601 015c 0C       		.byte	0xc
 1602 015d 33       		.byte	0x33
 1603 015e D9000000 		.4byte	0xd9
 1604 0162 03       		.uleb128 0x3
 1605 0163 B9060000 		.4byte	.LASF30
 1606 0167 0C       		.byte	0xc
 1607 0168 3F       		.byte	0x3f
 1608 0169 6D010000 		.4byte	0x16d
 1609 016d 09       		.uleb128 0x9
 1610 016e 81020000 		.4byte	.LASF50
 1611 0172 44       		.byte	0x44
 1612 0173 0D       		.byte	0xd
ARM GAS  /tmp/ccbN9Kog.s 			page 31


 1613 0174 C2       		.byte	0xc2
 1614 0175 5A020000 		.4byte	0x25a
 1615 0179 0A       		.uleb128 0xa
 1616 017a D0050000 		.4byte	.LASF31
 1617 017e 0D       		.byte	0xd
 1618 017f C3       		.byte	0xc3
 1619 0180 65020000 		.4byte	0x265
 1620 0184 00       		.byte	0
 1621 0185 0A       		.uleb128 0xa
 1622 0186 37050000 		.4byte	.LASF32
 1623 018a 0D       		.byte	0xd
 1624 018b C5       		.byte	0xc5
 1625 018c 65020000 		.4byte	0x265
 1626 0190 04       		.byte	0x4
 1627 0191 0A       		.uleb128 0xa
 1628 0192 DB000000 		.4byte	.LASF33
 1629 0196 0D       		.byte	0xd
 1630 0197 C7       		.byte	0xc7
 1631 0198 20010000 		.4byte	0x120
 1632 019c 08       		.byte	0x8
 1633 019d 0A       		.uleb128 0xa
 1634 019e 3B080000 		.4byte	.LASF34
 1635 01a2 0D       		.byte	0xd
 1636 01a3 C8       		.byte	0xc8
 1637 01a4 8C040000 		.4byte	0x48c
 1638 01a8 0C       		.byte	0xc
 1639 01a9 0A       		.uleb128 0xa
 1640 01aa 60010000 		.4byte	.LASF35
 1641 01ae 0D       		.byte	0xd
 1642 01af CA       		.byte	0xca
 1643 01b0 65020000 		.4byte	0x265
 1644 01b4 10       		.byte	0x10
 1645 01b5 0A       		.uleb128 0xa
 1646 01b6 9D040000 		.4byte	.LASF36
 1647 01ba 0D       		.byte	0xd
 1648 01bb CB       		.byte	0xcb
 1649 01bc 65020000 		.4byte	0x265
 1650 01c0 14       		.byte	0x14
 1651 01c1 0A       		.uleb128 0xa
 1652 01c2 4E050000 		.4byte	.LASF37
 1653 01c6 0D       		.byte	0xd
 1654 01c7 D2       		.byte	0xd2
 1655 01c8 B8000000 		.4byte	0xb8
 1656 01cc 18       		.byte	0x18
 1657 01cd 0A       		.uleb128 0xa
 1658 01ce B2050000 		.4byte	.LASF38
 1659 01d2 0D       		.byte	0xd
 1660 01d3 DD       		.byte	0xdd
 1661 01d4 0A010000 		.4byte	0x10a
 1662 01d8 1C       		.byte	0x1c
 1663 01d9 0A       		.uleb128 0xa
 1664 01da F5050000 		.4byte	.LASF39
 1665 01de 0D       		.byte	0xd
 1666 01df E1       		.byte	0xe1
 1667 01e0 FF000000 		.4byte	0xff
 1668 01e4 1D       		.byte	0x1d
 1669 01e5 0A       		.uleb128 0xa
ARM GAS  /tmp/ccbN9Kog.s 			page 32


 1670 01e6 D9040000 		.4byte	.LASF40
 1671 01ea 0D       		.byte	0xd
 1672 01eb E6       		.byte	0xe6
 1673 01ec 15010000 		.4byte	0x115
 1674 01f0 1E       		.byte	0x1e
 1675 01f1 0B       		.uleb128 0xb
 1676 01f2 705F7500 		.ascii	"p_u\000"
 1677 01f6 0D       		.byte	0xd
 1678 01f7 3101     		.2byte	0x131
 1679 01f9 0C060000 		.4byte	0x60c
 1680 01fd 20       		.byte	0x20
 1681 01fe 0C       		.uleb128 0xc
 1682 01ff 3C030000 		.4byte	.LASF41
 1683 0203 0D       		.byte	0xd
 1684 0204 3601     		.2byte	0x136
 1685 0206 6B020000 		.4byte	0x26b
 1686 020a 24       		.byte	0x24
 1687 020b 0C       		.uleb128 0xc
 1688 020c 2A020000 		.4byte	.LASF42
 1689 0210 0D       		.byte	0xd
 1690 0211 3C01     		.2byte	0x13c
 1691 0213 8F020000 		.4byte	0x28f
 1692 0217 28       		.byte	0x28
 1693 0218 0C       		.uleb128 0xc
 1694 0219 23080000 		.4byte	.LASF43
 1695 021d 0D       		.byte	0xd
 1696 021e 4001     		.2byte	0x140
 1697 0220 2B010000 		.4byte	0x12b
 1698 0224 30       		.byte	0x30
 1699 0225 0C       		.uleb128 0xc
 1700 0226 45060000 		.4byte	.LASF44
 1701 022a 0D       		.byte	0xd
 1702 022b 4601     		.2byte	0x146
 1703 022d 36010000 		.4byte	0x136
 1704 0231 34       		.byte	0x34
 1705 0232 0C       		.uleb128 0xc
 1706 0233 9E050000 		.4byte	.LASF45
 1707 0237 0D       		.byte	0xd
 1708 0238 4D01     		.2byte	0x14d
 1709 023a CB060000 		.4byte	0x6cb
 1710 023e 38       		.byte	0x38
 1711 023f 0C       		.uleb128 0xc
 1712 0240 D3060000 		.4byte	.LASF46
 1713 0244 0D       		.byte	0xd
 1714 0245 5101     		.2byte	0x151
 1715 0247 20010000 		.4byte	0x120
 1716 024b 3C       		.byte	0x3c
 1717 024c 0C       		.uleb128 0xc
 1718 024d FC000000 		.4byte	.LASF47
 1719 0251 0D       		.byte	0xd
 1720 0252 5801     		.2byte	0x158
 1721 0254 A9000000 		.4byte	0xa9
 1722 0258 40       		.byte	0x40
 1723 0259 00       		.byte	0
 1724 025a 03       		.uleb128 0x3
 1725 025b 4F030000 		.4byte	.LASF48
 1726 025f 0C       		.byte	0xc
ARM GAS  /tmp/ccbN9Kog.s 			page 33


 1727 0260 44       		.byte	0x44
 1728 0261 65020000 		.4byte	0x265
 1729 0265 06       		.uleb128 0x6
 1730 0266 04       		.byte	0x4
 1731 0267 62010000 		.4byte	0x162
 1732 026b 03       		.uleb128 0x3
 1733 026c 27030000 		.4byte	.LASF49
 1734 0270 0C       		.byte	0xc
 1735 0271 49       		.byte	0x49
 1736 0272 76020000 		.4byte	0x276
 1737 0276 09       		.uleb128 0x9
 1738 0277 68060000 		.4byte	.LASF51
 1739 027b 04       		.byte	0x4
 1740 027c 0D       		.byte	0xd
 1741 027d B0       		.byte	0xb0
 1742 027e 8F020000 		.4byte	0x28f
 1743 0282 0A       		.uleb128 0xa
 1744 0283 D0050000 		.4byte	.LASF31
 1745 0287 0D       		.byte	0xd
 1746 0288 B1       		.byte	0xb1
 1747 0289 65020000 		.4byte	0x265
 1748 028d 00       		.byte	0
 1749 028e 00       		.byte	0
 1750 028f 03       		.uleb128 0x3
 1751 0290 5D070000 		.4byte	.LASF52
 1752 0294 0C       		.byte	0xc
 1753 0295 50       		.byte	0x50
 1754 0296 9A020000 		.4byte	0x29a
 1755 029a 09       		.uleb128 0x9
 1756 029b C1000000 		.4byte	.LASF53
 1757 029f 08       		.byte	0x8
 1758 02a0 0D       		.byte	0xd
 1759 02a1 B7       		.byte	0xb7
 1760 02a2 BF020000 		.4byte	0x2bf
 1761 02a6 0A       		.uleb128 0xa
 1762 02a7 D0050000 		.4byte	.LASF31
 1763 02ab 0D       		.byte	0xd
 1764 02ac B8       		.byte	0xb8
 1765 02ad 65020000 		.4byte	0x265
 1766 02b1 00       		.byte	0
 1767 02b2 0A       		.uleb128 0xa
 1768 02b3 37050000 		.4byte	.LASF32
 1769 02b7 0D       		.byte	0xd
 1770 02b8 B9       		.byte	0xb9
 1771 02b9 65020000 		.4byte	0x265
 1772 02bd 04       		.byte	0x4
 1773 02be 00       		.byte	0
 1774 02bf 03       		.uleb128 0x3
 1775 02c0 00000000 		.4byte	.LASF54
 1776 02c4 0C       		.byte	0xc
 1777 02c5 57       		.byte	0x57
 1778 02c6 CA020000 		.4byte	0x2ca
 1779 02ca 0D       		.uleb128 0xd
 1780 02cb F8020000 		.4byte	.LASF55
 1781 02cf 1C       		.byte	0x1c
 1782 02d0 0D       		.byte	0xd
 1783 02d1 9001     		.2byte	0x190
ARM GAS  /tmp/ccbN9Kog.s 			page 34


 1784 02d3 26030000 		.4byte	0x326
 1785 02d7 0C       		.uleb128 0xc
 1786 02d8 60060000 		.4byte	.LASF56
 1787 02dc 0D       		.byte	0xd
 1788 02dd 9101     		.2byte	0x191
 1789 02df 8F020000 		.4byte	0x28f
 1790 02e3 00       		.byte	0
 1791 02e4 0C       		.uleb128 0xc
 1792 02e5 C2050000 		.4byte	.LASF57
 1793 02e9 0D       		.byte	0xd
 1794 02ea 9201     		.2byte	0x192
 1795 02ec 20010000 		.4byte	0x120
 1796 02f0 08       		.byte	0x8
 1797 02f1 0C       		.uleb128 0xc
 1798 02f2 A5040000 		.4byte	.LASF58
 1799 02f6 0D       		.byte	0xd
 1800 02f7 9401     		.2byte	0x194
 1801 02f9 8C040000 		.4byte	0x48c
 1802 02fd 0C       		.byte	0xc
 1803 02fe 0C       		.uleb128 0xc
 1804 02ff 75010000 		.4byte	.LASF59
 1805 0303 0D       		.byte	0xd
 1806 0304 9701     		.2byte	0x197
 1807 0306 65020000 		.4byte	0x265
 1808 030a 10       		.byte	0x10
 1809 030b 0C       		.uleb128 0xc
 1810 030c F4040000 		.4byte	.LASF60
 1811 0310 0D       		.byte	0xd
 1812 0311 9801     		.2byte	0x198
 1813 0313 65020000 		.4byte	0x265
 1814 0317 14       		.byte	0x14
 1815 0318 0C       		.uleb128 0xc
 1816 0319 8A060000 		.4byte	.LASF61
 1817 031d 0D       		.byte	0xd
 1818 031e 9B01     		.2byte	0x19b
 1819 0320 65020000 		.4byte	0x265
 1820 0324 18       		.byte	0x18
 1821 0325 00       		.byte	0
 1822 0326 03       		.uleb128 0x3
 1823 0327 DE060000 		.4byte	.LASF62
 1824 032b 0C       		.byte	0xc
 1825 032c 5C       		.byte	0x5c
 1826 032d 31030000 		.4byte	0x331
 1827 0331 06       		.uleb128 0x6
 1828 0332 04       		.byte	0x4
 1829 0333 37030000 		.4byte	0x337
 1830 0337 0E       		.uleb128 0xe
 1831 0338 42030000 		.4byte	0x342
 1832 033c 0F       		.uleb128 0xf
 1833 033d A9000000 		.4byte	0xa9
 1834 0341 00       		.byte	0
 1835 0342 03       		.uleb128 0x3
 1836 0343 27050000 		.4byte	.LASF63
 1837 0347 0C       		.byte	0xc
 1838 0348 61       		.byte	0x61
 1839 0349 4D030000 		.4byte	0x34d
 1840 034d 0D       		.uleb128 0xd
ARM GAS  /tmp/ccbN9Kog.s 			page 35


 1841 034e 27060000 		.4byte	.LASF64
 1842 0352 14       		.byte	0x14
 1843 0353 0D       		.byte	0xd
 1844 0354 6B01     		.2byte	0x16b
 1845 0356 9C030000 		.4byte	0x39c
 1846 035a 0C       		.uleb128 0xc
 1847 035b 06020000 		.4byte	.LASF65
 1848 035f 0D       		.byte	0xd
 1849 0360 6C01     		.2byte	0x16c
 1850 0362 D1060000 		.4byte	0x6d1
 1851 0366 00       		.byte	0
 1852 0367 0C       		.uleb128 0xc
 1853 0368 86010000 		.4byte	.LASF66
 1854 036c 0D       		.byte	0xd
 1855 036d 6D01     		.2byte	0x16d
 1856 036f D1060000 		.4byte	0x6d1
 1857 0373 04       		.byte	0x4
 1858 0374 0C       		.uleb128 0xc
 1859 0375 15020000 		.4byte	.LASF67
 1860 0379 0D       		.byte	0xd
 1861 037a 6E01     		.2byte	0x16e
 1862 037c 57010000 		.4byte	0x157
 1863 0380 08       		.byte	0x8
 1864 0381 0C       		.uleb128 0xc
 1865 0382 41080000 		.4byte	.LASF68
 1866 0386 0D       		.byte	0xd
 1867 0387 6F01     		.2byte	0x16f
 1868 0389 26030000 		.4byte	0x326
 1869 038d 0C       		.byte	0xc
 1870 038e 0C       		.uleb128 0xc
 1871 038f 56070000 		.4byte	.LASF69
 1872 0393 0D       		.byte	0xd
 1873 0394 7101     		.2byte	0x171
 1874 0396 A9000000 		.4byte	0xa9
 1875 039a 10       		.byte	0x10
 1876 039b 00       		.byte	0
 1877 039c 03       		.uleb128 0x3
 1878 039d 9E000000 		.4byte	.LASF70
 1879 03a1 0C       		.byte	0xc
 1880 03a2 66       		.byte	0x66
 1881 03a3 A7030000 		.4byte	0x3a7
 1882 03a7 0D       		.uleb128 0xd
 1883 03a8 62030000 		.4byte	.LASF71
 1884 03ac 10       		.byte	0x10
 1885 03ad 0D       		.byte	0xd
 1886 03ae 7B01     		.2byte	0x17b
 1887 03b0 E9030000 		.4byte	0x3e9
 1888 03b4 0C       		.uleb128 0xc
 1889 03b5 06020000 		.4byte	.LASF65
 1890 03b9 0D       		.byte	0xd
 1891 03ba 7C01     		.2byte	0x17c
 1892 03bc D1060000 		.4byte	0x6d1
 1893 03c0 00       		.byte	0
 1894 03c1 0C       		.uleb128 0xc
 1895 03c2 86010000 		.4byte	.LASF66
 1896 03c6 0D       		.byte	0xd
 1897 03c7 7E01     		.2byte	0x17e
ARM GAS  /tmp/ccbN9Kog.s 			page 36


 1898 03c9 D1060000 		.4byte	0x6d1
 1899 03cd 04       		.byte	0x4
 1900 03ce 0C       		.uleb128 0xc
 1901 03cf 15020000 		.4byte	.LASF67
 1902 03d3 0D       		.byte	0xd
 1903 03d4 8001     		.2byte	0x180
 1904 03d6 57010000 		.4byte	0x157
 1905 03da 08       		.byte	0x8
 1906 03db 0C       		.uleb128 0xc
 1907 03dc FE070000 		.4byte	.LASF72
 1908 03e0 0D       		.byte	0xd
 1909 03e1 8201     		.2byte	0x182
 1910 03e3 D7060000 		.4byte	0x6d7
 1911 03e7 0C       		.byte	0xc
 1912 03e8 00       		.byte	0
 1913 03e9 03       		.uleb128 0x3
 1914 03ea 3B000000 		.4byte	.LASF73
 1915 03ee 0C       		.byte	0xc
 1916 03ef 6B       		.byte	0x6b
 1917 03f0 F4030000 		.4byte	0x3f4
 1918 03f4 0D       		.uleb128 0xd
 1919 03f5 55050000 		.4byte	.LASF74
 1920 03f9 04       		.byte	0x4
 1921 03fa 0D       		.byte	0xd
 1922 03fb A201     		.2byte	0x1a2
 1923 03fd 0F040000 		.4byte	0x40f
 1924 0401 0C       		.uleb128 0xc
 1925 0402 01070000 		.4byte	.LASF75
 1926 0406 0D       		.byte	0xd
 1927 0407 AA01     		.2byte	0x1aa
 1928 0409 DC060000 		.4byte	0x6dc
 1929 040d 00       		.byte	0
 1930 040e 00       		.byte	0
 1931 040f 03       		.uleb128 0x3
 1932 0410 30070000 		.4byte	.LASF76
 1933 0414 0C       		.byte	0xc
 1934 0415 70       		.byte	0x70
 1935 0416 1A040000 		.4byte	0x41a
 1936 041a 10       		.uleb128 0x10
 1937 041b 28010000 		.4byte	.LASF77
 1938 041f D801     		.2byte	0x1d8
 1939 0421 0D       		.byte	0xd
 1940 0422 C201     		.2byte	0x1c2
 1941 0424 76040000 		.4byte	0x476
 1942 0428 0C       		.uleb128 0xc
 1943 0429 C6070000 		.4byte	.LASF78
 1944 042d 0D       		.byte	0xd
 1945 042e C601     		.2byte	0x1c6
 1946 0430 BF020000 		.4byte	0x2bf
 1947 0434 00       		.byte	0
 1948 0435 0C       		.uleb128 0xc
 1949 0436 0F010000 		.4byte	.LASF79
 1950 043a 0D       		.byte	0xd
 1951 043b CA01     		.2byte	0x1ca
 1952 043d 9C030000 		.4byte	0x39c
 1953 0441 1C       		.byte	0x1c
 1954 0442 0B       		.uleb128 0xb
ARM GAS  /tmp/ccbN9Kog.s 			page 37


 1955 0443 64626700 		.ascii	"dbg\000"
 1956 0447 0D       		.byte	0xd
 1957 0448 CE01     		.2byte	0x1ce
 1958 044a E9030000 		.4byte	0x3e9
 1959 044e 2C       		.byte	0x2c
 1960 044f 0C       		.uleb128 0xc
 1961 0450 93000000 		.4byte	.LASF80
 1962 0454 0D       		.byte	0xd
 1963 0455 D201     		.2byte	0x1d2
 1964 0457 62010000 		.4byte	0x162
 1965 045b 30       		.byte	0x30
 1966 045c 0B       		.uleb128 0xb
 1967 045d 746D00   		.ascii	"tm\000"
 1968 0460 0D       		.byte	0xd
 1969 0461 D701     		.2byte	0x1d7
 1970 0463 01060000 		.4byte	0x601
 1971 0467 74       		.byte	0x74
 1972 0468 0C       		.uleb128 0xc
 1973 0469 4A000000 		.4byte	.LASF81
 1974 046d 0D       		.byte	0xd
 1975 046e E301     		.2byte	0x1e3
 1976 0470 E1060000 		.4byte	0x6e1
 1977 0474 78       		.byte	0x78
 1978 0475 00       		.byte	0
 1979 0476 03       		.uleb128 0x3
 1980 0477 7D010000 		.4byte	.LASF82
 1981 047b 0E       		.byte	0xe
 1982 047c 65       		.byte	0x65
 1983 047d A9000000 		.4byte	0xa9
 1984 0481 03       		.uleb128 0x3
 1985 0482 1C030000 		.4byte	.LASF83
 1986 0486 0E       		.byte	0xe
 1987 0487 6D       		.byte	0x6d
 1988 0488 E4000000 		.4byte	0xe4
 1989 048c 09       		.uleb128 0x9
 1990 048d 28070000 		.4byte	.LASF84
 1991 0491 04       		.byte	0x4
 1992 0492 0E       		.byte	0xe
 1993 0493 89       		.byte	0x89
 1994 0494 A5040000 		.4byte	0x4a5
 1995 0498 11       		.uleb128 0x11
 1996 0499 72313300 		.ascii	"r13\000"
 1997 049d 0E       		.byte	0xe
 1998 049e 8A       		.byte	0x8a
 1999 049f E6050000 		.4byte	0x5e6
 2000 04a3 00       		.byte	0
 2001 04a4 00       		.byte	0
 2002 04a5 09       		.uleb128 0x9
 2003 04a6 27000000 		.4byte	.LASF85
 2004 04aa 64       		.byte	0x64
 2005 04ab 01       		.byte	0x1
 2006 04ac F4       		.byte	0xf4
 2007 04ad E6050000 		.4byte	0x5e6
 2008 04b1 11       		.uleb128 0x11
 2009 04b2 73313600 		.ascii	"s16\000"
 2010 04b6 01       		.byte	0x1
 2011 04b7 F6       		.byte	0xf6
ARM GAS  /tmp/ccbN9Kog.s 			page 38


 2012 04b8 76040000 		.4byte	0x476
 2013 04bc 00       		.byte	0
 2014 04bd 11       		.uleb128 0x11
 2015 04be 73313700 		.ascii	"s17\000"
 2016 04c2 01       		.byte	0x1
 2017 04c3 F7       		.byte	0xf7
 2018 04c4 76040000 		.4byte	0x476
 2019 04c8 04       		.byte	0x4
 2020 04c9 11       		.uleb128 0x11
 2021 04ca 73313800 		.ascii	"s18\000"
 2022 04ce 01       		.byte	0x1
 2023 04cf F8       		.byte	0xf8
 2024 04d0 76040000 		.4byte	0x476
 2025 04d4 08       		.byte	0x8
 2026 04d5 11       		.uleb128 0x11
 2027 04d6 73313900 		.ascii	"s19\000"
 2028 04da 01       		.byte	0x1
 2029 04db F9       		.byte	0xf9
 2030 04dc 76040000 		.4byte	0x476
 2031 04e0 0C       		.byte	0xc
 2032 04e1 11       		.uleb128 0x11
 2033 04e2 73323000 		.ascii	"s20\000"
 2034 04e6 01       		.byte	0x1
 2035 04e7 FA       		.byte	0xfa
 2036 04e8 76040000 		.4byte	0x476
 2037 04ec 10       		.byte	0x10
 2038 04ed 11       		.uleb128 0x11
 2039 04ee 73323100 		.ascii	"s21\000"
 2040 04f2 01       		.byte	0x1
 2041 04f3 FB       		.byte	0xfb
 2042 04f4 76040000 		.4byte	0x476
 2043 04f8 14       		.byte	0x14
 2044 04f9 11       		.uleb128 0x11
 2045 04fa 73323200 		.ascii	"s22\000"
 2046 04fe 01       		.byte	0x1
 2047 04ff FC       		.byte	0xfc
 2048 0500 76040000 		.4byte	0x476
 2049 0504 18       		.byte	0x18
 2050 0505 11       		.uleb128 0x11
 2051 0506 73323300 		.ascii	"s23\000"
 2052 050a 01       		.byte	0x1
 2053 050b FD       		.byte	0xfd
 2054 050c 76040000 		.4byte	0x476
 2055 0510 1C       		.byte	0x1c
 2056 0511 11       		.uleb128 0x11
 2057 0512 73323400 		.ascii	"s24\000"
 2058 0516 01       		.byte	0x1
 2059 0517 FE       		.byte	0xfe
 2060 0518 76040000 		.4byte	0x476
 2061 051c 20       		.byte	0x20
 2062 051d 11       		.uleb128 0x11
 2063 051e 73323500 		.ascii	"s25\000"
 2064 0522 01       		.byte	0x1
 2065 0523 FF       		.byte	0xff
 2066 0524 76040000 		.4byte	0x476
 2067 0528 24       		.byte	0x24
 2068 0529 0B       		.uleb128 0xb
ARM GAS  /tmp/ccbN9Kog.s 			page 39


 2069 052a 73323600 		.ascii	"s26\000"
 2070 052e 01       		.byte	0x1
 2071 052f 0001     		.2byte	0x100
 2072 0531 76040000 		.4byte	0x476
 2073 0535 28       		.byte	0x28
 2074 0536 0B       		.uleb128 0xb
 2075 0537 73323700 		.ascii	"s27\000"
 2076 053b 01       		.byte	0x1
 2077 053c 0101     		.2byte	0x101
 2078 053e 76040000 		.4byte	0x476
 2079 0542 2C       		.byte	0x2c
 2080 0543 0B       		.uleb128 0xb
 2081 0544 73323800 		.ascii	"s28\000"
 2082 0548 01       		.byte	0x1
 2083 0549 0201     		.2byte	0x102
 2084 054b 76040000 		.4byte	0x476
 2085 054f 30       		.byte	0x30
 2086 0550 0B       		.uleb128 0xb
 2087 0551 73323900 		.ascii	"s29\000"
 2088 0555 01       		.byte	0x1
 2089 0556 0301     		.2byte	0x103
 2090 0558 76040000 		.4byte	0x476
 2091 055c 34       		.byte	0x34
 2092 055d 0B       		.uleb128 0xb
 2093 055e 73333000 		.ascii	"s30\000"
 2094 0562 01       		.byte	0x1
 2095 0563 0401     		.2byte	0x104
 2096 0565 76040000 		.4byte	0x476
 2097 0569 38       		.byte	0x38
 2098 056a 0B       		.uleb128 0xb
 2099 056b 73333100 		.ascii	"s31\000"
 2100 056f 01       		.byte	0x1
 2101 0570 0501     		.2byte	0x105
 2102 0572 76040000 		.4byte	0x476
 2103 0576 3C       		.byte	0x3c
 2104 0577 0B       		.uleb128 0xb
 2105 0578 723400   		.ascii	"r4\000"
 2106 057b 01       		.byte	0x1
 2107 057c 0701     		.2byte	0x107
 2108 057e 76040000 		.4byte	0x476
 2109 0582 40       		.byte	0x40
 2110 0583 0B       		.uleb128 0xb
 2111 0584 723500   		.ascii	"r5\000"
 2112 0587 01       		.byte	0x1
 2113 0588 0801     		.2byte	0x108
 2114 058a 76040000 		.4byte	0x476
 2115 058e 44       		.byte	0x44
 2116 058f 0B       		.uleb128 0xb
 2117 0590 723600   		.ascii	"r6\000"
 2118 0593 01       		.byte	0x1
 2119 0594 0901     		.2byte	0x109
 2120 0596 76040000 		.4byte	0x476
 2121 059a 48       		.byte	0x48
 2122 059b 0B       		.uleb128 0xb
 2123 059c 723700   		.ascii	"r7\000"
 2124 059f 01       		.byte	0x1
 2125 05a0 0A01     		.2byte	0x10a
ARM GAS  /tmp/ccbN9Kog.s 			page 40


 2126 05a2 76040000 		.4byte	0x476
 2127 05a6 4C       		.byte	0x4c
 2128 05a7 0B       		.uleb128 0xb
 2129 05a8 723800   		.ascii	"r8\000"
 2130 05ab 01       		.byte	0x1
 2131 05ac 0B01     		.2byte	0x10b
 2132 05ae 76040000 		.4byte	0x476
 2133 05b2 50       		.byte	0x50
 2134 05b3 0B       		.uleb128 0xb
 2135 05b4 723900   		.ascii	"r9\000"
 2136 05b7 01       		.byte	0x1
 2137 05b8 0C01     		.2byte	0x10c
 2138 05ba 76040000 		.4byte	0x476
 2139 05be 54       		.byte	0x54
 2140 05bf 0B       		.uleb128 0xb
 2141 05c0 72313000 		.ascii	"r10\000"
 2142 05c4 01       		.byte	0x1
 2143 05c5 0D01     		.2byte	0x10d
 2144 05c7 76040000 		.4byte	0x476
 2145 05cb 58       		.byte	0x58
 2146 05cc 0B       		.uleb128 0xb
 2147 05cd 72313100 		.ascii	"r11\000"
 2148 05d1 01       		.byte	0x1
 2149 05d2 0E01     		.2byte	0x10e
 2150 05d4 76040000 		.4byte	0x476
 2151 05d8 5C       		.byte	0x5c
 2152 05d9 0B       		.uleb128 0xb
 2153 05da 6C7200   		.ascii	"lr\000"
 2154 05dd 01       		.byte	0x1
 2155 05de 0F01     		.2byte	0x10f
 2156 05e0 76040000 		.4byte	0x476
 2157 05e4 60       		.byte	0x60
 2158 05e5 00       		.byte	0
 2159 05e6 06       		.uleb128 0x6
 2160 05e7 04       		.byte	0x4
 2161 05e8 A5040000 		.4byte	0x4a5
 2162 05ec 12       		.uleb128 0x12
 2163 05ed 04       		.byte	0x4
 2164 05ee 0F       		.byte	0xf
 2165 05ef 38       		.byte	0x38
 2166 05f0 01060000 		.4byte	0x601
 2167 05f4 0A       		.uleb128 0xa
 2168 05f5 0B070000 		.4byte	.LASF86
 2169 05f9 0F       		.byte	0xf
 2170 05fa 3C       		.byte	0x3c
 2171 05fb F4000000 		.4byte	0xf4
 2172 05ff 00       		.byte	0
 2173 0600 00       		.byte	0
 2174 0601 03       		.uleb128 0x3
 2175 0602 B6040000 		.4byte	.LASF87
 2176 0606 0F       		.byte	0xf
 2177 0607 3D       		.byte	0x3d
 2178 0608 EC050000 		.4byte	0x5ec
 2179 060c 13       		.uleb128 0x13
 2180 060d 04       		.byte	0x4
 2181 060e 0D       		.byte	0xd
 2182 060f FA       		.byte	0xfa
ARM GAS  /tmp/ccbN9Kog.s 			page 41


 2183 0610 69060000 		.4byte	0x669
 2184 0614 14       		.uleb128 0x14
 2185 0615 20060000 		.4byte	.LASF88
 2186 0619 0D       		.byte	0xd
 2187 061a 0101     		.2byte	0x101
 2188 061c 2B010000 		.4byte	0x12b
 2189 0620 14       		.uleb128 0x14
 2190 0621 8A000000 		.4byte	.LASF89
 2191 0625 0D       		.byte	0xd
 2192 0626 0801     		.2byte	0x108
 2193 0628 2B010000 		.4byte	0x12b
 2194 062c 14       		.uleb128 0x14
 2195 062d ED070000 		.4byte	.LASF90
 2196 0631 0D       		.byte	0xd
 2197 0632 0F01     		.2byte	0x10f
 2198 0634 A9000000 		.4byte	0xa9
 2199 0638 14       		.uleb128 0x14
 2200 0639 22010000 		.4byte	.LASF91
 2201 063d 0D       		.byte	0xd
 2202 063e 1601     		.2byte	0x116
 2203 0640 69060000 		.4byte	0x669
 2204 0644 14       		.uleb128 0x14
 2205 0645 0E020000 		.4byte	.LASF92
 2206 0649 0D       		.byte	0xd
 2207 064a 1E01     		.2byte	0x11e
 2208 064c 94060000 		.4byte	0x694
 2209 0650 14       		.uleb128 0x14
 2210 0651 59060000 		.4byte	.LASF93
 2211 0655 0D       		.byte	0xd
 2212 0656 2701     		.2byte	0x127
 2213 0658 CB060000 		.4byte	0x6cb
 2214 065c 14       		.uleb128 0x14
 2215 065d C9050000 		.4byte	.LASF94
 2216 0661 0D       		.byte	0xd
 2217 0662 2F01     		.2byte	0x12f
 2218 0664 36010000 		.4byte	0x136
 2219 0668 00       		.byte	0
 2220 0669 06       		.uleb128 0x6
 2221 066a 04       		.byte	0x4
 2222 066b 5A020000 		.4byte	0x25a
 2223 066f 09       		.uleb128 0x9
 2224 0670 38060000 		.4byte	.LASF95
 2225 0674 0C       		.byte	0xc
 2226 0675 10       		.byte	0x10
 2227 0676 34       		.byte	0x34
 2228 0677 94060000 		.4byte	0x694
 2229 067b 0A       		.uleb128 0xa
 2230 067c 68010000 		.4byte	.LASF96
 2231 0680 10       		.byte	0x10
 2232 0681 35       		.byte	0x35
 2233 0682 8F020000 		.4byte	0x28f
 2234 0686 00       		.byte	0
 2235 0687 0A       		.uleb128 0xa
 2236 0688 4C020000 		.4byte	.LASF97
 2237 068c 10       		.byte	0x10
 2238 068d 37       		.byte	0x37
 2239 068e 4C010000 		.4byte	0x14c
ARM GAS  /tmp/ccbN9Kog.s 			page 42


 2240 0692 08       		.byte	0x8
 2241 0693 00       		.byte	0
 2242 0694 06       		.uleb128 0x6
 2243 0695 04       		.byte	0x4
 2244 0696 6F060000 		.4byte	0x66f
 2245 069a 09       		.uleb128 0x9
 2246 069b 6D070000 		.4byte	.LASF98
 2247 069f 10       		.byte	0x10
 2248 06a0 11       		.byte	0x11
 2249 06a1 39       		.byte	0x39
 2250 06a2 CB060000 		.4byte	0x6cb
 2251 06a6 0A       		.uleb128 0xa
 2252 06a7 81050000 		.4byte	.LASF99
 2253 06ab 11       		.byte	0x11
 2254 06ac 3A       		.byte	0x3a
 2255 06ad 8F020000 		.4byte	0x28f
 2256 06b1 00       		.byte	0
 2257 06b2 0A       		.uleb128 0xa
 2258 06b3 33080000 		.4byte	.LASF100
 2259 06b7 11       		.byte	0x11
 2260 06b8 3C       		.byte	0x3c
 2261 06b9 65020000 		.4byte	0x265
 2262 06bd 08       		.byte	0x8
 2263 06be 0A       		.uleb128 0xa
 2264 06bf C2060000 		.4byte	.LASF101
 2265 06c3 11       		.byte	0x11
 2266 06c4 3E       		.byte	0x3e
 2267 06c5 FC060000 		.4byte	0x6fc
 2268 06c9 0C       		.byte	0xc
 2269 06ca 00       		.byte	0
 2270 06cb 06       		.uleb128 0x6
 2271 06cc 04       		.byte	0x4
 2272 06cd 9A060000 		.4byte	0x69a
 2273 06d1 06       		.uleb128 0x6
 2274 06d2 04       		.byte	0x4
 2275 06d3 42030000 		.4byte	0x342
 2276 06d7 08       		.uleb128 0x8
 2277 06d8 57010000 		.4byte	0x157
 2278 06dc 08       		.uleb128 0x8
 2279 06dd B8000000 		.4byte	0xb8
 2280 06e1 15       		.uleb128 0x15
 2281 06e2 81040000 		.4byte	0x481
 2282 06e6 F1060000 		.4byte	0x6f1
 2283 06ea 16       		.uleb128 0x16
 2284 06eb A2000000 		.4byte	0xa2
 2285 06ef 2B       		.byte	0x2b
 2286 06f0 00       		.byte	0
 2287 06f1 03       		.uleb128 0x3
 2288 06f2 A3010000 		.4byte	.LASF102
 2289 06f6 11       		.byte	0x11
 2290 06f7 34       		.byte	0x34
 2291 06f8 9A060000 		.4byte	0x69a
 2292 06fc 06       		.uleb128 0x6
 2293 06fd 04       		.byte	0x4
 2294 06fe F1060000 		.4byte	0x6f1
 2295 0702 03       		.uleb128 0x3
 2296 0703 12070000 		.4byte	.LASF103
ARM GAS  /tmp/ccbN9Kog.s 			page 43


 2297 0707 05       		.byte	0x5
 2298 0708 34       		.byte	0x34
 2299 0709 0D070000 		.4byte	0x70d
 2300 070d 09       		.uleb128 0x9
 2301 070e 49080000 		.4byte	.LASF104
 2302 0712 14       		.byte	0x14
 2303 0713 05       		.byte	0x5
 2304 0714 39       		.byte	0x39
 2305 0715 56070000 		.4byte	0x756
 2306 0719 0A       		.uleb128 0xa
 2307 071a B2020000 		.4byte	.LASF105
 2308 071e 05       		.byte	0x5
 2309 071f 3A       		.byte	0x3a
 2310 0720 56070000 		.4byte	0x756
 2311 0724 00       		.byte	0
 2312 0725 0A       		.uleb128 0xa
 2313 0726 89050000 		.4byte	.LASF106
 2314 072a 05       		.byte	0x5
 2315 072b 3D       		.byte	0x3d
 2316 072c 65020000 		.4byte	0x265
 2317 0730 04       		.byte	0x4
 2318 0731 0A       		.uleb128 0xa
 2319 0732 FC040000 		.4byte	.LASF107
 2320 0736 05       		.byte	0x5
 2321 0737 3F       		.byte	0x3f
 2322 0738 36010000 		.4byte	0x136
 2323 073c 08       		.byte	0x8
 2324 073d 0A       		.uleb128 0xa
 2325 073e 95050000 		.4byte	.LASF108
 2326 0742 05       		.byte	0x5
 2327 0743 41       		.byte	0x41
 2328 0744 41010000 		.4byte	0x141
 2329 0748 0C       		.byte	0xc
 2330 0749 0A       		.uleb128 0xa
 2331 074a 8B020000 		.4byte	.LASF109
 2332 074e 05       		.byte	0x5
 2333 074f 43       		.byte	0x43
 2334 0750 41010000 		.4byte	0x141
 2335 0754 10       		.byte	0x10
 2336 0755 00       		.byte	0
 2337 0756 06       		.uleb128 0x6
 2338 0757 04       		.byte	0x4
 2339 0758 02070000 		.4byte	0x702
 2340 075c 09       		.uleb128 0x9
 2341 075d CC070000 		.4byte	.LASF110
 2342 0761 04       		.byte	0x4
 2343 0762 05       		.byte	0x5
 2344 0763 4A       		.byte	0x4a
 2345 0764 75070000 		.4byte	0x775
 2346 0768 0A       		.uleb128 0xa
 2347 0769 76070000 		.4byte	.LASF111
 2348 076d 05       		.byte	0x5
 2349 076e 4B       		.byte	0x4b
 2350 076f 56070000 		.4byte	0x756
 2351 0773 00       		.byte	0
 2352 0774 00       		.byte	0
 2353 0775 03       		.uleb128 0x3
ARM GAS  /tmp/ccbN9Kog.s 			page 44


 2354 0776 C6010000 		.4byte	.LASF112
 2355 077a 05       		.byte	0x5
 2356 077b 4E       		.byte	0x4e
 2357 077c 5C070000 		.4byte	0x75c
 2358 0780 06       		.uleb128 0x6
 2359 0781 04       		.byte	0x4
 2360 0782 C3000000 		.4byte	0xc3
 2361 0786 09       		.uleb128 0x9
 2362 0787 DD050000 		.4byte	.LASF113
 2363 078b 10       		.byte	0x10
 2364 078c 12       		.byte	0x12
 2365 078d 40       		.byte	0x40
 2366 078e C3070000 		.4byte	0x7c3
 2367 0792 0A       		.uleb128 0xa
 2368 0793 36030000 		.4byte	.LASF114
 2369 0797 12       		.byte	0x12
 2370 0798 41       		.byte	0x41
 2371 0799 E7070000 		.4byte	0x7e7
 2372 079d 00       		.byte	0
 2373 079e 0A       		.uleb128 0xa
 2374 079f 94060000 		.4byte	.LASF115
 2375 07a3 12       		.byte	0x12
 2376 07a4 41       		.byte	0x41
 2377 07a5 06080000 		.4byte	0x806
 2378 07a9 04       		.byte	0x4
 2379 07aa 11       		.uleb128 0x11
 2380 07ab 70757400 		.ascii	"put\000"
 2381 07af 12       		.byte	0x12
 2382 07b0 41       		.byte	0x41
 2383 07b1 20080000 		.4byte	0x820
 2384 07b5 08       		.byte	0x8
 2385 07b6 11       		.uleb128 0x11
 2386 07b7 67657400 		.ascii	"get\000"
 2387 07bb 12       		.byte	0x12
 2388 07bc 41       		.byte	0x41
 2389 07bd 35080000 		.4byte	0x835
 2390 07c1 0C       		.byte	0xc
 2391 07c2 00       		.byte	0
 2392 07c3 17       		.uleb128 0x17
 2393 07c4 2C000000 		.4byte	0x2c
 2394 07c8 DC070000 		.4byte	0x7dc
 2395 07cc 0F       		.uleb128 0xf
 2396 07cd A9000000 		.4byte	0xa9
 2397 07d1 0F       		.uleb128 0xf
 2398 07d2 DC070000 		.4byte	0x7dc
 2399 07d6 0F       		.uleb128 0xf
 2400 07d7 2C000000 		.4byte	0x2c
 2401 07db 00       		.byte	0
 2402 07dc 06       		.uleb128 0x6
 2403 07dd 04       		.byte	0x4
 2404 07de E2070000 		.4byte	0x7e2
 2405 07e2 07       		.uleb128 0x7
 2406 07e3 C3000000 		.4byte	0xc3
 2407 07e7 06       		.uleb128 0x6
 2408 07e8 04       		.byte	0x4
 2409 07e9 C3070000 		.4byte	0x7c3
 2410 07ed 17       		.uleb128 0x17
ARM GAS  /tmp/ccbN9Kog.s 			page 45


 2411 07ee 2C000000 		.4byte	0x2c
 2412 07f2 06080000 		.4byte	0x806
 2413 07f6 0F       		.uleb128 0xf
 2414 07f7 A9000000 		.4byte	0xa9
 2415 07fb 0F       		.uleb128 0xf
 2416 07fc 80070000 		.4byte	0x780
 2417 0800 0F       		.uleb128 0xf
 2418 0801 2C000000 		.4byte	0x2c
 2419 0805 00       		.byte	0
 2420 0806 06       		.uleb128 0x6
 2421 0807 04       		.byte	0x4
 2422 0808 ED070000 		.4byte	0x7ed
 2423 080c 17       		.uleb128 0x17
 2424 080d 2B010000 		.4byte	0x12b
 2425 0811 20080000 		.4byte	0x820
 2426 0815 0F       		.uleb128 0xf
 2427 0816 A9000000 		.4byte	0xa9
 2428 081a 0F       		.uleb128 0xf
 2429 081b C3000000 		.4byte	0xc3
 2430 081f 00       		.byte	0
 2431 0820 06       		.uleb128 0x6
 2432 0821 04       		.byte	0x4
 2433 0822 0C080000 		.4byte	0x80c
 2434 0826 17       		.uleb128 0x17
 2435 0827 2B010000 		.4byte	0x12b
 2436 082b 35080000 		.4byte	0x835
 2437 082f 0F       		.uleb128 0xf
 2438 0830 A9000000 		.4byte	0xa9
 2439 0834 00       		.byte	0
 2440 0835 06       		.uleb128 0x6
 2441 0836 04       		.byte	0x4
 2442 0837 26080000 		.4byte	0x826
 2443 083b 12       		.uleb128 0x12
 2444 083c 04       		.byte	0x4
 2445 083d 12       		.byte	0x12
 2446 083e 49       		.byte	0x49
 2447 083f 50080000 		.4byte	0x850
 2448 0843 11       		.uleb128 0x11
 2449 0844 766D7400 		.ascii	"vmt\000"
 2450 0848 12       		.byte	0x12
 2451 0849 4B       		.byte	0x4b
 2452 084a 50080000 		.4byte	0x850
 2453 084e 00       		.byte	0
 2454 084f 00       		.byte	0
 2455 0850 06       		.uleb128 0x6
 2456 0851 04       		.byte	0x4
 2457 0852 56080000 		.4byte	0x856
 2458 0856 07       		.uleb128 0x7
 2459 0857 86070000 		.4byte	0x786
 2460 085b 03       		.uleb128 0x3
 2461 085c B1010000 		.4byte	.LASF116
 2462 0860 12       		.byte	0x12
 2463 0861 4D       		.byte	0x4d
 2464 0862 3B080000 		.4byte	0x83b
 2465 0866 04       		.uleb128 0x4
 2466 0867 01       		.byte	0x1
 2467 0868 02       		.byte	0x2
ARM GAS  /tmp/ccbN9Kog.s 			page 46


 2468 0869 65050000 		.4byte	.LASF117
 2469 086d 03       		.uleb128 0x3
 2470 086e AB040000 		.4byte	.LASF118
 2471 0872 13       		.byte	0x13
 2472 0873 2D       		.byte	0x2d
 2473 0874 78080000 		.4byte	0x878
 2474 0878 06       		.uleb128 0x6
 2475 0879 04       		.byte	0x4
 2476 087a 7E080000 		.4byte	0x87e
 2477 087e 0E       		.uleb128 0xe
 2478 087f 93080000 		.4byte	0x893
 2479 0883 0F       		.uleb128 0xf
 2480 0884 93080000 		.4byte	0x893
 2481 0888 0F       		.uleb128 0xf
 2482 0889 25000000 		.4byte	0x25
 2483 088d 0F       		.uleb128 0xf
 2484 088e 99080000 		.4byte	0x899
 2485 0892 00       		.byte	0
 2486 0893 06       		.uleb128 0x6
 2487 0894 04       		.byte	0x4
 2488 0895 5B080000 		.4byte	0x85b
 2489 0899 06       		.uleb128 0x6
 2490 089a 04       		.byte	0x4
 2491 089b AB000000 		.4byte	0xab
 2492 089f 12       		.uleb128 0x12
 2493 08a0 08       		.byte	0x8
 2494 08a1 13       		.byte	0x13
 2495 08a2 32       		.byte	0x32
 2496 08a3 C0080000 		.4byte	0x8c0
 2497 08a7 0A       		.uleb128 0xa
 2498 08a8 9B010000 		.4byte	.LASF119
 2499 08ac 13       		.byte	0x13
 2500 08ad 33       		.byte	0x33
 2501 08ae B8000000 		.4byte	0xb8
 2502 08b2 00       		.byte	0
 2503 08b3 0A       		.uleb128 0xa
 2504 08b4 E1070000 		.4byte	.LASF120
 2505 08b8 13       		.byte	0x13
 2506 08b9 34       		.byte	0x34
 2507 08ba 6D080000 		.4byte	0x86d
 2508 08be 04       		.byte	0x4
 2509 08bf 00       		.byte	0
 2510 08c0 03       		.uleb128 0x3
 2511 08c1 3B010000 		.4byte	.LASF121
 2512 08c5 13       		.byte	0x13
 2513 08c6 35       		.byte	0x35
 2514 08c7 9F080000 		.4byte	0x89f
 2515 08cb 12       		.uleb128 0x12
 2516 08cc 08       		.byte	0x8
 2517 08cd 13       		.byte	0x13
 2518 08ce 3A       		.byte	0x3a
 2519 08cf EC080000 		.4byte	0x8ec
 2520 08d3 0A       		.uleb128 0xa
 2521 08d4 04010000 		.4byte	.LASF122
 2522 08d8 13       		.byte	0x13
 2523 08d9 3B       		.byte	0x3b
 2524 08da 93080000 		.4byte	0x893
ARM GAS  /tmp/ccbN9Kog.s 			page 47


 2525 08de 00       		.byte	0
 2526 08df 0A       		.uleb128 0xa
 2527 08e0 1E020000 		.4byte	.LASF123
 2528 08e4 13       		.byte	0x13
 2529 08e5 3D       		.byte	0x3d
 2530 08e6 EC080000 		.4byte	0x8ec
 2531 08ea 04       		.byte	0x4
 2532 08eb 00       		.byte	0
 2533 08ec 06       		.uleb128 0x6
 2534 08ed 04       		.byte	0x4
 2535 08ee F2080000 		.4byte	0x8f2
 2536 08f2 07       		.uleb128 0x7
 2537 08f3 C0080000 		.4byte	0x8c0
 2538 08f7 03       		.uleb128 0x3
 2539 08f8 E7060000 		.4byte	.LASF124
 2540 08fc 13       		.byte	0x13
 2541 08fd 3F       		.byte	0x3f
 2542 08fe CB080000 		.4byte	0x8cb
 2543 0902 03       		.uleb128 0x3
 2544 0903 8E040000 		.4byte	.LASF125
 2545 0907 14       		.byte	0x14
 2546 0908 28       		.byte	0x28
 2547 0909 0D090000 		.4byte	0x90d
 2548 090d 09       		.uleb128 0x9
 2549 090e 51010000 		.4byte	.LASF126
 2550 0912 04       		.byte	0x4
 2551 0913 15       		.byte	0x15
 2552 0914 00       		.byte	0
 2553 0915 24090000 		.4byte	0x924
 2554 0919 18       		.uleb128 0x18
 2555 091a 23070000 		.4byte	.LASF127
 2556 091e A9000000 		.4byte	0xa9
 2557 0922 00       		.byte	0
 2558 0923 00       		.byte	0
 2559 0924 03       		.uleb128 0x3
 2560 0925 33000000 		.4byte	.LASF128
 2561 0929 14       		.byte	0x14
 2562 092a 62       		.byte	0x62
 2563 092b 02090000 		.4byte	0x902
 2564 092f 19       		.uleb128 0x19
 2565 0930 F3060000 		.4byte	.LASF165
 2566 0934 02       		.byte	0x2
 2567 0935 2002     		.2byte	0x220
 2568 0937 03       		.byte	0x3
 2569 0938 49090000 		.4byte	0x949
 2570 093c 1A       		.uleb128 0x1a
 2571 093d AB010000 		.4byte	.LASF166
 2572 0941 02       		.byte	0x2
 2573 0942 2002     		.2byte	0x220
 2574 0944 D9000000 		.4byte	0xd9
 2575 0948 00       		.byte	0
 2576 0949 1B       		.uleb128 0x1b
 2577 094a 59000000 		.4byte	.LASF129
 2578 094e 01       		.byte	0x1
 2579 094f BC01     		.2byte	0x1bc
 2580 0951 00000000 		.4byte	.LFB116
 2581 0955 10000000 		.4byte	.LFE116-.LFB116
ARM GAS  /tmp/ccbN9Kog.s 			page 48


 2582 0959 01       		.uleb128 0x1
 2583 095a 9C       		.byte	0x9c
 2584 095b 79090000 		.4byte	0x979
 2585 095f 1C       		.uleb128 0x1c
 2586 0960 2F090000 		.4byte	0x92f
 2587 0964 06000000 		.4byte	.LBB6
 2588 0968 06000000 		.4byte	.LBE6-.LBB6
 2589 096c 01       		.byte	0x1
 2590 096d BF01     		.2byte	0x1bf
 2591 096f 1D       		.uleb128 0x1d
 2592 0970 3C090000 		.4byte	0x93c
 2593 0974 02       		.uleb128 0x2
 2594 0975 91       		.byte	0x91
 2595 0976 7C       		.sleb128 -4
 2596 0977 00       		.byte	0
 2597 0978 00       		.byte	0
 2598 0979 1B       		.uleb128 0x1b
 2599 097a 16010000 		.4byte	.LASF130
 2600 097e 01       		.byte	0x1
 2601 097f CA01     		.2byte	0x1ca
 2602 0981 00000000 		.4byte	.LFB117
 2603 0985 10000000 		.4byte	.LFE117-.LFB117
 2604 0989 01       		.uleb128 0x1
 2605 098a 9C       		.byte	0x9c
 2606 098b A9090000 		.4byte	0x9a9
 2607 098f 1C       		.uleb128 0x1c
 2608 0990 2F090000 		.4byte	0x92f
 2609 0994 06000000 		.4byte	.LBB8
 2610 0998 06000000 		.4byte	.LBE8-.LBB8
 2611 099c 01       		.byte	0x1
 2612 099d CD01     		.2byte	0x1cd
 2613 099f 1D       		.uleb128 0x1d
 2614 09a0 3C090000 		.4byte	0x93c
 2615 09a4 02       		.uleb128 0x2
 2616 09a5 91       		.byte	0x91
 2617 09a6 7C       		.sleb128 -4
 2618 09a7 00       		.byte	0
 2619 09a8 00       		.byte	0
 2620 09a9 1E       		.uleb128 0x1e
 2621 09aa 06060000 		.4byte	.LASF167
 2622 09ae 03       		.byte	0x3
 2623 09af 5A01     		.2byte	0x15a
 2624 09b1 00000000 		.4byte	.LFB145
 2625 09b5 08000000 		.4byte	.LFE145-.LFB145
 2626 09b9 01       		.uleb128 0x1
 2627 09ba 9C       		.byte	0x9c
 2628 09bb 1F       		.uleb128 0x1f
 2629 09bc 17080000 		.4byte	.LASF131
 2630 09c0 03       		.byte	0x3
 2631 09c1 6601     		.2byte	0x166
 2632 09c3 00000000 		.4byte	.LFB146
 2633 09c7 08000000 		.4byte	.LFE146-.LFB146
 2634 09cb 01       		.uleb128 0x1
 2635 09cc 9C       		.byte	0x9c
 2636 09cd DB090000 		.4byte	0x9db
 2637 09d1 20       		.uleb128 0x20
 2638 09d2 FD050000 		.4byte	.LASF168
ARM GAS  /tmp/ccbN9Kog.s 			page 49


 2639 09d6 EB090000 		.4byte	0x9eb
 2640 09da 00       		.byte	0
 2641 09db 15       		.uleb128 0x15
 2642 09dc B1000000 		.4byte	0xb1
 2643 09e0 EB090000 		.4byte	0x9eb
 2644 09e4 16       		.uleb128 0x16
 2645 09e5 A2000000 		.4byte	0xa2
 2646 09e9 0B       		.byte	0xb
 2647 09ea 00       		.byte	0
 2648 09eb 07       		.uleb128 0x7
 2649 09ec DB090000 		.4byte	0x9db
 2650 09f0 21       		.uleb128 0x21
 2651 09f1 E6010000 		.4byte	.LASF169
 2652 09f5 04       		.byte	0x4
 2653 09f6 E4       		.byte	0xe4
 2654 09f7 57010000 		.4byte	0x157
 2655 09fb 00000000 		.4byte	.LFB153
 2656 09ff 0C000000 		.4byte	.LFE153-.LFB153
 2657 0a03 01       		.uleb128 0x1
 2658 0a04 9C       		.byte	0x9c
 2659 0a05 22       		.uleb128 0x22
 2660 0a06 C7040000 		.4byte	.LASF134
 2661 0a0a 04       		.byte	0x4
 2662 0a0b F7       		.byte	0xf7
 2663 0a0c 57010000 		.4byte	0x157
 2664 0a10 00000000 		.4byte	.LFB154
 2665 0a14 1C000000 		.4byte	.LFE154-.LFB154
 2666 0a18 01       		.uleb128 0x1
 2667 0a19 9C       		.byte	0x9c
 2668 0a1a 2D0A0000 		.4byte	0xa2d
 2669 0a1e 23       		.uleb128 0x23
 2670 0a1f F0020000 		.4byte	.LASF136
 2671 0a23 04       		.byte	0x4
 2672 0a24 F8       		.byte	0xf8
 2673 0a25 57010000 		.4byte	0x157
 2674 0a29 02       		.uleb128 0x2
 2675 0a2a 91       		.byte	0x91
 2676 0a2b 74       		.sleb128 -12
 2677 0a2c 00       		.byte	0
 2678 0a2d 24       		.uleb128 0x24
 2679 0a2e 5E020000 		.4byte	.LASF132
 2680 0a32 05       		.byte	0x5
 2681 0a33 AA       		.byte	0xaa
 2682 0a34 00000000 		.4byte	.LFB191
 2683 0a38 0E000000 		.4byte	.LFE191-.LFB191
 2684 0a3c 01       		.uleb128 0x1
 2685 0a3d 9C       		.byte	0x9c
 2686 0a3e 510A0000 		.4byte	0xa51
 2687 0a42 25       		.uleb128 0x25
 2688 0a43 65737000 		.ascii	"esp\000"
 2689 0a47 05       		.byte	0x5
 2690 0a48 AA       		.byte	0xaa
 2691 0a49 510A0000 		.4byte	0xa51
 2692 0a4d 02       		.uleb128 0x2
 2693 0a4e 91       		.byte	0x91
 2694 0a4f 7C       		.sleb128 -4
 2695 0a50 00       		.byte	0
ARM GAS  /tmp/ccbN9Kog.s 			page 50


 2696 0a51 06       		.uleb128 0x6
 2697 0a52 04       		.byte	0x4
 2698 0a53 75070000 		.4byte	0x775
 2699 0a57 26       		.uleb128 0x26
 2700 0a58 10060000 		.4byte	.LASF133
 2701 0a5c 05       		.byte	0x5
 2702 0a5d FE       		.byte	0xfe
 2703 0a5e 00000000 		.4byte	.LFB196
 2704 0a62 14000000 		.4byte	.LFE196-.LFB196
 2705 0a66 01       		.uleb128 0x1
 2706 0a67 9C       		.byte	0x9c
 2707 0a68 7B0A0000 		.4byte	0xa7b
 2708 0a6c 25       		.uleb128 0x25
 2709 0a6d 65737000 		.ascii	"esp\000"
 2710 0a71 05       		.byte	0x5
 2711 0a72 FE       		.byte	0xfe
 2712 0a73 510A0000 		.4byte	0xa51
 2713 0a77 02       		.uleb128 0x2
 2714 0a78 91       		.byte	0x91
 2715 0a79 74       		.sleb128 -12
 2716 0a7a 00       		.byte	0
 2717 0a7b 22       		.uleb128 0x22
 2718 0a7c 58080000 		.4byte	.LASF135
 2719 0a80 06       		.byte	0x6
 2720 0a81 45       		.byte	0x45
 2721 0a82 25000000 		.4byte	0x25
 2722 0a86 00000000 		.4byte	.LFB253
 2723 0a8a 26000000 		.4byte	.LFE253-.LFB253
 2724 0a8e 01       		.uleb128 0x1
 2725 0a8f 9C       		.byte	0x9c
 2726 0a90 CD0A0000 		.4byte	0xacd
 2727 0a94 25       		.uleb128 0x25
 2728 0a95 63687000 		.ascii	"chp\000"
 2729 0a99 06       		.byte	0x6
 2730 0a9a 45       		.byte	0x45
 2731 0a9b 93080000 		.4byte	0x893
 2732 0a9f 02       		.uleb128 0x2
 2733 0aa0 91       		.byte	0x91
 2734 0aa1 64       		.sleb128 -28
 2735 0aa2 25       		.uleb128 0x25
 2736 0aa3 666D7400 		.ascii	"fmt\000"
 2737 0aa7 06       		.byte	0x6
 2738 0aa8 45       		.byte	0x45
 2739 0aa9 B8000000 		.4byte	0xb8
 2740 0aad 02       		.uleb128 0x2
 2741 0aae 91       		.byte	0x91
 2742 0aaf 74       		.sleb128 -12
 2743 0ab0 27       		.uleb128 0x27
 2744 0ab1 28       		.uleb128 0x28
 2745 0ab2 617000   		.ascii	"ap\000"
 2746 0ab5 06       		.byte	0x6
 2747 0ab6 46       		.byte	0x46
 2748 0ab7 24090000 		.4byte	0x924
 2749 0abb 02       		.uleb128 0x2
 2750 0abc 91       		.byte	0x91
 2751 0abd 68       		.sleb128 -24
 2752 0abe 23       		.uleb128 0x23
ARM GAS  /tmp/ccbN9Kog.s 			page 51


 2753 0abf 7A000000 		.4byte	.LASF137
 2754 0ac3 06       		.byte	0x6
 2755 0ac4 47       		.byte	0x47
 2756 0ac5 25000000 		.4byte	0x25
 2757 0ac9 02       		.uleb128 0x2
 2758 0aca 91       		.byte	0x91
 2759 0acb 6C       		.sleb128 -20
 2760 0acc 00       		.byte	0
 2761 0acd 22       		.uleb128 0x22
 2762 0ace 46050000 		.4byte	.LASF138
 2763 0ad2 07       		.byte	0x7
 2764 0ad3 25       		.byte	0x25
 2765 0ad4 AB000000 		.4byte	0xab
 2766 0ad8 00000000 		.4byte	.LFB254
 2767 0adc 72000000 		.4byte	.LFE254-.LFB254
 2768 0ae0 01       		.uleb128 0x1
 2769 0ae1 9C       		.byte	0x9c
 2770 0ae2 1F0B0000 		.4byte	0xb1f
 2771 0ae6 25       		.uleb128 0x25
 2772 0ae7 73747200 		.ascii	"str\000"
 2773 0aeb 07       		.byte	0x7
 2774 0aec 25       		.byte	0x25
 2775 0aed AB000000 		.4byte	0xab
 2776 0af1 02       		.uleb128 0x2
 2777 0af2 91       		.byte	0x91
 2778 0af3 6C       		.sleb128 -20
 2779 0af4 29       		.uleb128 0x29
 2780 0af5 D7050000 		.4byte	.LASF139
 2781 0af9 07       		.byte	0x7
 2782 0afa 25       		.byte	0x25
 2783 0afb B8000000 		.4byte	0xb8
 2784 0aff 02       		.uleb128 0x2
 2785 0b00 91       		.byte	0x91
 2786 0b01 68       		.sleb128 -24
 2787 0b02 29       		.uleb128 0x29
 2788 0b03 1F050000 		.4byte	.LASF140
 2789 0b07 07       		.byte	0x7
 2790 0b08 25       		.byte	0x25
 2791 0b09 99080000 		.4byte	0x899
 2792 0b0d 02       		.uleb128 0x2
 2793 0b0e 91       		.byte	0x91
 2794 0b0f 64       		.sleb128 -28
 2795 0b10 23       		.uleb128 0x23
 2796 0b11 11050000 		.4byte	.LASF141
 2797 0b15 07       		.byte	0x7
 2798 0b16 26       		.byte	0x26
 2799 0b17 AB000000 		.4byte	0xab
 2800 0b1b 02       		.uleb128 0x2
 2801 0b1c 91       		.byte	0x91
 2802 0b1d 74       		.sleb128 -12
 2803 0b1e 00       		.byte	0
 2804 0b1f 26       		.uleb128 0x26
 2805 0b20 50070000 		.4byte	.LASF142
 2806 0b24 07       		.byte	0x7
 2807 0b25 36       		.byte	0x36
 2808 0b26 00000000 		.4byte	.LFB255
 2809 0b2a 1C000000 		.4byte	.LFE255-.LFB255
ARM GAS  /tmp/ccbN9Kog.s 			page 52


 2810 0b2e 01       		.uleb128 0x1
 2811 0b2f 9C       		.byte	0x9c
 2812 0b30 4F0B0000 		.4byte	0xb4f
 2813 0b34 25       		.uleb128 0x25
 2814 0b35 63687000 		.ascii	"chp\000"
 2815 0b39 07       		.byte	0x7
 2816 0b3a 36       		.byte	0x36
 2817 0b3b 93080000 		.4byte	0x893
 2818 0b3f 02       		.uleb128 0x2
 2819 0b40 91       		.byte	0x91
 2820 0b41 74       		.sleb128 -12
 2821 0b42 25       		.uleb128 0x25
 2822 0b43 7000     		.ascii	"p\000"
 2823 0b45 07       		.byte	0x7
 2824 0b46 36       		.byte	0x36
 2825 0b47 AB000000 		.4byte	0xab
 2826 0b4b 02       		.uleb128 0x2
 2827 0b4c 91       		.byte	0x91
 2828 0b4d 70       		.sleb128 -16
 2829 0b4e 00       		.byte	0
 2830 0b4f 26       		.uleb128 0x26
 2831 0b50 09080000 		.4byte	.LASF143
 2832 0b54 07       		.byte	0x7
 2833 0b55 3B       		.byte	0x3b
 2834 0b56 00000000 		.4byte	.LFB256
 2835 0b5a 30000000 		.4byte	.LFE256-.LFB256
 2836 0b5e 01       		.uleb128 0x1
 2837 0b5f 9C       		.byte	0x9c
 2838 0b60 810B0000 		.4byte	0xb81
 2839 0b64 25       		.uleb128 0x25
 2840 0b65 63687000 		.ascii	"chp\000"
 2841 0b69 07       		.byte	0x7
 2842 0b6a 3B       		.byte	0x3b
 2843 0b6b 93080000 		.4byte	0x893
 2844 0b6f 02       		.uleb128 0x2
 2845 0b70 91       		.byte	0x91
 2846 0b71 74       		.sleb128 -12
 2847 0b72 25       		.uleb128 0x25
 2848 0b73 73637000 		.ascii	"scp\000"
 2849 0b77 07       		.byte	0x7
 2850 0b78 3B       		.byte	0x3b
 2851 0b79 EC080000 		.4byte	0x8ec
 2852 0b7d 02       		.uleb128 0x2
 2853 0b7e 91       		.byte	0x91
 2854 0b7f 70       		.sleb128 -16
 2855 0b80 00       		.byte	0
 2856 0b81 26       		.uleb128 0x26
 2857 0b82 D2000000 		.4byte	.LASF144
 2858 0b86 07       		.byte	0x7
 2859 0b87 43       		.byte	0x43
 2860 0b88 00000000 		.4byte	.LFB257
 2861 0b8c C4000000 		.4byte	.LFE257-.LFB257
 2862 0b90 01       		.uleb128 0x1
 2863 0b91 9C       		.byte	0x9c
 2864 0b92 C10B0000 		.4byte	0xbc1
 2865 0b96 25       		.uleb128 0x25
 2866 0b97 63687000 		.ascii	"chp\000"
ARM GAS  /tmp/ccbN9Kog.s 			page 53


 2867 0b9b 07       		.byte	0x7
 2868 0b9c 43       		.byte	0x43
 2869 0b9d 93080000 		.4byte	0x893
 2870 0ba1 02       		.uleb128 0x2
 2871 0ba2 91       		.byte	0x91
 2872 0ba3 74       		.sleb128 -12
 2873 0ba4 29       		.uleb128 0x29
 2874 0ba5 F4070000 		.4byte	.LASF145
 2875 0ba9 07       		.byte	0x7
 2876 0baa 43       		.byte	0x43
 2877 0bab 25000000 		.4byte	0x25
 2878 0baf 02       		.uleb128 0x2
 2879 0bb0 91       		.byte	0x91
 2880 0bb1 70       		.sleb128 -16
 2881 0bb2 29       		.uleb128 0x29
 2882 0bb3 2E080000 		.4byte	.LASF146
 2883 0bb7 07       		.byte	0x7
 2884 0bb8 43       		.byte	0x43
 2885 0bb9 99080000 		.4byte	0x899
 2886 0bbd 02       		.uleb128 0x2
 2887 0bbe 91       		.byte	0x91
 2888 0bbf 6C       		.sleb128 -20
 2889 0bc0 00       		.byte	0
 2890 0bc1 26       		.uleb128 0x26
 2891 0bc2 3C070000 		.4byte	.LASF147
 2892 0bc6 07       		.byte	0x7
 2893 0bc7 63       		.byte	0x63
 2894 0bc8 00000000 		.4byte	.LFB258
 2895 0bcc 38000000 		.4byte	.LFE258-.LFB258
 2896 0bd0 01       		.uleb128 0x1
 2897 0bd1 9C       		.byte	0x9c
 2898 0bd2 010C0000 		.4byte	0xc01
 2899 0bd6 25       		.uleb128 0x25
 2900 0bd7 63687000 		.ascii	"chp\000"
 2901 0bdb 07       		.byte	0x7
 2902 0bdc 63       		.byte	0x63
 2903 0bdd 93080000 		.4byte	0x893
 2904 0be1 02       		.uleb128 0x2
 2905 0be2 91       		.byte	0x91
 2906 0be3 74       		.sleb128 -12
 2907 0be4 29       		.uleb128 0x29
 2908 0be5 F4070000 		.4byte	.LASF145
 2909 0be9 07       		.byte	0x7
 2910 0bea 63       		.byte	0x63
 2911 0beb 25000000 		.4byte	0x25
 2912 0bef 02       		.uleb128 0x2
 2913 0bf0 91       		.byte	0x91
 2914 0bf1 70       		.sleb128 -16
 2915 0bf2 29       		.uleb128 0x29
 2916 0bf3 2E080000 		.4byte	.LASF146
 2917 0bf7 07       		.byte	0x7
 2918 0bf8 63       		.byte	0x63
 2919 0bf9 99080000 		.4byte	0x899
 2920 0bfd 02       		.uleb128 0x2
 2921 0bfe 91       		.byte	0x91
 2922 0bff 6C       		.sleb128 -20
 2923 0c00 00       		.byte	0
ARM GAS  /tmp/ccbN9Kog.s 			page 54


 2924 0c01 22       		.uleb128 0x22
 2925 0c02 BA050000 		.4byte	.LASF148
 2926 0c06 07       		.byte	0x7
 2927 0c07 76       		.byte	0x76
 2928 0c08 66080000 		.4byte	0x866
 2929 0c0c 00000000 		.4byte	.LFB259
 2930 0c10 48000000 		.4byte	.LFE259-.LFB259
 2931 0c14 01       		.uleb128 0x1
 2932 0c15 9C       		.byte	0x9c
 2933 0c16 610C0000 		.4byte	0xc61
 2934 0c1a 25       		.uleb128 0x25
 2935 0c1b 73637000 		.ascii	"scp\000"
 2936 0c1f 07       		.byte	0x7
 2937 0c20 76       		.byte	0x76
 2938 0c21 EC080000 		.4byte	0x8ec
 2939 0c25 02       		.uleb128 0x2
 2940 0c26 91       		.byte	0x91
 2941 0c27 74       		.sleb128 -12
 2942 0c28 25       		.uleb128 0x25
 2943 0c29 63687000 		.ascii	"chp\000"
 2944 0c2d 07       		.byte	0x7
 2945 0c2e 76       		.byte	0x76
 2946 0c2f 93080000 		.4byte	0x893
 2947 0c33 02       		.uleb128 0x2
 2948 0c34 91       		.byte	0x91
 2949 0c35 70       		.sleb128 -16
 2950 0c36 29       		.uleb128 0x29
 2951 0c37 35020000 		.4byte	.LASF149
 2952 0c3b 07       		.byte	0x7
 2953 0c3c 77       		.byte	0x77
 2954 0c3d AB000000 		.4byte	0xab
 2955 0c41 02       		.uleb128 0x2
 2956 0c42 91       		.byte	0x91
 2957 0c43 6C       		.sleb128 -20
 2958 0c44 29       		.uleb128 0x29
 2959 0c45 F4070000 		.4byte	.LASF145
 2960 0c49 07       		.byte	0x7
 2961 0c4a 77       		.byte	0x77
 2962 0c4b 25000000 		.4byte	0x25
 2963 0c4f 02       		.uleb128 0x2
 2964 0c50 91       		.byte	0x91
 2965 0c51 68       		.sleb128 -24
 2966 0c52 29       		.uleb128 0x29
 2967 0c53 2E080000 		.4byte	.LASF146
 2968 0c57 07       		.byte	0x7
 2969 0c58 77       		.byte	0x77
 2970 0c59 99080000 		.4byte	0x899
 2971 0c5d 02       		.uleb128 0x2
 2972 0c5e 91       		.byte	0x91
 2973 0c5f 00       		.sleb128 0
 2974 0c60 00       		.byte	0
 2975 0c61 26       		.uleb128 0x26
 2976 0c62 B9070000 		.4byte	.LASF150
 2977 0c66 07       		.byte	0x7
 2978 0c67 88       		.byte	0x88
 2979 0c68 00000000 		.4byte	.LFB260
 2980 0c6c A0010000 		.4byte	.LFE260-.LFB260
ARM GAS  /tmp/ccbN9Kog.s 			page 55


 2981 0c70 01       		.uleb128 0x1
 2982 0c71 9C       		.byte	0x9c
 2983 0c72 F30C0000 		.4byte	0xcf3
 2984 0c76 25       		.uleb128 0x25
 2985 0c77 7000     		.ascii	"p\000"
 2986 0c79 07       		.byte	0x7
 2987 0c7a 88       		.byte	0x88
 2988 0c7b A9000000 		.4byte	0xa9
 2989 0c7f 03       		.uleb128 0x3
 2990 0c80 91       		.byte	0x91
 2991 0c81 847F     		.sleb128 -124
 2992 0c83 28       		.uleb128 0x28
 2993 0c84 6E00     		.ascii	"n\000"
 2994 0c86 07       		.byte	0x7
 2995 0c87 89       		.byte	0x89
 2996 0c88 25000000 		.4byte	0x25
 2997 0c8c 02       		.uleb128 0x2
 2998 0c8d 91       		.byte	0x91
 2999 0c8e 74       		.sleb128 -12
 3000 0c8f 28       		.uleb128 0x28
 3001 0c90 63687000 		.ascii	"chp\000"
 3002 0c94 07       		.byte	0x7
 3003 0c95 8A       		.byte	0x8a
 3004 0c96 93080000 		.4byte	0x893
 3005 0c9a 02       		.uleb128 0x2
 3006 0c9b 91       		.byte	0x91
 3007 0c9c 6C       		.sleb128 -20
 3008 0c9d 28       		.uleb128 0x28
 3009 0c9e 73637000 		.ascii	"scp\000"
 3010 0ca2 07       		.byte	0x7
 3011 0ca3 8B       		.byte	0x8b
 3012 0ca4 EC080000 		.4byte	0x8ec
 3013 0ca8 02       		.uleb128 0x2
 3014 0ca9 91       		.byte	0x91
 3015 0caa 68       		.sleb128 -24
 3016 0cab 28       		.uleb128 0x28
 3017 0cac 6C7000   		.ascii	"lp\000"
 3018 0caf 07       		.byte	0x7
 3019 0cb0 8C       		.byte	0x8c
 3020 0cb1 AB000000 		.4byte	0xab
 3021 0cb5 02       		.uleb128 0x2
 3022 0cb6 91       		.byte	0x91
 3023 0cb7 64       		.sleb128 -28
 3024 0cb8 28       		.uleb128 0x28
 3025 0cb9 636D6400 		.ascii	"cmd\000"
 3026 0cbd 07       		.byte	0x7
 3027 0cbe 8C       		.byte	0x8c
 3028 0cbf AB000000 		.4byte	0xab
 3029 0cc3 02       		.uleb128 0x2
 3030 0cc4 91       		.byte	0x91
 3031 0cc5 70       		.sleb128 -16
 3032 0cc6 23       		.uleb128 0x23
 3033 0cc7 5B010000 		.4byte	.LASF151
 3034 0ccb 07       		.byte	0x7
 3035 0ccc 8C       		.byte	0x8c
 3036 0ccd AB000000 		.4byte	0xab
 3037 0cd1 02       		.uleb128 0x2
ARM GAS  /tmp/ccbN9Kog.s 			page 56


 3038 0cd2 91       		.byte	0x91
 3039 0cd3 60       		.sleb128 -32
 3040 0cd4 23       		.uleb128 0x23
 3041 0cd5 70010000 		.4byte	.LASF152
 3042 0cd9 07       		.byte	0x7
 3043 0cda 8C       		.byte	0x8c
 3044 0cdb F30C0000 		.4byte	0xcf3
 3045 0cdf 03       		.uleb128 0x3
 3046 0ce0 91       		.byte	0x91
 3047 0ce1 A07F     		.sleb128 -96
 3048 0ce3 23       		.uleb128 0x23
 3049 0ce4 29080000 		.4byte	.LASF153
 3050 0ce8 07       		.byte	0x7
 3051 0ce9 8D       		.byte	0x8d
 3052 0cea 030D0000 		.4byte	0xd03
 3053 0cee 03       		.uleb128 0x3
 3054 0cef 91       		.byte	0x91
 3055 0cf0 8C7F     		.sleb128 -116
 3056 0cf2 00       		.byte	0
 3057 0cf3 15       		.uleb128 0x15
 3058 0cf4 B1000000 		.4byte	0xb1
 3059 0cf8 030D0000 		.4byte	0xd03
 3060 0cfc 16       		.uleb128 0x16
 3061 0cfd A2000000 		.4byte	0xa2
 3062 0d01 3F       		.byte	0x3f
 3063 0d02 00       		.byte	0
 3064 0d03 15       		.uleb128 0x15
 3065 0d04 AB000000 		.4byte	0xab
 3066 0d08 130D0000 		.4byte	0xd13
 3067 0d0c 16       		.uleb128 0x16
 3068 0d0d A2000000 		.4byte	0xa2
 3069 0d11 04       		.byte	0x4
 3070 0d12 00       		.byte	0
 3071 0d13 2A       		.uleb128 0x2a
 3072 0d14 AF060000 		.4byte	.LASF170
 3073 0d18 07       		.byte	0x7
 3074 0d19 C5       		.byte	0xc5
 3075 0d1a 00000000 		.4byte	.LFB261
 3076 0d1e 10000000 		.4byte	.LFE261-.LFB261
 3077 0d22 01       		.uleb128 0x1
 3078 0d23 9C       		.byte	0x9c
 3079 0d24 2B       		.uleb128 0x2b
 3080 0d25 A8020000 		.4byte	.LASF171
 3081 0d29 07       		.byte	0x7
 3082 0d2a D3       		.byte	0xd3
 3083 0d2b 00000000 		.4byte	.LFB262
 3084 0d2f 20000000 		.4byte	.LFE262-.LFB262
 3085 0d33 01       		.uleb128 0x1
 3086 0d34 9C       		.byte	0x9c
 3087 0d35 480D0000 		.4byte	0xd48
 3088 0d39 25       		.uleb128 0x25
 3089 0d3a 6D736700 		.ascii	"msg\000"
 3090 0d3e 07       		.byte	0x7
 3091 0d3f D3       		.byte	0xd3
 3092 0d40 2B010000 		.4byte	0x12b
 3093 0d44 02       		.uleb128 0x2
 3094 0d45 91       		.byte	0x91
ARM GAS  /tmp/ccbN9Kog.s 			page 57


 3095 0d46 74       		.sleb128 -12
 3096 0d47 00       		.byte	0
 3097 0d48 2C       		.uleb128 0x2c
 3098 0d49 52020000 		.4byte	.LASF156
 3099 0d4d 07       		.byte	0x7
 3100 0d4e E9       		.byte	0xe9
 3101 0d4f 65020000 		.4byte	0x265
 3102 0d53 00000000 		.4byte	.LFB263
 3103 0d57 28000000 		.4byte	.LFE263-.LFB263
 3104 0d5b 01       		.uleb128 0x1
 3105 0d5c 9C       		.byte	0x9c
 3106 0d5d 8C0D0000 		.4byte	0xd8c
 3107 0d61 25       		.uleb128 0x25
 3108 0d62 73637000 		.ascii	"scp\000"
 3109 0d66 07       		.byte	0x7
 3110 0d67 E9       		.byte	0xe9
 3111 0d68 8C0D0000 		.4byte	0xd8c
 3112 0d6c 02       		.uleb128 0x2
 3113 0d6d 91       		.byte	0x91
 3114 0d6e 74       		.sleb128 -12
 3115 0d6f 29       		.uleb128 0x29
 3116 0d70 F9070000 		.4byte	.LASF154
 3117 0d74 07       		.byte	0x7
 3118 0d75 E9       		.byte	0xe9
 3119 0d76 2C000000 		.4byte	0x2c
 3120 0d7a 02       		.uleb128 0x2
 3121 0d7b 91       		.byte	0x91
 3122 0d7c 70       		.sleb128 -16
 3123 0d7d 29       		.uleb128 0x29
 3124 0d7e EF040000 		.4byte	.LASF155
 3125 0d82 07       		.byte	0x7
 3126 0d83 E9       		.byte	0xe9
 3127 0d84 20010000 		.4byte	0x120
 3128 0d88 02       		.uleb128 0x2
 3129 0d89 91       		.byte	0x91
 3130 0d8a 6C       		.sleb128 -20
 3131 0d8b 00       		.byte	0
 3132 0d8c 06       		.uleb128 0x6
 3133 0d8d 04       		.byte	0x4
 3134 0d8e 920D0000 		.4byte	0xd92
 3135 0d92 07       		.uleb128 0x7
 3136 0d93 F7080000 		.4byte	0x8f7
 3137 0d97 2C       		.uleb128 0x2c
 3138 0d98 3A020000 		.4byte	.LASF157
 3139 0d9c 07       		.byte	0x7
 3140 0d9d FA       		.byte	0xfa
 3141 0d9e 65020000 		.4byte	0x265
 3142 0da2 00000000 		.4byte	.LFB264
 3143 0da6 2C000000 		.4byte	.LFE264-.LFB264
 3144 0daa 01       		.uleb128 0x1
 3145 0dab 9C       		.byte	0x9c
 3146 0dac E90D0000 		.4byte	0xde9
 3147 0db0 25       		.uleb128 0x25
 3148 0db1 73637000 		.ascii	"scp\000"
 3149 0db5 07       		.byte	0x7
 3150 0db6 FA       		.byte	0xfa
 3151 0db7 8C0D0000 		.4byte	0xd8c
ARM GAS  /tmp/ccbN9Kog.s 			page 58


 3152 0dbb 02       		.uleb128 0x2
 3153 0dbc 91       		.byte	0x91
 3154 0dbd 74       		.sleb128 -12
 3155 0dbe 25       		.uleb128 0x25
 3156 0dbf 77737000 		.ascii	"wsp\000"
 3157 0dc3 07       		.byte	0x7
 3158 0dc4 FA       		.byte	0xfa
 3159 0dc5 A9000000 		.4byte	0xa9
 3160 0dc9 02       		.uleb128 0x2
 3161 0dca 91       		.byte	0x91
 3162 0dcb 70       		.sleb128 -16
 3163 0dcc 29       		.uleb128 0x29
 3164 0dcd F9070000 		.4byte	.LASF154
 3165 0dd1 07       		.byte	0x7
 3166 0dd2 FB       		.byte	0xfb
 3167 0dd3 2C000000 		.4byte	0x2c
 3168 0dd7 02       		.uleb128 0x2
 3169 0dd8 91       		.byte	0x91
 3170 0dd9 6C       		.sleb128 -20
 3171 0dda 29       		.uleb128 0x29
 3172 0ddb EF040000 		.4byte	.LASF155
 3173 0ddf 07       		.byte	0x7
 3174 0de0 FB       		.byte	0xfb
 3175 0de1 20010000 		.4byte	0x120
 3176 0de5 02       		.uleb128 0x2
 3177 0de6 91       		.byte	0x91
 3178 0de7 68       		.sleb128 -24
 3179 0de8 00       		.byte	0
 3180 0de9 2D       		.uleb128 0x2d
 3181 0dea 8E010000 		.4byte	.LASF158
 3182 0dee 07       		.byte	0x7
 3183 0def 0C01     		.2byte	0x10c
 3184 0df1 66080000 		.4byte	0x866
 3185 0df5 00000000 		.4byte	.LFB265
 3186 0df9 EC000000 		.4byte	.LFE265-.LFB265
 3187 0dfd 01       		.uleb128 0x1
 3188 0dfe 9C       		.byte	0x9c
 3189 0dff 550E0000 		.4byte	0xe55
 3190 0e03 2E       		.uleb128 0x2e
 3191 0e04 63687000 		.ascii	"chp\000"
 3192 0e08 07       		.byte	0x7
 3193 0e09 0C01     		.2byte	0x10c
 3194 0e0b 93080000 		.4byte	0x893
 3195 0e0f 02       		.uleb128 0x2
 3196 0e10 91       		.byte	0x91
 3197 0e11 6C       		.sleb128 -20
 3198 0e12 2F       		.uleb128 0x2f
 3199 0e13 70010000 		.4byte	.LASF152
 3200 0e17 07       		.byte	0x7
 3201 0e18 0C01     		.2byte	0x10c
 3202 0e1a AB000000 		.4byte	0xab
 3203 0e1e 02       		.uleb128 0x2
 3204 0e1f 91       		.byte	0x91
 3205 0e20 68       		.sleb128 -24
 3206 0e21 2F       		.uleb128 0x2f
 3207 0e22 F9070000 		.4byte	.LASF154
 3208 0e26 07       		.byte	0x7
ARM GAS  /tmp/ccbN9Kog.s 			page 59


 3209 0e27 0C01     		.2byte	0x10c
 3210 0e29 37000000 		.4byte	0x37
 3211 0e2d 02       		.uleb128 0x2
 3212 0e2e 91       		.byte	0x91
 3213 0e2f 64       		.sleb128 -28
 3214 0e30 30       		.uleb128 0x30
 3215 0e31 7000     		.ascii	"p\000"
 3216 0e33 07       		.byte	0x7
 3217 0e34 0D01     		.2byte	0x10d
 3218 0e36 AB000000 		.4byte	0xab
 3219 0e3a 02       		.uleb128 0x2
 3220 0e3b 91       		.byte	0x91
 3221 0e3c 74       		.sleb128 -12
 3222 0e3d 31       		.uleb128 0x31
 3223 0e3e 0E000000 		.4byte	.LBB10
 3224 0e42 CC000000 		.4byte	.LBE10-.LBB10
 3225 0e46 30       		.uleb128 0x30
 3226 0e47 6300     		.ascii	"c\000"
 3227 0e49 07       		.byte	0x7
 3228 0e4a 1001     		.2byte	0x110
 3229 0e4c B1000000 		.4byte	0xb1
 3230 0e50 02       		.uleb128 0x2
 3231 0e51 91       		.byte	0x91
 3232 0e52 73       		.sleb128 -13
 3233 0e53 00       		.byte	0
 3234 0e54 00       		.byte	0
 3235 0e55 15       		.uleb128 0x15
 3236 0e56 C0080000 		.4byte	0x8c0
 3237 0e5a 650E0000 		.4byte	0xe65
 3238 0e5e 16       		.uleb128 0x16
 3239 0e5f A2000000 		.4byte	0xa2
 3240 0e63 02       		.byte	0x2
 3241 0e64 00       		.byte	0
 3242 0e65 23       		.uleb128 0x23
 3243 0e66 E0040000 		.4byte	.LASF159
 3244 0e6a 07       		.byte	0x7
 3245 0e6b 70       		.byte	0x70
 3246 0e6c 550E0000 		.4byte	0xe55
 3247 0e70 05       		.uleb128 0x5
 3248 0e71 03       		.byte	0x3
 3249 0e72 00000000 		.4byte	local_commands
 3250 0e76 32       		.uleb128 0x32
 3251 0e77 B4000000 		.4byte	.LASF160
 3252 0e7b 16       		.byte	0x16
 3253 0e7c A706     		.2byte	0x6a7
 3254 0e7e EF000000 		.4byte	0xef
 3255 0e82 33       		.uleb128 0x33
 3256 0e83 636800   		.ascii	"ch\000"
 3257 0e86 0D       		.byte	0xd
 3258 0e87 0902     		.2byte	0x209
 3259 0e89 0F040000 		.4byte	0x40f
 3260 0e8d 34       		.uleb128 0x34
 3261 0e8e 9E060000 		.4byte	.LASF161
 3262 0e92 07       		.byte	0x7
 3263 0e93 23       		.byte	0x23
 3264 0e94 75070000 		.4byte	0x775
 3265 0e98 05       		.uleb128 0x5
ARM GAS  /tmp/ccbN9Kog.s 			page 60


 3266 0e99 03       		.byte	0x3
 3267 0e9a 00000000 		.4byte	shell_terminated
 3268 0e9e 00       		.byte	0
 3269              		.section	.debug_abbrev,"",%progbits
 3270              	.Ldebug_abbrev0:
 3271 0000 01       		.uleb128 0x1
 3272 0001 11       		.uleb128 0x11
 3273 0002 01       		.byte	0x1
 3274 0003 25       		.uleb128 0x25
 3275 0004 0E       		.uleb128 0xe
 3276 0005 13       		.uleb128 0x13
 3277 0006 0B       		.uleb128 0xb
 3278 0007 03       		.uleb128 0x3
 3279 0008 0E       		.uleb128 0xe
 3280 0009 1B       		.uleb128 0x1b
 3281 000a 0E       		.uleb128 0xe
 3282 000b 55       		.uleb128 0x55
 3283 000c 17       		.uleb128 0x17
 3284 000d 11       		.uleb128 0x11
 3285 000e 01       		.uleb128 0x1
 3286 000f 10       		.uleb128 0x10
 3287 0010 17       		.uleb128 0x17
 3288 0011 00       		.byte	0
 3289 0012 00       		.byte	0
 3290 0013 02       		.uleb128 0x2
 3291 0014 24       		.uleb128 0x24
 3292 0015 00       		.byte	0
 3293 0016 0B       		.uleb128 0xb
 3294 0017 0B       		.uleb128 0xb
 3295 0018 3E       		.uleb128 0x3e
 3296 0019 0B       		.uleb128 0xb
 3297 001a 03       		.uleb128 0x3
 3298 001b 08       		.uleb128 0x8
 3299 001c 00       		.byte	0
 3300 001d 00       		.byte	0
 3301 001e 03       		.uleb128 0x3
 3302 001f 16       		.uleb128 0x16
 3303 0020 00       		.byte	0
 3304 0021 03       		.uleb128 0x3
 3305 0022 0E       		.uleb128 0xe
 3306 0023 3A       		.uleb128 0x3a
 3307 0024 0B       		.uleb128 0xb
 3308 0025 3B       		.uleb128 0x3b
 3309 0026 0B       		.uleb128 0xb
 3310 0027 49       		.uleb128 0x49
 3311 0028 13       		.uleb128 0x13
 3312 0029 00       		.byte	0
 3313 002a 00       		.byte	0
 3314 002b 04       		.uleb128 0x4
 3315 002c 24       		.uleb128 0x24
 3316 002d 00       		.byte	0
 3317 002e 0B       		.uleb128 0xb
 3318 002f 0B       		.uleb128 0xb
 3319 0030 3E       		.uleb128 0x3e
 3320 0031 0B       		.uleb128 0xb
 3321 0032 03       		.uleb128 0x3
 3322 0033 0E       		.uleb128 0xe
ARM GAS  /tmp/ccbN9Kog.s 			page 61


 3323 0034 00       		.byte	0
 3324 0035 00       		.byte	0
 3325 0036 05       		.uleb128 0x5
 3326 0037 0F       		.uleb128 0xf
 3327 0038 00       		.byte	0
 3328 0039 0B       		.uleb128 0xb
 3329 003a 0B       		.uleb128 0xb
 3330 003b 00       		.byte	0
 3331 003c 00       		.byte	0
 3332 003d 06       		.uleb128 0x6
 3333 003e 0F       		.uleb128 0xf
 3334 003f 00       		.byte	0
 3335 0040 0B       		.uleb128 0xb
 3336 0041 0B       		.uleb128 0xb
 3337 0042 49       		.uleb128 0x49
 3338 0043 13       		.uleb128 0x13
 3339 0044 00       		.byte	0
 3340 0045 00       		.byte	0
 3341 0046 07       		.uleb128 0x7
 3342 0047 26       		.uleb128 0x26
 3343 0048 00       		.byte	0
 3344 0049 49       		.uleb128 0x49
 3345 004a 13       		.uleb128 0x13
 3346 004b 00       		.byte	0
 3347 004c 00       		.byte	0
 3348 004d 08       		.uleb128 0x8
 3349 004e 35       		.uleb128 0x35
 3350 004f 00       		.byte	0
 3351 0050 49       		.uleb128 0x49
 3352 0051 13       		.uleb128 0x13
 3353 0052 00       		.byte	0
 3354 0053 00       		.byte	0
 3355 0054 09       		.uleb128 0x9
 3356 0055 13       		.uleb128 0x13
 3357 0056 01       		.byte	0x1
 3358 0057 03       		.uleb128 0x3
 3359 0058 0E       		.uleb128 0xe
 3360 0059 0B       		.uleb128 0xb
 3361 005a 0B       		.uleb128 0xb
 3362 005b 3A       		.uleb128 0x3a
 3363 005c 0B       		.uleb128 0xb
 3364 005d 3B       		.uleb128 0x3b
 3365 005e 0B       		.uleb128 0xb
 3366 005f 01       		.uleb128 0x1
 3367 0060 13       		.uleb128 0x13
 3368 0061 00       		.byte	0
 3369 0062 00       		.byte	0
 3370 0063 0A       		.uleb128 0xa
 3371 0064 0D       		.uleb128 0xd
 3372 0065 00       		.byte	0
 3373 0066 03       		.uleb128 0x3
 3374 0067 0E       		.uleb128 0xe
 3375 0068 3A       		.uleb128 0x3a
 3376 0069 0B       		.uleb128 0xb
 3377 006a 3B       		.uleb128 0x3b
 3378 006b 0B       		.uleb128 0xb
 3379 006c 49       		.uleb128 0x49
ARM GAS  /tmp/ccbN9Kog.s 			page 62


 3380 006d 13       		.uleb128 0x13
 3381 006e 38       		.uleb128 0x38
 3382 006f 0B       		.uleb128 0xb
 3383 0070 00       		.byte	0
 3384 0071 00       		.byte	0
 3385 0072 0B       		.uleb128 0xb
 3386 0073 0D       		.uleb128 0xd
 3387 0074 00       		.byte	0
 3388 0075 03       		.uleb128 0x3
 3389 0076 08       		.uleb128 0x8
 3390 0077 3A       		.uleb128 0x3a
 3391 0078 0B       		.uleb128 0xb
 3392 0079 3B       		.uleb128 0x3b
 3393 007a 05       		.uleb128 0x5
 3394 007b 49       		.uleb128 0x49
 3395 007c 13       		.uleb128 0x13
 3396 007d 38       		.uleb128 0x38
 3397 007e 0B       		.uleb128 0xb
 3398 007f 00       		.byte	0
 3399 0080 00       		.byte	0
 3400 0081 0C       		.uleb128 0xc
 3401 0082 0D       		.uleb128 0xd
 3402 0083 00       		.byte	0
 3403 0084 03       		.uleb128 0x3
 3404 0085 0E       		.uleb128 0xe
 3405 0086 3A       		.uleb128 0x3a
 3406 0087 0B       		.uleb128 0xb
 3407 0088 3B       		.uleb128 0x3b
 3408 0089 05       		.uleb128 0x5
 3409 008a 49       		.uleb128 0x49
 3410 008b 13       		.uleb128 0x13
 3411 008c 38       		.uleb128 0x38
 3412 008d 0B       		.uleb128 0xb
 3413 008e 00       		.byte	0
 3414 008f 00       		.byte	0
 3415 0090 0D       		.uleb128 0xd
 3416 0091 13       		.uleb128 0x13
 3417 0092 01       		.byte	0x1
 3418 0093 03       		.uleb128 0x3
 3419 0094 0E       		.uleb128 0xe
 3420 0095 0B       		.uleb128 0xb
 3421 0096 0B       		.uleb128 0xb
 3422 0097 3A       		.uleb128 0x3a
 3423 0098 0B       		.uleb128 0xb
 3424 0099 3B       		.uleb128 0x3b
 3425 009a 05       		.uleb128 0x5
 3426 009b 01       		.uleb128 0x1
 3427 009c 13       		.uleb128 0x13
 3428 009d 00       		.byte	0
 3429 009e 00       		.byte	0
 3430 009f 0E       		.uleb128 0xe
 3431 00a0 15       		.uleb128 0x15
 3432 00a1 01       		.byte	0x1
 3433 00a2 27       		.uleb128 0x27
 3434 00a3 19       		.uleb128 0x19
 3435 00a4 01       		.uleb128 0x1
 3436 00a5 13       		.uleb128 0x13
ARM GAS  /tmp/ccbN9Kog.s 			page 63


 3437 00a6 00       		.byte	0
 3438 00a7 00       		.byte	0
 3439 00a8 0F       		.uleb128 0xf
 3440 00a9 05       		.uleb128 0x5
 3441 00aa 00       		.byte	0
 3442 00ab 49       		.uleb128 0x49
 3443 00ac 13       		.uleb128 0x13
 3444 00ad 00       		.byte	0
 3445 00ae 00       		.byte	0
 3446 00af 10       		.uleb128 0x10
 3447 00b0 13       		.uleb128 0x13
 3448 00b1 01       		.byte	0x1
 3449 00b2 03       		.uleb128 0x3
 3450 00b3 0E       		.uleb128 0xe
 3451 00b4 0B       		.uleb128 0xb
 3452 00b5 05       		.uleb128 0x5
 3453 00b6 3A       		.uleb128 0x3a
 3454 00b7 0B       		.uleb128 0xb
 3455 00b8 3B       		.uleb128 0x3b
 3456 00b9 05       		.uleb128 0x5
 3457 00ba 01       		.uleb128 0x1
 3458 00bb 13       		.uleb128 0x13
 3459 00bc 00       		.byte	0
 3460 00bd 00       		.byte	0
 3461 00be 11       		.uleb128 0x11
 3462 00bf 0D       		.uleb128 0xd
 3463 00c0 00       		.byte	0
 3464 00c1 03       		.uleb128 0x3
 3465 00c2 08       		.uleb128 0x8
 3466 00c3 3A       		.uleb128 0x3a
 3467 00c4 0B       		.uleb128 0xb
 3468 00c5 3B       		.uleb128 0x3b
 3469 00c6 0B       		.uleb128 0xb
 3470 00c7 49       		.uleb128 0x49
 3471 00c8 13       		.uleb128 0x13
 3472 00c9 38       		.uleb128 0x38
 3473 00ca 0B       		.uleb128 0xb
 3474 00cb 00       		.byte	0
 3475 00cc 00       		.byte	0
 3476 00cd 12       		.uleb128 0x12
 3477 00ce 13       		.uleb128 0x13
 3478 00cf 01       		.byte	0x1
 3479 00d0 0B       		.uleb128 0xb
 3480 00d1 0B       		.uleb128 0xb
 3481 00d2 3A       		.uleb128 0x3a
 3482 00d3 0B       		.uleb128 0xb
 3483 00d4 3B       		.uleb128 0x3b
 3484 00d5 0B       		.uleb128 0xb
 3485 00d6 01       		.uleb128 0x1
 3486 00d7 13       		.uleb128 0x13
 3487 00d8 00       		.byte	0
 3488 00d9 00       		.byte	0
 3489 00da 13       		.uleb128 0x13
 3490 00db 17       		.uleb128 0x17
 3491 00dc 01       		.byte	0x1
 3492 00dd 0B       		.uleb128 0xb
 3493 00de 0B       		.uleb128 0xb
ARM GAS  /tmp/ccbN9Kog.s 			page 64


 3494 00df 3A       		.uleb128 0x3a
 3495 00e0 0B       		.uleb128 0xb
 3496 00e1 3B       		.uleb128 0x3b
 3497 00e2 0B       		.uleb128 0xb
 3498 00e3 01       		.uleb128 0x1
 3499 00e4 13       		.uleb128 0x13
 3500 00e5 00       		.byte	0
 3501 00e6 00       		.byte	0
 3502 00e7 14       		.uleb128 0x14
 3503 00e8 0D       		.uleb128 0xd
 3504 00e9 00       		.byte	0
 3505 00ea 03       		.uleb128 0x3
 3506 00eb 0E       		.uleb128 0xe
 3507 00ec 3A       		.uleb128 0x3a
 3508 00ed 0B       		.uleb128 0xb
 3509 00ee 3B       		.uleb128 0x3b
 3510 00ef 05       		.uleb128 0x5
 3511 00f0 49       		.uleb128 0x49
 3512 00f1 13       		.uleb128 0x13
 3513 00f2 00       		.byte	0
 3514 00f3 00       		.byte	0
 3515 00f4 15       		.uleb128 0x15
 3516 00f5 01       		.uleb128 0x1
 3517 00f6 01       		.byte	0x1
 3518 00f7 49       		.uleb128 0x49
 3519 00f8 13       		.uleb128 0x13
 3520 00f9 01       		.uleb128 0x1
 3521 00fa 13       		.uleb128 0x13
 3522 00fb 00       		.byte	0
 3523 00fc 00       		.byte	0
 3524 00fd 16       		.uleb128 0x16
 3525 00fe 21       		.uleb128 0x21
 3526 00ff 00       		.byte	0
 3527 0100 49       		.uleb128 0x49
 3528 0101 13       		.uleb128 0x13
 3529 0102 2F       		.uleb128 0x2f
 3530 0103 0B       		.uleb128 0xb
 3531 0104 00       		.byte	0
 3532 0105 00       		.byte	0
 3533 0106 17       		.uleb128 0x17
 3534 0107 15       		.uleb128 0x15
 3535 0108 01       		.byte	0x1
 3536 0109 27       		.uleb128 0x27
 3537 010a 19       		.uleb128 0x19
 3538 010b 49       		.uleb128 0x49
 3539 010c 13       		.uleb128 0x13
 3540 010d 01       		.uleb128 0x1
 3541 010e 13       		.uleb128 0x13
 3542 010f 00       		.byte	0
 3543 0110 00       		.byte	0
 3544 0111 18       		.uleb128 0x18
 3545 0112 0D       		.uleb128 0xd
 3546 0113 00       		.byte	0
 3547 0114 03       		.uleb128 0x3
 3548 0115 0E       		.uleb128 0xe
 3549 0116 49       		.uleb128 0x49
 3550 0117 13       		.uleb128 0x13
ARM GAS  /tmp/ccbN9Kog.s 			page 65


 3551 0118 38       		.uleb128 0x38
 3552 0119 0B       		.uleb128 0xb
 3553 011a 34       		.uleb128 0x34
 3554 011b 19       		.uleb128 0x19
 3555 011c 00       		.byte	0
 3556 011d 00       		.byte	0
 3557 011e 19       		.uleb128 0x19
 3558 011f 2E       		.uleb128 0x2e
 3559 0120 01       		.byte	0x1
 3560 0121 03       		.uleb128 0x3
 3561 0122 0E       		.uleb128 0xe
 3562 0123 3A       		.uleb128 0x3a
 3563 0124 0B       		.uleb128 0xb
 3564 0125 3B       		.uleb128 0x3b
 3565 0126 05       		.uleb128 0x5
 3566 0127 27       		.uleb128 0x27
 3567 0128 19       		.uleb128 0x19
 3568 0129 20       		.uleb128 0x20
 3569 012a 0B       		.uleb128 0xb
 3570 012b 01       		.uleb128 0x1
 3571 012c 13       		.uleb128 0x13
 3572 012d 00       		.byte	0
 3573 012e 00       		.byte	0
 3574 012f 1A       		.uleb128 0x1a
 3575 0130 05       		.uleb128 0x5
 3576 0131 00       		.byte	0
 3577 0132 03       		.uleb128 0x3
 3578 0133 0E       		.uleb128 0xe
 3579 0134 3A       		.uleb128 0x3a
 3580 0135 0B       		.uleb128 0xb
 3581 0136 3B       		.uleb128 0x3b
 3582 0137 05       		.uleb128 0x5
 3583 0138 49       		.uleb128 0x49
 3584 0139 13       		.uleb128 0x13
 3585 013a 00       		.byte	0
 3586 013b 00       		.byte	0
 3587 013c 1B       		.uleb128 0x1b
 3588 013d 2E       		.uleb128 0x2e
 3589 013e 01       		.byte	0x1
 3590 013f 03       		.uleb128 0x3
 3591 0140 0E       		.uleb128 0xe
 3592 0141 3A       		.uleb128 0x3a
 3593 0142 0B       		.uleb128 0xb
 3594 0143 3B       		.uleb128 0x3b
 3595 0144 05       		.uleb128 0x5
 3596 0145 27       		.uleb128 0x27
 3597 0146 19       		.uleb128 0x19
 3598 0147 11       		.uleb128 0x11
 3599 0148 01       		.uleb128 0x1
 3600 0149 12       		.uleb128 0x12
 3601 014a 06       		.uleb128 0x6
 3602 014b 40       		.uleb128 0x40
 3603 014c 18       		.uleb128 0x18
 3604 014d 9742     		.uleb128 0x2117
 3605 014f 19       		.uleb128 0x19
 3606 0150 01       		.uleb128 0x1
 3607 0151 13       		.uleb128 0x13
ARM GAS  /tmp/ccbN9Kog.s 			page 66


 3608 0152 00       		.byte	0
 3609 0153 00       		.byte	0
 3610 0154 1C       		.uleb128 0x1c
 3611 0155 1D       		.uleb128 0x1d
 3612 0156 01       		.byte	0x1
 3613 0157 31       		.uleb128 0x31
 3614 0158 13       		.uleb128 0x13
 3615 0159 11       		.uleb128 0x11
 3616 015a 01       		.uleb128 0x1
 3617 015b 12       		.uleb128 0x12
 3618 015c 06       		.uleb128 0x6
 3619 015d 58       		.uleb128 0x58
 3620 015e 0B       		.uleb128 0xb
 3621 015f 59       		.uleb128 0x59
 3622 0160 05       		.uleb128 0x5
 3623 0161 00       		.byte	0
 3624 0162 00       		.byte	0
 3625 0163 1D       		.uleb128 0x1d
 3626 0164 05       		.uleb128 0x5
 3627 0165 00       		.byte	0
 3628 0166 31       		.uleb128 0x31
 3629 0167 13       		.uleb128 0x13
 3630 0168 02       		.uleb128 0x2
 3631 0169 18       		.uleb128 0x18
 3632 016a 00       		.byte	0
 3633 016b 00       		.byte	0
 3634 016c 1E       		.uleb128 0x1e
 3635 016d 2E       		.uleb128 0x2e
 3636 016e 00       		.byte	0
 3637 016f 03       		.uleb128 0x3
 3638 0170 0E       		.uleb128 0xe
 3639 0171 3A       		.uleb128 0x3a
 3640 0172 0B       		.uleb128 0xb
 3641 0173 3B       		.uleb128 0x3b
 3642 0174 05       		.uleb128 0x5
 3643 0175 27       		.uleb128 0x27
 3644 0176 19       		.uleb128 0x19
 3645 0177 11       		.uleb128 0x11
 3646 0178 01       		.uleb128 0x1
 3647 0179 12       		.uleb128 0x12
 3648 017a 06       		.uleb128 0x6
 3649 017b 40       		.uleb128 0x40
 3650 017c 18       		.uleb128 0x18
 3651 017d 9642     		.uleb128 0x2116
 3652 017f 19       		.uleb128 0x19
 3653 0180 00       		.byte	0
 3654 0181 00       		.byte	0
 3655 0182 1F       		.uleb128 0x1f
 3656 0183 2E       		.uleb128 0x2e
 3657 0184 01       		.byte	0x1
 3658 0185 03       		.uleb128 0x3
 3659 0186 0E       		.uleb128 0xe
 3660 0187 3A       		.uleb128 0x3a
 3661 0188 0B       		.uleb128 0xb
 3662 0189 3B       		.uleb128 0x3b
 3663 018a 05       		.uleb128 0x5
 3664 018b 27       		.uleb128 0x27
ARM GAS  /tmp/ccbN9Kog.s 			page 67


 3665 018c 19       		.uleb128 0x19
 3666 018d 11       		.uleb128 0x11
 3667 018e 01       		.uleb128 0x1
 3668 018f 12       		.uleb128 0x12
 3669 0190 06       		.uleb128 0x6
 3670 0191 40       		.uleb128 0x40
 3671 0192 18       		.uleb128 0x18
 3672 0193 9642     		.uleb128 0x2116
 3673 0195 19       		.uleb128 0x19
 3674 0196 01       		.uleb128 0x1
 3675 0197 13       		.uleb128 0x13
 3676 0198 00       		.byte	0
 3677 0199 00       		.byte	0
 3678 019a 20       		.uleb128 0x20
 3679 019b 34       		.uleb128 0x34
 3680 019c 00       		.byte	0
 3681 019d 03       		.uleb128 0x3
 3682 019e 0E       		.uleb128 0xe
 3683 019f 49       		.uleb128 0x49
 3684 01a0 13       		.uleb128 0x13
 3685 01a1 34       		.uleb128 0x34
 3686 01a2 19       		.uleb128 0x19
 3687 01a3 00       		.byte	0
 3688 01a4 00       		.byte	0
 3689 01a5 21       		.uleb128 0x21
 3690 01a6 2E       		.uleb128 0x2e
 3691 01a7 00       		.byte	0
 3692 01a8 03       		.uleb128 0x3
 3693 01a9 0E       		.uleb128 0xe
 3694 01aa 3A       		.uleb128 0x3a
 3695 01ab 0B       		.uleb128 0xb
 3696 01ac 3B       		.uleb128 0x3b
 3697 01ad 0B       		.uleb128 0xb
 3698 01ae 27       		.uleb128 0x27
 3699 01af 19       		.uleb128 0x19
 3700 01b0 49       		.uleb128 0x49
 3701 01b1 13       		.uleb128 0x13
 3702 01b2 11       		.uleb128 0x11
 3703 01b3 01       		.uleb128 0x1
 3704 01b4 12       		.uleb128 0x12
 3705 01b5 06       		.uleb128 0x6
 3706 01b6 40       		.uleb128 0x40
 3707 01b7 18       		.uleb128 0x18
 3708 01b8 9742     		.uleb128 0x2117
 3709 01ba 19       		.uleb128 0x19
 3710 01bb 00       		.byte	0
 3711 01bc 00       		.byte	0
 3712 01bd 22       		.uleb128 0x22
 3713 01be 2E       		.uleb128 0x2e
 3714 01bf 01       		.byte	0x1
 3715 01c0 03       		.uleb128 0x3
 3716 01c1 0E       		.uleb128 0xe
 3717 01c2 3A       		.uleb128 0x3a
 3718 01c3 0B       		.uleb128 0xb
 3719 01c4 3B       		.uleb128 0x3b
 3720 01c5 0B       		.uleb128 0xb
 3721 01c6 27       		.uleb128 0x27
ARM GAS  /tmp/ccbN9Kog.s 			page 68


 3722 01c7 19       		.uleb128 0x19
 3723 01c8 49       		.uleb128 0x49
 3724 01c9 13       		.uleb128 0x13
 3725 01ca 11       		.uleb128 0x11
 3726 01cb 01       		.uleb128 0x1
 3727 01cc 12       		.uleb128 0x12
 3728 01cd 06       		.uleb128 0x6
 3729 01ce 40       		.uleb128 0x40
 3730 01cf 18       		.uleb128 0x18
 3731 01d0 9642     		.uleb128 0x2116
 3732 01d2 19       		.uleb128 0x19
 3733 01d3 01       		.uleb128 0x1
 3734 01d4 13       		.uleb128 0x13
 3735 01d5 00       		.byte	0
 3736 01d6 00       		.byte	0
 3737 01d7 23       		.uleb128 0x23
 3738 01d8 34       		.uleb128 0x34
 3739 01d9 00       		.byte	0
 3740 01da 03       		.uleb128 0x3
 3741 01db 0E       		.uleb128 0xe
 3742 01dc 3A       		.uleb128 0x3a
 3743 01dd 0B       		.uleb128 0xb
 3744 01de 3B       		.uleb128 0x3b
 3745 01df 0B       		.uleb128 0xb
 3746 01e0 49       		.uleb128 0x49
 3747 01e1 13       		.uleb128 0x13
 3748 01e2 02       		.uleb128 0x2
 3749 01e3 18       		.uleb128 0x18
 3750 01e4 00       		.byte	0
 3751 01e5 00       		.byte	0
 3752 01e6 24       		.uleb128 0x24
 3753 01e7 2E       		.uleb128 0x2e
 3754 01e8 01       		.byte	0x1
 3755 01e9 03       		.uleb128 0x3
 3756 01ea 0E       		.uleb128 0xe
 3757 01eb 3A       		.uleb128 0x3a
 3758 01ec 0B       		.uleb128 0xb
 3759 01ed 3B       		.uleb128 0x3b
 3760 01ee 0B       		.uleb128 0xb
 3761 01ef 27       		.uleb128 0x27
 3762 01f0 19       		.uleb128 0x19
 3763 01f1 11       		.uleb128 0x11
 3764 01f2 01       		.uleb128 0x1
 3765 01f3 12       		.uleb128 0x12
 3766 01f4 06       		.uleb128 0x6
 3767 01f5 40       		.uleb128 0x40
 3768 01f6 18       		.uleb128 0x18
 3769 01f7 9742     		.uleb128 0x2117
 3770 01f9 19       		.uleb128 0x19
 3771 01fa 01       		.uleb128 0x1
 3772 01fb 13       		.uleb128 0x13
 3773 01fc 00       		.byte	0
 3774 01fd 00       		.byte	0
 3775 01fe 25       		.uleb128 0x25
 3776 01ff 05       		.uleb128 0x5
 3777 0200 00       		.byte	0
 3778 0201 03       		.uleb128 0x3
ARM GAS  /tmp/ccbN9Kog.s 			page 69


 3779 0202 08       		.uleb128 0x8
 3780 0203 3A       		.uleb128 0x3a
 3781 0204 0B       		.uleb128 0xb
 3782 0205 3B       		.uleb128 0x3b
 3783 0206 0B       		.uleb128 0xb
 3784 0207 49       		.uleb128 0x49
 3785 0208 13       		.uleb128 0x13
 3786 0209 02       		.uleb128 0x2
 3787 020a 18       		.uleb128 0x18
 3788 020b 00       		.byte	0
 3789 020c 00       		.byte	0
 3790 020d 26       		.uleb128 0x26
 3791 020e 2E       		.uleb128 0x2e
 3792 020f 01       		.byte	0x1
 3793 0210 03       		.uleb128 0x3
 3794 0211 0E       		.uleb128 0xe
 3795 0212 3A       		.uleb128 0x3a
 3796 0213 0B       		.uleb128 0xb
 3797 0214 3B       		.uleb128 0x3b
 3798 0215 0B       		.uleb128 0xb
 3799 0216 27       		.uleb128 0x27
 3800 0217 19       		.uleb128 0x19
 3801 0218 11       		.uleb128 0x11
 3802 0219 01       		.uleb128 0x1
 3803 021a 12       		.uleb128 0x12
 3804 021b 06       		.uleb128 0x6
 3805 021c 40       		.uleb128 0x40
 3806 021d 18       		.uleb128 0x18
 3807 021e 9642     		.uleb128 0x2116
 3808 0220 19       		.uleb128 0x19
 3809 0221 01       		.uleb128 0x1
 3810 0222 13       		.uleb128 0x13
 3811 0223 00       		.byte	0
 3812 0224 00       		.byte	0
 3813 0225 27       		.uleb128 0x27
 3814 0226 18       		.uleb128 0x18
 3815 0227 00       		.byte	0
 3816 0228 00       		.byte	0
 3817 0229 00       		.byte	0
 3818 022a 28       		.uleb128 0x28
 3819 022b 34       		.uleb128 0x34
 3820 022c 00       		.byte	0
 3821 022d 03       		.uleb128 0x3
 3822 022e 08       		.uleb128 0x8
 3823 022f 3A       		.uleb128 0x3a
 3824 0230 0B       		.uleb128 0xb
 3825 0231 3B       		.uleb128 0x3b
 3826 0232 0B       		.uleb128 0xb
 3827 0233 49       		.uleb128 0x49
 3828 0234 13       		.uleb128 0x13
 3829 0235 02       		.uleb128 0x2
 3830 0236 18       		.uleb128 0x18
 3831 0237 00       		.byte	0
 3832 0238 00       		.byte	0
 3833 0239 29       		.uleb128 0x29
 3834 023a 05       		.uleb128 0x5
 3835 023b 00       		.byte	0
ARM GAS  /tmp/ccbN9Kog.s 			page 70


 3836 023c 03       		.uleb128 0x3
 3837 023d 0E       		.uleb128 0xe
 3838 023e 3A       		.uleb128 0x3a
 3839 023f 0B       		.uleb128 0xb
 3840 0240 3B       		.uleb128 0x3b
 3841 0241 0B       		.uleb128 0xb
 3842 0242 49       		.uleb128 0x49
 3843 0243 13       		.uleb128 0x13
 3844 0244 02       		.uleb128 0x2
 3845 0245 18       		.uleb128 0x18
 3846 0246 00       		.byte	0
 3847 0247 00       		.byte	0
 3848 0248 2A       		.uleb128 0x2a
 3849 0249 2E       		.uleb128 0x2e
 3850 024a 00       		.byte	0
 3851 024b 3F       		.uleb128 0x3f
 3852 024c 19       		.uleb128 0x19
 3853 024d 03       		.uleb128 0x3
 3854 024e 0E       		.uleb128 0xe
 3855 024f 3A       		.uleb128 0x3a
 3856 0250 0B       		.uleb128 0xb
 3857 0251 3B       		.uleb128 0x3b
 3858 0252 0B       		.uleb128 0xb
 3859 0253 27       		.uleb128 0x27
 3860 0254 19       		.uleb128 0x19
 3861 0255 11       		.uleb128 0x11
 3862 0256 01       		.uleb128 0x1
 3863 0257 12       		.uleb128 0x12
 3864 0258 06       		.uleb128 0x6
 3865 0259 40       		.uleb128 0x40
 3866 025a 18       		.uleb128 0x18
 3867 025b 9642     		.uleb128 0x2116
 3868 025d 19       		.uleb128 0x19
 3869 025e 00       		.byte	0
 3870 025f 00       		.byte	0
 3871 0260 2B       		.uleb128 0x2b
 3872 0261 2E       		.uleb128 0x2e
 3873 0262 01       		.byte	0x1
 3874 0263 3F       		.uleb128 0x3f
 3875 0264 19       		.uleb128 0x19
 3876 0265 03       		.uleb128 0x3
 3877 0266 0E       		.uleb128 0xe
 3878 0267 3A       		.uleb128 0x3a
 3879 0268 0B       		.uleb128 0xb
 3880 0269 3B       		.uleb128 0x3b
 3881 026a 0B       		.uleb128 0xb
 3882 026b 27       		.uleb128 0x27
 3883 026c 19       		.uleb128 0x19
 3884 026d 11       		.uleb128 0x11
 3885 026e 01       		.uleb128 0x1
 3886 026f 12       		.uleb128 0x12
 3887 0270 06       		.uleb128 0x6
 3888 0271 40       		.uleb128 0x40
 3889 0272 18       		.uleb128 0x18
 3890 0273 9642     		.uleb128 0x2116
 3891 0275 19       		.uleb128 0x19
 3892 0276 01       		.uleb128 0x1
ARM GAS  /tmp/ccbN9Kog.s 			page 71


 3893 0277 13       		.uleb128 0x13
 3894 0278 00       		.byte	0
 3895 0279 00       		.byte	0
 3896 027a 2C       		.uleb128 0x2c
 3897 027b 2E       		.uleb128 0x2e
 3898 027c 01       		.byte	0x1
 3899 027d 3F       		.uleb128 0x3f
 3900 027e 19       		.uleb128 0x19
 3901 027f 03       		.uleb128 0x3
 3902 0280 0E       		.uleb128 0xe
 3903 0281 3A       		.uleb128 0x3a
 3904 0282 0B       		.uleb128 0xb
 3905 0283 3B       		.uleb128 0x3b
 3906 0284 0B       		.uleb128 0xb
 3907 0285 27       		.uleb128 0x27
 3908 0286 19       		.uleb128 0x19
 3909 0287 49       		.uleb128 0x49
 3910 0288 13       		.uleb128 0x13
 3911 0289 11       		.uleb128 0x11
 3912 028a 01       		.uleb128 0x1
 3913 028b 12       		.uleb128 0x12
 3914 028c 06       		.uleb128 0x6
 3915 028d 40       		.uleb128 0x40
 3916 028e 18       		.uleb128 0x18
 3917 028f 9642     		.uleb128 0x2116
 3918 0291 19       		.uleb128 0x19
 3919 0292 01       		.uleb128 0x1
 3920 0293 13       		.uleb128 0x13
 3921 0294 00       		.byte	0
 3922 0295 00       		.byte	0
 3923 0296 2D       		.uleb128 0x2d
 3924 0297 2E       		.uleb128 0x2e
 3925 0298 01       		.byte	0x1
 3926 0299 3F       		.uleb128 0x3f
 3927 029a 19       		.uleb128 0x19
 3928 029b 03       		.uleb128 0x3
 3929 029c 0E       		.uleb128 0xe
 3930 029d 3A       		.uleb128 0x3a
 3931 029e 0B       		.uleb128 0xb
 3932 029f 3B       		.uleb128 0x3b
 3933 02a0 05       		.uleb128 0x5
 3934 02a1 27       		.uleb128 0x27
 3935 02a2 19       		.uleb128 0x19
 3936 02a3 49       		.uleb128 0x49
 3937 02a4 13       		.uleb128 0x13
 3938 02a5 11       		.uleb128 0x11
 3939 02a6 01       		.uleb128 0x1
 3940 02a7 12       		.uleb128 0x12
 3941 02a8 06       		.uleb128 0x6
 3942 02a9 40       		.uleb128 0x40
 3943 02aa 18       		.uleb128 0x18
 3944 02ab 9642     		.uleb128 0x2116
 3945 02ad 19       		.uleb128 0x19
 3946 02ae 01       		.uleb128 0x1
 3947 02af 13       		.uleb128 0x13
 3948 02b0 00       		.byte	0
 3949 02b1 00       		.byte	0
ARM GAS  /tmp/ccbN9Kog.s 			page 72


 3950 02b2 2E       		.uleb128 0x2e
 3951 02b3 05       		.uleb128 0x5
 3952 02b4 00       		.byte	0
 3953 02b5 03       		.uleb128 0x3
 3954 02b6 08       		.uleb128 0x8
 3955 02b7 3A       		.uleb128 0x3a
 3956 02b8 0B       		.uleb128 0xb
 3957 02b9 3B       		.uleb128 0x3b
 3958 02ba 05       		.uleb128 0x5
 3959 02bb 49       		.uleb128 0x49
 3960 02bc 13       		.uleb128 0x13
 3961 02bd 02       		.uleb128 0x2
 3962 02be 18       		.uleb128 0x18
 3963 02bf 00       		.byte	0
 3964 02c0 00       		.byte	0
 3965 02c1 2F       		.uleb128 0x2f
 3966 02c2 05       		.uleb128 0x5
 3967 02c3 00       		.byte	0
 3968 02c4 03       		.uleb128 0x3
 3969 02c5 0E       		.uleb128 0xe
 3970 02c6 3A       		.uleb128 0x3a
 3971 02c7 0B       		.uleb128 0xb
 3972 02c8 3B       		.uleb128 0x3b
 3973 02c9 05       		.uleb128 0x5
 3974 02ca 49       		.uleb128 0x49
 3975 02cb 13       		.uleb128 0x13
 3976 02cc 02       		.uleb128 0x2
 3977 02cd 18       		.uleb128 0x18
 3978 02ce 00       		.byte	0
 3979 02cf 00       		.byte	0
 3980 02d0 30       		.uleb128 0x30
 3981 02d1 34       		.uleb128 0x34
 3982 02d2 00       		.byte	0
 3983 02d3 03       		.uleb128 0x3
 3984 02d4 08       		.uleb128 0x8
 3985 02d5 3A       		.uleb128 0x3a
 3986 02d6 0B       		.uleb128 0xb
 3987 02d7 3B       		.uleb128 0x3b
 3988 02d8 05       		.uleb128 0x5
 3989 02d9 49       		.uleb128 0x49
 3990 02da 13       		.uleb128 0x13
 3991 02db 02       		.uleb128 0x2
 3992 02dc 18       		.uleb128 0x18
 3993 02dd 00       		.byte	0
 3994 02de 00       		.byte	0
 3995 02df 31       		.uleb128 0x31
 3996 02e0 0B       		.uleb128 0xb
 3997 02e1 01       		.byte	0x1
 3998 02e2 11       		.uleb128 0x11
 3999 02e3 01       		.uleb128 0x1
 4000 02e4 12       		.uleb128 0x12
 4001 02e5 06       		.uleb128 0x6
 4002 02e6 00       		.byte	0
 4003 02e7 00       		.byte	0
 4004 02e8 32       		.uleb128 0x32
 4005 02e9 34       		.uleb128 0x34
 4006 02ea 00       		.byte	0
ARM GAS  /tmp/ccbN9Kog.s 			page 73


 4007 02eb 03       		.uleb128 0x3
 4008 02ec 0E       		.uleb128 0xe
 4009 02ed 3A       		.uleb128 0x3a
 4010 02ee 0B       		.uleb128 0xb
 4011 02ef 3B       		.uleb128 0x3b
 4012 02f0 05       		.uleb128 0x5
 4013 02f1 49       		.uleb128 0x49
 4014 02f2 13       		.uleb128 0x13
 4015 02f3 3F       		.uleb128 0x3f
 4016 02f4 19       		.uleb128 0x19
 4017 02f5 3C       		.uleb128 0x3c
 4018 02f6 19       		.uleb128 0x19
 4019 02f7 00       		.byte	0
 4020 02f8 00       		.byte	0
 4021 02f9 33       		.uleb128 0x33
 4022 02fa 34       		.uleb128 0x34
 4023 02fb 00       		.byte	0
 4024 02fc 03       		.uleb128 0x3
 4025 02fd 08       		.uleb128 0x8
 4026 02fe 3A       		.uleb128 0x3a
 4027 02ff 0B       		.uleb128 0xb
 4028 0300 3B       		.uleb128 0x3b
 4029 0301 05       		.uleb128 0x5
 4030 0302 49       		.uleb128 0x49
 4031 0303 13       		.uleb128 0x13
 4032 0304 3F       		.uleb128 0x3f
 4033 0305 19       		.uleb128 0x19
 4034 0306 3C       		.uleb128 0x3c
 4035 0307 19       		.uleb128 0x19
 4036 0308 00       		.byte	0
 4037 0309 00       		.byte	0
 4038 030a 34       		.uleb128 0x34
 4039 030b 34       		.uleb128 0x34
 4040 030c 00       		.byte	0
 4041 030d 03       		.uleb128 0x3
 4042 030e 0E       		.uleb128 0xe
 4043 030f 3A       		.uleb128 0x3a
 4044 0310 0B       		.uleb128 0xb
 4045 0311 3B       		.uleb128 0x3b
 4046 0312 0B       		.uleb128 0xb
 4047 0313 49       		.uleb128 0x49
 4048 0314 13       		.uleb128 0x13
 4049 0315 3F       		.uleb128 0x3f
 4050 0316 19       		.uleb128 0x19
 4051 0317 02       		.uleb128 0x2
 4052 0318 18       		.uleb128 0x18
 4053 0319 00       		.byte	0
 4054 031a 00       		.byte	0
 4055 031b 00       		.byte	0
 4056              		.section	.debug_aranges,"",%progbits
 4057 0000 BC000000 		.4byte	0xbc
 4058 0004 0200     		.2byte	0x2
 4059 0006 00000000 		.4byte	.Ldebug_info0
 4060 000a 04       		.byte	0x4
 4061 000b 00       		.byte	0
 4062 000c 0000     		.2byte	0
 4063 000e 0000     		.2byte	0
ARM GAS  /tmp/ccbN9Kog.s 			page 74


 4064 0010 00000000 		.4byte	.LFB116
 4065 0014 10000000 		.4byte	.LFE116-.LFB116
 4066 0018 00000000 		.4byte	.LFB117
 4067 001c 10000000 		.4byte	.LFE117-.LFB117
 4068 0020 00000000 		.4byte	.LFB145
 4069 0024 08000000 		.4byte	.LFE145-.LFB145
 4070 0028 00000000 		.4byte	.LFB146
 4071 002c 08000000 		.4byte	.LFE146-.LFB146
 4072 0030 00000000 		.4byte	.LFB153
 4073 0034 0C000000 		.4byte	.LFE153-.LFB153
 4074 0038 00000000 		.4byte	.LFB154
 4075 003c 1C000000 		.4byte	.LFE154-.LFB154
 4076 0040 00000000 		.4byte	.LFB191
 4077 0044 0E000000 		.4byte	.LFE191-.LFB191
 4078 0048 00000000 		.4byte	.LFB196
 4079 004c 14000000 		.4byte	.LFE196-.LFB196
 4080 0050 00000000 		.4byte	.LFB253
 4081 0054 26000000 		.4byte	.LFE253-.LFB253
 4082 0058 00000000 		.4byte	.LFB254
 4083 005c 72000000 		.4byte	.LFE254-.LFB254
 4084 0060 00000000 		.4byte	.LFB255
 4085 0064 1C000000 		.4byte	.LFE255-.LFB255
 4086 0068 00000000 		.4byte	.LFB256
 4087 006c 30000000 		.4byte	.LFE256-.LFB256
 4088 0070 00000000 		.4byte	.LFB257
 4089 0074 C4000000 		.4byte	.LFE257-.LFB257
 4090 0078 00000000 		.4byte	.LFB258
 4091 007c 38000000 		.4byte	.LFE258-.LFB258
 4092 0080 00000000 		.4byte	.LFB259
 4093 0084 48000000 		.4byte	.LFE259-.LFB259
 4094 0088 00000000 		.4byte	.LFB260
 4095 008c A0010000 		.4byte	.LFE260-.LFB260
 4096 0090 00000000 		.4byte	.LFB261
 4097 0094 10000000 		.4byte	.LFE261-.LFB261
 4098 0098 00000000 		.4byte	.LFB262
 4099 009c 20000000 		.4byte	.LFE262-.LFB262
 4100 00a0 00000000 		.4byte	.LFB263
 4101 00a4 28000000 		.4byte	.LFE263-.LFB263
 4102 00a8 00000000 		.4byte	.LFB264
 4103 00ac 2C000000 		.4byte	.LFE264-.LFB264
 4104 00b0 00000000 		.4byte	.LFB265
 4105 00b4 EC000000 		.4byte	.LFE265-.LFB265
 4106 00b8 00000000 		.4byte	0
 4107 00bc 00000000 		.4byte	0
 4108              		.section	.debug_ranges,"",%progbits
 4109              	.Ldebug_ranges0:
 4110 0000 00000000 		.4byte	.LFB116
 4111 0004 10000000 		.4byte	.LFE116
 4112 0008 00000000 		.4byte	.LFB117
 4113 000c 10000000 		.4byte	.LFE117
 4114 0010 00000000 		.4byte	.LFB145
 4115 0014 08000000 		.4byte	.LFE145
 4116 0018 00000000 		.4byte	.LFB146
 4117 001c 08000000 		.4byte	.LFE146
 4118 0020 00000000 		.4byte	.LFB153
 4119 0024 0C000000 		.4byte	.LFE153
 4120 0028 00000000 		.4byte	.LFB154
ARM GAS  /tmp/ccbN9Kog.s 			page 75


 4121 002c 1C000000 		.4byte	.LFE154
 4122 0030 00000000 		.4byte	.LFB191
 4123 0034 0E000000 		.4byte	.LFE191
 4124 0038 00000000 		.4byte	.LFB196
 4125 003c 14000000 		.4byte	.LFE196
 4126 0040 00000000 		.4byte	.LFB253
 4127 0044 26000000 		.4byte	.LFE253
 4128 0048 00000000 		.4byte	.LFB254
 4129 004c 72000000 		.4byte	.LFE254
 4130 0050 00000000 		.4byte	.LFB255
 4131 0054 1C000000 		.4byte	.LFE255
 4132 0058 00000000 		.4byte	.LFB256
 4133 005c 30000000 		.4byte	.LFE256
 4134 0060 00000000 		.4byte	.LFB257
 4135 0064 C4000000 		.4byte	.LFE257
 4136 0068 00000000 		.4byte	.LFB258
 4137 006c 38000000 		.4byte	.LFE258
 4138 0070 00000000 		.4byte	.LFB259
 4139 0074 48000000 		.4byte	.LFE259
 4140 0078 00000000 		.4byte	.LFB260
 4141 007c A0010000 		.4byte	.LFE260
 4142 0080 00000000 		.4byte	.LFB261
 4143 0084 10000000 		.4byte	.LFE261
 4144 0088 00000000 		.4byte	.LFB262
 4145 008c 20000000 		.4byte	.LFE262
 4146 0090 00000000 		.4byte	.LFB263
 4147 0094 28000000 		.4byte	.LFE263
 4148 0098 00000000 		.4byte	.LFB264
 4149 009c 2C000000 		.4byte	.LFE264
 4150 00a0 00000000 		.4byte	.LFB265
 4151 00a4 EC000000 		.4byte	.LFE265
 4152 00a8 00000000 		.4byte	0
 4153 00ac 00000000 		.4byte	0
 4154              		.section	.debug_line,"",%progbits
 4155              	.Ldebug_line0:
 4156 0000 72050000 		.section	.debug_str,"MS",%progbits,1
 4156      02003503 
 4156      00000201 
 4156      FB0E0D00 
 4156      01010101 
 4157              	.LASF54:
 4158 0000 72656164 		.ascii	"ready_list_t\000"
 4158      795F6C69 
 4158      73745F74 
 4158      00
 4159              	.LASF2:
 4160 000d 73697A65 		.ascii	"size_t\000"
 4160      5F7400
 4161              	.LASF19:
 4162 0014 75696E74 		.ascii	"uint64_t\000"
 4162      36345F74 
 4162      00
 4163              	.LASF3:
 4164 001d 5F5F7569 		.ascii	"__uint8_t\000"
 4164      6E74385F 
 4164      7400
 4165              	.LASF85:
ARM GAS  /tmp/ccbN9Kog.s 			page 76


 4166 0027 706F7274 		.ascii	"port_intctx\000"
 4166      5F696E74 
 4166      63747800 
 4167              	.LASF128:
 4168 0033 76615F6C 		.ascii	"va_list\000"
 4168      69737400 
 4169              	.LASF73:
 4170 003b 73797374 		.ascii	"system_debug_t\000"
 4170      656D5F64 
 4170      65627567 
 4170      5F7400
 4171              	.LASF81:
 4172 004a 69646C65 		.ascii	"idle_thread_wa\000"
 4172      5F746872 
 4172      6561645F 
 4172      776100
 4173              	.LASF129:
 4174 0059 706F7274 		.ascii	"port_lock\000"
 4174      5F6C6F63 
 4174      6B00
 4175              	.LASF13:
 4176 0063 6C6F6E67 		.ascii	"long long unsigned int\000"
 4176      206C6F6E 
 4176      6720756E 
 4176      7369676E 
 4176      65642069 
 4177              	.LASF137:
 4178 007a 666F726D 		.ascii	"formatted_bytes\000"
 4178      61747465 
 4178      645F6279 
 4178      74657300 
 4179              	.LASF89:
 4180 008a 65786974 		.ascii	"exitcode\000"
 4180      636F6465 
 4180      00
 4181              	.LASF80:
 4182 0093 6D61696E 		.ascii	"mainthread\000"
 4182      74687265 
 4182      616400
 4183              	.LASF70:
 4184 009e 76697274 		.ascii	"virtual_timers_list_t\000"
 4184      75616C5F 
 4184      74696D65 
 4184      72735F6C 
 4184      6973745F 
 4185              	.LASF160:
 4186 00b4 49544D5F 		.ascii	"ITM_RxBuffer\000"
 4186      52784275 
 4186      66666572 
 4186      00
 4187              	.LASF53:
 4188 00c1 63685F74 		.ascii	"ch_threads_queue\000"
 4188      68726561 
 4188      64735F71 
 4188      75657565 
 4188      00
 4189              	.LASF144:
ARM GAS  /tmp/ccbN9Kog.s 			page 77


 4190 00d2 636D645F 		.ascii	"cmd_info\000"
 4190      696E666F 
 4190      00
 4191              	.LASF33:
 4192 00db 705F7072 		.ascii	"p_prio\000"
 4192      696F00
 4193              	.LASF11:
 4194 00e2 6C6F6E67 		.ascii	"long long int\000"
 4194      206C6F6E 
 4194      6720696E 
 4194      7400
 4195              	.LASF1:
 4196 00f0 7369676E 		.ascii	"signed char\000"
 4196      65642063 
 4196      68617200 
 4197              	.LASF47:
 4198 00fc 705F6D70 		.ascii	"p_mpool\000"
 4198      6F6F6C00 
 4199              	.LASF122:
 4200 0104 73635F63 		.ascii	"sc_channel\000"
 4200      68616E6E 
 4200      656C00
 4201              	.LASF79:
 4202 010f 76746C69 		.ascii	"vtlist\000"
 4202      737400
 4203              	.LASF130:
 4204 0116 706F7274 		.ascii	"port_unlock\000"
 4204      5F756E6C 
 4204      6F636B00 
 4205              	.LASF91:
 4206 0122 77747472 		.ascii	"wttrp\000"
 4206      7000
 4207              	.LASF77:
 4208 0128 63685F73 		.ascii	"ch_system\000"
 4208      79737465 
 4208      6D00
 4209              	.LASF8:
 4210 0132 6C6F6E67 		.ascii	"long int\000"
 4210      20696E74 
 4210      00
 4211              	.LASF121:
 4212 013b 5368656C 		.ascii	"ShellCommand\000"
 4212      6C436F6D 
 4212      6D616E64 
 4212      00
 4213              	.LASF22:
 4214 0148 74737461 		.ascii	"tstate_t\000"
 4214      74655F74 
 4214      00
 4215              	.LASF126:
 4216 0151 5F5F7661 		.ascii	"__va_list\000"
 4216      5F6C6973 
 4216      7400
 4217              	.LASF151:
 4218 015b 746F6B70 		.ascii	"tokp\000"
 4218      00
 4219              	.LASF35:
ARM GAS  /tmp/ccbN9Kog.s 			page 78


 4220 0160 705F6E65 		.ascii	"p_newer\000"
 4220      77657200 
 4221              	.LASF96:
 4222 0168 735F7175 		.ascii	"s_queue\000"
 4222      65756500 
 4223              	.LASF152:
 4224 0170 6C696E65 		.ascii	"line\000"
 4224      00
 4225              	.LASF59:
 4226 0175 725F6E65 		.ascii	"r_newer\000"
 4226      77657200 
 4227              	.LASF82:
 4228 017d 72656761 		.ascii	"regarm_t\000"
 4228      726D5F74 
 4228      00
 4229              	.LASF66:
 4230 0186 76745F70 		.ascii	"vt_prev\000"
 4230      72657600 
 4231              	.LASF158:
 4232 018e 7368656C 		.ascii	"shellGetLine\000"
 4232      6C476574 
 4232      4C696E65 
 4232      00
 4233              	.LASF119:
 4234 019b 73635F6E 		.ascii	"sc_name\000"
 4234      616D6500 
 4235              	.LASF102:
 4236 01a3 6D757465 		.ascii	"mutex_t\000"
 4236      785F7400 
 4237              	.LASF166:
 4238 01ab 76616C75 		.ascii	"value\000"
 4238      6500
 4239              	.LASF116:
 4240 01b1 42617365 		.ascii	"BaseSequentialStream\000"
 4240      53657175 
 4240      656E7469 
 4240      616C5374 
 4240      7265616D 
 4241              	.LASF112:
 4242 01c6 6576656E 		.ascii	"event_source_t\000"
 4242      745F736F 
 4242      75726365 
 4242      5F7400
 4243              	.LASF9:
 4244 01d5 5F5F7569 		.ascii	"__uint32_t\000"
 4244      6E743332 
 4244      5F7400
 4245              	.LASF28:
 4246 01e0 636E745F 		.ascii	"cnt_t\000"
 4246      7400
 4247              	.LASF169:
 4248 01e6 63685654 		.ascii	"chVTGetSystemTimeX\000"
 4248      47657453 
 4248      79737465 
 4248      6D54696D 
 4248      655800
 4249              	.LASF0:
ARM GAS  /tmp/ccbN9Kog.s 			page 79


 4250 01f9 756E7369 		.ascii	"unsigned int\000"
 4250      676E6564 
 4250      20696E74 
 4250      00
 4251              	.LASF65:
 4252 0206 76745F6E 		.ascii	"vt_next\000"
 4252      65787400 
 4253              	.LASF92:
 4254 020e 77747365 		.ascii	"wtsemp\000"
 4254      6D7000
 4255              	.LASF67:
 4256 0215 76745F64 		.ascii	"vt_delta\000"
 4256      656C7461 
 4256      00
 4257              	.LASF123:
 4258 021e 73635F63 		.ascii	"sc_commands\000"
 4258      6F6D6D61 
 4258      6E647300 
 4259              	.LASF42:
 4260 022a 705F6D73 		.ascii	"p_msgqueue\000"
 4260      67717565 
 4260      756500
 4261              	.LASF149:
 4262 0235 6E616D65 		.ascii	"name\000"
 4262      00
 4263              	.LASF157:
 4264 023a 7368656C 		.ascii	"shellCreateStatic\000"
 4264      6C437265 
 4264      61746553 
 4264      74617469 
 4264      6300
 4265              	.LASF97:
 4266 024c 735F636E 		.ascii	"s_cnt\000"
 4266      7400
 4267              	.LASF156:
 4268 0252 7368656C 		.ascii	"shellCreate\000"
 4268      6C437265 
 4268      61746500 
 4269              	.LASF132:
 4270 025e 63684576 		.ascii	"chEvtObjectInit\000"
 4270      744F626A 
 4270      65637449 
 4270      6E697400 
 4271              	.LASF6:
 4272 026e 73686F72 		.ascii	"short unsigned int\000"
 4272      7420756E 
 4272      7369676E 
 4272      65642069 
 4272      6E7400
 4273              	.LASF50:
 4274 0281 63685F74 		.ascii	"ch_thread\000"
 4274      68726561 
 4274      6400
 4275              	.LASF109:
 4276 028b 656C5F77 		.ascii	"el_wflags\000"
 4276      666C6167 
 4276      7300
ARM GAS  /tmp/ccbN9Kog.s 			page 80


 4277              	.LASF27:
 4278 0295 6576656E 		.ascii	"eventflags_t\000"
 4278      74666C61 
 4278      67735F74 
 4278      00
 4279              	.LASF25:
 4280 02a2 6D73675F 		.ascii	"msg_t\000"
 4280      7400
 4281              	.LASF171:
 4282 02a8 7368656C 		.ascii	"shellExit\000"
 4282      6C457869 
 4282      7400
 4283              	.LASF105:
 4284 02b2 656C5F6E 		.ascii	"el_next\000"
 4284      65787400 
 4285              	.LASF164:
 4286 02ba 2F686F6D 		.ascii	"/home/makkmarci/workspace/CLEAN/STM32F4_GLCD/\000"
 4286      652F6D61 
 4286      6B6B6D61 
 4286      7263692F 
 4286      776F726B 
 4287              	.LASF21:
 4288 02e8 746D6F64 		.ascii	"tmode_t\000"
 4288      655F7400 
 4289              	.LASF136:
 4290 02f0 73797374 		.ascii	"systime\000"
 4290      696D6500 
 4291              	.LASF55:
 4292 02f8 63685F72 		.ascii	"ch_ready_list\000"
 4292      65616479 
 4292      5F6C6973 
 4292      7400
 4293              	.LASF26:
 4294 0306 6576656E 		.ascii	"eventmask_t\000"
 4294      746D6173 
 4294      6B5F7400 
 4295              	.LASF7:
 4296 0312 5F5F696E 		.ascii	"__int32_t\000"
 4296      7433325F 
 4296      7400
 4297              	.LASF83:
 4298 031c 73746B61 		.ascii	"stkalign_t\000"
 4298      6C69676E 
 4298      5F7400
 4299              	.LASF49:
 4300 0327 74687265 		.ascii	"threads_list_t\000"
 4300      6164735F 
 4300      6C697374 
 4300      5F7400
 4301              	.LASF114:
 4302 0336 77726974 		.ascii	"write\000"
 4302      6500
 4303              	.LASF41:
 4304 033c 705F7761 		.ascii	"p_waiting\000"
 4304      6974696E 
 4304      6700
 4305              	.LASF14:
ARM GAS  /tmp/ccbN9Kog.s 			page 81


 4306 0346 73697A65 		.ascii	"sizetype\000"
 4306      74797065 
 4306      00
 4307              	.LASF48:
 4308 034f 74687265 		.ascii	"thread_reference_t\000"
 4308      61645F72 
 4308      65666572 
 4308      656E6365 
 4308      5F7400
 4309              	.LASF71:
 4310 0362 63685F76 		.ascii	"ch_virtual_timers_list\000"
 4310      69727475 
 4310      616C5F74 
 4310      696D6572 
 4310      735F6C69 
 4311              	.LASF162:
 4312 0379 474E5520 		.ascii	"GNU C 4.9.3 20150303 (release) [ARM/embedded-4_9-br"
 4312      4320342E 
 4312      392E3320 
 4312      32303135 
 4312      30333033 
 4313 03ac 616E6368 		.ascii	"anch revision 221220] -mcpu=cortex-m4 -mfloat-abi=h"
 4313      20726576 
 4313      6973696F 
 4313      6E203232 
 4313      31323230 
 4314 03df 61726420 		.ascii	"ard -mfpu=fpv4-sp-d16 -mno-thumb-interwork -mthumb "
 4314      2D6D6670 
 4314      753D6670 
 4314      76342D73 
 4314      702D6431 
 4315 0412 2D676764 		.ascii	"-ggdb -fomit-frame-pointer -falign-functions=16 -ff"
 4315      62202D66 
 4315      6F6D6974 
 4315      2D667261 
 4315      6D652D70 
 4316 0445 756E6374 		.ascii	"unction-sections -fdata-sections -fno-common -fsing"
 4316      696F6E2D 
 4316      73656374 
 4316      696F6E73 
 4316      202D6664 
 4317 0478 6C652D70 		.ascii	"le-precision-constant\000"
 4317      72656369 
 4317      73696F6E 
 4317      2D636F6E 
 4317      7374616E 
 4318              	.LASF125:
 4319 048e 5F5F676E 		.ascii	"__gnuc_va_list\000"
 4319      75635F76 
 4319      615F6C69 
 4319      737400
 4320              	.LASF36:
 4321 049d 705F6F6C 		.ascii	"p_older\000"
 4321      64657200 
 4322              	.LASF58:
 4323 04a5 725F6374 		.ascii	"r_ctx\000"
 4323      7800
ARM GAS  /tmp/ccbN9Kog.s 			page 82


 4324              	.LASF118:
 4325 04ab 7368656C 		.ascii	"shellcmd_t\000"
 4325      6C636D64 
 4325      5F7400
 4326              	.LASF87:
 4327 04b6 746D5F63 		.ascii	"tm_calibration_t\000"
 4327      616C6962 
 4327      72617469 
 4327      6F6E5F74 
 4327      00
 4328              	.LASF134:
 4329 04c7 63685654 		.ascii	"chVTGetSystemTime\000"
 4329      47657453 
 4329      79737465 
 4329      6D54696D 
 4329      6500
 4330              	.LASF40:
 4331 04d9 705F7265 		.ascii	"p_refs\000"
 4331      667300
 4332              	.LASF159:
 4333 04e0 6C6F6361 		.ascii	"local_commands\000"
 4333      6C5F636F 
 4333      6D6D616E 
 4333      647300
 4334              	.LASF155:
 4335 04ef 7072696F 		.ascii	"prio\000"
 4335      00
 4336              	.LASF60:
 4337 04f4 725F6F6C 		.ascii	"r_older\000"
 4337      64657200 
 4338              	.LASF107:
 4339 04fc 656C5F65 		.ascii	"el_events\000"
 4339      76656E74 
 4339      7300
 4340              	.LASF12:
 4341 0506 5F5F7569 		.ascii	"__uint64_t\000"
 4341      6E743634 
 4341      5F7400
 4342              	.LASF141:
 4343 0511 746F6B65 		.ascii	"token\000"
 4343      6E00
 4344              	.LASF23:
 4345 0517 74726566 		.ascii	"trefs_t\000"
 4345      735F7400 
 4346              	.LASF140:
 4347 051f 73617665 		.ascii	"saveptr\000"
 4347      70747200 
 4348              	.LASF63:
 4349 0527 76697274 		.ascii	"virtual_timer_t\000"
 4349      75616C5F 
 4349      74696D65 
 4349      725F7400 
 4350              	.LASF32:
 4351 0537 705F7072 		.ascii	"p_prev\000"
 4351      657600
 4352              	.LASF24:
 4353 053e 74707269 		.ascii	"tprio_t\000"
ARM GAS  /tmp/ccbN9Kog.s 			page 83


 4353      6F5F7400 
 4354              	.LASF138:
 4355 0546 5F737472 		.ascii	"_strtok\000"
 4355      746F6B00 
 4356              	.LASF37:
 4357 054e 705F6E61 		.ascii	"p_name\000"
 4357      6D6500
 4358              	.LASF74:
 4359 0555 63685F73 		.ascii	"ch_system_debug\000"
 4359      79737465 
 4359      6D5F6465 
 4359      62756700 
 4360              	.LASF117:
 4361 0565 5F426F6F 		.ascii	"_Bool\000"
 4361      6C00
 4362              	.LASF17:
 4363 056b 696E7433 		.ascii	"int32_t\000"
 4363      325F7400 
 4364              	.LASF4:
 4365 0573 756E7369 		.ascii	"unsigned char\000"
 4365      676E6564 
 4365      20636861 
 4365      7200
 4366              	.LASF99:
 4367 0581 6D5F7175 		.ascii	"m_queue\000"
 4367      65756500 
 4368              	.LASF106:
 4369 0589 656C5F6C 		.ascii	"el_listener\000"
 4369      69737465 
 4369      6E657200 
 4370              	.LASF108:
 4371 0595 656C5F66 		.ascii	"el_flags\000"
 4371      6C616773 
 4371      00
 4372              	.LASF45:
 4373 059e 705F6D74 		.ascii	"p_mtxlist\000"
 4373      786C6973 
 4373      7400
 4374              	.LASF5:
 4375 05a8 73686F72 		.ascii	"short int\000"
 4375      7420696E 
 4375      7400
 4376              	.LASF38:
 4377 05b2 705F7374 		.ascii	"p_state\000"
 4377      61746500 
 4378              	.LASF148:
 4379 05ba 636D6465 		.ascii	"cmdexec\000"
 4379      78656300 
 4380              	.LASF57:
 4381 05c2 725F7072 		.ascii	"r_prio\000"
 4381      696F00
 4382              	.LASF94:
 4383 05c9 65776D61 		.ascii	"ewmask\000"
 4383      736B00
 4384              	.LASF31:
 4385 05d0 705F6E65 		.ascii	"p_next\000"
 4385      787400
ARM GAS  /tmp/ccbN9Kog.s 			page 84


 4386              	.LASF139:
 4387 05d7 64656C69 		.ascii	"delim\000"
 4387      6D00
 4388              	.LASF113:
 4389 05dd 42617365 		.ascii	"BaseSequentialStreamVMT\000"
 4389      53657175 
 4389      656E7469 
 4389      616C5374 
 4389      7265616D 
 4390              	.LASF39:
 4391 05f5 705F666C 		.ascii	"p_flags\000"
 4391      61677300 
 4392              	.LASF168:
 4393 05fd 5F5F6675 		.ascii	"__func__\000"
 4393      6E635F5F 
 4393      00
 4394              	.LASF167:
 4395 0606 63685379 		.ascii	"chSysLock\000"
 4395      734C6F63 
 4395      6B00
 4396              	.LASF133:
 4397 0610 63684576 		.ascii	"chEvtBroadcastI\000"
 4397      7442726F 
 4397      61646361 
 4397      73744900 
 4398              	.LASF88:
 4399 0620 7264796D 		.ascii	"rdymsg\000"
 4399      736700
 4400              	.LASF64:
 4401 0627 63685F76 		.ascii	"ch_virtual_timer\000"
 4401      69727475 
 4401      616C5F74 
 4401      696D6572 
 4401      00
 4402              	.LASF95:
 4403 0638 63685F73 		.ascii	"ch_semaphore\000"
 4403      656D6170 
 4403      686F7265 
 4403      00
 4404              	.LASF44:
 4405 0645 705F6570 		.ascii	"p_epending\000"
 4405      656E6469 
 4405      6E6700
 4406              	.LASF18:
 4407 0650 75696E74 		.ascii	"uint32_t\000"
 4407      33325F74 
 4407      00
 4408              	.LASF93:
 4409 0659 77746D74 		.ascii	"wtmtxp\000"
 4409      787000
 4410              	.LASF56:
 4411 0660 725F7175 		.ascii	"r_queue\000"
 4411      65756500 
 4412              	.LASF51:
 4413 0668 63685F74 		.ascii	"ch_threads_list\000"
 4413      68726561 
 4413      64735F6C 
ARM GAS  /tmp/ccbN9Kog.s 			page 85


 4413      69737400 
 4414              	.LASF10:
 4415 0678 6C6F6E67 		.ascii	"long unsigned int\000"
 4415      20756E73 
 4415      69676E65 
 4415      6420696E 
 4415      7400
 4416              	.LASF61:
 4417 068a 725F6375 		.ascii	"r_current\000"
 4417      7272656E 
 4417      7400
 4418              	.LASF115:
 4419 0694 72656164 		.ascii	"read\000"
 4419      00
 4420              	.LASF15:
 4421 0699 63686172 		.ascii	"char\000"
 4421      00
 4422              	.LASF161:
 4423 069e 7368656C 		.ascii	"shell_terminated\000"
 4423      6C5F7465 
 4423      726D696E 
 4423      61746564 
 4423      00
 4424              	.LASF170:
 4425 06af 7368656C 		.ascii	"shellInit\000"
 4425      6C496E69 
 4425      7400
 4426              	.LASF30:
 4427 06b9 74687265 		.ascii	"thread_t\000"
 4427      61645F74 
 4427      00
 4428              	.LASF101:
 4429 06c2 6D5F6E65 		.ascii	"m_next\000"
 4429      787400
 4430              	.LASF29:
 4431 06c9 73797374 		.ascii	"systime_t\000"
 4431      696D655F 
 4431      7400
 4432              	.LASF46:
 4433 06d3 705F7265 		.ascii	"p_realprio\000"
 4433      616C7072 
 4433      696F00
 4434              	.LASF62:
 4435 06de 76746675 		.ascii	"vtfunc_t\000"
 4435      6E635F74 
 4435      00
 4436              	.LASF124:
 4437 06e7 5368656C 		.ascii	"ShellConfig\000"
 4437      6C436F6E 
 4437      66696700 
 4438              	.LASF165:
 4439 06f3 5F5F7365 		.ascii	"__set_BASEPRI\000"
 4439      745F4241 
 4439      53455052 
 4439      4900
 4440              	.LASF75:
 4441 0701 70616E69 		.ascii	"panic_msg\000"
ARM GAS  /tmp/ccbN9Kog.s 			page 86


 4441      635F6D73 
 4441      6700
 4442              	.LASF86:
 4443 070b 6F666673 		.ascii	"offset\000"
 4443      657400
 4444              	.LASF103:
 4445 0712 6576656E 		.ascii	"event_listener_t\000"
 4445      745F6C69 
 4445      7374656E 
 4445      65725F74 
 4445      00
 4446              	.LASF127:
 4447 0723 5F5F6170 		.ascii	"__ap\000"
 4447      00
 4448              	.LASF84:
 4449 0728 636F6E74 		.ascii	"context\000"
 4449      65787400 
 4450              	.LASF76:
 4451 0730 63685F73 		.ascii	"ch_system_t\000"
 4451      79737465 
 4451      6D5F7400 
 4452              	.LASF147:
 4453 073c 636D645F 		.ascii	"cmd_systime\000"
 4453      73797374 
 4453      696D6500 
 4454              	.LASF20:
 4455 0748 7274636E 		.ascii	"rtcnt_t\000"
 4455      745F7400 
 4456              	.LASF142:
 4457 0750 75736167 		.ascii	"usage\000"
 4457      6500
 4458              	.LASF69:
 4459 0756 76745F70 		.ascii	"vt_par\000"
 4459      617200
 4460              	.LASF52:
 4461 075d 74687265 		.ascii	"threads_queue_t\000"
 4461      6164735F 
 4461      71756575 
 4461      655F7400 
 4462              	.LASF98:
 4463 076d 63685F6D 		.ascii	"ch_mutex\000"
 4463      75746578 
 4463      00
 4464              	.LASF111:
 4465 0776 65735F6E 		.ascii	"es_next\000"
 4465      65787400 
 4466              	.LASF163:
 4467 077e 2F686F6D 		.ascii	"/home/makkmarci/workspace/CLEAN/ChibiOS/os/various/"
 4467      652F6D61 
 4467      6B6B6D61 
 4467      7263692F 
 4467      776F726B 
 4468 07b1 7368656C 		.ascii	"shell.c\000"
 4468      6C2E6300 
 4469              	.LASF150:
 4470 07b9 7368656C 		.ascii	"shell_thread\000"
 4470      6C5F7468 
ARM GAS  /tmp/ccbN9Kog.s 			page 87


 4470      72656164 
 4470      00
 4471              	.LASF78:
 4472 07c6 726C6973 		.ascii	"rlist\000"
 4472      7400
 4473              	.LASF110:
 4474 07cc 6576656E 		.ascii	"event_source\000"
 4474      745F736F 
 4474      75726365 
 4474      00
 4475              	.LASF16:
 4476 07d9 75696E74 		.ascii	"uint8_t\000"
 4476      385F7400 
 4477              	.LASF120:
 4478 07e1 73635F66 		.ascii	"sc_function\000"
 4478      756E6374 
 4478      696F6E00 
 4479              	.LASF90:
 4480 07ed 77746F62 		.ascii	"wtobjp\000"
 4480      6A7000
 4481              	.LASF145:
 4482 07f4 61726763 		.ascii	"argc\000"
 4482      00
 4483              	.LASF154:
 4484 07f9 73697A65 		.ascii	"size\000"
 4484      00
 4485              	.LASF72:
 4486 07fe 76745F73 		.ascii	"vt_systime\000"
 4486      79737469 
 4486      6D6500
 4487              	.LASF143:
 4488 0809 6C697374 		.ascii	"list_commands\000"
 4488      5F636F6D 
 4488      6D616E64 
 4488      7300
 4489              	.LASF131:
 4490 0817 63685379 		.ascii	"chSysUnlock\000"
 4490      73556E6C 
 4490      6F636B00 
 4491              	.LASF43:
 4492 0823 705F6D73 		.ascii	"p_msg\000"
 4492      6700
 4493              	.LASF153:
 4494 0829 61726773 		.ascii	"args\000"
 4494      00
 4495              	.LASF146:
 4496 082e 61726776 		.ascii	"argv\000"
 4496      00
 4497              	.LASF100:
 4498 0833 6D5F6F77 		.ascii	"m_owner\000"
 4498      6E657200 
 4499              	.LASF34:
 4500 083b 705F6374 		.ascii	"p_ctx\000"
 4500      7800
 4501              	.LASF68:
 4502 0841 76745F66 		.ascii	"vt_func\000"
 4502      756E6300 
ARM GAS  /tmp/ccbN9Kog.s 			page 88


 4503              	.LASF104:
 4504 0849 6576656E 		.ascii	"event_listener\000"
 4504      745F6C69 
 4504      7374656E 
 4504      657200
 4505              	.LASF135:
 4506 0858 63687072 		.ascii	"chprintf\000"
 4506      696E7466 
 4506      00
 4507              		.ident	"GCC: (GNU Tools for ARM Embedded Processors) 4.9.3 20150303 (release) [ARM/embedded-4_9-br
ARM GAS  /tmp/ccbN9Kog.s 			page 89


DEFINED SYMBOLS
                            *ABS*:00000000 shell.c
     /tmp/ccbN9Kog.s:21     .text.port_lock:00000000 $t
     /tmp/ccbN9Kog.s:26     .text.port_lock:00000000 port_lock
     /tmp/ccbN9Kog.s:58     .text.port_unlock:00000000 $t
     /tmp/ccbN9Kog.s:63     .text.port_unlock:00000000 port_unlock
     /tmp/ccbN9Kog.s:93     .text.chSysLock:00000000 $t
     /tmp/ccbN9Kog.s:98     .text.chSysLock:00000000 chSysLock
     /tmp/ccbN9Kog.s:117    .text.chSysUnlock:00000000 $t
     /tmp/ccbN9Kog.s:122    .text.chSysUnlock:00000000 chSysUnlock
     /tmp/ccbN9Kog.s:140    .text.chVTGetSystemTimeX:00000000 $t
     /tmp/ccbN9Kog.s:145    .text.chVTGetSystemTimeX:00000000 chVTGetSystemTimeX
     /tmp/ccbN9Kog.s:162    .text.chVTGetSystemTimeX:00000008 $d
     /tmp/ccbN9Kog.s:167    .text.chVTGetSystemTime:00000000 $t
     /tmp/ccbN9Kog.s:172    .text.chVTGetSystemTime:00000000 chVTGetSystemTime
     /tmp/ccbN9Kog.s:202    .text.chEvtObjectInit:00000000 $t
     /tmp/ccbN9Kog.s:207    .text.chEvtObjectInit:00000000 chEvtObjectInit
     /tmp/ccbN9Kog.s:231    .text.chEvtBroadcastI:00000000 $t
     /tmp/ccbN9Kog.s:236    .text.chEvtBroadcastI:00000000 chEvtBroadcastI
     /tmp/ccbN9Kog.s:261    .text.chprintf:00000000 $t
     /tmp/ccbN9Kog.s:266    .text.chprintf:00000000 chprintf
     /tmp/ccbN9Kog.s:317    .bss.shell_terminated:00000000 shell_terminated
     /tmp/ccbN9Kog.s:314    .bss.shell_terminated:00000000 $d
     /tmp/ccbN9Kog.s:320    .text._strtok:00000000 $t
     /tmp/ccbN9Kog.s:325    .text._strtok:00000000 _strtok
     /tmp/ccbN9Kog.s:415    .rodata:00000000 $d
     /tmp/ccbN9Kog.s:419    .text.usage:00000000 $t
     /tmp/ccbN9Kog.s:424    .text.usage:00000000 usage
     /tmp/ccbN9Kog.s:450    .text.usage:00000018 $d
     /tmp/ccbN9Kog.s:459    .text.list_commands:00000000 $t
     /tmp/ccbN9Kog.s:464    .text.list_commands:00000000 list_commands
     /tmp/ccbN9Kog.s:505    .text.list_commands:0000002c $d
     /tmp/ccbN9Kog.s:569    .text.cmd_info:00000000 $t
     /tmp/ccbN9Kog.s:574    .text.cmd_info:00000000 cmd_info
     /tmp/ccbN9Kog.s:651    .text.cmd_info:00000078 $d
     /tmp/ccbN9Kog.s:681    .text.cmd_systime:00000000 $t
     /tmp/ccbN9Kog.s:686    .text.cmd_systime:00000000 cmd_systime
     /tmp/ccbN9Kog.s:727    .text.cmd_systime:00000030 $d
     /tmp/ccbN9Kog.s:733    .data.local_commands:00000000 $d
     /tmp/ccbN9Kog.s:736    .data.local_commands:00000000 local_commands
     /tmp/ccbN9Kog.s:744    .text.cmdexec:00000000 $t
     /tmp/ccbN9Kog.s:749    .text.cmdexec:00000000 cmdexec
     /tmp/ccbN9Kog.s:847    .text.shell_thread:00000000 $t
     /tmp/ccbN9Kog.s:852    .text.shell_thread:00000000 shell_thread
     /tmp/ccbN9Kog.s:1261   .text.shellGetLine:00000000 shellGetLine
     /tmp/ccbN9Kog.s:1131   .text.shellExit:00000000 shellExit
     /tmp/ccbN9Kog.s:1078   .text.shell_thread:00000168 $d
     /tmp/ccbN9Kog.s:1096   .text.shellInit:00000000 $t
     /tmp/ccbN9Kog.s:1102   .text.shellInit:00000000 shellInit
     /tmp/ccbN9Kog.s:1120   .text.shellInit:0000000c $d
     /tmp/ccbN9Kog.s:1125   .text.shellExit:00000000 $t
     /tmp/ccbN9Kog.s:1159   .text.shellExit:0000001c $d
     /tmp/ccbN9Kog.s:1164   .text.shellCreate:00000000 $t
     /tmp/ccbN9Kog.s:1170   .text.shellCreate:00000000 shellCreate
     /tmp/ccbN9Kog.s:1202   .text.shellCreate:00000024 $d
     /tmp/ccbN9Kog.s:1207   .text.shellCreateStatic:00000000 $t
     /tmp/ccbN9Kog.s:1213   .text.shellCreateStatic:00000000 shellCreateStatic
ARM GAS  /tmp/ccbN9Kog.s 			page 90


     /tmp/ccbN9Kog.s:1246   .text.shellCreateStatic:00000028 $d
     /tmp/ccbN9Kog.s:1255   .text.shellGetLine:00000000 $t
     /tmp/ccbN9Kog.s:1413   .text.shellGetLine:000000e4 $d
                     .debug_frame:00000010 $d
     /tmp/ccbN9Kog.s:166    .text.chVTGetSystemTimeX:0000000c $t
     /tmp/ccbN9Kog.s:454    .text.usage:0000001c $t
     /tmp/ccbN9Kog.s:673    .text.cmd_info:000000c4 $t
     /tmp/ccbN9Kog.s:732    .text.cmd_systime:00000038 $t
     /tmp/ccbN9Kog.s:1206   .text.shellCreate:00000028 $t
     /tmp/ccbN9Kog.s:1250   .text.shellCreateStatic:0000002c $t
     /tmp/ccbN9Kog.s:1418   .text.shellGetLine:000000ec $t

UNDEFINED SYMBOLS
ch
chEvtBroadcastFlagsI
chvprintf
strspn
strpbrk
strcasecmp
chThdExitS
chThdCreateFromHeap
chThdCreateStatic
