ARM GAS  /tmp/ccbN9Kog.s 			page 1


   1              		.syntax unified
   2              		.cpu cortex-m4
   3              		.eabi_attribute 27, 1
   4              		.eabi_attribute 28, 1
   5              		.fpu fpv4-sp-d16
   6              		.eabi_attribute 20, 1
   7              		.eabi_attribute 21, 1
   8              		.eabi_attribute 23, 3
   9              		.eabi_attribute 24, 1
  10              		.eabi_attribute 25, 1
  11              		.eabi_attribute 26, 1
  12              		.eabi_attribute 30, 6
  13              		.eabi_attribute 34, 1
  14              		.eabi_attribute 18, 4
  15              		.thumb
  16              		.file	"shell.c"
  17              		.text
  18              	.Ltext0:
  19              		.cfi_sections	.debug_frame
  20              		.section	.text.port_lock,"ax",%progbits
  21              		.align	2
  22              		.p2align 4,,15
  23              		.thumb
  24              		.thumb_func
  25              		.type	port_lock, %function
  26              	port_lock:
  27              	.LFB116:
  28              		.file 1 "/home/makkmarci/workspace/CLEAN/ChibiOS/os/rt/ports/ARMCMx/chcore_v7m.h"
  29              		.loc 1 444 0
  30              		.cfi_startproc
  31              		@ args = 0, pretend = 0, frame = 8
  32              		@ frame_needed = 0, uses_anonymous_args = 0
  33              		@ link register save eliminated.
  34 0000 82B0     		sub	sp, sp, #8
  35              		.cfi_def_cfa_offset 8
  36 0002 2023     		movs	r3, #32
  37 0004 0193     		str	r3, [sp, #4]
  38              	.LBB6:
  39              	.LBB7:
  40              		.file 2 "/home/makkmarci/workspace/CLEAN/ChibiOS/os/ext/CMSIS/include/core_cmFunc.h"
  41              		.loc 2 546 0
  42 0006 019B     		ldr	r3, [sp, #4]
  43              	@ 546 "/home/makkmarci/workspace/CLEAN/ChibiOS/os/ext/CMSIS/include/core_cmFunc.h" 1
  44 0008 83F31188 		MSR basepri, r3
  45              	@ 0 "" 2
  46              		.thumb
  47              	.LBE7:
  48              	.LBE6:
  49              		.loc 1 451 0
  50 000c 02B0     		add	sp, sp, #8
  51              		.cfi_def_cfa_offset 0
  52              		@ sp needed
  53 000e 7047     		bx	lr
  54              		.cfi_endproc
  55              	.LFE116:
  56              		.size	port_lock, .-port_lock
  57              		.section	.text.port_unlock,"ax",%progbits
ARM GAS  /tmp/ccbN9Kog.s 			page 2


  58              		.align	2
  59              		.p2align 4,,15
  60              		.thumb
  61              		.thumb_func
  62              		.type	port_unlock, %function
  63              	port_unlock:
  64              	.LFB117:
  65              		.loc 1 458 0
  66              		.cfi_startproc
  67              		@ args = 0, pretend = 0, frame = 8
  68              		@ frame_needed = 0, uses_anonymous_args = 0
  69              		@ link register save eliminated.
  70 0000 82B0     		sub	sp, sp, #8
  71              		.cfi_def_cfa_offset 8
  72 0002 0023     		movs	r3, #0
  73 0004 0193     		str	r3, [sp, #4]
  74              	.LBB8:
  75              	.LBB9:
  76              		.loc 2 546 0
  77 0006 019B     		ldr	r3, [sp, #4]
  78              	@ 546 "/home/makkmarci/workspace/CLEAN/ChibiOS/os/ext/CMSIS/include/core_cmFunc.h" 1
  79 0008 83F31188 		MSR basepri, r3
  80              	@ 0 "" 2
  81              		.thumb
  82              	.LBE9:
  83              	.LBE8:
  84              		.loc 1 465 0
  85 000c 02B0     		add	sp, sp, #8
  86              		.cfi_def_cfa_offset 0
  87              		@ sp needed
  88 000e 7047     		bx	lr
  89              		.cfi_endproc
  90              	.LFE117:
  91              		.size	port_unlock, .-port_unlock
  92              		.section	.text.chSysLock,"ax",%progbits
  93              		.align	2
  94              		.p2align 4,,15
  95              		.thumb
  96              		.thumb_func
  97              		.type	chSysLock, %function
  98              	chSysLock:
  99              	.LFB145:
 100              		.file 3 "/home/makkmarci/workspace/CLEAN/ChibiOS/os/rt/include/chsys.h"
 101              		.loc 3 346 0
 102              		.cfi_startproc
 103              		@ args = 0, pretend = 0, frame = 0
 104              		@ frame_needed = 0, uses_anonymous_args = 0
 105 0000 08B5     		push	{r3, lr}
 106              		.cfi_def_cfa_offset 8
 107              		.cfi_offset 3, -8
 108              		.cfi_offset 14, -4
 109              		.loc 3 348 0
 110 0002 FFF7FEFF 		bl	port_lock
 111              		.loc 3 351 0
 112 0006 08BD     		pop	{r3, pc}
 113              		.cfi_endproc
 114              	.LFE145:
ARM GAS  /tmp/ccbN9Kog.s 			page 3


 115              		.size	chSysLock, .-chSysLock
 116              		.section	.text.chSysUnlock,"ax",%progbits
 117              		.align	2
 118              		.p2align 4,,15
 119              		.thumb
 120              		.thumb_func
 121              		.type	chSysUnlock, %function
 122              	chSysUnlock:
 123              	.LFB146:
 124              		.loc 3 358 0
 125              		.cfi_startproc
 126              		@ args = 0, pretend = 0, frame = 0
 127              		@ frame_needed = 0, uses_anonymous_args = 0
 128 0000 08B5     		push	{r3, lr}
 129              		.cfi_def_cfa_offset 8
 130              		.cfi_offset 3, -8
 131              		.cfi_offset 14, -4
 132              		.loc 3 371 0
 133 0002 FFF7FEFF 		bl	port_unlock
 134              		.loc 3 372 0
 135 0006 08BD     		pop	{r3, pc}
 136              		.cfi_endproc
 137              	.LFE146:
 138              		.size	chSysUnlock, .-chSysUnlock
 139 0008 AFF30080 		.section	.text.chVTGetSystemTimeX,"ax",%progbits
 139      AFF30080 
 140              		.align	2
 141              		.p2align 4,,15
 142              		.thumb
 143              		.thumb_func
 144              		.type	chVTGetSystemTimeX, %function
 145              	chVTGetSystemTimeX:
 146              	.LFB153:
 147              		.file 4 "/home/makkmarci/workspace/CLEAN/ChibiOS/os/rt/include/chvt.h"
 148              		.loc 4 228 0
 149              		.cfi_startproc
 150              		@ args = 0, pretend = 0, frame = 0
 151              		@ frame_needed = 0, uses_anonymous_args = 0
 152              		@ link register save eliminated.
 153              		.loc 4 231 0
 154 0000 014B     		ldr	r3, .L7
 155 0002 9B6A     		ldr	r3, [r3, #40]
 156              		.loc 4 235 0
 157 0004 1846     		mov	r0, r3
 158 0006 7047     		bx	lr
 159              	.L8:
 160              		.align	2
 161              	.L7:
 162 0008 00000000 		.word	ch
 163              		.cfi_endproc
 164              	.LFE153:
 165              		.size	chVTGetSystemTimeX, .-chVTGetSystemTimeX
 166 000c AFF30080 		.section	.text.chVTGetSystemTime,"ax",%progbits
 167              		.align	2
 168              		.p2align 4,,15
 169              		.thumb
 170              		.thumb_func
ARM GAS  /tmp/ccbN9Kog.s 			page 4


 171              		.type	chVTGetSystemTime, %function
 172              	chVTGetSystemTime:
 173              	.LFB154:
 174              		.loc 4 247 0
 175              		.cfi_startproc
 176              		@ args = 0, pretend = 0, frame = 8
 177              		@ frame_needed = 0, uses_anonymous_args = 0
 178 0000 00B5     		push	{lr}
 179              		.cfi_def_cfa_offset 4
 180              		.cfi_offset 14, -4
 181 0002 83B0     		sub	sp, sp, #12
 182              		.cfi_def_cfa_offset 16
 183              		.loc 4 250 0
 184 0004 FFF7FEFF 		bl	chSysLock
 185              		.loc 4 251 0
 186 0008 FFF7FEFF 		bl	chVTGetSystemTimeX
 187 000c 0190     		str	r0, [sp, #4]
 188              		.loc 4 252 0
 189 000e FFF7FEFF 		bl	chSysUnlock
 190              		.loc 4 254 0
 191 0012 019B     		ldr	r3, [sp, #4]
 192              		.loc 4 255 0
 193 0014 1846     		mov	r0, r3
 194 0016 03B0     		add	sp, sp, #12
 195              		.cfi_def_cfa_offset 4
 196              		@ sp needed
 197 0018 5DF804FB 		ldr	pc, [sp], #4
 198              		.cfi_endproc
 199              	.LFE154:
 200              		.size	chVTGetSystemTime, .-chVTGetSystemTime
 201 001c AFF30080 		.section	.text.chEvtObjectInit,"ax",%progbits
 202              		.align	2
 203              		.p2align 4,,15
 204              		.thumb
 205              		.thumb_func
 206              		.type	chEvtObjectInit, %function
 207              	chEvtObjectInit:
 208              	.LFB191:
 209              		.file 5 "/home/makkmarci/workspace/CLEAN/ChibiOS/os/rt/include/chevents.h"
 210              		.loc 5 170 0
 211              		.cfi_startproc
 212              		@ args = 0, pretend = 0, frame = 8
 213              		@ frame_needed = 0, uses_anonymous_args = 0
 214              		@ link register save eliminated.
 215 0000 82B0     		sub	sp, sp, #8
 216              		.cfi_def_cfa_offset 8
 217 0002 0190     		str	r0, [sp, #4]
 218              		.loc 5 172 0
 219 0004 019B     		ldr	r3, [sp, #4]
 220 0006 019A     		ldr	r2, [sp, #4]
 221 0008 1A60     		str	r2, [r3]
 222              		.loc 5 173 0
 223 000a 02B0     		add	sp, sp, #8
 224              		.cfi_def_cfa_offset 0
 225              		@ sp needed
 226 000c 7047     		bx	lr
 227              		.cfi_endproc
ARM GAS  /tmp/ccbN9Kog.s 			page 5


 228              	.LFE191:
 229              		.size	chEvtObjectInit, .-chEvtObjectInit
 230 000e 00BF     		.section	.text.chEvtBroadcastI,"ax",%progbits
 231              		.align	2
 232              		.p2align 4,,15
 233              		.thumb
 234              		.thumb_func
 235              		.type	chEvtBroadcastI, %function
 236              	chEvtBroadcastI:
 237              	.LFB196:
 238              		.loc 5 254 0
 239              		.cfi_startproc
 240              		@ args = 0, pretend = 0, frame = 8
 241              		@ frame_needed = 0, uses_anonymous_args = 0
 242 0000 00B5     		push	{lr}
 243              		.cfi_def_cfa_offset 4
 244              		.cfi_offset 14, -4
 245 0002 83B0     		sub	sp, sp, #12
 246              		.cfi_def_cfa_offset 16
 247 0004 0190     		str	r0, [sp, #4]
 248              		.loc 5 256 0
 249 0006 0198     		ldr	r0, [sp, #4]
 250 0008 0021     		movs	r1, #0
 251 000a FFF7FEFF 		bl	chEvtBroadcastFlagsI
 252              		.loc 5 257 0
 253 000e 03B0     		add	sp, sp, #12
 254              		.cfi_def_cfa_offset 4
 255              		@ sp needed
 256 0010 5DF804FB 		ldr	pc, [sp], #4
 257              		.cfi_endproc
 258              	.LFE196:
 259              		.size	chEvtBroadcastI, .-chEvtBroadcastI
 260 0014 AFF30080 		.section	.text.chprintf,"ax",%progbits
 260      AFF30080 
 260      AFF30080 
 261              		.align	2
 262              		.p2align 4,,15
 263              		.thumb
 264              		.thumb_func
 265              		.type	chprintf, %function
 266              	chprintf:
 267              	.LFB253:
 268              		.file 6 "/home/makkmarci/workspace/CLEAN/ChibiOS/os/hal/lib/streams/chprintf.h"
 269              		.loc 6 69 0
 270              		.cfi_startproc
 271              		@ args = 4, pretend = 12, frame = 16
 272              		@ frame_needed = 0, uses_anonymous_args = 1
 273 0000 0EB4     		push	{r1, r2, r3}
 274              		.cfi_def_cfa_offset 12
 275              		.cfi_offset 1, -12
 276              		.cfi_offset 2, -8
 277              		.cfi_offset 3, -4
 278 0002 00B5     		push	{lr}
 279              		.cfi_def_cfa_offset 16
 280              		.cfi_offset 14, -16
 281 0004 84B0     		sub	sp, sp, #16
 282              		.cfi_def_cfa_offset 32
ARM GAS  /tmp/ccbN9Kog.s 			page 6


 283 0006 0190     		str	r0, [sp, #4]
 284              		.loc 6 73 0
 285 0008 06AB     		add	r3, sp, #24
 286 000a 0293     		str	r3, [sp, #8]
 287              		.loc 6 74 0
 288 000c 0198     		ldr	r0, [sp, #4]
 289 000e 0599     		ldr	r1, [sp, #20]
 290 0010 029A     		ldr	r2, [sp, #8]
 291 0012 FFF7FEFF 		bl	chvprintf
 292 0016 0390     		str	r0, [sp, #12]
 293              		.loc 6 77 0
 294 0018 039B     		ldr	r3, [sp, #12]
 295              		.loc 6 78 0
 296 001a 1846     		mov	r0, r3
 297 001c 04B0     		add	sp, sp, #16
 298              		.cfi_def_cfa_offset 16
 299              		@ sp needed
 300 001e 5DF804EB 		ldr	lr, [sp], #4
 301              		.cfi_restore 14
 302              		.cfi_def_cfa_offset 12
 303 0022 03B0     		add	sp, sp, #12
 304              		.cfi_restore 3
 305              		.cfi_restore 2
 306              		.cfi_restore 1
 307              		.cfi_def_cfa_offset 0
 308 0024 7047     		bx	lr
 309              		.cfi_endproc
 310              	.LFE253:
 311              		.size	chprintf, .-chprintf
 312              		.global	shell_terminated
 313 0026 00BFAFF3 		.section	.bss.shell_terminated,"aw",%nobits
 313      0080AFF3 
 313      0080
 314              		.align	2
 315              		.type	shell_terminated, %object
 316              		.size	shell_terminated, 4
 317              	shell_terminated:
 318 0000 00000000 		.space	4
 319              		.section	.text._strtok,"ax",%progbits
 320              		.align	2
 321              		.p2align 4,,15
 322              		.thumb
 323              		.thumb_func
 324              		.type	_strtok, %function
 325              	_strtok:
 326              	.LFB254:
 327              		.file 7 "/home/makkmarci/workspace/CLEAN/ChibiOS/os/various/shell.c"
 328              		.loc 7 37 0
 329              		.cfi_startproc
 330              		@ args = 0, pretend = 0, frame = 24
 331              		@ frame_needed = 0, uses_anonymous_args = 0
 332 0000 00B5     		push	{lr}
 333              		.cfi_def_cfa_offset 4
 334              		.cfi_offset 14, -4
 335 0002 87B0     		sub	sp, sp, #28
 336              		.cfi_def_cfa_offset 32
 337 0004 0390     		str	r0, [sp, #12]
ARM GAS  /tmp/ccbN9Kog.s 			page 7


 338 0006 0291     		str	r1, [sp, #8]
 339 0008 0192     		str	r2, [sp, #4]
 340              		.loc 7 39 0
 341 000a 039B     		ldr	r3, [sp, #12]
 342 000c 002B     		cmp	r3, #0
 343 000e 02D0     		beq	.L16
 344              		.loc 7 40 0
 345 0010 019B     		ldr	r3, [sp, #4]
 346 0012 039A     		ldr	r2, [sp, #12]
 347 0014 1A60     		str	r2, [r3]
 348              	.L16:
 349              		.loc 7 41 0
 350 0016 019B     		ldr	r3, [sp, #4]
 351 0018 1B68     		ldr	r3, [r3]
 352 001a 0593     		str	r3, [sp, #20]
 353              		.loc 7 43 0
 354 001c 059B     		ldr	r3, [sp, #20]
 355 001e 002B     		cmp	r3, #0
 356 0020 01D1     		bne	.L17
 357              		.loc 7 44 0
 358 0022 0023     		movs	r3, #0
 359 0024 21E0     		b	.L18
 360              	.L17:
 361              		.loc 7 46 0
 362 0026 0598     		ldr	r0, [sp, #20]
 363 0028 0299     		ldr	r1, [sp, #8]
 364 002a FFF7FEFF 		bl	strspn
 365 002e 0246     		mov	r2, r0
 366 0030 059B     		ldr	r3, [sp, #20]
 367 0032 1344     		add	r3, r3, r2
 368 0034 0593     		str	r3, [sp, #20]
 369              		.loc 7 47 0
 370 0036 0598     		ldr	r0, [sp, #20]
 371 0038 0299     		ldr	r1, [sp, #8]
 372 003a FFF7FEFF 		bl	strpbrk
 373 003e 0246     		mov	r2, r0
 374 0040 019B     		ldr	r3, [sp, #4]
 375 0042 1A60     		str	r2, [r3]
 376              		.loc 7 48 0
 377 0044 019B     		ldr	r3, [sp, #4]
 378 0046 1B68     		ldr	r3, [r3]
 379 0048 002B     		cmp	r3, #0
 380 004a 06D0     		beq	.L19
 381              		.loc 7 49 0
 382 004c 019B     		ldr	r3, [sp, #4]
 383 004e 1B68     		ldr	r3, [r3]
 384 0050 591C     		adds	r1, r3, #1
 385 0052 019A     		ldr	r2, [sp, #4]
 386 0054 1160     		str	r1, [r2]
 387 0056 0022     		movs	r2, #0
 388 0058 1A70     		strb	r2, [r3]
 389              	.L19:
 390              		.loc 7 51 0
 391 005a 059B     		ldr	r3, [sp, #20]
 392 005c 1B78     		ldrb	r3, [r3]	@ zero_extendqisi2
 393 005e 002B     		cmp	r3, #0
 394 0060 01D0     		beq	.L20
ARM GAS  /tmp/ccbN9Kog.s 			page 8


 395              		.loc 7 51 0 is_stmt 0 discriminator 1
 396 0062 059B     		ldr	r3, [sp, #20]
 397 0064 00E0     		b	.L22
 398              	.L20:
 399              		.loc 7 51 0 discriminator 2
 400 0066 0023     		movs	r3, #0
 401              	.L22:
 402              		.loc 7 51 0
 403 0068 00BF     		nop
 404              	.L18:
 405              		.loc 7 52 0 is_stmt 1
 406 006a 1846     		mov	r0, r3
 407 006c 07B0     		add	sp, sp, #28
 408              		.cfi_def_cfa_offset 4
 409              		@ sp needed
 410 006e 5DF804FB 		ldr	pc, [sp], #4
 411              		.cfi_endproc
 412              	.LFE254:
 413              		.size	_strtok, .-_strtok
 414 0072 00BFAFF3 		.section	.rodata
 414      0080AFF3 
 414      0080AFF3 
 414      0080
 415              		.align	2
 416              	.LC0:
 417 0000 55736167 		.ascii	"Usage: %s\015\012\000"
 417      653A2025 
 417      730D0A00 
 418              		.section	.text.usage,"ax",%progbits
 419              		.align	2
 420              		.p2align 4,,15
 421              		.thumb
 422              		.thumb_func
 423              		.type	usage, %function
 424              	usage:
 425              	.LFB255:
 426              		.loc 7 54 0
 427              		.cfi_startproc
 428              		@ args = 0, pretend = 0, frame = 8
 429              		@ frame_needed = 0, uses_anonymous_args = 0
 430 0000 00B5     		push	{lr}
 431              		.cfi_def_cfa_offset 4
 432              		.cfi_offset 14, -4
 433 0002 83B0     		sub	sp, sp, #12
 434              		.cfi_def_cfa_offset 16
 435 0004 0190     		str	r0, [sp, #4]
 436 0006 0091     		str	r1, [sp]
 437              		.loc 7 56 0
 438 0008 0198     		ldr	r0, [sp, #4]
 439 000a 0349     		ldr	r1, .L24
 440 000c 009A     		ldr	r2, [sp]
 441 000e FFF7FEFF 		bl	chprintf
 442              		.loc 7 57 0
 443 0012 03B0     		add	sp, sp, #12
 444              		.cfi_def_cfa_offset 4
 445              		@ sp needed
 446 0014 5DF804FB 		ldr	pc, [sp], #4
ARM GAS  /tmp/ccbN9Kog.s 			page 9


 447              	.L25:
 448              		.align	2
 449              	.L24:
 450 0018 00000000 		.word	.LC0
 451              		.cfi_endproc
 452              	.LFE255:
 453              		.size	usage, .-usage
 454 001c AFF30080 		.section	.rodata
 455              		.align	2
 456              	.LC1:
 457 000c 25732000 		.ascii	"%s \000"
 458              		.section	.text.list_commands,"ax",%progbits
 459              		.align	2
 460              		.p2align 4,,15
 461              		.thumb
 462              		.thumb_func
 463              		.type	list_commands, %function
 464              	list_commands:
 465              	.LFB256:
 466              		.loc 7 59 0
 467              		.cfi_startproc
 468              		@ args = 0, pretend = 0, frame = 8
 469              		@ frame_needed = 0, uses_anonymous_args = 0
 470 0000 00B5     		push	{lr}
 471              		.cfi_def_cfa_offset 4
 472              		.cfi_offset 14, -4
 473 0002 83B0     		sub	sp, sp, #12
 474              		.cfi_def_cfa_offset 16
 475 0004 0190     		str	r0, [sp, #4]
 476 0006 0091     		str	r1, [sp]
 477              		.loc 7 61 0
 478 0008 09E0     		b	.L27
 479              	.L28:
 480              		.loc 7 62 0
 481 000a 009B     		ldr	r3, [sp]
 482 000c 1B68     		ldr	r3, [r3]
 483 000e 0198     		ldr	r0, [sp, #4]
 484 0010 0649     		ldr	r1, .L29
 485 0012 1A46     		mov	r2, r3
 486 0014 FFF7FEFF 		bl	chprintf
 487              		.loc 7 63 0
 488 0018 009B     		ldr	r3, [sp]
 489 001a 0833     		adds	r3, r3, #8
 490 001c 0093     		str	r3, [sp]
 491              	.L27:
 492              		.loc 7 61 0
 493 001e 009B     		ldr	r3, [sp]
 494 0020 1B68     		ldr	r3, [r3]
 495 0022 002B     		cmp	r3, #0
 496 0024 F1D1     		bne	.L28
 497              		.loc 7 65 0
 498 0026 03B0     		add	sp, sp, #12
 499              		.cfi_def_cfa_offset 4
 500              		@ sp needed
 501 0028 5DF804FB 		ldr	pc, [sp], #4
 502              	.L30:
 503              		.align	2
ARM GAS  /tmp/ccbN9Kog.s 			page 10


 504              	.L29:
 505 002c 0C000000 		.word	.LC1
 506              		.cfi_endproc
 507              	.LFE256:
 508              		.size	list_commands, .-list_commands
 509              		.section	.rodata
 510              		.align	2
 511              	.LC2:
 512 0010 696E666F 		.ascii	"info\000"
 512      00
 513 0015 000000   		.align	2
 514              	.LC3:
 515 0018 4B65726E 		.ascii	"Kernel:       %s\015\012\000"
 515      656C3A20 
 515      20202020 
 515      20202573 
 515      0D0A00
 516 002b 00       		.align	2
 517              	.LC4:
 518 002c 332E302E 		.ascii	"3.0.0p6\000"
 518      30703600 
 519              		.align	2
 520              	.LC5:
 521 0034 436F6D70 		.ascii	"Compiler:     %s\015\012\000"
 521      696C6572 
 521      3A202020 
 521      20202573 
 521      0D0A00
 522 0047 00       		.align	2
 523              	.LC6:
 524 0048 47434320 		.ascii	"GCC 4.9.3 20150303 (release) [ARM/embedded-4_9-bran"
 524      342E392E 
 524      33203230 
 524      31353033 
 524      30332028 
 525 007b 63682072 		.ascii	"ch revision 221220]\000"
 525      65766973 
 525      696F6E20 
 525      32323132 
 525      32305D00 
 526 008f 00       		.align	2
 527              	.LC7:
 528 0090 41726368 		.ascii	"Architecture: %s\015\012\000"
 528      69746563 
 528      74757265 
 528      3A202573 
 528      0D0A00
 529 00a3 00       		.align	2
 530              	.LC8:
 531 00a4 41524D76 		.ascii	"ARMv7-ME\000"
 531      372D4D45 
 531      00
 532 00ad 000000   		.align	2
 533              	.LC9:
 534 00b0 436F7265 		.ascii	"Core Variant: %s\015\012\000"
 534      20566172 
 534      69616E74 
ARM GAS  /tmp/ccbN9Kog.s 			page 11


 534      3A202573 
 534      0D0A00
 535 00c3 00       		.align	2
 536              	.LC10:
 537 00c4 436F7274 		.ascii	"Cortex-M4F\000"
 537      65782D4D 
 537      344600
 538 00cf 00       		.align	2
 539              	.LC11:
 540 00d0 506F7274 		.ascii	"Port Info:    %s\015\012\000"
 540      20496E66 
 540      6F3A2020 
 540      20202573 
 540      0D0A00
 541 00e3 00       		.align	2
 542              	.LC12:
 543 00e4 41647661 		.ascii	"Advanced kernel mode\000"
 543      6E636564 
 543      206B6572 
 543      6E656C20 
 543      6D6F6465 
 544 00f9 000000   		.align	2
 545              	.LC13:
 546 00fc 506C6174 		.ascii	"Platform:     %s\015\012\000"
 546      666F726D 
 546      3A202020 
 546      20202573 
 546      0D0A00
 547 010f 00       		.align	2
 548              	.LC14:
 549 0110 53544D33 		.ascii	"STM32F407 High Performance with DSP and FPU\000"
 549      32463430 
 549      37204869 
 549      67682050 
 549      6572666F 
 550              		.align	2
 551              	.LC15:
 552 013c 426F6172 		.ascii	"Board:        %s\015\012\000"
 552      643A2020 
 552      20202020 
 552      20202573 
 552      0D0A00
 553 014f 00       		.align	2
 554              	.LC16:
 555 0150 53544D69 		.ascii	"STMicroelectronics STM32F4-Discovery\000"
 555      63726F65 
 555      6C656374 
 555      726F6E69 
 555      63732053 
 556 0175 000000   		.align	2
 557              	.LC17:
 558 0178 4275696C 		.ascii	"Build time:   %s%s%s\015\012\000"
 558      64207469 
 558      6D653A20 
 558      20202573 
 558      25732573 
 559 018f 00       		.align	2
ARM GAS  /tmp/ccbN9Kog.s 			page 12


 560              	.LC18:
 561 0190 4A756E20 		.ascii	"Jun  8 2015\000"
 561      20382032 
 561      30313500 
 562              		.align	2
 563              	.LC19:
 564 019c 202D2000 		.ascii	" - \000"
 565              		.align	2
 566              	.LC20:
 567 01a0 32313A30 		.ascii	"21:09:05\000"
 567      393A3035 
 567      00
 568              		.section	.text.cmd_info,"ax",%progbits
 569              		.align	2
 570              		.p2align 4,,15
 571              		.thumb
 572              		.thumb_func
 573              		.type	cmd_info, %function
 574              	cmd_info:
 575              	.LFB257:
 576              		.loc 7 67 0
 577              		.cfi_startproc
 578              		@ args = 0, pretend = 0, frame = 16
 579              		@ frame_needed = 0, uses_anonymous_args = 0
 580 0000 00B5     		push	{lr}
 581              		.cfi_def_cfa_offset 4
 582              		.cfi_offset 14, -4
 583 0002 87B0     		sub	sp, sp, #28
 584              		.cfi_def_cfa_offset 32
 585 0004 0590     		str	r0, [sp, #20]
 586 0006 0491     		str	r1, [sp, #16]
 587 0008 0392     		str	r2, [sp, #12]
 588              		.loc 7 70 0
 589 000a 049B     		ldr	r3, [sp, #16]
 590 000c 002B     		cmp	r3, #0
 591 000e 04DD     		ble	.L32
 592              		.loc 7 71 0
 593 0010 0598     		ldr	r0, [sp, #20]
 594 0012 1949     		ldr	r1, .L34
 595 0014 FFF7FEFF 		bl	usage
 596              		.loc 7 72 0
 597 0018 2AE0     		b	.L31
 598              	.L32:
 599              		.loc 7 75 0
 600 001a 0598     		ldr	r0, [sp, #20]
 601 001c 1749     		ldr	r1, .L34+4
 602 001e 184A     		ldr	r2, .L34+8
 603 0020 FFF7FEFF 		bl	chprintf
 604              		.loc 7 77 0
 605 0024 0598     		ldr	r0, [sp, #20]
 606 0026 1749     		ldr	r1, .L34+12
 607 0028 174A     		ldr	r2, .L34+16
 608 002a FFF7FEFF 		bl	chprintf
 609              		.loc 7 79 0
 610 002e 0598     		ldr	r0, [sp, #20]
 611 0030 1649     		ldr	r1, .L34+20
 612 0032 174A     		ldr	r2, .L34+24
ARM GAS  /tmp/ccbN9Kog.s 			page 13


 613 0034 FFF7FEFF 		bl	chprintf
 614              		.loc 7 81 0
 615 0038 0598     		ldr	r0, [sp, #20]
 616 003a 1649     		ldr	r1, .L34+28
 617 003c 164A     		ldr	r2, .L34+32
 618 003e FFF7FEFF 		bl	chprintf
 619              		.loc 7 84 0
 620 0042 0598     		ldr	r0, [sp, #20]
 621 0044 1549     		ldr	r1, .L34+36
 622 0046 164A     		ldr	r2, .L34+40
 623 0048 FFF7FEFF 		bl	chprintf
 624              		.loc 7 87 0
 625 004c 0598     		ldr	r0, [sp, #20]
 626 004e 1549     		ldr	r1, .L34+44
 627 0050 154A     		ldr	r2, .L34+48
 628 0052 FFF7FEFF 		bl	chprintf
 629              		.loc 7 90 0
 630 0056 0598     		ldr	r0, [sp, #20]
 631 0058 1449     		ldr	r1, .L34+52
 632 005a 154A     		ldr	r2, .L34+56
 633 005c FFF7FEFF 		bl	chprintf
 634              		.loc 7 94 0
 635 0060 144B     		ldr	r3, .L34+60
 636 0062 0093     		str	r3, [sp]
 637 0064 0598     		ldr	r0, [sp, #20]
 638 0066 1449     		ldr	r1, .L34+64
 639 0068 144A     		ldr	r2, .L34+68
 640 006a 154B     		ldr	r3, .L34+72
 641 006c FFF7FEFF 		bl	chprintf
 642              	.L31:
 643              		.loc 7 97 0
 644 0070 07B0     		add	sp, sp, #28
 645              		.cfi_def_cfa_offset 4
 646              		@ sp needed
 647 0072 5DF804FB 		ldr	pc, [sp], #4
 648              	.L35:
 649 0076 00BF     		.align	2
 650              	.L34:
 651 0078 10000000 		.word	.LC2
 652 007c 18000000 		.word	.LC3
 653 0080 2C000000 		.word	.LC4
 654 0084 34000000 		.word	.LC5
 655 0088 48000000 		.word	.LC6
 656 008c 90000000 		.word	.LC7
 657 0090 A4000000 		.word	.LC8
 658 0094 B0000000 		.word	.LC9
 659 0098 C4000000 		.word	.LC10
 660 009c D0000000 		.word	.LC11
 661 00a0 E4000000 		.word	.LC12
 662 00a4 FC000000 		.word	.LC13
 663 00a8 10010000 		.word	.LC14
 664 00ac 3C010000 		.word	.LC15
 665 00b0 50010000 		.word	.LC16
 666 00b4 A0010000 		.word	.LC20
 667 00b8 78010000 		.word	.LC17
 668 00bc 90010000 		.word	.LC18
 669 00c0 9C010000 		.word	.LC19
ARM GAS  /tmp/ccbN9Kog.s 			page 14


 670              		.cfi_endproc
 671              	.LFE257:
 672              		.size	cmd_info, .-cmd_info
 673 00c4 AFF30080 		.section	.rodata
 673      AFF30080 
 673      AFF30080 
 674 01a9 000000   		.align	2
 675              	.LC21:
 676 01ac 73797374 		.ascii	"systime\000"
 676      696D6500 
 677              		.align	2
 678              	.LC22:
 679 01b4 256C750D 		.ascii	"%lu\015\012\000"
 679      0A00
 680              		.section	.text.cmd_systime,"ax",%progbits
 681              		.align	2
 682              		.p2align 4,,15
 683              		.thumb
 684              		.thumb_func
 685              		.type	cmd_systime, %function
 686              	cmd_systime:
 687              	.LFB258:
 688              		.loc 7 99 0
 689              		.cfi_startproc
 690              		@ args = 0, pretend = 0, frame = 16
 691              		@ frame_needed = 0, uses_anonymous_args = 0
 692 0000 00B5     		push	{lr}
 693              		.cfi_def_cfa_offset 4
 694              		.cfi_offset 14, -4
 695 0002 85B0     		sub	sp, sp, #20
 696              		.cfi_def_cfa_offset 24
 697 0004 0390     		str	r0, [sp, #12]
 698 0006 0291     		str	r1, [sp, #8]
 699 0008 0192     		str	r2, [sp, #4]
 700              		.loc 7 102 0
 701 000a 029B     		ldr	r3, [sp, #8]
 702 000c 002B     		cmp	r3, #0
 703 000e 04DD     		ble	.L37
 704              		.loc 7 103 0
 705 0010 0398     		ldr	r0, [sp, #12]
 706 0012 0749     		ldr	r1, .L39
 707 0014 FFF7FEFF 		bl	usage
 708              		.loc 7 104 0
 709 0018 07E0     		b	.L36
 710              	.L37:
 711              		.loc 7 106 0
 712 001a FFF7FEFF 		bl	chVTGetSystemTime
 713 001e 0346     		mov	r3, r0
 714 0020 0398     		ldr	r0, [sp, #12]
 715 0022 0449     		ldr	r1, .L39+4
 716 0024 1A46     		mov	r2, r3
 717 0026 FFF7FEFF 		bl	chprintf
 718              	.L36:
 719              		.loc 7 107 0
 720 002a 05B0     		add	sp, sp, #20
 721              		.cfi_def_cfa_offset 4
 722              		@ sp needed
ARM GAS  /tmp/ccbN9Kog.s 			page 15


 723 002c 5DF804FB 		ldr	pc, [sp], #4
 724              	.L40:
 725              		.align	2
 726              	.L39:
 727 0030 AC010000 		.word	.LC21
 728 0034 B4010000 		.word	.LC22
 729              		.cfi_endproc
 730              	.LFE258:
 731              		.size	cmd_systime, .-cmd_systime
 732 0038 AFF30080 		.section	.data.local_commands,"aw",%progbits
 732      AFF30080 
 733              		.align	2
 734              		.type	local_commands, %object
 735              		.size	local_commands, 24
 736              	local_commands:
 737 0000 10000000 		.word	.LC2
 738 0004 00000000 		.word	cmd_info
 739 0008 AC010000 		.word	.LC21
 740 000c 00000000 		.word	cmd_systime
 741 0010 00000000 		.word	0
 742 0014 00000000 		.word	0
 743              		.section	.text.cmdexec,"ax",%progbits
 744              		.align	2
 745              		.p2align 4,,15
 746              		.thumb
 747              		.thumb_func
 748              		.type	cmdexec, %function
 749              	cmdexec:
 750              	.LFB259:
 751              		.loc 7 119 0
 752              		.cfi_startproc
 753              		@ args = 4, pretend = 0, frame = 16
 754              		@ frame_needed = 0, uses_anonymous_args = 0
 755 0000 00B5     		push	{lr}
 756              		.cfi_def_cfa_offset 4
 757              		.cfi_offset 14, -4
 758 0002 85B0     		sub	sp, sp, #20
 759              		.cfi_def_cfa_offset 24
 760 0004 0390     		str	r0, [sp, #12]
 761 0006 0291     		str	r1, [sp, #8]
 762 0008 0192     		str	r2, [sp, #4]
 763 000a 0093     		str	r3, [sp]
 764              		.loc 7 121 0
 765 000c 13E0     		b	.L42
 766              	.L45:
 767              		.loc 7 122 0
 768 000e 039B     		ldr	r3, [sp, #12]
 769 0010 1B68     		ldr	r3, [r3]
 770 0012 1846     		mov	r0, r3
 771 0014 0199     		ldr	r1, [sp, #4]
 772 0016 FFF7FEFF 		bl	strcasecmp
 773 001a 0346     		mov	r3, r0
 774 001c 002B     		cmp	r3, #0
 775 001e 07D1     		bne	.L43
 776              		.loc 7 123 0
 777 0020 039B     		ldr	r3, [sp, #12]
 778 0022 5B68     		ldr	r3, [r3, #4]
ARM GAS  /tmp/ccbN9Kog.s 			page 16


 779 0024 0298     		ldr	r0, [sp, #8]
 780 0026 0099     		ldr	r1, [sp]
 781 0028 069A     		ldr	r2, [sp, #24]
 782 002a 9847     		blx	r3
 783              		.loc 7 124 0
 784 002c 0023     		movs	r3, #0
 785 002e 07E0     		b	.L44
 786              	.L43:
 787              		.loc 7 126 0
 788 0030 039B     		ldr	r3, [sp, #12]
 789 0032 0833     		adds	r3, r3, #8
 790 0034 0393     		str	r3, [sp, #12]
 791              	.L42:
 792              		.loc 7 121 0
 793 0036 039B     		ldr	r3, [sp, #12]
 794 0038 1B68     		ldr	r3, [r3]
 795 003a 002B     		cmp	r3, #0
 796 003c E7D1     		bne	.L45
 797              		.loc 7 128 0
 798 003e 0123     		movs	r3, #1
 799              	.L44:
 800              		.loc 7 129 0
 801 0040 1846     		mov	r0, r3
 802 0042 05B0     		add	sp, sp, #20
 803              		.cfi_def_cfa_offset 4
 804              		@ sp needed
 805 0044 5DF804FB 		ldr	pc, [sp], #4
 806              		.cfi_endproc
 807              	.LFE259:
 808              		.size	cmdexec, .-cmdexec
 809 0048 AFF30080 		.section	.rodata
 809      AFF30080 
 810 01ba 0000     		.align	2
 811              	.LC23:
 812 01bc 7368656C 		.ascii	"shell\000"
 812      6C00
 813 01c2 0000     		.align	2
 814              	.LC24:
 815 01c4 0D0A4368 		.ascii	"\015\012ChibiOS/RT Shell\015\012\000"
 815      6962694F 
 815      532F5254 
 815      20536865 
 815      6C6C0D0A 
 816 01d9 000000   		.align	2
 817              	.LC25:
 818 01dc 63683E20 		.ascii	"ch> \000"
 818      00
 819 01e1 000000   		.align	2
 820              	.LC26:
 821 01e4 0D0A6C6F 		.ascii	"\015\012logout\000"
 821      676F7574 
 821      00
 822 01ed 000000   		.align	2
 823              	.LC27:
 824 01f0 200900   		.ascii	" \011\000"
 825 01f3 00       		.align	2
 826              	.LC28:
ARM GAS  /tmp/ccbN9Kog.s 			page 17


 827 01f4 746F6F20 		.ascii	"too many arguments\015\012\000"
 827      6D616E79 
 827      20617267 
 827      756D656E 
 827      74730D0A 
 828 0209 000000   		.align	2
 829              	.LC29:
 830 020c 65786974 		.ascii	"exit\000"
 830      00
 831 0211 000000   		.align	2
 832              	.LC30:
 833 0214 68656C70 		.ascii	"help\000"
 833      00
 834 0219 000000   		.align	2
 835              	.LC31:
 836 021c 436F6D6D 		.ascii	"Commands: help exit \000"
 836      616E6473 
 836      3A206865 
 836      6C702065 
 836      78697420 
 837 0231 000000   		.align	2
 838              	.LC32:
 839 0234 0D0A00   		.ascii	"\015\012\000"
 840 0237 00       		.align	2
 841              	.LC33:
 842 0238 257300   		.ascii	"%s\000"
 843 023b 00       		.align	2
 844              	.LC34:
 845 023c 203F0D0A 		.ascii	" ?\015\012\000"
 845      00
 846              		.section	.text.shell_thread,"ax",%progbits
 847              		.align	2
 848              		.p2align 4,,15
 849              		.thumb
 850              		.thumb_func
 851              		.type	shell_thread, %function
 852              	shell_thread:
 853              	.LFB260:
 854              		.loc 7 136 0
 855              		.cfi_startproc
 856              		@ args = 0, pretend = 0, frame = 120
 857              		@ frame_needed = 0, uses_anonymous_args = 0
 858 0000 00B5     		push	{lr}
 859              		.cfi_def_cfa_offset 4
 860              		.cfi_offset 14, -4
 861 0002 A1B0     		sub	sp, sp, #132
 862              		.cfi_def_cfa_offset 136
 863 0004 0390     		str	r0, [sp, #12]
 864              		.loc 7 138 0
 865 0006 039B     		ldr	r3, [sp, #12]
 866 0008 1B68     		ldr	r3, [r3]
 867 000a 1D93     		str	r3, [sp, #116]
 868              		.loc 7 139 0
 869 000c 039B     		ldr	r3, [sp, #12]
 870 000e 5B68     		ldr	r3, [r3, #4]
 871 0010 1C93     		str	r3, [sp, #112]
 872              		.loc 7 143 0
ARM GAS  /tmp/ccbN9Kog.s 			page 18


 873 0012 554B     		ldr	r3, .L61
 874 0014 9B69     		ldr	r3, [r3, #24]
 875 0016 554A     		ldr	r2, .L61+4
 876 0018 9A61     		str	r2, [r3, #24]
 877              		.loc 7 144 0
 878 001a 1D98     		ldr	r0, [sp, #116]
 879 001c 5449     		ldr	r1, .L61+8
 880 001e FFF7FEFF 		bl	chprintf
 881              	.L60:
 882              		.loc 7 146 0
 883 0022 1D98     		ldr	r0, [sp, #116]
 884 0024 5349     		ldr	r1, .L61+12
 885 0026 FFF7FEFF 		bl	chprintf
 886              		.loc 7 147 0
 887 002a 0AAB     		add	r3, sp, #40
 888 002c 1D98     		ldr	r0, [sp, #116]
 889 002e 1946     		mov	r1, r3
 890 0030 4022     		movs	r2, #64
 891 0032 FFF7FEFF 		bl	shellGetLine
 892 0036 0346     		mov	r3, r0
 893 0038 002B     		cmp	r3, #0
 894 003a 04D0     		beq	.L47
 895              		.loc 7 148 0
 896 003c 1D98     		ldr	r0, [sp, #116]
 897 003e 4E49     		ldr	r1, .L61+16
 898 0040 FFF7FEFF 		bl	chprintf
 899              		.loc 7 149 0
 900 0044 89E0     		b	.L48
 901              	.L47:
 902              		.loc 7 151 0
 903 0046 0AAA     		add	r2, sp, #40
 904 0048 1AAB     		add	r3, sp, #104
 905 004a 1046     		mov	r0, r2
 906 004c 4B49     		ldr	r1, .L61+20
 907 004e 1A46     		mov	r2, r3
 908 0050 FFF7FEFF 		bl	_strtok
 909 0054 1B90     		str	r0, [sp, #108]
 910              		.loc 7 152 0
 911 0056 1B9B     		ldr	r3, [sp, #108]
 912 0058 1E93     		str	r3, [sp, #120]
 913              		.loc 7 153 0
 914 005a 0023     		movs	r3, #0
 915 005c 1F93     		str	r3, [sp, #124]
 916              		.loc 7 154 0
 917 005e 12E0     		b	.L49
 918              	.L52:
 919              		.loc 7 155 0
 920 0060 1F9B     		ldr	r3, [sp, #124]
 921 0062 032B     		cmp	r3, #3
 922 0064 06DD     		ble	.L50
 923              		.loc 7 156 0
 924 0066 1D98     		ldr	r0, [sp, #116]
 925 0068 4549     		ldr	r1, .L61+24
 926 006a FFF7FEFF 		bl	chprintf
 927              		.loc 7 157 0
 928 006e 0023     		movs	r3, #0
 929 0070 1E93     		str	r3, [sp, #120]
ARM GAS  /tmp/ccbN9Kog.s 			page 19


 930              		.loc 7 158 0
 931 0072 12E0     		b	.L51
 932              	.L50:
 933              		.loc 7 160 0
 934 0074 1F9B     		ldr	r3, [sp, #124]
 935 0076 5A1C     		adds	r2, r3, #1
 936 0078 1F92     		str	r2, [sp, #124]
 937 007a 9B00     		lsls	r3, r3, #2
 938 007c 20AA     		add	r2, sp, #128
 939 007e 1344     		add	r3, r3, r2
 940 0080 1B9A     		ldr	r2, [sp, #108]
 941 0082 43F86C2C 		str	r2, [r3, #-108]
 942              	.L49:
 943              		.loc 7 154 0
 944 0086 1AAB     		add	r3, sp, #104
 945 0088 0020     		movs	r0, #0
 946 008a 3C49     		ldr	r1, .L61+20
 947 008c 1A46     		mov	r2, r3
 948 008e FFF7FEFF 		bl	_strtok
 949 0092 1B90     		str	r0, [sp, #108]
 950 0094 1B9B     		ldr	r3, [sp, #108]
 951 0096 002B     		cmp	r3, #0
 952 0098 E2D1     		bne	.L52
 953              	.L51:
 954              		.loc 7 162 0
 955 009a 1F9B     		ldr	r3, [sp, #124]
 956 009c 9B00     		lsls	r3, r3, #2
 957 009e 20AA     		add	r2, sp, #128
 958 00a0 1344     		add	r3, r3, r2
 959 00a2 0022     		movs	r2, #0
 960 00a4 43F86C2C 		str	r2, [r3, #-108]
 961              		.loc 7 163 0
 962 00a8 1E9B     		ldr	r3, [sp, #120]
 963 00aa 002B     		cmp	r3, #0
 964 00ac 54D0     		beq	.L53
 965              		.loc 7 164 0
 966 00ae 1E98     		ldr	r0, [sp, #120]
 967 00b0 3449     		ldr	r1, .L61+28
 968 00b2 FFF7FEFF 		bl	strcasecmp
 969 00b6 0346     		mov	r3, r0
 970 00b8 002B     		cmp	r3, #0
 971 00ba 08D1     		bne	.L54
 972              		.loc 7 165 0
 973 00bc 1F9B     		ldr	r3, [sp, #124]
 974 00be 002B     		cmp	r3, #0
 975 00c0 04DD     		ble	.L55
 976              		.loc 7 166 0
 977 00c2 1D98     		ldr	r0, [sp, #116]
 978 00c4 2F49     		ldr	r1, .L61+28
 979 00c6 FFF7FEFF 		bl	usage
 980              		.loc 7 167 0
 981 00ca 45E0     		b	.L53
 982              	.L55:
 983              		.loc 7 169 0
 984 00cc 45E0     		b	.L48
 985              	.L54:
 986              		.loc 7 171 0
ARM GAS  /tmp/ccbN9Kog.s 			page 20


 987 00ce 1E98     		ldr	r0, [sp, #120]
 988 00d0 2D49     		ldr	r1, .L61+32
 989 00d2 FFF7FEFF 		bl	strcasecmp
 990 00d6 0346     		mov	r3, r0
 991 00d8 002B     		cmp	r3, #0
 992 00da 1BD1     		bne	.L56
 993              		.loc 7 172 0
 994 00dc 1F9B     		ldr	r3, [sp, #124]
 995 00de 002B     		cmp	r3, #0
 996 00e0 04DD     		ble	.L57
 997              		.loc 7 173 0
 998 00e2 1D98     		ldr	r0, [sp, #116]
 999 00e4 2849     		ldr	r1, .L61+32
 1000 00e6 FFF7FEFF 		bl	usage
 1001              		.loc 7 174 0
 1002 00ea 35E0     		b	.L53
 1003              	.L57:
 1004              		.loc 7 176 0
 1005 00ec 1D98     		ldr	r0, [sp, #116]
 1006 00ee 2749     		ldr	r1, .L61+36
 1007 00f0 FFF7FEFF 		bl	chprintf
 1008              		.loc 7 177 0
 1009 00f4 1D98     		ldr	r0, [sp, #116]
 1010 00f6 2649     		ldr	r1, .L61+40
 1011 00f8 FFF7FEFF 		bl	list_commands
 1012              		.loc 7 178 0
 1013 00fc 1C9B     		ldr	r3, [sp, #112]
 1014 00fe 002B     		cmp	r3, #0
 1015 0100 03D0     		beq	.L58
 1016              		.loc 7 179 0
 1017 0102 1D98     		ldr	r0, [sp, #116]
 1018 0104 1C99     		ldr	r1, [sp, #112]
 1019 0106 FFF7FEFF 		bl	list_commands
 1020              	.L58:
 1021              		.loc 7 180 0
 1022 010a 1D98     		ldr	r0, [sp, #116]
 1023 010c 2149     		ldr	r1, .L61+44
 1024 010e FFF7FEFF 		bl	chprintf
 1025 0112 21E0     		b	.L53
 1026              	.L56:
 1027              		.loc 7 182 0
 1028 0114 05AB     		add	r3, sp, #20
 1029 0116 0093     		str	r3, [sp]
 1030 0118 1D48     		ldr	r0, .L61+40
 1031 011a 1D99     		ldr	r1, [sp, #116]
 1032 011c 1E9A     		ldr	r2, [sp, #120]
 1033 011e 1F9B     		ldr	r3, [sp, #124]
 1034 0120 FFF7FEFF 		bl	cmdexec
 1035 0124 0346     		mov	r3, r0
 1036 0126 002B     		cmp	r3, #0
 1037 0128 16D0     		beq	.L53
 1038              		.loc 7 182 0 is_stmt 0 discriminator 1
 1039 012a 1C9B     		ldr	r3, [sp, #112]
 1040 012c 002B     		cmp	r3, #0
 1041 012e 0AD0     		beq	.L59
 1042              		.loc 7 183 0 is_stmt 1
 1043 0130 05AB     		add	r3, sp, #20
ARM GAS  /tmp/ccbN9Kog.s 			page 21


 1044 0132 0093     		str	r3, [sp]
 1045 0134 1C98     		ldr	r0, [sp, #112]
 1046 0136 1D99     		ldr	r1, [sp, #116]
 1047 0138 1E9A     		ldr	r2, [sp, #120]
 1048 013a 1F9B     		ldr	r3, [sp, #124]
 1049 013c FFF7FEFF 		bl	cmdexec
 1050 0140 0346     		mov	r3, r0
 1051 0142 002B     		cmp	r3, #0
 1052 0144 08D0     		beq	.L53
 1053              	.L59:
 1054              		.loc 7 184 0
 1055 0146 1D98     		ldr	r0, [sp, #116]
 1056 0148 1349     		ldr	r1, .L61+48
 1057 014a 1E9A     		ldr	r2, [sp, #120]
 1058 014c FFF7FEFF 		bl	chprintf
 1059              		.loc 7 185 0
 1060 0150 1D98     		ldr	r0, [sp, #116]
 1061 0152 1249     		ldr	r1, .L61+52
 1062 0154 FFF7FEFF 		bl	chprintf
 1063              	.L53:
 1064              		.loc 7 188 0
 1065 0158 63E7     		b	.L60
 1066              	.L48:
 1067              		.loc 7 189 0
 1068 015a 0020     		movs	r0, #0
 1069 015c FFF7FEFF 		bl	shellExit
 1070              		.loc 7 190 0
 1071 0160 21B0     		add	sp, sp, #132
 1072              		.cfi_def_cfa_offset 4
 1073              		@ sp needed
 1074 0162 5DF804FB 		ldr	pc, [sp], #4
 1075              	.L62:
 1076 0166 00BF     		.align	2
 1077              	.L61:
 1078 0168 00000000 		.word	ch
 1079 016c BC010000 		.word	.LC23
 1080 0170 C4010000 		.word	.LC24
 1081 0174 DC010000 		.word	.LC25
 1082 0178 E4010000 		.word	.LC26
 1083 017c F0010000 		.word	.LC27
 1084 0180 F4010000 		.word	.LC28
 1085 0184 0C020000 		.word	.LC29
 1086 0188 14020000 		.word	.LC30
 1087 018c 1C020000 		.word	.LC31
 1088 0190 00000000 		.word	local_commands
 1089 0194 34020000 		.word	.LC32
 1090 0198 38020000 		.word	.LC33
 1091 019c 3C020000 		.word	.LC34
 1092              		.cfi_endproc
 1093              	.LFE260:
 1094              		.size	shell_thread, .-shell_thread
 1095              		.section	.text.shellInit,"ax",%progbits
 1096              		.align	2
 1097              		.p2align 4,,15
 1098              		.global	shellInit
 1099              		.thumb
 1100              		.thumb_func
ARM GAS  /tmp/ccbN9Kog.s 			page 22


 1101              		.type	shellInit, %function
 1102              	shellInit:
 1103              	.LFB261:
 1104              		.loc 7 197 0
 1105              		.cfi_startproc
 1106              		@ args = 0, pretend = 0, frame = 0
 1107              		@ frame_needed = 0, uses_anonymous_args = 0
 1108 0000 08B5     		push	{r3, lr}
 1109              		.cfi_def_cfa_offset 8
 1110              		.cfi_offset 3, -8
 1111              		.cfi_offset 14, -4
 1112              		.loc 7 199 0
 1113 0002 0248     		ldr	r0, .L64
 1114 0004 FFF7FEFF 		bl	chEvtObjectInit
 1115              		.loc 7 200 0
 1116 0008 08BD     		pop	{r3, pc}
 1117              	.L65:
 1118 000a 00BF     		.align	2
 1119              	.L64:
 1120 000c 00000000 		.word	shell_terminated
 1121              		.cfi_endproc
 1122              	.LFE261:
 1123              		.size	shellInit, .-shellInit
 1124              		.section	.text.shellExit,"ax",%progbits
 1125              		.align	2
 1126              		.p2align 4,,15
 1127              		.global	shellExit
 1128              		.thumb
 1129              		.thumb_func
 1130              		.type	shellExit, %function
 1131              	shellExit:
 1132              	.LFB262:
 1133              		.loc 7 211 0
 1134              		.cfi_startproc
 1135              		@ args = 0, pretend = 0, frame = 8
 1136              		@ frame_needed = 0, uses_anonymous_args = 0
 1137 0000 00B5     		push	{lr}
 1138              		.cfi_def_cfa_offset 4
 1139              		.cfi_offset 14, -4
 1140 0002 83B0     		sub	sp, sp, #12
 1141              		.cfi_def_cfa_offset 16
 1142 0004 0190     		str	r0, [sp, #4]
 1143              		.loc 7 215 0
 1144 0006 FFF7FEFF 		bl	chSysLock
 1145              		.loc 7 216 0
 1146 000a 0448     		ldr	r0, .L67
 1147 000c FFF7FEFF 		bl	chEvtBroadcastI
 1148              		.loc 7 217 0
 1149 0010 0198     		ldr	r0, [sp, #4]
 1150 0012 FFF7FEFF 		bl	chThdExitS
 1151              		.loc 7 218 0
 1152 0016 03B0     		add	sp, sp, #12
 1153              		.cfi_def_cfa_offset 4
 1154              		@ sp needed
 1155 0018 5DF804FB 		ldr	pc, [sp], #4
 1156              	.L68:
 1157              		.align	2
ARM GAS  /tmp/ccbN9Kog.s 			page 23


 1158              	.L67:
 1159 001c 00000000 		.word	shell_terminated
 1160              		.cfi_endproc
 1161              	.LFE262:
 1162              		.size	shellExit, .-shellExit
 1163              		.section	.text.shellCreate,"ax",%progbits
 1164              		.align	2
 1165              		.p2align 4,,15
 1166              		.global	shellCreate
 1167              		.thumb
 1168              		.thumb_func
 1169              		.type	shellCreate, %function
 1170              	shellCreate:
 1171              	.LFB263:
 1172              		.loc 7 233 0
 1173              		.cfi_startproc
 1174              		@ args = 0, pretend = 0, frame = 16
 1175              		@ frame_needed = 0, uses_anonymous_args = 0
 1176 0000 00B5     		push	{lr}
 1177              		.cfi_def_cfa_offset 4
 1178              		.cfi_offset 14, -4
 1179 0002 87B0     		sub	sp, sp, #28
 1180              		.cfi_def_cfa_offset 32
 1181 0004 0590     		str	r0, [sp, #20]
 1182 0006 0491     		str	r1, [sp, #16]
 1183 0008 0392     		str	r2, [sp, #12]
 1184              		.loc 7 235 0
 1185 000a 059B     		ldr	r3, [sp, #20]
 1186 000c 0093     		str	r3, [sp]
 1187 000e 0020     		movs	r0, #0
 1188 0010 0499     		ldr	r1, [sp, #16]
 1189 0012 039A     		ldr	r2, [sp, #12]
 1190 0014 034B     		ldr	r3, .L71
 1191 0016 FFF7FEFF 		bl	chThdCreateFromHeap
 1192 001a 0346     		mov	r3, r0
 1193              		.loc 7 236 0
 1194 001c 1846     		mov	r0, r3
 1195 001e 07B0     		add	sp, sp, #28
 1196              		.cfi_def_cfa_offset 4
 1197              		@ sp needed
 1198 0020 5DF804FB 		ldr	pc, [sp], #4
 1199              	.L72:
 1200              		.align	2
 1201              	.L71:
 1202 0024 00000000 		.word	shell_thread
 1203              		.cfi_endproc
 1204              	.LFE263:
 1205              		.size	shellCreate, .-shellCreate
 1206 0028 AFF30080 		.section	.text.shellCreateStatic,"ax",%progbits
 1206      AFF30080 
 1207              		.align	2
 1208              		.p2align 4,,15
 1209              		.global	shellCreateStatic
 1210              		.thumb
 1211              		.thumb_func
 1212              		.type	shellCreateStatic, %function
 1213              	shellCreateStatic:
ARM GAS  /tmp/ccbN9Kog.s 			page 24


 1214              	.LFB264:
 1215              		.loc 7 251 0
 1216              		.cfi_startproc
 1217              		@ args = 0, pretend = 0, frame = 16
 1218              		@ frame_needed = 0, uses_anonymous_args = 0
 1219 0000 00B5     		push	{lr}
 1220              		.cfi_def_cfa_offset 4
 1221              		.cfi_offset 14, -4
 1222 0002 87B0     		sub	sp, sp, #28
 1223              		.cfi_def_cfa_offset 32
 1224 0004 0590     		str	r0, [sp, #20]
 1225 0006 0491     		str	r1, [sp, #16]
 1226 0008 0392     		str	r2, [sp, #12]
 1227 000a 0293     		str	r3, [sp, #8]
 1228              		.loc 7 253 0
 1229 000c 059B     		ldr	r3, [sp, #20]
 1230 000e 0093     		str	r3, [sp]
 1231 0010 0498     		ldr	r0, [sp, #16]
 1232 0012 0399     		ldr	r1, [sp, #12]
 1233 0014 029A     		ldr	r2, [sp, #8]
 1234 0016 044B     		ldr	r3, .L75
 1235 0018 FFF7FEFF 		bl	chThdCreateStatic
 1236 001c 0346     		mov	r3, r0
 1237              		.loc 7 254 0
 1238 001e 1846     		mov	r0, r3
 1239 0020 07B0     		add	sp, sp, #28
 1240              		.cfi_def_cfa_offset 4
 1241              		@ sp needed
 1242 0022 5DF804FB 		ldr	pc, [sp], #4
 1243              	.L76:
 1244 0026 00BF     		.align	2
 1245              	.L75:
 1246 0028 00000000 		.word	shell_thread
 1247              		.cfi_endproc
 1248              	.LFE264:
 1249              		.size	shellCreateStatic, .-shellCreateStatic
 1250 002c AFF30080 		.section	.rodata
 1251 0241 000000   		.align	2
 1252              	.LC35:
 1253 0244 5E4400   		.ascii	"^D\000"
 1254 0247 00       		.section	.text.shellGetLine,"ax",%progbits
 1255              		.align	2
 1256              		.p2align 4,,15
 1257              		.global	shellGetLine
 1258              		.thumb
 1259              		.thumb_func
 1260              		.type	shellGetLine, %function
 1261              	shellGetLine:
 1262              	.LFB265:
 1263              		.loc 7 268 0
 1264              		.cfi_startproc
 1265              		@ args = 0, pretend = 0, frame = 24
 1266              		@ frame_needed = 0, uses_anonymous_args = 0
 1267 0000 00B5     		push	{lr}
 1268              		.cfi_def_cfa_offset 4
 1269              		.cfi_offset 14, -4
 1270 0002 87B0     		sub	sp, sp, #28
ARM GAS  /tmp/ccbN9Kog.s 			page 25


 1271              		.cfi_def_cfa_offset 32
 1272 0004 0390     		str	r0, [sp, #12]
 1273 0006 0291     		str	r1, [sp, #8]
 1274 0008 0192     		str	r2, [sp, #4]
 1275              		.loc 7 269 0
 1276 000a 029B     		ldr	r3, [sp, #8]
 1277 000c 0593     		str	r3, [sp, #20]
 1278              	.L90:
 1279              	.LBB10:
 1280              		.loc 7 274 0
 1281 000e 039B     		ldr	r3, [sp, #12]
 1282 0010 1B68     		ldr	r3, [r3]
 1283 0012 5B68     		ldr	r3, [r3, #4]
 1284 0014 0DF11302 		add	r2, sp, #19
 1285 0018 0398     		ldr	r0, [sp, #12]
 1286 001a 1146     		mov	r1, r2
 1287 001c 0122     		movs	r2, #1
 1288 001e 9847     		blx	r3
 1289 0020 0346     		mov	r3, r0
 1290 0022 002B     		cmp	r3, #0
 1291 0024 01D1     		bne	.L78
 1292              		.loc 7 275 0
 1293 0026 0123     		movs	r3, #1
 1294 0028 58E0     		b	.L89
 1295              	.L78:
 1296              		.loc 7 276 0
 1297 002a 9DF81330 		ldrb	r3, [sp, #19]	@ zero_extendqisi2
 1298 002e 042B     		cmp	r3, #4
 1299 0030 05D1     		bne	.L80
 1300              		.loc 7 277 0
 1301 0032 0398     		ldr	r0, [sp, #12]
 1302 0034 2B49     		ldr	r1, .L91
 1303 0036 FFF7FEFF 		bl	chprintf
 1304              		.loc 7 278 0
 1305 003a 0123     		movs	r3, #1
 1306 003c 4EE0     		b	.L89
 1307              	.L80:
 1308              		.loc 7 280 0
 1309 003e 9DF81330 		ldrb	r3, [sp, #19]	@ zero_extendqisi2
 1310 0042 082B     		cmp	r3, #8
 1311 0044 03D0     		beq	.L81
 1312              		.loc 7 280 0 is_stmt 0 discriminator 1
 1313 0046 9DF81330 		ldrb	r3, [sp, #19]	@ zero_extendqisi2
 1314 004a 7F2B     		cmp	r3, #127
 1315 004c 1ED1     		bne	.L82
 1316              	.L81:
 1317              		.loc 7 281 0 is_stmt 1
 1318 004e 059A     		ldr	r2, [sp, #20]
 1319 0050 029B     		ldr	r3, [sp, #8]
 1320 0052 9A42     		cmp	r2, r3
 1321 0054 19D0     		beq	.L83
 1322              		.loc 7 282 0
 1323 0056 039B     		ldr	r3, [sp, #12]
 1324 0058 1B68     		ldr	r3, [r3]
 1325 005a 9B68     		ldr	r3, [r3, #8]
 1326 005c 9DF81320 		ldrb	r2, [sp, #19]	@ zero_extendqisi2
 1327 0060 0398     		ldr	r0, [sp, #12]
ARM GAS  /tmp/ccbN9Kog.s 			page 26


 1328 0062 1146     		mov	r1, r2
 1329 0064 9847     		blx	r3
 1330              		.loc 7 283 0
 1331 0066 039B     		ldr	r3, [sp, #12]
 1332 0068 1B68     		ldr	r3, [r3]
 1333 006a 9B68     		ldr	r3, [r3, #8]
 1334 006c 0398     		ldr	r0, [sp, #12]
 1335 006e 2021     		movs	r1, #32
 1336 0070 9847     		blx	r3
 1337              		.loc 7 284 0
 1338 0072 039B     		ldr	r3, [sp, #12]
 1339 0074 1B68     		ldr	r3, [r3]
 1340 0076 9B68     		ldr	r3, [r3, #8]
 1341 0078 9DF81320 		ldrb	r2, [sp, #19]	@ zero_extendqisi2
 1342 007c 0398     		ldr	r0, [sp, #12]
 1343 007e 1146     		mov	r1, r2
 1344 0080 9847     		blx	r3
 1345              		.loc 7 285 0
 1346 0082 059B     		ldr	r3, [sp, #20]
 1347 0084 013B     		subs	r3, r3, #1
 1348 0086 0593     		str	r3, [sp, #20]
 1349              		.loc 7 287 0
 1350 0088 27E0     		b	.L88
 1351              	.L83:
 1352 008a 26E0     		b	.L88
 1353              	.L82:
 1354              		.loc 7 289 0
 1355 008c 9DF81330 		ldrb	r3, [sp, #19]	@ zero_extendqisi2
 1356 0090 0D2B     		cmp	r3, #13
 1357 0092 08D1     		bne	.L85
 1358              		.loc 7 290 0
 1359 0094 0398     		ldr	r0, [sp, #12]
 1360 0096 1449     		ldr	r1, .L91+4
 1361 0098 FFF7FEFF 		bl	chprintf
 1362              		.loc 7 291 0
 1363 009c 059B     		ldr	r3, [sp, #20]
 1364 009e 0022     		movs	r2, #0
 1365 00a0 1A70     		strb	r2, [r3]
 1366              		.loc 7 292 0
 1367 00a2 0023     		movs	r3, #0
 1368 00a4 1AE0     		b	.L89
 1369              	.L85:
 1370              		.loc 7 294 0
 1371 00a6 9DF81330 		ldrb	r3, [sp, #19]	@ zero_extendqisi2
 1372 00aa 1F2B     		cmp	r3, #31
 1373 00ac 00D8     		bhi	.L86
 1374              		.loc 7 295 0
 1375 00ae 14E0     		b	.L88
 1376              	.L86:
 1377              		.loc 7 296 0
 1378 00b0 019B     		ldr	r3, [sp, #4]
 1379 00b2 013B     		subs	r3, r3, #1
 1380 00b4 029A     		ldr	r2, [sp, #8]
 1381 00b6 1A44     		add	r2, r2, r3
 1382 00b8 059B     		ldr	r3, [sp, #20]
 1383 00ba 9A42     		cmp	r2, r3
 1384 00bc 0DD9     		bls	.L88
ARM GAS  /tmp/ccbN9Kog.s 			page 27


 1385              		.loc 7 297 0
 1386 00be 039B     		ldr	r3, [sp, #12]
 1387 00c0 1B68     		ldr	r3, [r3]
 1388 00c2 9B68     		ldr	r3, [r3, #8]
 1389 00c4 9DF81320 		ldrb	r2, [sp, #19]	@ zero_extendqisi2
 1390 00c8 0398     		ldr	r0, [sp, #12]
 1391 00ca 1146     		mov	r1, r2
 1392 00cc 9847     		blx	r3
 1393              		.loc 7 298 0
 1394 00ce 059B     		ldr	r3, [sp, #20]
 1395 00d0 5A1C     		adds	r2, r3, #1
 1396 00d2 0592     		str	r2, [sp, #20]
 1397 00d4 9DF81320 		ldrb	r2, [sp, #19]	@ zero_extendqisi2
 1398 00d8 1A70     		strb	r2, [r3]
 1399              	.L88:
 1400              	.LBE10:
 1401              		.loc 7 300 0 discriminator 1
 1402 00da 98E7     		b	.L90
 1403              	.L89:
 1404              		.loc 7 301 0
 1405 00dc 1846     		mov	r0, r3
 1406 00de 07B0     		add	sp, sp, #28
 1407              		.cfi_def_cfa_offset 4
 1408              		@ sp needed
 1409 00e0 5DF804FB 		ldr	pc, [sp], #4
 1410              	.L92:
 1411              		.align	2
 1412              	.L91:
 1413 00e4 44020000 		.word	.LC35
 1414 00e8 34020000 		.word	.LC32
 1415              		.cfi_endproc
 1416              	.LFE265:
 1417              		.size	shellGetLine, .-shellGetLine
 1418 00ec AFF30080 		.text
 1419              	.Letext0:
 1420              		.file 8 "/opt/gcc-arm-none-eabi/lib/gcc/arm-none-eabi/4.9.3/include/stddef.h"
 1421              		.file 9 "/opt/gcc-arm-none-eabi/arm-none-eabi/include/machine/_default_types.h"
 1422              		.file 10 "/opt/gcc-arm-none-eabi/arm-none-eabi/include/stdint.h"
 1423              		.file 11 "/home/makkmarci/workspace/CLEAN/ChibiOS/os/rt/ports/ARMCMx/compilers/GCC/chtypes.h"
 1424              		.file 12 "/home/makkmarci/workspace/CLEAN/ChibiOS/os/rt/include/chsystypes.h"
 1425              		.file 13 "/home/makkmarci/workspace/CLEAN/ChibiOS/os/rt/include/chschd.h"
 1426              		.file 14 "/home/makkmarci/workspace/CLEAN/ChibiOS/os/rt/ports/ARMCMx/chcore.h"
 1427              		.file 15 "/home/makkmarci/workspace/CLEAN/ChibiOS/os/rt/include/chtm.h"
 1428              		.file 16 "/home/makkmarci/workspace/CLEAN/ChibiOS/os/rt/include/chsem.h"
 1429              		.file 17 "/home/makkmarci/workspace/CLEAN/ChibiOS/os/rt/include/chmtx.h"
 1430              		.file 18 "/home/makkmarci/workspace/CLEAN/ChibiOS/os/rt/include/chstreams.h"
 1431              		.file 19 "/home/makkmarci/workspace/CLEAN/ChibiOS/os/various/shell.h"
 1432              		.file 20 "/opt/gcc-arm-none-eabi/lib/gcc/arm-none-eabi/4.9.3/include/stdarg.h"
 1433              		.file 21 "<built-in>"
 1434              		.file 22 "/home/makkmarci/workspace/CLEAN/ChibiOS/os/ext/CMSIS/include/core_cm4.h"