ARM GAS  /tmp/ccuR6KHW.s 			page 1


   1              		.syntax unified
   2              		.cpu cortex-m4
   3              		.eabi_attribute 27, 1
   4              		.eabi_attribute 28, 1
   5              		.fpu fpv4-sp-d16
   6              		.eabi_attribute 20, 1
   7              		.eabi_attribute 21, 1
   8              		.eabi_attribute 23, 3
   9              		.eabi_attribute 24, 1
  10              		.eabi_attribute 25, 1
  11              		.eabi_attribute 26, 1
  12              		.eabi_attribute 30, 6
  13              		.eabi_attribute 34, 1
  14              		.eabi_attribute 18, 4
  15              		.thumb
  16              		.file	"spi.c"
  17              		.text
  18              	.Ltext0:
  19              		.cfi_sections	.debug_frame
  20              		.section	.text.port_lock,"ax",%progbits
  21              		.align	2
  22              		.p2align 4,,15
  23              		.thumb
  24              		.thumb_func
  25              		.type	port_lock, %function
  26              	port_lock:
  27              	.LFB116:
  28              		.file 1 "/home/makkmarci/workspace/CLEAN/ChibiOS/os/rt/ports/ARMCMx/chcore_v7m.h"
  29              		.loc 1 444 0
  30              		.cfi_startproc
  31              		@ args = 0, pretend = 0, frame = 8
  32              		@ frame_needed = 0, uses_anonymous_args = 0
  33              		@ link register save eliminated.
  34 0000 82B0     		sub	sp, sp, #8
  35              		.cfi_def_cfa_offset 8
  36 0002 2023     		movs	r3, #32
  37 0004 0193     		str	r3, [sp, #4]
  38              	.LBB6:
  39              	.LBB7:
  40              		.file 2 "/home/makkmarci/workspace/CLEAN/ChibiOS/os/ext/CMSIS/include/core_cmFunc.h"
  41              		.loc 2 546 0
  42 0006 019B     		ldr	r3, [sp, #4]
  43              	@ 546 "/home/makkmarci/workspace/CLEAN/ChibiOS/os/ext/CMSIS/include/core_cmFunc.h" 1
  44 0008 83F31188 		MSR basepri, r3
  45              	@ 0 "" 2
  46              		.thumb
  47              	.LBE7:
  48              	.LBE6:
  49              		.loc 1 451 0
  50 000c 02B0     		add	sp, sp, #8
  51              		.cfi_def_cfa_offset 0
  52              		@ sp needed
  53 000e 7047     		bx	lr
  54              		.cfi_endproc
  55              	.LFE116:
  56              		.size	port_lock, .-port_lock
  57              		.section	.text.port_unlock,"ax",%progbits
ARM GAS  /tmp/ccuR6KHW.s 			page 2


  58              		.align	2
  59              		.p2align 4,,15
  60              		.thumb
  61              		.thumb_func
  62              		.type	port_unlock, %function
  63              	port_unlock:
  64              	.LFB117:
  65              		.loc 1 458 0
  66              		.cfi_startproc
  67              		@ args = 0, pretend = 0, frame = 8
  68              		@ frame_needed = 0, uses_anonymous_args = 0
  69              		@ link register save eliminated.
  70 0000 82B0     		sub	sp, sp, #8
  71              		.cfi_def_cfa_offset 8
  72 0002 0023     		movs	r3, #0
  73 0004 0193     		str	r3, [sp, #4]
  74              	.LBB8:
  75              	.LBB9:
  76              		.loc 2 546 0
  77 0006 019B     		ldr	r3, [sp, #4]
  78              	@ 546 "/home/makkmarci/workspace/CLEAN/ChibiOS/os/ext/CMSIS/include/core_cmFunc.h" 1
  79 0008 83F31188 		MSR basepri, r3
  80              	@ 0 "" 2
  81              		.thumb
  82              	.LBE9:
  83              	.LBE8:
  84              		.loc 1 465 0
  85 000c 02B0     		add	sp, sp, #8
  86              		.cfi_def_cfa_offset 0
  87              		@ sp needed
  88 000e 7047     		bx	lr
  89              		.cfi_endproc
  90              	.LFE117:
  91              		.size	port_unlock, .-port_unlock
  92              		.section	.text.chSysLock,"ax",%progbits
  93              		.align	2
  94              		.p2align 4,,15
  95              		.thumb
  96              		.thumb_func
  97              		.type	chSysLock, %function
  98              	chSysLock:
  99              	.LFB145:
 100              		.file 3 "/home/makkmarci/workspace/CLEAN/ChibiOS/os/rt/include/chsys.h"
 101              		.loc 3 346 0
 102              		.cfi_startproc
 103              		@ args = 0, pretend = 0, frame = 0
 104              		@ frame_needed = 0, uses_anonymous_args = 0
 105 0000 08B5     		push	{r3, lr}
 106              		.cfi_def_cfa_offset 8
 107              		.cfi_offset 3, -8
 108              		.cfi_offset 14, -4
 109              		.loc 3 348 0
 110 0002 FFF7FEFF 		bl	port_lock
 111              		.loc 3 351 0
 112 0006 08BD     		pop	{r3, pc}
 113              		.cfi_endproc
 114              	.LFE145:
ARM GAS  /tmp/ccuR6KHW.s 			page 3


 115              		.size	chSysLock, .-chSysLock
 116              		.section	.text.chSysUnlock,"ax",%progbits
 117              		.align	2
 118              		.p2align 4,,15
 119              		.thumb
 120              		.thumb_func
 121              		.type	chSysUnlock, %function
 122              	chSysUnlock:
 123              	.LFB146:
 124              		.loc 3 358 0
 125              		.cfi_startproc
 126              		@ args = 0, pretend = 0, frame = 0
 127              		@ frame_needed = 0, uses_anonymous_args = 0
 128 0000 08B5     		push	{r3, lr}
 129              		.cfi_def_cfa_offset 8
 130              		.cfi_offset 3, -8
 131              		.cfi_offset 14, -4
 132              		.loc 3 371 0
 133 0002 FFF7FEFF 		bl	port_unlock
 134              		.loc 3 372 0
 135 0006 08BD     		pop	{r3, pc}
 136              		.cfi_endproc
 137              	.LFE146:
 138              		.size	chSysUnlock, .-chSysUnlock
 139 0008 AFF30080 		.section	.text.osalSysLock,"ax",%progbits
 139      AFF30080 
 140              		.align	2
 141              		.p2align 4,,15
 142              		.thumb
 143              		.thumb_func
 144              		.type	osalSysLock, %function
 145              	osalSysLock:
 146              	.LFB220:
 147              		.file 4 "/home/makkmarci/workspace/CLEAN/ChibiOS/os/hal/osal/rt/osal.h"
 148              		.loc 4 445 0
 149              		.cfi_startproc
 150              		@ args = 0, pretend = 0, frame = 0
 151              		@ frame_needed = 0, uses_anonymous_args = 0
 152 0000 08B5     		push	{r3, lr}
 153              		.cfi_def_cfa_offset 8
 154              		.cfi_offset 3, -8
 155              		.cfi_offset 14, -4
 156              		.loc 4 447 0
 157 0002 FFF7FEFF 		bl	chSysLock
 158              		.loc 4 448 0
 159 0006 08BD     		pop	{r3, pc}
 160              		.cfi_endproc
 161              	.LFE220:
 162              		.size	osalSysLock, .-osalSysLock
 163              		.section	.text.osalSysUnlock,"ax",%progbits
 164              		.align	2
 165              		.p2align 4,,15
 166              		.thumb
 167              		.thumb_func
 168              		.type	osalSysUnlock, %function
 169              	osalSysUnlock:
 170              	.LFB221:
ARM GAS  /tmp/ccuR6KHW.s 			page 4


 171              		.loc 4 456 0
 172              		.cfi_startproc
 173              		@ args = 0, pretend = 0, frame = 0
 174              		@ frame_needed = 0, uses_anonymous_args = 0
 175 0000 08B5     		push	{r3, lr}
 176              		.cfi_def_cfa_offset 8
 177              		.cfi_offset 3, -8
 178              		.cfi_offset 14, -4
 179              		.loc 4 458 0
 180 0002 FFF7FEFF 		bl	chSysUnlock
 181              		.loc 4 459 0
 182 0006 08BD     		pop	{r3, pc}
 183              		.cfi_endproc
 184              	.LFE221:
 185              		.size	osalSysUnlock, .-osalSysUnlock
 186 0008 AFF30080 		.section	.text.osalThreadSuspendS,"ax",%progbits
 186      AFF30080 
 187              		.align	2
 188              		.p2align 4,,15
 189              		.thumb
 190              		.thumb_func
 191              		.type	osalThreadSuspendS, %function
 192              	osalThreadSuspendS:
 193              	.LFB233:
 194              		.loc 4 640 0
 195              		.cfi_startproc
 196              		@ args = 0, pretend = 0, frame = 8
 197              		@ frame_needed = 0, uses_anonymous_args = 0
 198 0000 00B5     		push	{lr}
 199              		.cfi_def_cfa_offset 4
 200              		.cfi_offset 14, -4
 201 0002 83B0     		sub	sp, sp, #12
 202              		.cfi_def_cfa_offset 16
 203 0004 0190     		str	r0, [sp, #4]
 204              		.loc 4 642 0
 205 0006 0198     		ldr	r0, [sp, #4]
 206 0008 FFF7FEFF 		bl	chThdSuspendS
 207 000c 0346     		mov	r3, r0
 208              		.loc 4 643 0
 209 000e 1846     		mov	r0, r3
 210 0010 03B0     		add	sp, sp, #12
 211              		.cfi_def_cfa_offset 4
 212              		@ sp needed
 213 0012 5DF804FB 		ldr	pc, [sp], #4
 214              		.cfi_endproc
 215              	.LFE233:
 216              		.size	osalThreadSuspendS, .-osalThreadSuspendS
 217 0016 00BFAFF3 		.section	.text.osalMutexObjectInit,"ax",%progbits
 217      0080AFF3 
 217      0080
 218              		.align	2
 219              		.p2align 4,,15
 220              		.thumb
 221              		.thumb_func
 222              		.type	osalMutexObjectInit, %function
 223              	osalMutexObjectInit:
 224              	.LFB244:
ARM GAS  /tmp/ccuR6KHW.s 			page 5


 225              		.loc 4 838 0
 226              		.cfi_startproc
 227              		@ args = 0, pretend = 0, frame = 8
 228              		@ frame_needed = 0, uses_anonymous_args = 0
 229 0000 00B5     		push	{lr}
 230              		.cfi_def_cfa_offset 4
 231              		.cfi_offset 14, -4
 232 0002 83B0     		sub	sp, sp, #12
 233              		.cfi_def_cfa_offset 16
 234 0004 0190     		str	r0, [sp, #4]
 235              		.loc 4 841 0
 236 0006 0198     		ldr	r0, [sp, #4]
 237 0008 FFF7FEFF 		bl	chMtxObjectInit
 238              		.loc 4 847 0
 239 000c 03B0     		add	sp, sp, #12
 240              		.cfi_def_cfa_offset 4
 241              		@ sp needed
 242 000e 5DF804FB 		ldr	pc, [sp], #4
 243              		.cfi_endproc
 244              	.LFE244:
 245              		.size	osalMutexObjectInit, .-osalMutexObjectInit
 246 0012 00BFAFF3 		.section	.text.osalMutexLock,"ax",%progbits
 246      0080AFF3 
 246      0080AFF3 
 246      0080
 247              		.align	2
 248              		.p2align 4,,15
 249              		.thumb
 250              		.thumb_func
 251              		.type	osalMutexLock, %function
 252              	osalMutexLock:
 253              	.LFB245:
 254              		.loc 4 858 0
 255              		.cfi_startproc
 256              		@ args = 0, pretend = 0, frame = 8
 257              		@ frame_needed = 0, uses_anonymous_args = 0
 258 0000 00B5     		push	{lr}
 259              		.cfi_def_cfa_offset 4
 260              		.cfi_offset 14, -4
 261 0002 83B0     		sub	sp, sp, #12
 262              		.cfi_def_cfa_offset 16
 263 0004 0190     		str	r0, [sp, #4]
 264              		.loc 4 861 0
 265 0006 0198     		ldr	r0, [sp, #4]
 266 0008 FFF7FEFF 		bl	chMtxLock
 267              		.loc 4 867 0
 268 000c 03B0     		add	sp, sp, #12
 269              		.cfi_def_cfa_offset 4
 270              		@ sp needed
 271 000e 5DF804FB 		ldr	pc, [sp], #4
 272              		.cfi_endproc
 273              	.LFE245:
 274              		.size	osalMutexLock, .-osalMutexLock
 275 0012 00BFAFF3 		.section	.text.osalMutexUnlock,"ax",%progbits
 275      0080AFF3 
 275      0080AFF3 
 275      0080
ARM GAS  /tmp/ccuR6KHW.s 			page 6


 276              		.align	2
 277              		.p2align 4,,15
 278              		.thumb
 279              		.thumb_func
 280              		.type	osalMutexUnlock, %function
 281              	osalMutexUnlock:
 282              	.LFB246:
 283              		.loc 4 882 0
 284              		.cfi_startproc
 285              		@ args = 0, pretend = 0, frame = 8
 286              		@ frame_needed = 0, uses_anonymous_args = 0
 287 0000 00B5     		push	{lr}
 288              		.cfi_def_cfa_offset 4
 289              		.cfi_offset 14, -4
 290 0002 83B0     		sub	sp, sp, #12
 291              		.cfi_def_cfa_offset 16
 292 0004 0190     		str	r0, [sp, #4]
 293              		.loc 4 885 0
 294 0006 0198     		ldr	r0, [sp, #4]
 295 0008 FFF7FEFF 		bl	chMtxUnlock
 296              		.loc 4 891 0
 297 000c 03B0     		add	sp, sp, #12
 298              		.cfi_def_cfa_offset 4
 299              		@ sp needed
 300 000e 5DF804FB 		ldr	pc, [sp], #4
 301              		.cfi_endproc
 302              	.LFE246:
 303              		.size	osalMutexUnlock, .-osalMutexUnlock
 304 0012 00BFAFF3 		.section	.text.spiInit,"ax",%progbits
 304      0080AFF3 
 304      0080AFF3 
 304      0080
 305              		.align	2
 306              		.p2align 4,,15
 307              		.global	spiInit
 308              		.thumb
 309              		.thumb_func
 310              		.type	spiInit, %function
 311              	spiInit:
 312              	.LFB253:
 313              		.file 5 "/home/makkmarci/workspace/CLEAN/ChibiOS/os/hal/src/spi.c"
 314              		.loc 5 56 0
 315              		.cfi_startproc
 316              		@ args = 0, pretend = 0, frame = 0
 317              		@ frame_needed = 0, uses_anonymous_args = 0
 318 0000 08B5     		push	{r3, lr}
 319              		.cfi_def_cfa_offset 8
 320              		.cfi_offset 3, -8
 321              		.cfi_offset 14, -4
 322              		.loc 5 58 0
 323 0002 FFF7FEFF 		bl	spi_lld_init
 324              		.loc 5 59 0
 325 0006 08BD     		pop	{r3, pc}
 326              		.cfi_endproc
 327              	.LFE253:
 328              		.size	spiInit, .-spiInit
 329 0008 AFF30080 		.section	.text.spiObjectInit,"ax",%progbits
ARM GAS  /tmp/ccuR6KHW.s 			page 7


 329      AFF30080 
 330              		.align	2
 331              		.p2align 4,,15
 332              		.global	spiObjectInit
 333              		.thumb
 334              		.thumb_func
 335              		.type	spiObjectInit, %function
 336              	spiObjectInit:
 337              	.LFB254:
 338              		.loc 5 68 0
 339              		.cfi_startproc
 340              		@ args = 0, pretend = 0, frame = 8
 341              		@ frame_needed = 0, uses_anonymous_args = 0
 342 0000 00B5     		push	{lr}
 343              		.cfi_def_cfa_offset 4
 344              		.cfi_offset 14, -4
 345 0002 83B0     		sub	sp, sp, #12
 346              		.cfi_def_cfa_offset 16
 347 0004 0190     		str	r0, [sp, #4]
 348              		.loc 5 70 0
 349 0006 019B     		ldr	r3, [sp, #4]
 350 0008 0122     		movs	r2, #1
 351 000a 1A70     		strb	r2, [r3]
 352              		.loc 5 71 0
 353 000c 019B     		ldr	r3, [sp, #4]
 354 000e 0022     		movs	r2, #0
 355 0010 5A60     		str	r2, [r3, #4]
 356              		.loc 5 73 0
 357 0012 019B     		ldr	r3, [sp, #4]
 358 0014 0022     		movs	r2, #0
 359 0016 9A60     		str	r2, [r3, #8]
 360              		.loc 5 76 0
 361 0018 019B     		ldr	r3, [sp, #4]
 362 001a 0C33     		adds	r3, r3, #12
 363 001c 1846     		mov	r0, r3
 364 001e FFF7FEFF 		bl	osalMutexObjectInit
 365              		.loc 5 81 0
 366 0022 03B0     		add	sp, sp, #12
 367              		.cfi_def_cfa_offset 4
 368              		@ sp needed
 369 0024 5DF804FB 		ldr	pc, [sp], #4
 370              		.cfi_endproc
 371              	.LFE254:
 372              		.size	spiObjectInit, .-spiObjectInit
 373 0028 AFF30080 		.section	.text.spiStart,"ax",%progbits
 373      AFF30080 
 374              		.align	2
 375              		.p2align 4,,15
 376              		.global	spiStart
 377              		.thumb
 378              		.thumb_func
 379              		.type	spiStart, %function
 380              	spiStart:
 381              	.LFB255:
 382              		.loc 5 91 0
 383              		.cfi_startproc
 384              		@ args = 0, pretend = 0, frame = 8
ARM GAS  /tmp/ccuR6KHW.s 			page 8


 385              		@ frame_needed = 0, uses_anonymous_args = 0
 386 0000 00B5     		push	{lr}
 387              		.cfi_def_cfa_offset 4
 388              		.cfi_offset 14, -4
 389 0002 83B0     		sub	sp, sp, #12
 390              		.cfi_def_cfa_offset 16
 391 0004 0190     		str	r0, [sp, #4]
 392 0006 0091     		str	r1, [sp]
 393              		.loc 5 95 0
 394 0008 FFF7FEFF 		bl	osalSysLock
 395              		.loc 5 98 0
 396 000c 019B     		ldr	r3, [sp, #4]
 397 000e 009A     		ldr	r2, [sp]
 398 0010 5A60     		str	r2, [r3, #4]
 399              		.loc 5 99 0
 400 0012 0198     		ldr	r0, [sp, #4]
 401 0014 FFF7FEFF 		bl	spi_lld_start
 402              		.loc 5 100 0
 403 0018 019B     		ldr	r3, [sp, #4]
 404 001a 0222     		movs	r2, #2
 405 001c 1A70     		strb	r2, [r3]
 406              		.loc 5 101 0
 407 001e FFF7FEFF 		bl	osalSysUnlock
 408              		.loc 5 102 0
 409 0022 03B0     		add	sp, sp, #12
 410              		.cfi_def_cfa_offset 4
 411              		@ sp needed
 412 0024 5DF804FB 		ldr	pc, [sp], #4
 413              		.cfi_endproc
 414              	.LFE255:
 415              		.size	spiStart, .-spiStart
 416 0028 AFF30080 		.section	.text.spiStop,"ax",%progbits
 416      AFF30080 
 417              		.align	2
 418              		.p2align 4,,15
 419              		.global	spiStop
 420              		.thumb
 421              		.thumb_func
 422              		.type	spiStop, %function
 423              	spiStop:
 424              	.LFB256:
 425              		.loc 5 113 0
 426              		.cfi_startproc
 427              		@ args = 0, pretend = 0, frame = 8
 428              		@ frame_needed = 0, uses_anonymous_args = 0
 429 0000 00B5     		push	{lr}
 430              		.cfi_def_cfa_offset 4
 431              		.cfi_offset 14, -4
 432 0002 83B0     		sub	sp, sp, #12
 433              		.cfi_def_cfa_offset 16
 434 0004 0190     		str	r0, [sp, #4]
 435              		.loc 5 117 0
 436 0006 FFF7FEFF 		bl	osalSysLock
 437              		.loc 5 120 0
 438 000a 0198     		ldr	r0, [sp, #4]
 439 000c FFF7FEFF 		bl	spi_lld_stop
 440              		.loc 5 121 0
ARM GAS  /tmp/ccuR6KHW.s 			page 9


 441 0010 019B     		ldr	r3, [sp, #4]
 442 0012 0122     		movs	r2, #1
 443 0014 1A70     		strb	r2, [r3]
 444              		.loc 5 122 0
 445 0016 FFF7FEFF 		bl	osalSysUnlock
 446              		.loc 5 123 0
 447 001a 03B0     		add	sp, sp, #12
 448              		.cfi_def_cfa_offset 4
 449              		@ sp needed
 450 001c 5DF804FB 		ldr	pc, [sp], #4
 451              		.cfi_endproc
 452              	.LFE256:
 453              		.size	spiStop, .-spiStop
 454              		.section	.text.spiSelect,"ax",%progbits
 455              		.align	2
 456              		.p2align 4,,15
 457              		.global	spiSelect
 458              		.thumb
 459              		.thumb_func
 460              		.type	spiSelect, %function
 461              	spiSelect:
 462              	.LFB257:
 463              		.loc 5 132 0
 464              		.cfi_startproc
 465              		@ args = 0, pretend = 0, frame = 8
 466              		@ frame_needed = 0, uses_anonymous_args = 0
 467 0000 00B5     		push	{lr}
 468              		.cfi_def_cfa_offset 4
 469              		.cfi_offset 14, -4
 470 0002 83B0     		sub	sp, sp, #12
 471              		.cfi_def_cfa_offset 16
 472 0004 0190     		str	r0, [sp, #4]
 473              		.loc 5 136 0
 474 0006 FFF7FEFF 		bl	osalSysLock
 475              		.loc 5 138 0
 476 000a 0198     		ldr	r0, [sp, #4]
 477 000c FFF7FEFF 		bl	spi_lld_select
 478              		.loc 5 139 0
 479 0010 FFF7FEFF 		bl	osalSysUnlock
 480              		.loc 5 140 0
 481 0014 03B0     		add	sp, sp, #12
 482              		.cfi_def_cfa_offset 4
 483              		@ sp needed
 484 0016 5DF804FB 		ldr	pc, [sp], #4
 485              		.cfi_endproc
 486              	.LFE257:
 487              		.size	spiSelect, .-spiSelect
 488 001a 00BFAFF3 		.section	.text.spiUnselect,"ax",%progbits
 488      0080
 489              		.align	2
 490              		.p2align 4,,15
 491              		.global	spiUnselect
 492              		.thumb
 493              		.thumb_func
 494              		.type	spiUnselect, %function
 495              	spiUnselect:
 496              	.LFB258:
ARM GAS  /tmp/ccuR6KHW.s 			page 10


 497              		.loc 5 150 0
 498              		.cfi_startproc
 499              		@ args = 0, pretend = 0, frame = 8
 500              		@ frame_needed = 0, uses_anonymous_args = 0
 501 0000 00B5     		push	{lr}
 502              		.cfi_def_cfa_offset 4
 503              		.cfi_offset 14, -4
 504 0002 83B0     		sub	sp, sp, #12
 505              		.cfi_def_cfa_offset 16
 506 0004 0190     		str	r0, [sp, #4]
 507              		.loc 5 154 0
 508 0006 FFF7FEFF 		bl	osalSysLock
 509              		.loc 5 156 0
 510 000a 0198     		ldr	r0, [sp, #4]
 511 000c FFF7FEFF 		bl	spi_lld_unselect
 512              		.loc 5 157 0
 513 0010 FFF7FEFF 		bl	osalSysUnlock
 514              		.loc 5 158 0
 515 0014 03B0     		add	sp, sp, #12
 516              		.cfi_def_cfa_offset 4
 517              		@ sp needed
 518 0016 5DF804FB 		ldr	pc, [sp], #4
 519              		.cfi_endproc
 520              	.LFE258:
 521              		.size	spiUnselect, .-spiUnselect
 522 001a 00BFAFF3 		.section	.text.spiStartIgnore,"ax",%progbits
 522      0080
 523              		.align	2
 524              		.p2align 4,,15
 525              		.global	spiStartIgnore
 526              		.thumb
 527              		.thumb_func
 528              		.type	spiStartIgnore, %function
 529              	spiStartIgnore:
 530              	.LFB259:
 531              		.loc 5 173 0
 532              		.cfi_startproc
 533              		@ args = 0, pretend = 0, frame = 8
 534              		@ frame_needed = 0, uses_anonymous_args = 0
 535 0000 00B5     		push	{lr}
 536              		.cfi_def_cfa_offset 4
 537              		.cfi_offset 14, -4
 538 0002 83B0     		sub	sp, sp, #12
 539              		.cfi_def_cfa_offset 16
 540 0004 0190     		str	r0, [sp, #4]
 541 0006 0091     		str	r1, [sp]
 542              		.loc 5 177 0
 543 0008 FFF7FEFF 		bl	osalSysLock
 544              		.loc 5 179 0
 545 000c 019B     		ldr	r3, [sp, #4]
 546 000e 0322     		movs	r2, #3
 547 0010 1A70     		strb	r2, [r3]
 548 0012 0198     		ldr	r0, [sp, #4]
 549 0014 0099     		ldr	r1, [sp]
 550 0016 FFF7FEFF 		bl	spi_lld_ignore
 551              		.loc 5 180 0
 552 001a FFF7FEFF 		bl	osalSysUnlock
ARM GAS  /tmp/ccuR6KHW.s 			page 11


 553              		.loc 5 181 0
 554 001e 03B0     		add	sp, sp, #12
 555              		.cfi_def_cfa_offset 4
 556              		@ sp needed
 557 0020 5DF804FB 		ldr	pc, [sp], #4
 558              		.cfi_endproc
 559              	.LFE259:
 560              		.size	spiStartIgnore, .-spiStartIgnore
 561 0024 AFF30080 		.section	.text.spiStartExchange,"ax",%progbits
 561      AFF30080 
 561      AFF30080 
 562              		.align	2
 563              		.p2align 4,,15
 564              		.global	spiStartExchange
 565              		.thumb
 566              		.thumb_func
 567              		.type	spiStartExchange, %function
 568              	spiStartExchange:
 569              	.LFB260:
 570              		.loc 5 201 0
 571              		.cfi_startproc
 572              		@ args = 0, pretend = 0, frame = 16
 573              		@ frame_needed = 0, uses_anonymous_args = 0
 574 0000 00B5     		push	{lr}
 575              		.cfi_def_cfa_offset 4
 576              		.cfi_offset 14, -4
 577 0002 85B0     		sub	sp, sp, #20
 578              		.cfi_def_cfa_offset 24
 579 0004 0390     		str	r0, [sp, #12]
 580 0006 0291     		str	r1, [sp, #8]
 581 0008 0192     		str	r2, [sp, #4]
 582 000a 0093     		str	r3, [sp]
 583              		.loc 5 206 0
 584 000c FFF7FEFF 		bl	osalSysLock
 585              		.loc 5 208 0
 586 0010 039B     		ldr	r3, [sp, #12]
 587 0012 0322     		movs	r2, #3
 588 0014 1A70     		strb	r2, [r3]
 589 0016 0398     		ldr	r0, [sp, #12]
 590 0018 0299     		ldr	r1, [sp, #8]
 591 001a 019A     		ldr	r2, [sp, #4]
 592 001c 009B     		ldr	r3, [sp]
 593 001e FFF7FEFF 		bl	spi_lld_exchange
 594              		.loc 5 209 0
 595 0022 FFF7FEFF 		bl	osalSysUnlock
 596              		.loc 5 210 0
 597 0026 05B0     		add	sp, sp, #20
 598              		.cfi_def_cfa_offset 4
 599              		@ sp needed
 600 0028 5DF804FB 		ldr	pc, [sp], #4
 601              		.cfi_endproc
 602              	.LFE260:
 603              		.size	spiStartExchange, .-spiStartExchange
 604 002c AFF30080 		.section	.text.spiStartSend,"ax",%progbits
 605              		.align	2
 606              		.p2align 4,,15
 607              		.global	spiStartSend
ARM GAS  /tmp/ccuR6KHW.s 			page 12


 608              		.thumb
 609              		.thumb_func
 610              		.type	spiStartSend, %function
 611              	spiStartSend:
 612              	.LFB261:
 613              		.loc 5 227 0
 614              		.cfi_startproc
 615              		@ args = 0, pretend = 0, frame = 16
 616              		@ frame_needed = 0, uses_anonymous_args = 0
 617 0000 00B5     		push	{lr}
 618              		.cfi_def_cfa_offset 4
 619              		.cfi_offset 14, -4
 620 0002 85B0     		sub	sp, sp, #20
 621              		.cfi_def_cfa_offset 24
 622 0004 0390     		str	r0, [sp, #12]
 623 0006 0291     		str	r1, [sp, #8]
 624 0008 0192     		str	r2, [sp, #4]
 625              		.loc 5 231 0
 626 000a FFF7FEFF 		bl	osalSysLock
 627              		.loc 5 233 0
 628 000e 039B     		ldr	r3, [sp, #12]
 629 0010 0322     		movs	r2, #3
 630 0012 1A70     		strb	r2, [r3]
 631 0014 0398     		ldr	r0, [sp, #12]
 632 0016 0299     		ldr	r1, [sp, #8]
 633 0018 019A     		ldr	r2, [sp, #4]
 634 001a FFF7FEFF 		bl	spi_lld_send
 635              		.loc 5 234 0
 636 001e FFF7FEFF 		bl	osalSysUnlock
 637              		.loc 5 235 0
 638 0022 05B0     		add	sp, sp, #20
 639              		.cfi_def_cfa_offset 4
 640              		@ sp needed
 641 0024 5DF804FB 		ldr	pc, [sp], #4
 642              		.cfi_endproc
 643              	.LFE261:
 644              		.size	spiStartSend, .-spiStartSend
 645 0028 AFF30080 		.section	.text.spiStartReceive,"ax",%progbits
 645      AFF30080 
 646              		.align	2
 647              		.p2align 4,,15
 648              		.global	spiStartReceive
 649              		.thumb
 650              		.thumb_func
 651              		.type	spiStartReceive, %function
 652              	spiStartReceive:
 653              	.LFB262:
 654              		.loc 5 252 0
 655              		.cfi_startproc
 656              		@ args = 0, pretend = 0, frame = 16
 657              		@ frame_needed = 0, uses_anonymous_args = 0
 658 0000 00B5     		push	{lr}
 659              		.cfi_def_cfa_offset 4
 660              		.cfi_offset 14, -4
 661 0002 85B0     		sub	sp, sp, #20
 662              		.cfi_def_cfa_offset 24
 663 0004 0390     		str	r0, [sp, #12]
ARM GAS  /tmp/ccuR6KHW.s 			page 13


 664 0006 0291     		str	r1, [sp, #8]
 665 0008 0192     		str	r2, [sp, #4]
 666              		.loc 5 256 0
 667 000a FFF7FEFF 		bl	osalSysLock
 668              		.loc 5 258 0
 669 000e 039B     		ldr	r3, [sp, #12]
 670 0010 0322     		movs	r2, #3
 671 0012 1A70     		strb	r2, [r3]
 672 0014 0398     		ldr	r0, [sp, #12]
 673 0016 0299     		ldr	r1, [sp, #8]
 674 0018 019A     		ldr	r2, [sp, #4]
 675 001a FFF7FEFF 		bl	spi_lld_receive
 676              		.loc 5 259 0
 677 001e FFF7FEFF 		bl	osalSysUnlock
 678              		.loc 5 260 0
 679 0022 05B0     		add	sp, sp, #20
 680              		.cfi_def_cfa_offset 4
 681              		@ sp needed
 682 0024 5DF804FB 		ldr	pc, [sp], #4
 683              		.cfi_endproc
 684              	.LFE262:
 685              		.size	spiStartReceive, .-spiStartReceive
 686 0028 AFF30080 		.section	.text.spiIgnore,"ax",%progbits
 686      AFF30080 
 687              		.align	2
 688              		.p2align 4,,15
 689              		.global	spiIgnore
 690              		.thumb
 691              		.thumb_func
 692              		.type	spiIgnore, %function
 693              	spiIgnore:
 694              	.LFB263:
 695              		.loc 5 277 0
 696              		.cfi_startproc
 697              		@ args = 0, pretend = 0, frame = 8
 698              		@ frame_needed = 0, uses_anonymous_args = 0
 699 0000 00B5     		push	{lr}
 700              		.cfi_def_cfa_offset 4
 701              		.cfi_offset 14, -4
 702 0002 83B0     		sub	sp, sp, #12
 703              		.cfi_def_cfa_offset 16
 704 0004 0190     		str	r0, [sp, #4]
 705 0006 0091     		str	r1, [sp]
 706              		.loc 5 281 0
 707 0008 FFF7FEFF 		bl	osalSysLock
 708              		.loc 5 284 0
 709 000c 019B     		ldr	r3, [sp, #4]
 710 000e 0322     		movs	r2, #3
 711 0010 1A70     		strb	r2, [r3]
 712 0012 0198     		ldr	r0, [sp, #4]
 713 0014 0099     		ldr	r1, [sp]
 714 0016 FFF7FEFF 		bl	spi_lld_ignore
 715              		.loc 5 285 0
 716 001a 019B     		ldr	r3, [sp, #4]
 717 001c 0833     		adds	r3, r3, #8
 718 001e 1846     		mov	r0, r3
 719 0020 FFF7FEFF 		bl	osalThreadSuspendS
ARM GAS  /tmp/ccuR6KHW.s 			page 14


 720              		.loc 5 286 0
 721 0024 FFF7FEFF 		bl	osalSysUnlock
 722              		.loc 5 287 0
 723 0028 03B0     		add	sp, sp, #12
 724              		.cfi_def_cfa_offset 4
 725              		@ sp needed
 726 002a 5DF804FB 		ldr	pc, [sp], #4
 727              		.cfi_endproc
 728              	.LFE263:
 729              		.size	spiIgnore, .-spiIgnore
 730 002e 00BF     		.section	.text.spiExchange,"ax",%progbits
 731              		.align	2
 732              		.p2align 4,,15
 733              		.global	spiExchange
 734              		.thumb
 735              		.thumb_func
 736              		.type	spiExchange, %function
 737              	spiExchange:
 738              	.LFB264:
 739              		.loc 5 308 0
 740              		.cfi_startproc
 741              		@ args = 0, pretend = 0, frame = 16
 742              		@ frame_needed = 0, uses_anonymous_args = 0
 743 0000 00B5     		push	{lr}
 744              		.cfi_def_cfa_offset 4
 745              		.cfi_offset 14, -4
 746 0002 85B0     		sub	sp, sp, #20
 747              		.cfi_def_cfa_offset 24
 748 0004 0390     		str	r0, [sp, #12]
 749 0006 0291     		str	r1, [sp, #8]
 750 0008 0192     		str	r2, [sp, #4]
 751 000a 0093     		str	r3, [sp]
 752              		.loc 5 313 0
 753 000c FFF7FEFF 		bl	osalSysLock
 754              		.loc 5 316 0
 755 0010 039B     		ldr	r3, [sp, #12]
 756 0012 0322     		movs	r2, #3
 757 0014 1A70     		strb	r2, [r3]
 758 0016 0398     		ldr	r0, [sp, #12]
 759 0018 0299     		ldr	r1, [sp, #8]
 760 001a 019A     		ldr	r2, [sp, #4]
 761 001c 009B     		ldr	r3, [sp]
 762 001e FFF7FEFF 		bl	spi_lld_exchange
 763              		.loc 5 317 0
 764 0022 039B     		ldr	r3, [sp, #12]
 765 0024 0833     		adds	r3, r3, #8
 766 0026 1846     		mov	r0, r3
 767 0028 FFF7FEFF 		bl	osalThreadSuspendS
 768              		.loc 5 318 0
 769 002c FFF7FEFF 		bl	osalSysUnlock
 770              		.loc 5 319 0
 771 0030 05B0     		add	sp, sp, #20
 772              		.cfi_def_cfa_offset 4
 773              		@ sp needed
 774 0032 5DF804FB 		ldr	pc, [sp], #4
 775              		.cfi_endproc
 776              	.LFE264:
ARM GAS  /tmp/ccuR6KHW.s 			page 15


 777              		.size	spiExchange, .-spiExchange
 778 0036 00BFAFF3 		.section	.text.spiSend,"ax",%progbits
 778      0080AFF3 
 778      0080
 779              		.align	2
 780              		.p2align 4,,15
 781              		.global	spiSend
 782              		.thumb
 783              		.thumb_func
 784              		.type	spiSend, %function
 785              	spiSend:
 786              	.LFB265:
 787              		.loc 5 337 0
 788              		.cfi_startproc
 789              		@ args = 0, pretend = 0, frame = 16
 790              		@ frame_needed = 0, uses_anonymous_args = 0
 791 0000 00B5     		push	{lr}
 792              		.cfi_def_cfa_offset 4
 793              		.cfi_offset 14, -4
 794 0002 85B0     		sub	sp, sp, #20
 795              		.cfi_def_cfa_offset 24
 796 0004 0390     		str	r0, [sp, #12]
 797 0006 0291     		str	r1, [sp, #8]
 798 0008 0192     		str	r2, [sp, #4]
 799              		.loc 5 341 0
 800 000a FFF7FEFF 		bl	osalSysLock
 801              		.loc 5 344 0
 802 000e 039B     		ldr	r3, [sp, #12]
 803 0010 0322     		movs	r2, #3
 804 0012 1A70     		strb	r2, [r3]
 805 0014 0398     		ldr	r0, [sp, #12]
 806 0016 0299     		ldr	r1, [sp, #8]
 807 0018 019A     		ldr	r2, [sp, #4]
 808 001a FFF7FEFF 		bl	spi_lld_send
 809              		.loc 5 345 0
 810 001e 039B     		ldr	r3, [sp, #12]
 811 0020 0833     		adds	r3, r3, #8
 812 0022 1846     		mov	r0, r3
 813 0024 FFF7FEFF 		bl	osalThreadSuspendS
 814              		.loc 5 346 0
 815 0028 FFF7FEFF 		bl	osalSysUnlock
 816              		.loc 5 347 0
 817 002c 05B0     		add	sp, sp, #20
 818              		.cfi_def_cfa_offset 4
 819              		@ sp needed
 820 002e 5DF804FB 		ldr	pc, [sp], #4
 821              		.cfi_endproc
 822              	.LFE265:
 823              		.size	spiSend, .-spiSend
 824 0032 00BFAFF3 		.section	.text.spiReceive,"ax",%progbits
 824      0080AFF3 
 824      0080AFF3 
 824      0080
 825              		.align	2
 826              		.p2align 4,,15
 827              		.global	spiReceive
 828              		.thumb
ARM GAS  /tmp/ccuR6KHW.s 			page 16


 829              		.thumb_func
 830              		.type	spiReceive, %function
 831              	spiReceive:
 832              	.LFB266:
 833              		.loc 5 365 0
 834              		.cfi_startproc
 835              		@ args = 0, pretend = 0, frame = 16
 836              		@ frame_needed = 0, uses_anonymous_args = 0
 837 0000 00B5     		push	{lr}
 838              		.cfi_def_cfa_offset 4
 839              		.cfi_offset 14, -4
 840 0002 85B0     		sub	sp, sp, #20
 841              		.cfi_def_cfa_offset 24
 842 0004 0390     		str	r0, [sp, #12]
 843 0006 0291     		str	r1, [sp, #8]
 844 0008 0192     		str	r2, [sp, #4]
 845              		.loc 5 369 0
 846 000a FFF7FEFF 		bl	osalSysLock
 847              		.loc 5 372 0
 848 000e 039B     		ldr	r3, [sp, #12]
 849 0010 0322     		movs	r2, #3
 850 0012 1A70     		strb	r2, [r3]
 851 0014 0398     		ldr	r0, [sp, #12]
 852 0016 0299     		ldr	r1, [sp, #8]
 853 0018 019A     		ldr	r2, [sp, #4]
 854 001a FFF7FEFF 		bl	spi_lld_receive
 855              		.loc 5 373 0
 856 001e 039B     		ldr	r3, [sp, #12]
 857 0020 0833     		adds	r3, r3, #8
 858 0022 1846     		mov	r0, r3
 859 0024 FFF7FEFF 		bl	osalThreadSuspendS
 860              		.loc 5 374 0
 861 0028 FFF7FEFF 		bl	osalSysUnlock
 862              		.loc 5 375 0
 863 002c 05B0     		add	sp, sp, #20
 864              		.cfi_def_cfa_offset 4
 865              		@ sp needed
 866 002e 5DF804FB 		ldr	pc, [sp], #4
 867              		.cfi_endproc
 868              	.LFE266:
 869              		.size	spiReceive, .-spiReceive
 870 0032 00BFAFF3 		.section	.text.spiAcquireBus,"ax",%progbits
 870      0080AFF3 
 870      0080AFF3 
 870      0080
 871              		.align	2
 872              		.p2align 4,,15
 873              		.global	spiAcquireBus
 874              		.thumb
 875              		.thumb_func
 876              		.type	spiAcquireBus, %function
 877              	spiAcquireBus:
 878              	.LFB267:
 879              		.loc 5 390 0
 880              		.cfi_startproc
 881              		@ args = 0, pretend = 0, frame = 8
 882              		@ frame_needed = 0, uses_anonymous_args = 0
ARM GAS  /tmp/ccuR6KHW.s 			page 17


 883 0000 00B5     		push	{lr}
 884              		.cfi_def_cfa_offset 4
 885              		.cfi_offset 14, -4
 886 0002 83B0     		sub	sp, sp, #12
 887              		.cfi_def_cfa_offset 16
 888 0004 0190     		str	r0, [sp, #4]
 889              		.loc 5 394 0
 890 0006 019B     		ldr	r3, [sp, #4]
 891 0008 0C33     		adds	r3, r3, #12
 892 000a 1846     		mov	r0, r3
 893 000c FFF7FEFF 		bl	osalMutexLock
 894              		.loc 5 395 0
 895 0010 03B0     		add	sp, sp, #12
 896              		.cfi_def_cfa_offset 4
 897              		@ sp needed
 898 0012 5DF804FB 		ldr	pc, [sp], #4
 899              		.cfi_endproc
 900              	.LFE267:
 901              		.size	spiAcquireBus, .-spiAcquireBus
 902 0016 00BFAFF3 		.section	.text.spiReleaseBus,"ax",%progbits
 902      0080AFF3 
 902      0080
 903              		.align	2
 904              		.p2align 4,,15
 905              		.global	spiReleaseBus
 906              		.thumb
 907              		.thumb_func
 908              		.type	spiReleaseBus, %function
 909              	spiReleaseBus:
 910              	.LFB268:
 911              		.loc 5 406 0
 912              		.cfi_startproc
 913              		@ args = 0, pretend = 0, frame = 8
 914              		@ frame_needed = 0, uses_anonymous_args = 0
 915 0000 00B5     		push	{lr}
 916              		.cfi_def_cfa_offset 4
 917              		.cfi_offset 14, -4
 918 0002 83B0     		sub	sp, sp, #12
 919              		.cfi_def_cfa_offset 16
 920 0004 0190     		str	r0, [sp, #4]
 921              		.loc 5 410 0
 922 0006 019B     		ldr	r3, [sp, #4]
 923 0008 0C33     		adds	r3, r3, #12
 924 000a 1846     		mov	r0, r3
 925 000c FFF7FEFF 		bl	osalMutexUnlock
 926              		.loc 5 411 0
 927 0010 03B0     		add	sp, sp, #12
 928              		.cfi_def_cfa_offset 4
 929              		@ sp needed
 930 0012 5DF804FB 		ldr	pc, [sp], #4
 931              		.cfi_endproc
 932              	.LFE268:
 933              		.size	spiReleaseBus, .-spiReleaseBus
 934 0016 00BFAFF3 		.text
 934      0080AFF3 
 934      0080
 935              	.Letext0:
ARM GAS  /tmp/ccuR6KHW.s 			page 18


 936              		.file 6 "/opt/gcc-arm-none-eabi/lib/gcc/arm-none-eabi/4.9.3/include/stddef.h"
 937              		.file 7 "/opt/gcc-arm-none-eabi/arm-none-eabi/include/machine/_default_types.h"
 938              		.file 8 "/opt/gcc-arm-none-eabi/arm-none-eabi/include/stdint.h"
 939              		.file 9 "/home/makkmarci/workspace/CLEAN/ChibiOS/os/rt/ports/ARMCMx/compilers/GCC/chtypes.h"
 940              		.file 10 "/home/makkmarci/workspace/CLEAN/ChibiOS/os/rt/include/chsystypes.h"
 941              		.file 11 "/home/makkmarci/workspace/CLEAN/ChibiOS/os/rt/include/chschd.h"
 942              		.file 12 "/home/makkmarci/workspace/CLEAN/ChibiOS/os/ext/CMSIS/ST/stm32f407xx.h"
 943              		.file 13 "/home/makkmarci/workspace/CLEAN/ChibiOS/os/rt/ports/ARMCMx/chcore.h"
 944              		.file 14 "/home/makkmarci/workspace/CLEAN/ChibiOS/os/rt/include/chtm.h"
 945              		.file 15 "/home/makkmarci/workspace/CLEAN/ChibiOS/os/rt/include/chsem.h"
 946              		.file 16 "/home/makkmarci/workspace/CLEAN/ChibiOS/os/rt/include/chmtx.h"
 947              		.file 17 "/home/makkmarci/workspace/CLEAN/ChibiOS/os/hal/ports/STM32/STM32F4xx/stm32_dma.h"
 948              		.file 18 "/home/makkmarci/workspace/CLEAN/ChibiOS/os/hal/ports/STM32/LLD/GPIOv2/pal_lld.h"
 949              		.file 19 "/home/makkmarci/workspace/CLEAN/ChibiOS/os/hal/include/spi.h"
 950              		.file 20 "/home/makkmarci/workspace/CLEAN/ChibiOS/os/hal/ports/STM32/LLD/SPIv1/spi_lld.h"
 951              		.file 21 "/home/makkmarci/workspace/CLEAN/ChibiOS/os/ext/CMSIS/include/core_cm4.h"