ARM GAS  /tmp/ccyaguM8.s 			page 1


   1              		.syntax unified
   2              		.cpu cortex-m4
   3              		.eabi_attribute 27, 1
   4              		.eabi_attribute 28, 1
   5              		.fpu fpv4-sp-d16
   6              		.eabi_attribute 20, 1
   7              		.eabi_attribute 21, 1
   8              		.eabi_attribute 23, 3
   9              		.eabi_attribute 24, 1
  10              		.eabi_attribute 25, 1
  11              		.eabi_attribute 26, 1
  12              		.eabi_attribute 30, 6
  13              		.eabi_attribute 34, 1
  14              		.eabi_attribute 18, 4
  15              		.thumb
  16              		.file	"spi_lld.c"
  17              		.text
  18              	.Ltext0:
  19              		.cfi_sections	.debug_frame
  20              		.section	.text.port_lock,"ax",%progbits
  21              		.align	2
  22              		.p2align 4,,15
  23              		.thumb
  24              		.thumb_func
  25              		.type	port_lock, %function
  26              	port_lock:
  27              	.LFB116:
  28              		.file 1 "/home/makkmarci/workspace/CLEAN/ChibiOS/os/rt/ports/ARMCMx/chcore_v7m.h"
  29              		.loc 1 444 0
  30              		.cfi_startproc
  31              		@ args = 0, pretend = 0, frame = 8
  32              		@ frame_needed = 0, uses_anonymous_args = 0
  33              		@ link register save eliminated.
  34 0000 82B0     		sub	sp, sp, #8
  35              		.cfi_def_cfa_offset 8
  36 0002 2023     		movs	r3, #32
  37 0004 0193     		str	r3, [sp, #4]
  38              	.LBB6:
  39              	.LBB7:
  40              		.file 2 "/home/makkmarci/workspace/CLEAN/ChibiOS/os/ext/CMSIS/include/core_cmFunc.h"
  41              		.loc 2 546 0
  42 0006 019B     		ldr	r3, [sp, #4]
  43              	@ 546 "/home/makkmarci/workspace/CLEAN/ChibiOS/os/ext/CMSIS/include/core_cmFunc.h" 1
  44 0008 83F31188 		MSR basepri, r3
  45              	@ 0 "" 2
  46              		.thumb
  47              	.LBE7:
  48              	.LBE6:
  49              		.loc 1 451 0
  50 000c 02B0     		add	sp, sp, #8
  51              		.cfi_def_cfa_offset 0
  52              		@ sp needed
  53 000e 7047     		bx	lr
  54              		.cfi_endproc
  55              	.LFE116:
  56              		.size	port_lock, .-port_lock
  57              		.section	.text.port_unlock,"ax",%progbits
ARM GAS  /tmp/ccyaguM8.s 			page 2


  58              		.align	2
  59              		.p2align 4,,15
  60              		.thumb
  61              		.thumb_func
  62              		.type	port_unlock, %function
  63              	port_unlock:
  64              	.LFB117:
  65              		.loc 1 458 0
  66              		.cfi_startproc
  67              		@ args = 0, pretend = 0, frame = 8
  68              		@ frame_needed = 0, uses_anonymous_args = 0
  69              		@ link register save eliminated.
  70 0000 82B0     		sub	sp, sp, #8
  71              		.cfi_def_cfa_offset 8
  72 0002 0023     		movs	r3, #0
  73 0004 0193     		str	r3, [sp, #4]
  74              	.LBB8:
  75              	.LBB9:
  76              		.loc 2 546 0
  77 0006 019B     		ldr	r3, [sp, #4]
  78              	@ 546 "/home/makkmarci/workspace/CLEAN/ChibiOS/os/ext/CMSIS/include/core_cmFunc.h" 1
  79 0008 83F31188 		MSR basepri, r3
  80              	@ 0 "" 2
  81              		.thumb
  82              	.LBE9:
  83              	.LBE8:
  84              		.loc 1 465 0
  85 000c 02B0     		add	sp, sp, #8
  86              		.cfi_def_cfa_offset 0
  87              		@ sp needed
  88 000e 7047     		bx	lr
  89              		.cfi_endproc
  90              	.LFE117:
  91              		.size	port_unlock, .-port_unlock
  92              		.section	.text.port_lock_from_isr,"ax",%progbits
  93              		.align	2
  94              		.p2align 4,,15
  95              		.thumb
  96              		.thumb_func
  97              		.type	port_lock_from_isr, %function
  98              	port_lock_from_isr:
  99              	.LFB118:
 100              		.loc 1 473 0
 101              		.cfi_startproc
 102              		@ args = 0, pretend = 0, frame = 0
 103              		@ frame_needed = 0, uses_anonymous_args = 0
 104 0000 08B5     		push	{r3, lr}
 105              		.cfi_def_cfa_offset 8
 106              		.cfi_offset 3, -8
 107              		.cfi_offset 14, -4
 108              		.loc 1 475 0
 109 0002 FFF7FEFF 		bl	port_lock
 110              		.loc 1 476 0
 111 0006 08BD     		pop	{r3, pc}
 112              		.cfi_endproc
 113              	.LFE118:
 114              		.size	port_lock_from_isr, .-port_lock_from_isr
ARM GAS  /tmp/ccyaguM8.s 			page 3


 115 0008 AFF30080 		.section	.text.port_unlock_from_isr,"ax",%progbits
 115      AFF30080 
 116              		.align	2
 117              		.p2align 4,,15
 118              		.thumb
 119              		.thumb_func
 120              		.type	port_unlock_from_isr, %function
 121              	port_unlock_from_isr:
 122              	.LFB119:
 123              		.loc 1 484 0
 124              		.cfi_startproc
 125              		@ args = 0, pretend = 0, frame = 0
 126              		@ frame_needed = 0, uses_anonymous_args = 0
 127 0000 08B5     		push	{r3, lr}
 128              		.cfi_def_cfa_offset 8
 129              		.cfi_offset 3, -8
 130              		.cfi_offset 14, -4
 131              		.loc 1 486 0
 132 0002 FFF7FEFF 		bl	port_unlock
 133              		.loc 1 487 0
 134 0006 08BD     		pop	{r3, pc}
 135              		.cfi_endproc
 136              	.LFE119:
 137              		.size	port_unlock_from_isr, .-port_unlock_from_isr
 138 0008 AFF30080 		.section	.text.chSysLockFromISR,"ax",%progbits
 138      AFF30080 
 139              		.align	2
 140              		.p2align 4,,15
 141              		.thumb
 142              		.thumb_func
 143              		.type	chSysLockFromISR, %function
 144              	chSysLockFromISR:
 145              	.LFB147:
 146              		.file 3 "/home/makkmarci/workspace/CLEAN/ChibiOS/os/rt/include/chsys.h"
 147              		.loc 3 386 0
 148              		.cfi_startproc
 149              		@ args = 0, pretend = 0, frame = 0
 150              		@ frame_needed = 0, uses_anonymous_args = 0
 151 0000 08B5     		push	{r3, lr}
 152              		.cfi_def_cfa_offset 8
 153              		.cfi_offset 3, -8
 154              		.cfi_offset 14, -4
 155              		.loc 3 388 0
 156 0002 FFF7FEFF 		bl	port_lock_from_isr
 157              		.loc 3 391 0
 158 0006 08BD     		pop	{r3, pc}
 159              		.cfi_endproc
 160              	.LFE147:
 161              		.size	chSysLockFromISR, .-chSysLockFromISR
 162              		.section	.text.chSysUnlockFromISR,"ax",%progbits
 163              		.align	2
 164              		.p2align 4,,15
 165              		.thumb
 166              		.thumb_func
 167              		.type	chSysUnlockFromISR, %function
 168              	chSysUnlockFromISR:
 169              	.LFB148:
ARM GAS  /tmp/ccyaguM8.s 			page 4


 170              		.loc 3 406 0
 171              		.cfi_startproc
 172              		@ args = 0, pretend = 0, frame = 0
 173              		@ frame_needed = 0, uses_anonymous_args = 0
 174 0000 08B5     		push	{r3, lr}
 175              		.cfi_def_cfa_offset 8
 176              		.cfi_offset 3, -8
 177              		.cfi_offset 14, -4
 178              		.loc 3 410 0
 179 0002 FFF7FEFF 		bl	port_unlock_from_isr
 180              		.loc 3 411 0
 181 0006 08BD     		pop	{r3, pc}
 182              		.cfi_endproc
 183              	.LFE148:
 184              		.size	chSysUnlockFromISR, .-chSysUnlockFromISR
 185 0008 AFF30080 		.section	.text.osalSysHalt,"ax",%progbits
 185      AFF30080 
 186              		.align	2
 187              		.p2align 4,,15
 188              		.thumb
 189              		.thumb_func
 190              		.type	osalSysHalt, %function
 191              	osalSysHalt:
 192              	.LFB217:
 193              		.file 4 "/home/makkmarci/workspace/CLEAN/ChibiOS/os/hal/osal/rt/osal.h"
 194              		.loc 4 414 0
 195              		.cfi_startproc
 196              		@ args = 0, pretend = 0, frame = 8
 197              		@ frame_needed = 0, uses_anonymous_args = 0
 198 0000 00B5     		push	{lr}
 199              		.cfi_def_cfa_offset 4
 200              		.cfi_offset 14, -4
 201 0002 83B0     		sub	sp, sp, #12
 202              		.cfi_def_cfa_offset 16
 203 0004 0190     		str	r0, [sp, #4]
 204              		.loc 4 416 0
 205 0006 0198     		ldr	r0, [sp, #4]
 206 0008 FFF7FEFF 		bl	chSysHalt
 207              		.loc 4 417 0
 208 000c 03B0     		add	sp, sp, #12
 209              		.cfi_def_cfa_offset 4
 210              		@ sp needed
 211 000e 5DF804FB 		ldr	pc, [sp], #4
 212              		.cfi_endproc
 213              	.LFE217:
 214              		.size	osalSysHalt, .-osalSysHalt
 215 0012 00BFAFF3 		.section	.text.osalSysLockFromISR,"ax",%progbits
 215      0080AFF3 
 215      0080AFF3 
 215      0080
 216              		.align	2
 217              		.p2align 4,,15
 218              		.thumb
 219              		.thumb_func
 220              		.type	osalSysLockFromISR, %function
 221              	osalSysLockFromISR:
 222              	.LFB222:
ARM GAS  /tmp/ccyaguM8.s 			page 5


 223              		.loc 4 467 0
 224              		.cfi_startproc
 225              		@ args = 0, pretend = 0, frame = 0
 226              		@ frame_needed = 0, uses_anonymous_args = 0
 227 0000 08B5     		push	{r3, lr}
 228              		.cfi_def_cfa_offset 8
 229              		.cfi_offset 3, -8
 230              		.cfi_offset 14, -4
 231              		.loc 4 469 0
 232 0002 FFF7FEFF 		bl	chSysLockFromISR
 233              		.loc 4 470 0
 234 0006 08BD     		pop	{r3, pc}
 235              		.cfi_endproc
 236              	.LFE222:
 237              		.size	osalSysLockFromISR, .-osalSysLockFromISR
 238 0008 AFF30080 		.section	.text.osalSysUnlockFromISR,"ax",%progbits
 238      AFF30080 
 239              		.align	2
 240              		.p2align 4,,15
 241              		.thumb
 242              		.thumb_func
 243              		.type	osalSysUnlockFromISR, %function
 244              	osalSysUnlockFromISR:
 245              	.LFB223:
 246              		.loc 4 478 0
 247              		.cfi_startproc
 248              		@ args = 0, pretend = 0, frame = 0
 249              		@ frame_needed = 0, uses_anonymous_args = 0
 250 0000 08B5     		push	{r3, lr}
 251              		.cfi_def_cfa_offset 8
 252              		.cfi_offset 3, -8
 253              		.cfi_offset 14, -4
 254              		.loc 4 480 0
 255 0002 FFF7FEFF 		bl	chSysUnlockFromISR
 256              		.loc 4 481 0
 257 0006 08BD     		pop	{r3, pc}
 258              		.cfi_endproc
 259              	.LFE223:
 260              		.size	osalSysUnlockFromISR, .-osalSysUnlockFromISR
 261 0008 AFF30080 		.section	.text.osalThreadResumeI,"ax",%progbits
 261      AFF30080 
 262              		.align	2
 263              		.p2align 4,,15
 264              		.thumb
 265              		.thumb_func
 266              		.type	osalThreadResumeI, %function
 267              	osalThreadResumeI:
 268              	.LFB235:
 269              		.loc 4 680 0
 270              		.cfi_startproc
 271              		@ args = 0, pretend = 0, frame = 8
 272              		@ frame_needed = 0, uses_anonymous_args = 0
 273 0000 00B5     		push	{lr}
 274              		.cfi_def_cfa_offset 4
 275              		.cfi_offset 14, -4
 276 0002 83B0     		sub	sp, sp, #12
 277              		.cfi_def_cfa_offset 16
ARM GAS  /tmp/ccyaguM8.s 			page 6


 278 0004 0190     		str	r0, [sp, #4]
 279 0006 0091     		str	r1, [sp]
 280              		.loc 4 682 0
 281 0008 0198     		ldr	r0, [sp, #4]
 282 000a 0099     		ldr	r1, [sp]
 283 000c FFF7FEFF 		bl	chThdResumeI
 284              		.loc 4 683 0
 285 0010 03B0     		add	sp, sp, #12
 286              		.cfi_def_cfa_offset 4
 287              		@ sp needed
 288 0012 5DF804FB 		ldr	pc, [sp], #4
 289              		.cfi_endproc
 290              	.LFE235:
 291              		.size	osalThreadResumeI, .-osalThreadResumeI
 292              		.global	SPID2
 293 0016 00BFAFF3 		.section	.bss.SPID2,"aw",%nobits
 293      0080AFF3 
 293      0080
 294              		.align	2
 295              		.type	SPID2, %object
 296              		.size	SPID2, 48
 297              	SPID2:
 298 0000 00000000 		.space	48
 298      00000000 
 298      00000000 
 298      00000000 
 298      00000000 
 299              		.section	.bss.dummytx,"aw",%nobits
 300              		.align	1
 301              		.type	dummytx, %object
 302              		.size	dummytx, 2
 303              	dummytx:
 304 0000 0000     		.space	2
 305              		.section	.bss.dummyrx,"aw",%nobits
 306              		.align	1
 307              		.type	dummyrx, %object
 308              		.size	dummyrx, 2
 309              	dummyrx:
 310 0000 0000     		.space	2
 311              		.section	.rodata
 312              		.align	2
 313              	.LC0:
 314 0000 444D4120 		.ascii	"DMA failure\000"
 314      6661696C 
 314      75726500 
 315              		.section	.text.spi_lld_serve_rx_interrupt,"ax",%progbits
 316              		.align	2
 317              		.p2align 4,,15
 318              		.thumb
 319              		.thumb_func
 320              		.type	spi_lld_serve_rx_interrupt, %function
 321              	spi_lld_serve_rx_interrupt:
 322              	.LFB253:
 323              		.file 5 "/home/makkmarci/workspace/CLEAN/ChibiOS/os/hal/ports/STM32/LLD/SPIv1/spi_lld.c"
 324              		.loc 5 132 0
 325              		.cfi_startproc
 326              		@ args = 0, pretend = 0, frame = 8
ARM GAS  /tmp/ccyaguM8.s 			page 7


 327              		@ frame_needed = 0, uses_anonymous_args = 0
 328 0000 00B5     		push	{lr}
 329              		.cfi_def_cfa_offset 4
 330              		.cfi_offset 14, -4
 331 0002 83B0     		sub	sp, sp, #12
 332              		.cfi_def_cfa_offset 16
 333 0004 0190     		str	r0, [sp, #4]
 334 0006 0091     		str	r1, [sp]
 335              		.loc 5 136 0
 336 0008 009B     		ldr	r3, [sp]
 337 000a 03F00C03 		and	r3, r3, #12
 338 000e 002B     		cmp	r3, #0
 339 0010 02D0     		beq	.L12
 340              		.loc 5 137 0
 341 0012 3148     		ldr	r0, .L18
 342 0014 FFF7FEFF 		bl	osalSysHalt
 343              	.L12:
 344              		.loc 5 144 0
 345 0018 019B     		ldr	r3, [sp, #4]
 346 001a 5B6A     		ldr	r3, [r3, #36]
 347 001c 1B68     		ldr	r3, [r3]
 348 001e 019A     		ldr	r2, [sp, #4]
 349 0020 526A     		ldr	r2, [r2, #36]
 350 0022 1268     		ldr	r2, [r2]
 351 0024 1268     		ldr	r2, [r2]
 352 0026 22F01F02 		bic	r2, r2, #31
 353 002a 1A60     		str	r2, [r3]
 354 002c 00BF     		nop
 355              	.L13:
 356              		.loc 5 144 0 is_stmt 0 discriminator 2
 357 002e 019B     		ldr	r3, [sp, #4]
 358 0030 5B6A     		ldr	r3, [r3, #36]
 359 0032 1B68     		ldr	r3, [r3]
 360 0034 1B68     		ldr	r3, [r3]
 361 0036 03F00103 		and	r3, r3, #1
 362 003a 002B     		cmp	r3, #0
 363 003c F7D1     		bne	.L13
 364              		.loc 5 144 0 discriminator 3
 365 003e 019B     		ldr	r3, [sp, #4]
 366 0040 5B6A     		ldr	r3, [r3, #36]
 367 0042 5B68     		ldr	r3, [r3, #4]
 368 0044 019A     		ldr	r2, [sp, #4]
 369 0046 526A     		ldr	r2, [r2, #36]
 370 0048 127A     		ldrb	r2, [r2, #8]	@ zero_extendqisi2
 371 004a 1146     		mov	r1, r2
 372 004c 3D22     		movs	r2, #61
 373 004e 8A40     		lsls	r2, r2, r1
 374 0050 1A60     		str	r2, [r3]
 375              		.loc 5 145 0 is_stmt 1 discriminator 3
 376 0052 019B     		ldr	r3, [sp, #4]
 377 0054 1B6A     		ldr	r3, [r3, #32]
 378 0056 1B68     		ldr	r3, [r3]
 379 0058 019A     		ldr	r2, [sp, #4]
 380 005a 126A     		ldr	r2, [r2, #32]
 381 005c 1268     		ldr	r2, [r2]
 382 005e 1268     		ldr	r2, [r2]
 383 0060 22F01F02 		bic	r2, r2, #31
ARM GAS  /tmp/ccyaguM8.s 			page 8


 384 0064 1A60     		str	r2, [r3]
 385 0066 00BF     		nop
 386              	.L14:
 387              		.loc 5 145 0 is_stmt 0 discriminator 2
 388 0068 019B     		ldr	r3, [sp, #4]
 389 006a 1B6A     		ldr	r3, [r3, #32]
 390 006c 1B68     		ldr	r3, [r3]
 391 006e 1B68     		ldr	r3, [r3]
 392 0070 03F00103 		and	r3, r3, #1
 393 0074 002B     		cmp	r3, #0
 394 0076 F7D1     		bne	.L14
 395              		.loc 5 145 0 discriminator 3
 396 0078 019B     		ldr	r3, [sp, #4]
 397 007a 1B6A     		ldr	r3, [r3, #32]
 398 007c 5B68     		ldr	r3, [r3, #4]
 399 007e 019A     		ldr	r2, [sp, #4]
 400 0080 126A     		ldr	r2, [r2, #32]
 401 0082 127A     		ldrb	r2, [r2, #8]	@ zero_extendqisi2
 402 0084 1146     		mov	r1, r2
 403 0086 3D22     		movs	r2, #61
 404 0088 8A40     		lsls	r2, r2, r1
 405 008a 1A60     		str	r2, [r3]
 406              		.loc 5 149 0 is_stmt 1 discriminator 3
 407 008c 019B     		ldr	r3, [sp, #4]
 408 008e 5B68     		ldr	r3, [r3, #4]
 409 0090 1B68     		ldr	r3, [r3]
 410 0092 002B     		cmp	r3, #0
 411 0094 0FD0     		beq	.L15
 412              		.loc 5 149 0 is_stmt 0 discriminator 1
 413 0096 019B     		ldr	r3, [sp, #4]
 414 0098 0422     		movs	r2, #4
 415 009a 1A70     		strb	r2, [r3]
 416 009c 019B     		ldr	r3, [sp, #4]
 417 009e 5B68     		ldr	r3, [r3, #4]
 418 00a0 1B68     		ldr	r3, [r3]
 419 00a2 0198     		ldr	r0, [sp, #4]
 420 00a4 9847     		blx	r3
 421 00a6 019B     		ldr	r3, [sp, #4]
 422 00a8 1B78     		ldrb	r3, [r3]	@ zero_extendqisi2
 423 00aa 042B     		cmp	r3, #4
 424 00ac 06D1     		bne	.L17
 425              		.loc 5 149 0 discriminator 3
 426 00ae 019B     		ldr	r3, [sp, #4]
 427 00b0 0222     		movs	r2, #2
 428 00b2 1A70     		strb	r2, [r3]
 429 00b4 02E0     		b	.L17
 430              	.L15:
 431              		.loc 5 149 0 discriminator 2
 432 00b6 019B     		ldr	r3, [sp, #4]
 433 00b8 0222     		movs	r2, #2
 434 00ba 1A70     		strb	r2, [r3]
 435              	.L17:
 436              		.loc 5 149 0 discriminator 4
 437 00bc FFF7FEFF 		bl	osalSysLockFromISR
 438 00c0 019B     		ldr	r3, [sp, #4]
 439 00c2 0833     		adds	r3, r3, #8
 440 00c4 1846     		mov	r0, r3
ARM GAS  /tmp/ccyaguM8.s 			page 9


 441 00c6 0021     		movs	r1, #0
 442 00c8 FFF7FEFF 		bl	osalThreadResumeI
 443 00cc FFF7FEFF 		bl	osalSysUnlockFromISR
 444              		.loc 5 150 0 is_stmt 1 discriminator 4
 445 00d0 03B0     		add	sp, sp, #12
 446              		.cfi_def_cfa_offset 4
 447              		@ sp needed
 448 00d2 5DF804FB 		ldr	pc, [sp], #4
 449              	.L19:
 450 00d6 00BF     		.align	2
 451              	.L18:
 452 00d8 00000000 		.word	.LC0
 453              		.cfi_endproc
 454              	.LFE253:
 455              		.size	spi_lld_serve_rx_interrupt, .-spi_lld_serve_rx_interrupt
 456 00dc AFF30080 		.section	.text.spi_lld_serve_tx_interrupt,"ax",%progbits
 457              		.align	2
 458              		.p2align 4,,15
 459              		.thumb
 460              		.thumb_func
 461              		.type	spi_lld_serve_tx_interrupt, %function
 462              	spi_lld_serve_tx_interrupt:
 463              	.LFB254:
 464              		.loc 5 158 0
 465              		.cfi_startproc
 466              		@ args = 0, pretend = 0, frame = 8
 467              		@ frame_needed = 0, uses_anonymous_args = 0
 468 0000 00B5     		push	{lr}
 469              		.cfi_def_cfa_offset 4
 470              		.cfi_offset 14, -4
 471 0002 83B0     		sub	sp, sp, #12
 472              		.cfi_def_cfa_offset 16
 473 0004 0190     		str	r0, [sp, #4]
 474 0006 0091     		str	r1, [sp]
 475              		.loc 5 163 0
 476 0008 009B     		ldr	r3, [sp]
 477 000a 03F00C03 		and	r3, r3, #12
 478 000e 002B     		cmp	r3, #0
 479 0010 02D0     		beq	.L20
 480              		.loc 5 164 0
 481 0012 0348     		ldr	r0, .L22
 482 0014 FFF7FEFF 		bl	osalSysHalt
 483              	.L20:
 484              		.loc 5 170 0
 485 0018 03B0     		add	sp, sp, #12
 486              		.cfi_def_cfa_offset 4
 487              		@ sp needed
 488 001a 5DF804FB 		ldr	pc, [sp], #4
 489              	.L23:
 490 001e 00BF     		.align	2
 491              	.L22:
 492 0020 00000000 		.word	.LC0
 493              		.cfi_endproc
 494              	.LFE254:
 495              		.size	spi_lld_serve_tx_interrupt, .-spi_lld_serve_tx_interrupt
 496 0024 AFF30080 		.section	.text.spi_lld_init,"ax",%progbits
 496      AFF30080 
ARM GAS  /tmp/ccyaguM8.s 			page 10


 496      AFF30080 
 497              		.align	2
 498              		.p2align 4,,15
 499              		.global	spi_lld_init
 500              		.thumb
 501              		.thumb_func
 502              		.type	spi_lld_init, %function
 503              	spi_lld_init:
 504              	.LFB255:
 505              		.loc 5 185 0
 506              		.cfi_startproc
 507              		@ args = 0, pretend = 0, frame = 0
 508              		@ frame_needed = 0, uses_anonymous_args = 0
 509 0000 08B5     		push	{r3, lr}
 510              		.cfi_def_cfa_offset 8
 511              		.cfi_offset 3, -8
 512              		.cfi_offset 14, -4
 513              		.loc 5 187 0
 514 0002 0B4B     		ldr	r3, .L25
 515 0004 4FF6FF72 		movw	r2, #65535
 516 0008 1A80     		strh	r2, [r3]	@ movhi
 517              		.loc 5 208 0
 518 000a 0A48     		ldr	r0, .L25+4
 519 000c FFF7FEFF 		bl	spiObjectInit
 520              		.loc 5 209 0
 521 0010 084B     		ldr	r3, .L25+4
 522 0012 094A     		ldr	r2, .L25+8
 523 0014 DA61     		str	r2, [r3, #28]
 524              		.loc 5 210 0
 525 0016 074B     		ldr	r3, .L25+4
 526 0018 084A     		ldr	r2, .L25+12
 527 001a 1A62     		str	r2, [r3, #32]
 528              		.loc 5 211 0
 529 001c 054B     		ldr	r3, .L25+4
 530 001e 084A     		ldr	r2, .L25+16
 531 0020 5A62     		str	r2, [r3, #36]
 532              		.loc 5 212 0
 533 0022 044B     		ldr	r3, .L25+4
 534 0024 074A     		ldr	r2, .L25+20
 535 0026 9A62     		str	r2, [r3, #40]
 536              		.loc 5 218 0
 537 0028 024B     		ldr	r3, .L25+4
 538 002a 074A     		ldr	r2, .L25+24
 539 002c DA62     		str	r2, [r3, #44]
 540              		.loc 5 296 0
 541 002e 08BD     		pop	{r3, pc}
 542              	.L26:
 543              		.align	2
 544              	.L25:
 545 0030 00000000 		.word	dummytx
 546 0034 00000000 		.word	SPID2
 547 0038 00380040 		.word	1073756160
 548 003c 24000000 		.word	_stm32_dma_streams+36
 549 0040 30000000 		.word	_stm32_dma_streams+48
 550 0044 16000100 		.word	65558
 551 0048 46000100 		.word	65606
 552              		.cfi_endproc
ARM GAS  /tmp/ccyaguM8.s 			page 11


 553              	.LFE255:
 554              		.size	spi_lld_init, .-spi_lld_init
 555 004c AFF30080 		.section	.text.spi_lld_start,"ax",%progbits
 556              		.align	2
 557              		.p2align 4,,15
 558              		.global	spi_lld_start
 559              		.thumb
 560              		.thumb_func
 561              		.type	spi_lld_start, %function
 562              	spi_lld_start:
 563              	.LFB256:
 564              		.loc 5 305 0
 565              		.cfi_startproc
 566              		@ args = 0, pretend = 0, frame = 16
 567              		@ frame_needed = 0, uses_anonymous_args = 0
 568 0000 00B5     		push	{lr}
 569              		.cfi_def_cfa_offset 4
 570              		.cfi_offset 14, -4
 571 0002 85B0     		sub	sp, sp, #20
 572              		.cfi_def_cfa_offset 24
 573 0004 0190     		str	r0, [sp, #4]
 574              		.loc 5 308 0
 575 0006 019B     		ldr	r3, [sp, #4]
 576 0008 1B78     		ldrb	r3, [r3]	@ zero_extendqisi2
 577 000a 012B     		cmp	r3, #1
 578 000c 2DD1     		bne	.L28
 579              		.loc 5 326 0
 580 000e 019B     		ldr	r3, [sp, #4]
 581 0010 364A     		ldr	r2, .L32
 582 0012 9342     		cmp	r3, r2
 583 0014 1BD1     		bne	.L29
 584              	.LBB10:
 585              		.loc 5 328 0
 586 0016 019B     		ldr	r3, [sp, #4]
 587 0018 1B6A     		ldr	r3, [r3, #32]
 588 001a 1846     		mov	r0, r3
 589 001c 0A21     		movs	r1, #10
 590 001e 344A     		ldr	r2, .L32+4
 591 0020 019B     		ldr	r3, [sp, #4]
 592 0022 FFF7FEFF 		bl	dmaStreamAllocate
 593 0026 0346     		mov	r3, r0
 594 0028 8DF80F30 		strb	r3, [sp, #15]
 595              		.loc 5 333 0
 596 002c 019B     		ldr	r3, [sp, #4]
 597 002e 5B6A     		ldr	r3, [r3, #36]
 598 0030 1846     		mov	r0, r3
 599 0032 0A21     		movs	r1, #10
 600 0034 2F4A     		ldr	r2, .L32+8
 601 0036 019B     		ldr	r3, [sp, #4]
 602 0038 FFF7FEFF 		bl	dmaStreamAllocate
 603 003c 0346     		mov	r3, r0
 604 003e 8DF80F30 		strb	r3, [sp, #15]
 605              		.loc 5 338 0
 606 0042 2D4A     		ldr	r2, .L32+12
 607 0044 2C4B     		ldr	r3, .L32+12
 608 0046 1B6C     		ldr	r3, [r3, #64]
 609 0048 43F48043 		orr	r3, r3, #16384
ARM GAS  /tmp/ccyaguM8.s 			page 12


 610 004c 1364     		str	r3, [r2, #64]
 611              	.L29:
 612              	.LBE10:
 613              		.loc 5 407 0
 614 004e 019B     		ldr	r3, [sp, #4]
 615 0050 1B6A     		ldr	r3, [r3, #32]
 616 0052 1B68     		ldr	r3, [r3]
 617 0054 019A     		ldr	r2, [sp, #4]
 618 0056 D269     		ldr	r2, [r2, #28]
 619 0058 0C32     		adds	r2, r2, #12
 620 005a 9A60     		str	r2, [r3, #8]
 621              		.loc 5 408 0
 622 005c 019B     		ldr	r3, [sp, #4]
 623 005e 5B6A     		ldr	r3, [r3, #36]
 624 0060 1B68     		ldr	r3, [r3]
 625 0062 019A     		ldr	r2, [sp, #4]
 626 0064 D269     		ldr	r2, [r2, #28]
 627 0066 0C32     		adds	r2, r2, #12
 628 0068 9A60     		str	r2, [r3, #8]
 629              	.L28:
 630              		.loc 5 412 0
 631 006a 019B     		ldr	r3, [sp, #4]
 632 006c 5B68     		ldr	r3, [r3, #4]
 633 006e 5B89     		ldrh	r3, [r3, #10]
 634 0070 03F40063 		and	r3, r3, #2048
 635 0074 002B     		cmp	r3, #0
 636 0076 0CD1     		bne	.L30
 637              		.loc 5 414 0
 638 0078 019B     		ldr	r3, [sp, #4]
 639 007a 9B6A     		ldr	r3, [r3, #40]
 640              		.loc 5 415 0
 641 007c 23F4F042 		bic	r2, r3, #30720
 642              		.loc 5 414 0
 643 0080 019B     		ldr	r3, [sp, #4]
 644 0082 9A62     		str	r2, [r3, #40]
 645              		.loc 5 416 0
 646 0084 019B     		ldr	r3, [sp, #4]
 647 0086 DB6A     		ldr	r3, [r3, #44]
 648              		.loc 5 417 0
 649 0088 23F4F042 		bic	r2, r3, #30720
 650              		.loc 5 416 0
 651 008c 019B     		ldr	r3, [sp, #4]
 652 008e DA62     		str	r2, [r3, #44]
 653 0090 0FE0     		b	.L31
 654              	.L30:
 655              		.loc 5 421 0
 656 0092 019B     		ldr	r3, [sp, #4]
 657 0094 9B6A     		ldr	r3, [r3, #40]
 658 0096 23F4F043 		bic	r3, r3, #30720
 659              		.loc 5 422 0
 660 009a 43F42052 		orr	r2, r3, #10240
 661              		.loc 5 421 0
 662 009e 019B     		ldr	r3, [sp, #4]
 663 00a0 9A62     		str	r2, [r3, #40]
 664              		.loc 5 423 0
 665 00a2 019B     		ldr	r3, [sp, #4]
 666 00a4 DB6A     		ldr	r3, [r3, #44]
ARM GAS  /tmp/ccyaguM8.s 			page 13


 667 00a6 23F4F043 		bic	r3, r3, #30720
 668              		.loc 5 424 0
 669 00aa 43F42052 		orr	r2, r3, #10240
 670              		.loc 5 423 0
 671 00ae 019B     		ldr	r3, [sp, #4]
 672 00b0 DA62     		str	r2, [r3, #44]
 673              	.L31:
 674              		.loc 5 427 0
 675 00b2 019B     		ldr	r3, [sp, #4]
 676 00b4 DB69     		ldr	r3, [r3, #28]
 677 00b6 0022     		movs	r2, #0
 678 00b8 1A60     		str	r2, [r3]
 679              		.loc 5 428 0
 680 00ba 019B     		ldr	r3, [sp, #4]
 681 00bc DB69     		ldr	r3, [r3, #28]
 682 00be 019A     		ldr	r2, [sp, #4]
 683 00c0 5268     		ldr	r2, [r2, #4]
 684 00c2 5289     		ldrh	r2, [r2, #10]
 685 00c4 42F44172 		orr	r2, r2, #772
 686 00c8 92B2     		uxth	r2, r2
 687 00ca 1A60     		str	r2, [r3]
 688              		.loc 5 430 0
 689 00cc 019B     		ldr	r3, [sp, #4]
 690 00ce DB69     		ldr	r3, [r3, #28]
 691 00d0 0722     		movs	r2, #7
 692 00d2 5A60     		str	r2, [r3, #4]
 693              		.loc 5 431 0
 694 00d4 019B     		ldr	r3, [sp, #4]
 695 00d6 DB69     		ldr	r3, [r3, #28]
 696 00d8 019A     		ldr	r2, [sp, #4]
 697 00da D269     		ldr	r2, [r2, #28]
 698 00dc 1268     		ldr	r2, [r2]
 699 00de 42F04002 		orr	r2, r2, #64
 700 00e2 1A60     		str	r2, [r3]
 701              		.loc 5 432 0
 702 00e4 05B0     		add	sp, sp, #20
 703              		.cfi_def_cfa_offset 4
 704              		@ sp needed
 705 00e6 5DF804FB 		ldr	pc, [sp], #4
 706              	.L33:
 707 00ea 00BF     		.align	2
 708              	.L32:
 709 00ec 00000000 		.word	SPID2
 710 00f0 00000000 		.word	spi_lld_serve_rx_interrupt
 711 00f4 00000000 		.word	spi_lld_serve_tx_interrupt
 712 00f8 00380240 		.word	1073887232
 713              		.cfi_endproc
 714              	.LFE256:
 715              		.size	spi_lld_start, .-spi_lld_start
 716 00fc AFF30080 		.section	.text.spi_lld_stop,"ax",%progbits
 717              		.align	2
 718              		.p2align 4,,15
 719              		.global	spi_lld_stop
 720              		.thumb
 721              		.thumb_func
 722              		.type	spi_lld_stop, %function
 723              	spi_lld_stop:
ARM GAS  /tmp/ccyaguM8.s 			page 14


 724              	.LFB257:
 725              		.loc 5 441 0
 726              		.cfi_startproc
 727              		@ args = 0, pretend = 0, frame = 8
 728              		@ frame_needed = 0, uses_anonymous_args = 0
 729 0000 00B5     		push	{lr}
 730              		.cfi_def_cfa_offset 4
 731              		.cfi_offset 14, -4
 732 0002 83B0     		sub	sp, sp, #12
 733              		.cfi_def_cfa_offset 16
 734 0004 0190     		str	r0, [sp, #4]
 735              		.loc 5 444 0
 736 0006 019B     		ldr	r3, [sp, #4]
 737 0008 1B78     		ldrb	r3, [r3]	@ zero_extendqisi2
 738 000a 022B     		cmp	r3, #2
 739 000c 1BD1     		bne	.L34
 740              		.loc 5 447 0
 741 000e 019B     		ldr	r3, [sp, #4]
 742 0010 DB69     		ldr	r3, [r3, #28]
 743 0012 0022     		movs	r2, #0
 744 0014 1A60     		str	r2, [r3]
 745              		.loc 5 448 0
 746 0016 019B     		ldr	r3, [sp, #4]
 747 0018 DB69     		ldr	r3, [r3, #28]
 748 001a 0022     		movs	r2, #0
 749 001c 5A60     		str	r2, [r3, #4]
 750              		.loc 5 449 0
 751 001e 019B     		ldr	r3, [sp, #4]
 752 0020 1B6A     		ldr	r3, [r3, #32]
 753 0022 1846     		mov	r0, r3
 754 0024 FFF7FEFF 		bl	dmaStreamRelease
 755              		.loc 5 450 0
 756 0028 019B     		ldr	r3, [sp, #4]
 757 002a 5B6A     		ldr	r3, [r3, #36]
 758 002c 1846     		mov	r0, r3
 759 002e FFF7FEFF 		bl	dmaStreamRelease
 760              		.loc 5 457 0
 761 0032 019B     		ldr	r3, [sp, #4]
 762 0034 054A     		ldr	r2, .L36
 763 0036 9342     		cmp	r3, r2
 764 0038 05D1     		bne	.L34
 765              		.loc 5 458 0
 766 003a 054A     		ldr	r2, .L36+4
 767 003c 044B     		ldr	r3, .L36+4
 768 003e 1B6C     		ldr	r3, [r3, #64]
 769 0040 23F48043 		bic	r3, r3, #16384
 770 0044 1364     		str	r3, [r2, #64]
 771              	.L34:
 772              		.loc 5 477 0
 773 0046 03B0     		add	sp, sp, #12
 774              		.cfi_def_cfa_offset 4
 775              		@ sp needed
 776 0048 5DF804FB 		ldr	pc, [sp], #4
 777              	.L37:
 778              		.align	2
 779              	.L36:
 780 004c 00000000 		.word	SPID2
ARM GAS  /tmp/ccyaguM8.s 			page 15


 781 0050 00380240 		.word	1073887232
 782              		.cfi_endproc
 783              	.LFE257:
 784              		.size	spi_lld_stop, .-spi_lld_stop
 785 0054 AFF30080 		.section	.text.spi_lld_select,"ax",%progbits
 785      AFF30080 
 785      AFF30080 
 786              		.align	2
 787              		.p2align 4,,15
 788              		.global	spi_lld_select
 789              		.thumb
 790              		.thumb_func
 791              		.type	spi_lld_select, %function
 792              	spi_lld_select:
 793              	.LFB258:
 794              		.loc 5 486 0
 795              		.cfi_startproc
 796              		@ args = 0, pretend = 0, frame = 8
 797              		@ frame_needed = 0, uses_anonymous_args = 0
 798              		@ link register save eliminated.
 799 0000 82B0     		sub	sp, sp, #8
 800              		.cfi_def_cfa_offset 8
 801 0002 0190     		str	r0, [sp, #4]
 802              		.loc 5 488 0
 803 0004 019B     		ldr	r3, [sp, #4]
 804 0006 5B68     		ldr	r3, [r3, #4]
 805 0008 5B68     		ldr	r3, [r3, #4]
 806 000a 019A     		ldr	r2, [sp, #4]
 807 000c 5268     		ldr	r2, [r2, #4]
 808 000e 1289     		ldrh	r2, [r2, #8]
 809 0010 1146     		mov	r1, r2
 810 0012 0122     		movs	r2, #1
 811 0014 8A40     		lsls	r2, r2, r1
 812 0016 92B2     		uxth	r2, r2
 813 0018 5A83     		strh	r2, [r3, #26]	@ movhi
 814              		.loc 5 489 0
 815 001a 02B0     		add	sp, sp, #8
 816              		.cfi_def_cfa_offset 0
 817              		@ sp needed
 818 001c 7047     		bx	lr
 819              		.cfi_endproc
 820              	.LFE258:
 821              		.size	spi_lld_select, .-spi_lld_select
 822 001e 00BF     		.section	.text.spi_lld_unselect,"ax",%progbits
 823              		.align	2
 824              		.p2align 4,,15
 825              		.global	spi_lld_unselect
 826              		.thumb
 827              		.thumb_func
 828              		.type	spi_lld_unselect, %function
 829              	spi_lld_unselect:
 830              	.LFB259:
 831              		.loc 5 499 0
 832              		.cfi_startproc
 833              		@ args = 0, pretend = 0, frame = 8
 834              		@ frame_needed = 0, uses_anonymous_args = 0
 835              		@ link register save eliminated.
ARM GAS  /tmp/ccyaguM8.s 			page 16


 836 0000 82B0     		sub	sp, sp, #8
 837              		.cfi_def_cfa_offset 8
 838 0002 0190     		str	r0, [sp, #4]
 839              		.loc 5 501 0
 840 0004 019B     		ldr	r3, [sp, #4]
 841 0006 5B68     		ldr	r3, [r3, #4]
 842 0008 5B68     		ldr	r3, [r3, #4]
 843 000a 019A     		ldr	r2, [sp, #4]
 844 000c 5268     		ldr	r2, [r2, #4]
 845 000e 1289     		ldrh	r2, [r2, #8]
 846 0010 1146     		mov	r1, r2
 847 0012 0122     		movs	r2, #1
 848 0014 8A40     		lsls	r2, r2, r1
 849 0016 92B2     		uxth	r2, r2
 850 0018 1A83     		strh	r2, [r3, #24]	@ movhi
 851              		.loc 5 502 0
 852 001a 02B0     		add	sp, sp, #8
 853              		.cfi_def_cfa_offset 0
 854              		@ sp needed
 855 001c 7047     		bx	lr
 856              		.cfi_endproc
 857              	.LFE259:
 858              		.size	spi_lld_unselect, .-spi_lld_unselect
 859 001e 00BF     		.section	.text.spi_lld_ignore,"ax",%progbits
 860              		.align	2
 861              		.p2align 4,,15
 862              		.global	spi_lld_ignore
 863              		.thumb
 864              		.thumb_func
 865              		.type	spi_lld_ignore, %function
 866              	spi_lld_ignore:
 867              	.LFB260:
 868              		.loc 5 515 0
 869              		.cfi_startproc
 870              		@ args = 0, pretend = 0, frame = 8
 871              		@ frame_needed = 0, uses_anonymous_args = 0
 872              		@ link register save eliminated.
 873 0000 82B0     		sub	sp, sp, #8
 874              		.cfi_def_cfa_offset 8
 875 0002 0190     		str	r0, [sp, #4]
 876 0004 0091     		str	r1, [sp]
 877              		.loc 5 517 0
 878 0006 019B     		ldr	r3, [sp, #4]
 879 0008 1B6A     		ldr	r3, [r3, #32]
 880 000a 1B68     		ldr	r3, [r3]
 881 000c 194A     		ldr	r2, .L41
 882 000e DA60     		str	r2, [r3, #12]
 883              		.loc 5 518 0
 884 0010 019B     		ldr	r3, [sp, #4]
 885 0012 1B6A     		ldr	r3, [r3, #32]
 886 0014 1B68     		ldr	r3, [r3]
 887 0016 009A     		ldr	r2, [sp]
 888 0018 5A60     		str	r2, [r3, #4]
 889              		.loc 5 519 0
 890 001a 019B     		ldr	r3, [sp, #4]
 891 001c 1B6A     		ldr	r3, [r3, #32]
 892 001e 1B68     		ldr	r3, [r3]
ARM GAS  /tmp/ccyaguM8.s 			page 17


 893 0020 019A     		ldr	r2, [sp, #4]
 894 0022 926A     		ldr	r2, [r2, #40]
 895 0024 1A60     		str	r2, [r3]
 896              		.loc 5 521 0
 897 0026 019B     		ldr	r3, [sp, #4]
 898 0028 5B6A     		ldr	r3, [r3, #36]
 899 002a 1B68     		ldr	r3, [r3]
 900 002c 124A     		ldr	r2, .L41+4
 901 002e DA60     		str	r2, [r3, #12]
 902              		.loc 5 522 0
 903 0030 019B     		ldr	r3, [sp, #4]
 904 0032 5B6A     		ldr	r3, [r3, #36]
 905 0034 1B68     		ldr	r3, [r3]
 906 0036 009A     		ldr	r2, [sp]
 907 0038 5A60     		str	r2, [r3, #4]
 908              		.loc 5 523 0
 909 003a 019B     		ldr	r3, [sp, #4]
 910 003c 5B6A     		ldr	r3, [r3, #36]
 911 003e 1B68     		ldr	r3, [r3]
 912 0040 019A     		ldr	r2, [sp, #4]
 913 0042 D26A     		ldr	r2, [r2, #44]
 914 0044 1A60     		str	r2, [r3]
 915              		.loc 5 525 0
 916 0046 019B     		ldr	r3, [sp, #4]
 917 0048 1B6A     		ldr	r3, [r3, #32]
 918 004a 1B68     		ldr	r3, [r3]
 919 004c 019A     		ldr	r2, [sp, #4]
 920 004e 126A     		ldr	r2, [r2, #32]
 921 0050 1268     		ldr	r2, [r2]
 922 0052 1268     		ldr	r2, [r2]
 923 0054 42F00102 		orr	r2, r2, #1
 924 0058 1A60     		str	r2, [r3]
 925              		.loc 5 526 0
 926 005a 019B     		ldr	r3, [sp, #4]
 927 005c 5B6A     		ldr	r3, [r3, #36]
 928 005e 1B68     		ldr	r3, [r3]
 929 0060 019A     		ldr	r2, [sp, #4]
 930 0062 526A     		ldr	r2, [r2, #36]
 931 0064 1268     		ldr	r2, [r2]
 932 0066 1268     		ldr	r2, [r2]
 933 0068 42F00102 		orr	r2, r2, #1
 934 006c 1A60     		str	r2, [r3]
 935              		.loc 5 527 0
 936 006e 02B0     		add	sp, sp, #8
 937              		.cfi_def_cfa_offset 0
 938              		@ sp needed
 939 0070 7047     		bx	lr
 940              	.L42:
 941 0072 00BF     		.align	2
 942              	.L41:
 943 0074 00000000 		.word	dummyrx
 944 0078 00000000 		.word	dummytx
 945              		.cfi_endproc
 946              	.LFE260:
 947              		.size	spi_lld_ignore, .-spi_lld_ignore
 948 007c AFF30080 		.section	.text.spi_lld_exchange,"ax",%progbits
 949              		.align	2
ARM GAS  /tmp/ccyaguM8.s 			page 18


 950              		.p2align 4,,15
 951              		.global	spi_lld_exchange
 952              		.thumb
 953              		.thumb_func
 954              		.type	spi_lld_exchange, %function
 955              	spi_lld_exchange:
 956              	.LFB261:
 957              		.loc 5 545 0
 958              		.cfi_startproc
 959              		@ args = 0, pretend = 0, frame = 16
 960              		@ frame_needed = 0, uses_anonymous_args = 0
 961              		@ link register save eliminated.
 962 0000 84B0     		sub	sp, sp, #16
 963              		.cfi_def_cfa_offset 16
 964 0002 0390     		str	r0, [sp, #12]
 965 0004 0291     		str	r1, [sp, #8]
 966 0006 0192     		str	r2, [sp, #4]
 967 0008 0093     		str	r3, [sp]
 968              		.loc 5 547 0
 969 000a 039B     		ldr	r3, [sp, #12]
 970 000c 1B6A     		ldr	r3, [r3, #32]
 971 000e 1B68     		ldr	r3, [r3]
 972 0010 009A     		ldr	r2, [sp]
 973 0012 DA60     		str	r2, [r3, #12]
 974              		.loc 5 548 0
 975 0014 039B     		ldr	r3, [sp, #12]
 976 0016 1B6A     		ldr	r3, [r3, #32]
 977 0018 1B68     		ldr	r3, [r3]
 978 001a 029A     		ldr	r2, [sp, #8]
 979 001c 5A60     		str	r2, [r3, #4]
 980              		.loc 5 549 0
 981 001e 039B     		ldr	r3, [sp, #12]
 982 0020 1B6A     		ldr	r3, [r3, #32]
 983 0022 1B68     		ldr	r3, [r3]
 984 0024 039A     		ldr	r2, [sp, #12]
 985 0026 926A     		ldr	r2, [r2, #40]
 986 0028 42F48062 		orr	r2, r2, #1024
 987 002c 1A60     		str	r2, [r3]
 988              		.loc 5 551 0
 989 002e 039B     		ldr	r3, [sp, #12]
 990 0030 5B6A     		ldr	r3, [r3, #36]
 991 0032 1B68     		ldr	r3, [r3]
 992 0034 019A     		ldr	r2, [sp, #4]
 993 0036 DA60     		str	r2, [r3, #12]
 994              		.loc 5 552 0
 995 0038 039B     		ldr	r3, [sp, #12]
 996 003a 5B6A     		ldr	r3, [r3, #36]
 997 003c 1B68     		ldr	r3, [r3]
 998 003e 029A     		ldr	r2, [sp, #8]
 999 0040 5A60     		str	r2, [r3, #4]
 1000              		.loc 5 553 0
 1001 0042 039B     		ldr	r3, [sp, #12]
 1002 0044 5B6A     		ldr	r3, [r3, #36]
 1003 0046 1B68     		ldr	r3, [r3]
 1004 0048 039A     		ldr	r2, [sp, #12]
 1005 004a D26A     		ldr	r2, [r2, #44]
 1006 004c 42F48062 		orr	r2, r2, #1024
ARM GAS  /tmp/ccyaguM8.s 			page 19


 1007 0050 1A60     		str	r2, [r3]
 1008              		.loc 5 555 0
 1009 0052 039B     		ldr	r3, [sp, #12]
 1010 0054 1B6A     		ldr	r3, [r3, #32]
 1011 0056 1B68     		ldr	r3, [r3]
 1012 0058 039A     		ldr	r2, [sp, #12]
 1013 005a 126A     		ldr	r2, [r2, #32]
 1014 005c 1268     		ldr	r2, [r2]
 1015 005e 1268     		ldr	r2, [r2]
 1016 0060 42F00102 		orr	r2, r2, #1
 1017 0064 1A60     		str	r2, [r3]
 1018              		.loc 5 556 0
 1019 0066 039B     		ldr	r3, [sp, #12]
 1020 0068 5B6A     		ldr	r3, [r3, #36]
 1021 006a 1B68     		ldr	r3, [r3]
 1022 006c 039A     		ldr	r2, [sp, #12]
 1023 006e 526A     		ldr	r2, [r2, #36]
 1024 0070 1268     		ldr	r2, [r2]
 1025 0072 1268     		ldr	r2, [r2]
 1026 0074 42F00102 		orr	r2, r2, #1
 1027 0078 1A60     		str	r2, [r3]
 1028              		.loc 5 557 0
 1029 007a 04B0     		add	sp, sp, #16
 1030              		.cfi_def_cfa_offset 0
 1031              		@ sp needed
 1032 007c 7047     		bx	lr
 1033              		.cfi_endproc
 1034              	.LFE261:
 1035              		.size	spi_lld_exchange, .-spi_lld_exchange
 1036 007e 00BF     		.section	.text.spi_lld_send,"ax",%progbits
 1037              		.align	2
 1038              		.p2align 4,,15
 1039              		.global	spi_lld_send
 1040              		.thumb
 1041              		.thumb_func
 1042              		.type	spi_lld_send, %function
 1043              	spi_lld_send:
 1044              	.LFB262:
 1045              		.loc 5 572 0
 1046              		.cfi_startproc
 1047              		@ args = 0, pretend = 0, frame = 16
 1048              		@ frame_needed = 0, uses_anonymous_args = 0
 1049              		@ link register save eliminated.
 1050 0000 84B0     		sub	sp, sp, #16
 1051              		.cfi_def_cfa_offset 16
 1052 0002 0390     		str	r0, [sp, #12]
 1053 0004 0291     		str	r1, [sp, #8]
 1054 0006 0192     		str	r2, [sp, #4]
 1055              		.loc 5 574 0
 1056 0008 039B     		ldr	r3, [sp, #12]
 1057 000a 1B6A     		ldr	r3, [r3, #32]
 1058 000c 1B68     		ldr	r3, [r3]
 1059 000e 1A4A     		ldr	r2, .L45
 1060 0010 DA60     		str	r2, [r3, #12]
 1061              		.loc 5 575 0
 1062 0012 039B     		ldr	r3, [sp, #12]
 1063 0014 1B6A     		ldr	r3, [r3, #32]
ARM GAS  /tmp/ccyaguM8.s 			page 20


 1064 0016 1B68     		ldr	r3, [r3]
 1065 0018 029A     		ldr	r2, [sp, #8]
 1066 001a 5A60     		str	r2, [r3, #4]
 1067              		.loc 5 576 0
 1068 001c 039B     		ldr	r3, [sp, #12]
 1069 001e 1B6A     		ldr	r3, [r3, #32]
 1070 0020 1B68     		ldr	r3, [r3]
 1071 0022 039A     		ldr	r2, [sp, #12]
 1072 0024 926A     		ldr	r2, [r2, #40]
 1073 0026 1A60     		str	r2, [r3]
 1074              		.loc 5 578 0
 1075 0028 039B     		ldr	r3, [sp, #12]
 1076 002a 5B6A     		ldr	r3, [r3, #36]
 1077 002c 1B68     		ldr	r3, [r3]
 1078 002e 019A     		ldr	r2, [sp, #4]
 1079 0030 DA60     		str	r2, [r3, #12]
 1080              		.loc 5 579 0
 1081 0032 039B     		ldr	r3, [sp, #12]
 1082 0034 5B6A     		ldr	r3, [r3, #36]
 1083 0036 1B68     		ldr	r3, [r3]
 1084 0038 029A     		ldr	r2, [sp, #8]
 1085 003a 5A60     		str	r2, [r3, #4]
 1086              		.loc 5 580 0
 1087 003c 039B     		ldr	r3, [sp, #12]
 1088 003e 5B6A     		ldr	r3, [r3, #36]
 1089 0040 1B68     		ldr	r3, [r3]
 1090 0042 039A     		ldr	r2, [sp, #12]
 1091 0044 D26A     		ldr	r2, [r2, #44]
 1092 0046 42F48062 		orr	r2, r2, #1024
 1093 004a 1A60     		str	r2, [r3]
 1094              		.loc 5 582 0
 1095 004c 039B     		ldr	r3, [sp, #12]
 1096 004e 1B6A     		ldr	r3, [r3, #32]
 1097 0050 1B68     		ldr	r3, [r3]
 1098 0052 039A     		ldr	r2, [sp, #12]
 1099 0054 126A     		ldr	r2, [r2, #32]
 1100 0056 1268     		ldr	r2, [r2]
 1101 0058 1268     		ldr	r2, [r2]
 1102 005a 42F00102 		orr	r2, r2, #1
 1103 005e 1A60     		str	r2, [r3]
 1104              		.loc 5 583 0
 1105 0060 039B     		ldr	r3, [sp, #12]
 1106 0062 5B6A     		ldr	r3, [r3, #36]
 1107 0064 1B68     		ldr	r3, [r3]
 1108 0066 039A     		ldr	r2, [sp, #12]
 1109 0068 526A     		ldr	r2, [r2, #36]
 1110 006a 1268     		ldr	r2, [r2]
 1111 006c 1268     		ldr	r2, [r2]
 1112 006e 42F00102 		orr	r2, r2, #1
 1113 0072 1A60     		str	r2, [r3]
 1114              		.loc 5 584 0
 1115 0074 04B0     		add	sp, sp, #16
 1116              		.cfi_def_cfa_offset 0
 1117              		@ sp needed
 1118 0076 7047     		bx	lr
 1119              	.L46:
 1120              		.align	2
ARM GAS  /tmp/ccyaguM8.s 			page 21


 1121              	.L45:
 1122 0078 00000000 		.word	dummyrx
 1123              		.cfi_endproc
 1124              	.LFE262:
 1125              		.size	spi_lld_send, .-spi_lld_send
 1126 007c AFF30080 		.section	.text.spi_lld_receive,"ax",%progbits
 1127              		.align	2
 1128              		.p2align 4,,15
 1129              		.global	spi_lld_receive
 1130              		.thumb
 1131              		.thumb_func
 1132              		.type	spi_lld_receive, %function
 1133              	spi_lld_receive:
 1134              	.LFB263:
 1135              		.loc 5 599 0
 1136              		.cfi_startproc
 1137              		@ args = 0, pretend = 0, frame = 16
 1138              		@ frame_needed = 0, uses_anonymous_args = 0
 1139              		@ link register save eliminated.
 1140 0000 84B0     		sub	sp, sp, #16
 1141              		.cfi_def_cfa_offset 16
 1142 0002 0390     		str	r0, [sp, #12]
 1143 0004 0291     		str	r1, [sp, #8]
 1144 0006 0192     		str	r2, [sp, #4]
 1145              		.loc 5 601 0
 1146 0008 039B     		ldr	r3, [sp, #12]
 1147 000a 1B6A     		ldr	r3, [r3, #32]
 1148 000c 1B68     		ldr	r3, [r3]
 1149 000e 019A     		ldr	r2, [sp, #4]
 1150 0010 DA60     		str	r2, [r3, #12]
 1151              		.loc 5 602 0
 1152 0012 039B     		ldr	r3, [sp, #12]
 1153 0014 1B6A     		ldr	r3, [r3, #32]
 1154 0016 1B68     		ldr	r3, [r3]
 1155 0018 029A     		ldr	r2, [sp, #8]
 1156 001a 5A60     		str	r2, [r3, #4]
 1157              		.loc 5 603 0
 1158 001c 039B     		ldr	r3, [sp, #12]
 1159 001e 1B6A     		ldr	r3, [r3, #32]
 1160 0020 1B68     		ldr	r3, [r3]
 1161 0022 039A     		ldr	r2, [sp, #12]
 1162 0024 926A     		ldr	r2, [r2, #40]
 1163 0026 42F48062 		orr	r2, r2, #1024
 1164 002a 1A60     		str	r2, [r3]
 1165              		.loc 5 605 0
 1166 002c 039B     		ldr	r3, [sp, #12]
 1167 002e 5B6A     		ldr	r3, [r3, #36]
 1168 0030 1B68     		ldr	r3, [r3]
 1169 0032 114A     		ldr	r2, .L48
 1170 0034 DA60     		str	r2, [r3, #12]
 1171              		.loc 5 606 0
 1172 0036 039B     		ldr	r3, [sp, #12]
 1173 0038 5B6A     		ldr	r3, [r3, #36]
 1174 003a 1B68     		ldr	r3, [r3]
 1175 003c 029A     		ldr	r2, [sp, #8]
 1176 003e 5A60     		str	r2, [r3, #4]
 1177              		.loc 5 607 0
ARM GAS  /tmp/ccyaguM8.s 			page 22


 1178 0040 039B     		ldr	r3, [sp, #12]
 1179 0042 5B6A     		ldr	r3, [r3, #36]
 1180 0044 1B68     		ldr	r3, [r3]
 1181 0046 039A     		ldr	r2, [sp, #12]
 1182 0048 D26A     		ldr	r2, [r2, #44]
 1183 004a 1A60     		str	r2, [r3]
 1184              		.loc 5 609 0
 1185 004c 039B     		ldr	r3, [sp, #12]
 1186 004e 1B6A     		ldr	r3, [r3, #32]
 1187 0050 1B68     		ldr	r3, [r3]
 1188 0052 039A     		ldr	r2, [sp, #12]
 1189 0054 126A     		ldr	r2, [r2, #32]
 1190 0056 1268     		ldr	r2, [r2]
 1191 0058 1268     		ldr	r2, [r2]
 1192 005a 42F00102 		orr	r2, r2, #1
 1193 005e 1A60     		str	r2, [r3]
 1194              		.loc 5 610 0
 1195 0060 039B     		ldr	r3, [sp, #12]
 1196 0062 5B6A     		ldr	r3, [r3, #36]
 1197 0064 1B68     		ldr	r3, [r3]
 1198 0066 039A     		ldr	r2, [sp, #12]
 1199 0068 526A     		ldr	r2, [r2, #36]
 1200 006a 1268     		ldr	r2, [r2]
 1201 006c 1268     		ldr	r2, [r2]
 1202 006e 42F00102 		orr	r2, r2, #1
 1203 0072 1A60     		str	r2, [r3]
 1204              		.loc 5 611 0
 1205 0074 04B0     		add	sp, sp, #16
 1206              		.cfi_def_cfa_offset 0
 1207              		@ sp needed
 1208 0076 7047     		bx	lr
 1209              	.L49:
 1210              		.align	2
 1211              	.L48:
 1212 0078 00000000 		.word	dummytx
 1213              		.cfi_endproc
 1214              	.LFE263:
 1215              		.size	spi_lld_receive, .-spi_lld_receive
 1216 007c AFF30080 		.section	.text.spi_lld_polled_exchange,"ax",%progbits
 1217              		.align	2
 1218              		.p2align 4,,15
 1219              		.global	spi_lld_polled_exchange
 1220              		.thumb
 1221              		.thumb_func
 1222              		.type	spi_lld_polled_exchange, %function
 1223              	spi_lld_polled_exchange:
 1224              	.LFB264:
 1225              		.loc 5 625 0
 1226              		.cfi_startproc
 1227              		@ args = 0, pretend = 0, frame = 8
 1228              		@ frame_needed = 0, uses_anonymous_args = 0
 1229              		@ link register save eliminated.
 1230 0000 82B0     		sub	sp, sp, #8
 1231              		.cfi_def_cfa_offset 8
 1232 0002 0190     		str	r0, [sp, #4]
 1233 0004 0B46     		mov	r3, r1
 1234 0006 ADF80230 		strh	r3, [sp, #2]	@ movhi
ARM GAS  /tmp/ccyaguM8.s 			page 23


 1235              		.loc 5 627 0
 1236 000a 019B     		ldr	r3, [sp, #4]
 1237 000c DB69     		ldr	r3, [r3, #28]
 1238 000e BDF80220 		ldrh	r2, [sp, #2]
 1239 0012 DA60     		str	r2, [r3, #12]
 1240              		.loc 5 628 0
 1241 0014 00BF     		nop
 1242              	.L51:
 1243              		.loc 5 628 0 is_stmt 0 discriminator 1
 1244 0016 019B     		ldr	r3, [sp, #4]
 1245 0018 DB69     		ldr	r3, [r3, #28]
 1246 001a 9B68     		ldr	r3, [r3, #8]
 1247 001c 03F00103 		and	r3, r3, #1
 1248 0020 002B     		cmp	r3, #0
 1249 0022 F8D0     		beq	.L51
 1250              		.loc 5 630 0 is_stmt 1
 1251 0024 019B     		ldr	r3, [sp, #4]
 1252 0026 DB69     		ldr	r3, [r3, #28]
 1253 0028 DB68     		ldr	r3, [r3, #12]
 1254 002a 9BB2     		uxth	r3, r3
 1255              		.loc 5 631 0
 1256 002c 1846     		mov	r0, r3
 1257 002e 02B0     		add	sp, sp, #8
 1258              		.cfi_def_cfa_offset 0
 1259              		@ sp needed
 1260 0030 7047     		bx	lr
 1261              		.cfi_endproc
 1262              	.LFE264:
 1263              		.size	spi_lld_polled_exchange, .-spi_lld_polled_exchange
 1264 0032 00BFAFF3 		.text
 1264      0080AFF3 
 1264      0080AFF3 
 1264      0080
 1265              	.Letext0:
 1266              		.file 6 "/opt/gcc-arm-none-eabi/lib/gcc/arm-none-eabi/4.9.3/include/stddef.h"
 1267              		.file 7 "/opt/gcc-arm-none-eabi/arm-none-eabi/include/machine/_default_types.h"
 1268              		.file 8 "/opt/gcc-arm-none-eabi/arm-none-eabi/include/stdint.h"
 1269              		.file 9 "/home/makkmarci/workspace/CLEAN/ChibiOS/os/rt/ports/ARMCMx/compilers/GCC/chtypes.h"
 1270              		.file 10 "/home/makkmarci/workspace/CLEAN/ChibiOS/os/rt/include/chsystypes.h"
 1271              		.file 11 "/home/makkmarci/workspace/CLEAN/ChibiOS/os/rt/include/chschd.h"
 1272              		.file 12 "/home/makkmarci/workspace/CLEAN/ChibiOS/os/ext/CMSIS/ST/stm32f407xx.h"
 1273              		.file 13 "/home/makkmarci/workspace/CLEAN/ChibiOS/os/rt/ports/ARMCMx/chcore.h"
 1274              		.file 14 "/home/makkmarci/workspace/CLEAN/ChibiOS/os/rt/include/chtm.h"
 1275              		.file 15 "/home/makkmarci/workspace/CLEAN/ChibiOS/os/rt/include/chsem.h"
 1276              		.file 16 "/home/makkmarci/workspace/CLEAN/ChibiOS/os/rt/include/chmtx.h"
 1277              		.file 17 "/home/makkmarci/workspace/CLEAN/ChibiOS/os/hal/ports/STM32/STM32F4xx/stm32_dma.h"
 1278              		.file 18 "/home/makkmarci/workspace/CLEAN/ChibiOS/os/hal/ports/STM32/LLD/GPIOv2/pal_lld.h"
 1279              		.file 19 "/home/makkmarci/workspace/CLEAN/ChibiOS/os/hal/include/spi.h"
 1280              		.file 20 "/home/makkmarci/workspace/CLEAN/ChibiOS/os/hal/ports/STM32/LLD/SPIv1/spi_lld.h"
 1281              		.file 21 "/home/makkmarci/workspace/CLEAN/ChibiOS/os/ext/CMSIS/include/core_cm4.h"