ARM GAS  /tmp/cc5zJDjX.s 			page 1


   1              		.syntax unified
   2              		.cpu cortex-m4
   3              		.eabi_attribute 27, 1
   4              		.eabi_attribute 28, 1
   5              		.fpu fpv4-sp-d16
   6              		.eabi_attribute 20, 1
   7              		.eabi_attribute 21, 1
   8              		.eabi_attribute 23, 3
   9              		.eabi_attribute 24, 1
  10              		.eabi_attribute 25, 1
  11              		.eabi_attribute 26, 1
  12              		.eabi_attribute 30, 6
  13              		.eabi_attribute 34, 1
  14              		.eabi_attribute 18, 4
  15              		.thumb
  16              		.file	"stm32_dma.c"
  17              		.text
  18              	.Ltext0:
  19              		.cfi_sections	.debug_frame
  20              		.global	_stm32_dma_streams
  21              		.section	.rodata._stm32_dma_streams,"a",%progbits
  22              		.align	2
  23              		.type	_stm32_dma_streams, %object
  24              		.size	_stm32_dma_streams, 192
  25              	_stm32_dma_streams:
  26 0000 10600240 		.word	1073897488
  27 0004 08600240 		.word	1073897480
  28 0008 00       		.byte	0
  29 0009 00       		.byte	0
  30 000a 0B       		.byte	11
  31 000b 00       		.space	1
  32 000c 28600240 		.word	1073897512
  33 0010 08600240 		.word	1073897480
  34 0014 06       		.byte	6
  35 0015 01       		.byte	1
  36 0016 0C       		.byte	12
  37 0017 00       		.space	1
  38 0018 40600240 		.word	1073897536
  39 001c 08600240 		.word	1073897480
  40 0020 10       		.byte	16
  41 0021 02       		.byte	2
  42 0022 0D       		.byte	13
  43 0023 00       		.space	1
  44 0024 58600240 		.word	1073897560
  45 0028 08600240 		.word	1073897480
  46 002c 16       		.byte	22
  47 002d 03       		.byte	3
  48 002e 0E       		.byte	14
  49 002f 00       		.space	1
  50 0030 70600240 		.word	1073897584
  51 0034 0C600240 		.word	1073897484
  52 0038 00       		.byte	0
  53 0039 04       		.byte	4
  54 003a 0F       		.byte	15
  55 003b 00       		.space	1
  56 003c 88600240 		.word	1073897608
  57 0040 0C600240 		.word	1073897484
ARM GAS  /tmp/cc5zJDjX.s 			page 2


  58 0044 06       		.byte	6
  59 0045 05       		.byte	5
  60 0046 10       		.byte	16
  61 0047 00       		.space	1
  62 0048 A0600240 		.word	1073897632
  63 004c 0C600240 		.word	1073897484
  64 0050 10       		.byte	16
  65 0051 06       		.byte	6
  66 0052 11       		.byte	17
  67 0053 00       		.space	1
  68 0054 B8600240 		.word	1073897656
  69 0058 0C600240 		.word	1073897484
  70 005c 16       		.byte	22
  71 005d 07       		.byte	7
  72 005e 2F       		.byte	47
  73 005f 00       		.space	1
  74 0060 10640240 		.word	1073898512
  75 0064 08640240 		.word	1073898504
  76 0068 00       		.byte	0
  77 0069 08       		.byte	8
  78 006a 38       		.byte	56
  79 006b 00       		.space	1
  80 006c 28640240 		.word	1073898536
  81 0070 08640240 		.word	1073898504
  82 0074 06       		.byte	6
  83 0075 09       		.byte	9
  84 0076 39       		.byte	57
  85 0077 00       		.space	1
  86 0078 40640240 		.word	1073898560
  87 007c 08640240 		.word	1073898504
  88 0080 10       		.byte	16
  89 0081 0A       		.byte	10
  90 0082 3A       		.byte	58
  91 0083 00       		.space	1
  92 0084 58640240 		.word	1073898584
  93 0088 08640240 		.word	1073898504
  94 008c 16       		.byte	22
  95 008d 0B       		.byte	11
  96 008e 3B       		.byte	59
  97 008f 00       		.space	1
  98 0090 70640240 		.word	1073898608
  99 0094 0C640240 		.word	1073898508
 100 0098 00       		.byte	0
 101 0099 0C       		.byte	12
 102 009a 3C       		.byte	60
 103 009b 00       		.space	1
 104 009c 88640240 		.word	1073898632
 105 00a0 0C640240 		.word	1073898508
 106 00a4 06       		.byte	6
 107 00a5 0D       		.byte	13
 108 00a6 44       		.byte	68
 109 00a7 00       		.space	1
 110 00a8 A0640240 		.word	1073898656
 111 00ac 0C640240 		.word	1073898508
 112 00b0 10       		.byte	16
 113 00b1 0E       		.byte	14
 114 00b2 45       		.byte	69
ARM GAS  /tmp/cc5zJDjX.s 			page 3


 115 00b3 00       		.space	1
 116 00b4 B8640240 		.word	1073898680
 117 00b8 0C640240 		.word	1073898508
 118 00bc 16       		.byte	22
 119 00bd 0F       		.byte	15
 120 00be 46       		.byte	70
 121 00bf 00       		.space	1
 122              		.section	.bss.dma_streams_mask,"aw",%nobits
 123              		.align	2
 124              		.type	dma_streams_mask, %object
 125              		.size	dma_streams_mask, 4
 126              	dma_streams_mask:
 127 0000 00000000 		.space	4
 128              		.section	.bss.dma_isr_redir,"aw",%nobits
 129              		.align	2
 130              		.type	dma_isr_redir, %object
 131              		.size	dma_isr_redir, 128
 132              	dma_isr_redir:
 133 0000 00000000 		.space	128
 133      00000000 
 133      00000000 
 133      00000000 
 133      00000000 
 134              		.section	.text.Vector6C,"ax",%progbits
 135              		.align	2
 136              		.p2align 4,,15
 137              		.global	Vector6C
 138              		.thumb
 139              		.thumb_func
 140              		.type	Vector6C, %function
 141              	Vector6C:
 142              	.LFB253:
 143              		.file 1 "/home/makkmarci/workspace/CLEAN/ChibiOS/os/hal/ports/STM32/STM32F4xx/stm32_dma.c"
 144              		.loc 1 127 0
 145              		.cfi_startproc
 146              		@ args = 0, pretend = 0, frame = 8
 147              		@ frame_needed = 0, uses_anonymous_args = 0
 148 0000 00B5     		push	{lr}
 149              		.cfi_def_cfa_offset 4
 150              		.cfi_offset 14, -4
 151 0002 83B0     		sub	sp, sp, #12
 152              		.cfi_def_cfa_offset 16
 153              		.loc 1 132 0
 154 0004 0B4B     		ldr	r3, .L3
 155 0006 1B68     		ldr	r3, [r3]
 156 0008 03F03D03 		and	r3, r3, #61
 157 000c 0193     		str	r3, [sp, #4]
 158              		.loc 1 133 0
 159 000e 094A     		ldr	r2, .L3
 160 0010 019B     		ldr	r3, [sp, #4]
 161 0012 9360     		str	r3, [r2, #8]
 162              		.loc 1 134 0
 163 0014 084B     		ldr	r3, .L3+4
 164 0016 1B68     		ldr	r3, [r3]
 165 0018 002B     		cmp	r3, #0
 166 001a 06D0     		beq	.L2
 167              		.loc 1 135 0
ARM GAS  /tmp/cc5zJDjX.s 			page 4


 168 001c 064B     		ldr	r3, .L3+4
 169 001e 1B68     		ldr	r3, [r3]
 170 0020 054A     		ldr	r2, .L3+4
 171 0022 5268     		ldr	r2, [r2, #4]
 172 0024 1046     		mov	r0, r2
 173 0026 0199     		ldr	r1, [sp, #4]
 174 0028 9847     		blx	r3
 175              	.L2:
 176              		.loc 1 137 0
 177 002a FFF7FEFF 		bl	_port_irq_epilogue
 178              		.loc 1 138 0
 179 002e 03B0     		add	sp, sp, #12
 180              		.cfi_def_cfa_offset 4
 181              		@ sp needed
 182 0030 5DF804FB 		ldr	pc, [sp], #4
 183              	.L4:
 184              		.align	2
 185              	.L3:
 186 0034 00600240 		.word	1073897472
 187 0038 00000000 		.word	dma_isr_redir
 188              		.cfi_endproc
 189              	.LFE253:
 190              		.size	Vector6C, .-Vector6C
 191 003c AFF30080 		.section	.text.Vector70,"ax",%progbits
 192              		.align	2
 193              		.p2align 4,,15
 194              		.global	Vector70
 195              		.thumb
 196              		.thumb_func
 197              		.type	Vector70, %function
 198              	Vector70:
 199              	.LFB254:
 200              		.loc 1 145 0
 201              		.cfi_startproc
 202              		@ args = 0, pretend = 0, frame = 8
 203              		@ frame_needed = 0, uses_anonymous_args = 0
 204 0000 00B5     		push	{lr}
 205              		.cfi_def_cfa_offset 4
 206              		.cfi_offset 14, -4
 207 0002 83B0     		sub	sp, sp, #12
 208              		.cfi_def_cfa_offset 16
 209              		.loc 1 150 0
 210 0004 0C4B     		ldr	r3, .L7
 211 0006 1B68     		ldr	r3, [r3]
 212 0008 9B09     		lsrs	r3, r3, #6
 213 000a 03F03D03 		and	r3, r3, #61
 214 000e 0193     		str	r3, [sp, #4]
 215              		.loc 1 151 0
 216 0010 094A     		ldr	r2, .L7
 217 0012 019B     		ldr	r3, [sp, #4]
 218 0014 9B01     		lsls	r3, r3, #6
 219 0016 9360     		str	r3, [r2, #8]
 220              		.loc 1 152 0
 221 0018 084B     		ldr	r3, .L7+4
 222 001a 9B68     		ldr	r3, [r3, #8]
 223 001c 002B     		cmp	r3, #0
 224 001e 06D0     		beq	.L6
ARM GAS  /tmp/cc5zJDjX.s 			page 5


 225              		.loc 1 153 0
 226 0020 064B     		ldr	r3, .L7+4
 227 0022 9B68     		ldr	r3, [r3, #8]
 228 0024 054A     		ldr	r2, .L7+4
 229 0026 D268     		ldr	r2, [r2, #12]
 230 0028 1046     		mov	r0, r2
 231 002a 0199     		ldr	r1, [sp, #4]
 232 002c 9847     		blx	r3
 233              	.L6:
 234              		.loc 1 155 0
 235 002e FFF7FEFF 		bl	_port_irq_epilogue
 236              		.loc 1 156 0
 237 0032 03B0     		add	sp, sp, #12
 238              		.cfi_def_cfa_offset 4
 239              		@ sp needed
 240 0034 5DF804FB 		ldr	pc, [sp], #4
 241              	.L8:
 242              		.align	2
 243              	.L7:
 244 0038 00600240 		.word	1073897472
 245 003c 00000000 		.word	dma_isr_redir
 246              		.cfi_endproc
 247              	.LFE254:
 248              		.size	Vector70, .-Vector70
 249              		.section	.text.Vector74,"ax",%progbits
 250              		.align	2
 251              		.p2align 4,,15
 252              		.global	Vector74
 253              		.thumb
 254              		.thumb_func
 255              		.type	Vector74, %function
 256              	Vector74:
 257              	.LFB255:
 258              		.loc 1 163 0
 259              		.cfi_startproc
 260              		@ args = 0, pretend = 0, frame = 8
 261              		@ frame_needed = 0, uses_anonymous_args = 0
 262 0000 00B5     		push	{lr}
 263              		.cfi_def_cfa_offset 4
 264              		.cfi_offset 14, -4
 265 0002 83B0     		sub	sp, sp, #12
 266              		.cfi_def_cfa_offset 16
 267              		.loc 1 168 0
 268 0004 0C4B     		ldr	r3, .L11
 269 0006 1B68     		ldr	r3, [r3]
 270 0008 1B0C     		lsrs	r3, r3, #16
 271 000a 03F03D03 		and	r3, r3, #61
 272 000e 0193     		str	r3, [sp, #4]
 273              		.loc 1 169 0
 274 0010 094A     		ldr	r2, .L11
 275 0012 019B     		ldr	r3, [sp, #4]
 276 0014 1B04     		lsls	r3, r3, #16
 277 0016 9360     		str	r3, [r2, #8]
 278              		.loc 1 170 0
 279 0018 084B     		ldr	r3, .L11+4
 280 001a 1B69     		ldr	r3, [r3, #16]
 281 001c 002B     		cmp	r3, #0
ARM GAS  /tmp/cc5zJDjX.s 			page 6


 282 001e 06D0     		beq	.L10
 283              		.loc 1 171 0
 284 0020 064B     		ldr	r3, .L11+4
 285 0022 1B69     		ldr	r3, [r3, #16]
 286 0024 054A     		ldr	r2, .L11+4
 287 0026 5269     		ldr	r2, [r2, #20]
 288 0028 1046     		mov	r0, r2
 289 002a 0199     		ldr	r1, [sp, #4]
 290 002c 9847     		blx	r3
 291              	.L10:
 292              		.loc 1 173 0
 293 002e FFF7FEFF 		bl	_port_irq_epilogue
 294              		.loc 1 174 0
 295 0032 03B0     		add	sp, sp, #12
 296              		.cfi_def_cfa_offset 4
 297              		@ sp needed
 298 0034 5DF804FB 		ldr	pc, [sp], #4
 299              	.L12:
 300              		.align	2
 301              	.L11:
 302 0038 00600240 		.word	1073897472
 303 003c 00000000 		.word	dma_isr_redir
 304              		.cfi_endproc
 305              	.LFE255:
 306              		.size	Vector74, .-Vector74
 307              		.section	.text.Vector78,"ax",%progbits
 308              		.align	2
 309              		.p2align 4,,15
 310              		.global	Vector78
 311              		.thumb
 312              		.thumb_func
 313              		.type	Vector78, %function
 314              	Vector78:
 315              	.LFB256:
 316              		.loc 1 181 0
 317              		.cfi_startproc
 318              		@ args = 0, pretend = 0, frame = 8
 319              		@ frame_needed = 0, uses_anonymous_args = 0
 320 0000 00B5     		push	{lr}
 321              		.cfi_def_cfa_offset 4
 322              		.cfi_offset 14, -4
 323 0002 83B0     		sub	sp, sp, #12
 324              		.cfi_def_cfa_offset 16
 325              		.loc 1 186 0
 326 0004 0C4B     		ldr	r3, .L15
 327 0006 1B68     		ldr	r3, [r3]
 328 0008 9B0D     		lsrs	r3, r3, #22
 329 000a 03F03D03 		and	r3, r3, #61
 330 000e 0193     		str	r3, [sp, #4]
 331              		.loc 1 187 0
 332 0010 094A     		ldr	r2, .L15
 333 0012 019B     		ldr	r3, [sp, #4]
 334 0014 9B05     		lsls	r3, r3, #22
 335 0016 9360     		str	r3, [r2, #8]
 336              		.loc 1 188 0
 337 0018 084B     		ldr	r3, .L15+4
 338 001a 9B69     		ldr	r3, [r3, #24]
ARM GAS  /tmp/cc5zJDjX.s 			page 7


 339 001c 002B     		cmp	r3, #0
 340 001e 06D0     		beq	.L14
 341              		.loc 1 189 0
 342 0020 064B     		ldr	r3, .L15+4
 343 0022 9B69     		ldr	r3, [r3, #24]
 344 0024 054A     		ldr	r2, .L15+4
 345 0026 D269     		ldr	r2, [r2, #28]
 346 0028 1046     		mov	r0, r2
 347 002a 0199     		ldr	r1, [sp, #4]
 348 002c 9847     		blx	r3
 349              	.L14:
 350              		.loc 1 191 0
 351 002e FFF7FEFF 		bl	_port_irq_epilogue
 352              		.loc 1 192 0
 353 0032 03B0     		add	sp, sp, #12
 354              		.cfi_def_cfa_offset 4
 355              		@ sp needed
 356 0034 5DF804FB 		ldr	pc, [sp], #4
 357              	.L16:
 358              		.align	2
 359              	.L15:
 360 0038 00600240 		.word	1073897472
 361 003c 00000000 		.word	dma_isr_redir
 362              		.cfi_endproc
 363              	.LFE256:
 364              		.size	Vector78, .-Vector78
 365              		.section	.text.Vector7C,"ax",%progbits
 366              		.align	2
 367              		.p2align 4,,15
 368              		.global	Vector7C
 369              		.thumb
 370              		.thumb_func
 371              		.type	Vector7C, %function
 372              	Vector7C:
 373              	.LFB257:
 374              		.loc 1 199 0
 375              		.cfi_startproc
 376              		@ args = 0, pretend = 0, frame = 8
 377              		@ frame_needed = 0, uses_anonymous_args = 0
 378 0000 00B5     		push	{lr}
 379              		.cfi_def_cfa_offset 4
 380              		.cfi_offset 14, -4
 381 0002 83B0     		sub	sp, sp, #12
 382              		.cfi_def_cfa_offset 16
 383              		.loc 1 204 0
 384 0004 0B4B     		ldr	r3, .L19
 385 0006 5B68     		ldr	r3, [r3, #4]
 386 0008 03F03D03 		and	r3, r3, #61
 387 000c 0193     		str	r3, [sp, #4]
 388              		.loc 1 205 0
 389 000e 094A     		ldr	r2, .L19
 390 0010 019B     		ldr	r3, [sp, #4]
 391 0012 D360     		str	r3, [r2, #12]
 392              		.loc 1 206 0
 393 0014 084B     		ldr	r3, .L19+4
 394 0016 1B6A     		ldr	r3, [r3, #32]
 395 0018 002B     		cmp	r3, #0
ARM GAS  /tmp/cc5zJDjX.s 			page 8


 396 001a 06D0     		beq	.L18
 397              		.loc 1 207 0
 398 001c 064B     		ldr	r3, .L19+4
 399 001e 1B6A     		ldr	r3, [r3, #32]
 400 0020 054A     		ldr	r2, .L19+4
 401 0022 526A     		ldr	r2, [r2, #36]
 402 0024 1046     		mov	r0, r2
 403 0026 0199     		ldr	r1, [sp, #4]
 404 0028 9847     		blx	r3
 405              	.L18:
 406              		.loc 1 209 0
 407 002a FFF7FEFF 		bl	_port_irq_epilogue
 408              		.loc 1 210 0
 409 002e 03B0     		add	sp, sp, #12
 410              		.cfi_def_cfa_offset 4
 411              		@ sp needed
 412 0030 5DF804FB 		ldr	pc, [sp], #4
 413              	.L20:
 414              		.align	2
 415              	.L19:
 416 0034 00600240 		.word	1073897472
 417 0038 00000000 		.word	dma_isr_redir
 418              		.cfi_endproc
 419              	.LFE257:
 420              		.size	Vector7C, .-Vector7C
 421 003c AFF30080 		.section	.text.Vector80,"ax",%progbits
 422              		.align	2
 423              		.p2align 4,,15
 424              		.global	Vector80
 425              		.thumb
 426              		.thumb_func
 427              		.type	Vector80, %function
 428              	Vector80:
 429              	.LFB258:
 430              		.loc 1 217 0
 431              		.cfi_startproc
 432              		@ args = 0, pretend = 0, frame = 8
 433              		@ frame_needed = 0, uses_anonymous_args = 0
 434 0000 00B5     		push	{lr}
 435              		.cfi_def_cfa_offset 4
 436              		.cfi_offset 14, -4
 437 0002 83B0     		sub	sp, sp, #12
 438              		.cfi_def_cfa_offset 16
 439              		.loc 1 222 0
 440 0004 0C4B     		ldr	r3, .L23
 441 0006 5B68     		ldr	r3, [r3, #4]
 442 0008 9B09     		lsrs	r3, r3, #6
 443 000a 03F03D03 		and	r3, r3, #61
 444 000e 0193     		str	r3, [sp, #4]
 445              		.loc 1 223 0
 446 0010 094A     		ldr	r2, .L23
 447 0012 019B     		ldr	r3, [sp, #4]
 448 0014 9B01     		lsls	r3, r3, #6
 449 0016 D360     		str	r3, [r2, #12]
 450              		.loc 1 224 0
 451 0018 084B     		ldr	r3, .L23+4
 452 001a 9B6A     		ldr	r3, [r3, #40]
ARM GAS  /tmp/cc5zJDjX.s 			page 9


 453 001c 002B     		cmp	r3, #0
 454 001e 06D0     		beq	.L22
 455              		.loc 1 225 0
 456 0020 064B     		ldr	r3, .L23+4
 457 0022 9B6A     		ldr	r3, [r3, #40]
 458 0024 054A     		ldr	r2, .L23+4
 459 0026 D26A     		ldr	r2, [r2, #44]
 460 0028 1046     		mov	r0, r2
 461 002a 0199     		ldr	r1, [sp, #4]
 462 002c 9847     		blx	r3
 463              	.L22:
 464              		.loc 1 227 0
 465 002e FFF7FEFF 		bl	_port_irq_epilogue
 466              		.loc 1 228 0
 467 0032 03B0     		add	sp, sp, #12
 468              		.cfi_def_cfa_offset 4
 469              		@ sp needed
 470 0034 5DF804FB 		ldr	pc, [sp], #4
 471              	.L24:
 472              		.align	2
 473              	.L23:
 474 0038 00600240 		.word	1073897472
 475 003c 00000000 		.word	dma_isr_redir
 476              		.cfi_endproc
 477              	.LFE258:
 478              		.size	Vector80, .-Vector80
 479              		.section	.text.Vector84,"ax",%progbits
 480              		.align	2
 481              		.p2align 4,,15
 482              		.global	Vector84
 483              		.thumb
 484              		.thumb_func
 485              		.type	Vector84, %function
 486              	Vector84:
 487              	.LFB259:
 488              		.loc 1 235 0
 489              		.cfi_startproc
 490              		@ args = 0, pretend = 0, frame = 8
 491              		@ frame_needed = 0, uses_anonymous_args = 0
 492 0000 00B5     		push	{lr}
 493              		.cfi_def_cfa_offset 4
 494              		.cfi_offset 14, -4
 495 0002 83B0     		sub	sp, sp, #12
 496              		.cfi_def_cfa_offset 16
 497              		.loc 1 240 0
 498 0004 0C4B     		ldr	r3, .L27
 499 0006 5B68     		ldr	r3, [r3, #4]
 500 0008 1B0C     		lsrs	r3, r3, #16
 501 000a 03F03D03 		and	r3, r3, #61
 502 000e 0193     		str	r3, [sp, #4]
 503              		.loc 1 241 0
 504 0010 094A     		ldr	r2, .L27
 505 0012 019B     		ldr	r3, [sp, #4]
 506 0014 1B04     		lsls	r3, r3, #16
 507 0016 D360     		str	r3, [r2, #12]
 508              		.loc 1 242 0
 509 0018 084B     		ldr	r3, .L27+4
ARM GAS  /tmp/cc5zJDjX.s 			page 10


 510 001a 1B6B     		ldr	r3, [r3, #48]
 511 001c 002B     		cmp	r3, #0
 512 001e 06D0     		beq	.L26
 513              		.loc 1 243 0
 514 0020 064B     		ldr	r3, .L27+4
 515 0022 1B6B     		ldr	r3, [r3, #48]
 516 0024 054A     		ldr	r2, .L27+4
 517 0026 526B     		ldr	r2, [r2, #52]
 518 0028 1046     		mov	r0, r2
 519 002a 0199     		ldr	r1, [sp, #4]
 520 002c 9847     		blx	r3
 521              	.L26:
 522              		.loc 1 245 0
 523 002e FFF7FEFF 		bl	_port_irq_epilogue
 524              		.loc 1 246 0
 525 0032 03B0     		add	sp, sp, #12
 526              		.cfi_def_cfa_offset 4
 527              		@ sp needed
 528 0034 5DF804FB 		ldr	pc, [sp], #4
 529              	.L28:
 530              		.align	2
 531              	.L27:
 532 0038 00600240 		.word	1073897472
 533 003c 00000000 		.word	dma_isr_redir
 534              		.cfi_endproc
 535              	.LFE259:
 536              		.size	Vector84, .-Vector84
 537              		.section	.text.VectorFC,"ax",%progbits
 538              		.align	2
 539              		.p2align 4,,15
 540              		.global	VectorFC
 541              		.thumb
 542              		.thumb_func
 543              		.type	VectorFC, %function
 544              	VectorFC:
 545              	.LFB260:
 546              		.loc 1 253 0
 547              		.cfi_startproc
 548              		@ args = 0, pretend = 0, frame = 8
 549              		@ frame_needed = 0, uses_anonymous_args = 0
 550 0000 00B5     		push	{lr}
 551              		.cfi_def_cfa_offset 4
 552              		.cfi_offset 14, -4
 553 0002 83B0     		sub	sp, sp, #12
 554              		.cfi_def_cfa_offset 16
 555              		.loc 1 258 0
 556 0004 0C4B     		ldr	r3, .L31
 557 0006 5B68     		ldr	r3, [r3, #4]
 558 0008 9B0D     		lsrs	r3, r3, #22
 559 000a 03F03D03 		and	r3, r3, #61
 560 000e 0193     		str	r3, [sp, #4]
 561              		.loc 1 259 0
 562 0010 094A     		ldr	r2, .L31
 563 0012 019B     		ldr	r3, [sp, #4]
 564 0014 9B05     		lsls	r3, r3, #22
 565 0016 D360     		str	r3, [r2, #12]
 566              		.loc 1 260 0
ARM GAS  /tmp/cc5zJDjX.s 			page 11


 567 0018 084B     		ldr	r3, .L31+4
 568 001a 9B6B     		ldr	r3, [r3, #56]
 569 001c 002B     		cmp	r3, #0
 570 001e 06D0     		beq	.L30
 571              		.loc 1 261 0
 572 0020 064B     		ldr	r3, .L31+4
 573 0022 9B6B     		ldr	r3, [r3, #56]
 574 0024 054A     		ldr	r2, .L31+4
 575 0026 D26B     		ldr	r2, [r2, #60]
 576 0028 1046     		mov	r0, r2
 577 002a 0199     		ldr	r1, [sp, #4]
 578 002c 9847     		blx	r3
 579              	.L30:
 580              		.loc 1 263 0
 581 002e FFF7FEFF 		bl	_port_irq_epilogue
 582              		.loc 1 264 0
 583 0032 03B0     		add	sp, sp, #12
 584              		.cfi_def_cfa_offset 4
 585              		@ sp needed
 586 0034 5DF804FB 		ldr	pc, [sp], #4
 587              	.L32:
 588              		.align	2
 589              	.L31:
 590 0038 00600240 		.word	1073897472
 591 003c 00000000 		.word	dma_isr_redir
 592              		.cfi_endproc
 593              	.LFE260:
 594              		.size	VectorFC, .-VectorFC
 595              		.section	.text.Vector120,"ax",%progbits
 596              		.align	2
 597              		.p2align 4,,15
 598              		.global	Vector120
 599              		.thumb
 600              		.thumb_func
 601              		.type	Vector120, %function
 602              	Vector120:
 603              	.LFB261:
 604              		.loc 1 271 0
 605              		.cfi_startproc
 606              		@ args = 0, pretend = 0, frame = 8
 607              		@ frame_needed = 0, uses_anonymous_args = 0
 608 0000 00B5     		push	{lr}
 609              		.cfi_def_cfa_offset 4
 610              		.cfi_offset 14, -4
 611 0002 83B0     		sub	sp, sp, #12
 612              		.cfi_def_cfa_offset 16
 613              		.loc 1 276 0
 614 0004 0B4B     		ldr	r3, .L35
 615 0006 1B68     		ldr	r3, [r3]
 616 0008 03F03D03 		and	r3, r3, #61
 617 000c 0193     		str	r3, [sp, #4]
 618              		.loc 1 277 0
 619 000e 094A     		ldr	r2, .L35
 620 0010 019B     		ldr	r3, [sp, #4]
 621 0012 9360     		str	r3, [r2, #8]
 622              		.loc 1 278 0
 623 0014 084B     		ldr	r3, .L35+4
ARM GAS  /tmp/cc5zJDjX.s 			page 12


 624 0016 1B6C     		ldr	r3, [r3, #64]
 625 0018 002B     		cmp	r3, #0
 626 001a 06D0     		beq	.L34
 627              		.loc 1 279 0
 628 001c 064B     		ldr	r3, .L35+4
 629 001e 1B6C     		ldr	r3, [r3, #64]
 630 0020 054A     		ldr	r2, .L35+4
 631 0022 526C     		ldr	r2, [r2, #68]
 632 0024 1046     		mov	r0, r2
 633 0026 0199     		ldr	r1, [sp, #4]
 634 0028 9847     		blx	r3
 635              	.L34:
 636              		.loc 1 281 0
 637 002a FFF7FEFF 		bl	_port_irq_epilogue
 638              		.loc 1 282 0
 639 002e 03B0     		add	sp, sp, #12
 640              		.cfi_def_cfa_offset 4
 641              		@ sp needed
 642 0030 5DF804FB 		ldr	pc, [sp], #4
 643              	.L36:
 644              		.align	2
 645              	.L35:
 646 0034 00640240 		.word	1073898496
 647 0038 00000000 		.word	dma_isr_redir
 648              		.cfi_endproc
 649              	.LFE261:
 650              		.size	Vector120, .-Vector120
 651 003c AFF30080 		.section	.text.Vector124,"ax",%progbits
 652              		.align	2
 653              		.p2align 4,,15
 654              		.global	Vector124
 655              		.thumb
 656              		.thumb_func
 657              		.type	Vector124, %function
 658              	Vector124:
 659              	.LFB262:
 660              		.loc 1 289 0
 661              		.cfi_startproc
 662              		@ args = 0, pretend = 0, frame = 8
 663              		@ frame_needed = 0, uses_anonymous_args = 0
 664 0000 00B5     		push	{lr}
 665              		.cfi_def_cfa_offset 4
 666              		.cfi_offset 14, -4
 667 0002 83B0     		sub	sp, sp, #12
 668              		.cfi_def_cfa_offset 16
 669              		.loc 1 294 0
 670 0004 0C4B     		ldr	r3, .L39
 671 0006 1B68     		ldr	r3, [r3]
 672 0008 9B09     		lsrs	r3, r3, #6
 673 000a 03F03D03 		and	r3, r3, #61
 674 000e 0193     		str	r3, [sp, #4]
 675              		.loc 1 295 0
 676 0010 094A     		ldr	r2, .L39
 677 0012 019B     		ldr	r3, [sp, #4]
 678 0014 9B01     		lsls	r3, r3, #6
 679 0016 9360     		str	r3, [r2, #8]
 680              		.loc 1 296 0
ARM GAS  /tmp/cc5zJDjX.s 			page 13


 681 0018 084B     		ldr	r3, .L39+4
 682 001a 9B6C     		ldr	r3, [r3, #72]
 683 001c 002B     		cmp	r3, #0
 684 001e 06D0     		beq	.L38
 685              		.loc 1 297 0
 686 0020 064B     		ldr	r3, .L39+4
 687 0022 9B6C     		ldr	r3, [r3, #72]
 688 0024 054A     		ldr	r2, .L39+4
 689 0026 D26C     		ldr	r2, [r2, #76]
 690 0028 1046     		mov	r0, r2
 691 002a 0199     		ldr	r1, [sp, #4]
 692 002c 9847     		blx	r3
 693              	.L38:
 694              		.loc 1 299 0
 695 002e FFF7FEFF 		bl	_port_irq_epilogue
 696              		.loc 1 300 0
 697 0032 03B0     		add	sp, sp, #12
 698              		.cfi_def_cfa_offset 4
 699              		@ sp needed
 700 0034 5DF804FB 		ldr	pc, [sp], #4
 701              	.L40:
 702              		.align	2
 703              	.L39:
 704 0038 00640240 		.word	1073898496
 705 003c 00000000 		.word	dma_isr_redir
 706              		.cfi_endproc
 707              	.LFE262:
 708              		.size	Vector124, .-Vector124
 709              		.section	.text.Vector128,"ax",%progbits
 710              		.align	2
 711              		.p2align 4,,15
 712              		.global	Vector128
 713              		.thumb
 714              		.thumb_func
 715              		.type	Vector128, %function
 716              	Vector128:
 717              	.LFB263:
 718              		.loc 1 307 0
 719              		.cfi_startproc
 720              		@ args = 0, pretend = 0, frame = 8
 721              		@ frame_needed = 0, uses_anonymous_args = 0
 722 0000 00B5     		push	{lr}
 723              		.cfi_def_cfa_offset 4
 724              		.cfi_offset 14, -4
 725 0002 83B0     		sub	sp, sp, #12
 726              		.cfi_def_cfa_offset 16
 727              		.loc 1 312 0
 728 0004 0C4B     		ldr	r3, .L43
 729 0006 1B68     		ldr	r3, [r3]
 730 0008 1B0C     		lsrs	r3, r3, #16
 731 000a 03F03D03 		and	r3, r3, #61
 732 000e 0193     		str	r3, [sp, #4]
 733              		.loc 1 313 0
 734 0010 094A     		ldr	r2, .L43
 735 0012 019B     		ldr	r3, [sp, #4]
 736 0014 1B04     		lsls	r3, r3, #16
 737 0016 9360     		str	r3, [r2, #8]
ARM GAS  /tmp/cc5zJDjX.s 			page 14


 738              		.loc 1 314 0
 739 0018 084B     		ldr	r3, .L43+4
 740 001a 1B6D     		ldr	r3, [r3, #80]
 741 001c 002B     		cmp	r3, #0
 742 001e 06D0     		beq	.L42
 743              		.loc 1 315 0
 744 0020 064B     		ldr	r3, .L43+4
 745 0022 1B6D     		ldr	r3, [r3, #80]
 746 0024 054A     		ldr	r2, .L43+4
 747 0026 526D     		ldr	r2, [r2, #84]
 748 0028 1046     		mov	r0, r2
 749 002a 0199     		ldr	r1, [sp, #4]
 750 002c 9847     		blx	r3
 751              	.L42:
 752              		.loc 1 317 0
 753 002e FFF7FEFF 		bl	_port_irq_epilogue
 754              		.loc 1 318 0
 755 0032 03B0     		add	sp, sp, #12
 756              		.cfi_def_cfa_offset 4
 757              		@ sp needed
 758 0034 5DF804FB 		ldr	pc, [sp], #4
 759              	.L44:
 760              		.align	2
 761              	.L43:
 762 0038 00640240 		.word	1073898496
 763 003c 00000000 		.word	dma_isr_redir
 764              		.cfi_endproc
 765              	.LFE263:
 766              		.size	Vector128, .-Vector128
 767              		.section	.text.Vector12C,"ax",%progbits
 768              		.align	2
 769              		.p2align 4,,15
 770              		.global	Vector12C
 771              		.thumb
 772              		.thumb_func
 773              		.type	Vector12C, %function
 774              	Vector12C:
 775              	.LFB264:
 776              		.loc 1 325 0
 777              		.cfi_startproc
 778              		@ args = 0, pretend = 0, frame = 8
 779              		@ frame_needed = 0, uses_anonymous_args = 0
 780 0000 00B5     		push	{lr}
 781              		.cfi_def_cfa_offset 4
 782              		.cfi_offset 14, -4
 783 0002 83B0     		sub	sp, sp, #12
 784              		.cfi_def_cfa_offset 16
 785              		.loc 1 330 0
 786 0004 0C4B     		ldr	r3, .L47
 787 0006 1B68     		ldr	r3, [r3]
 788 0008 9B0D     		lsrs	r3, r3, #22
 789 000a 03F03D03 		and	r3, r3, #61
 790 000e 0193     		str	r3, [sp, #4]
 791              		.loc 1 331 0
 792 0010 094A     		ldr	r2, .L47
 793 0012 019B     		ldr	r3, [sp, #4]
 794 0014 9B05     		lsls	r3, r3, #22
ARM GAS  /tmp/cc5zJDjX.s 			page 15


 795 0016 9360     		str	r3, [r2, #8]
 796              		.loc 1 332 0
 797 0018 084B     		ldr	r3, .L47+4
 798 001a 9B6D     		ldr	r3, [r3, #88]
 799 001c 002B     		cmp	r3, #0
 800 001e 06D0     		beq	.L46
 801              		.loc 1 333 0
 802 0020 064B     		ldr	r3, .L47+4
 803 0022 9B6D     		ldr	r3, [r3, #88]
 804 0024 054A     		ldr	r2, .L47+4
 805 0026 D26D     		ldr	r2, [r2, #92]
 806 0028 1046     		mov	r0, r2
 807 002a 0199     		ldr	r1, [sp, #4]
 808 002c 9847     		blx	r3
 809              	.L46:
 810              		.loc 1 335 0
 811 002e FFF7FEFF 		bl	_port_irq_epilogue
 812              		.loc 1 336 0
 813 0032 03B0     		add	sp, sp, #12
 814              		.cfi_def_cfa_offset 4
 815              		@ sp needed
 816 0034 5DF804FB 		ldr	pc, [sp], #4
 817              	.L48:
 818              		.align	2
 819              	.L47:
 820 0038 00640240 		.word	1073898496
 821 003c 00000000 		.word	dma_isr_redir
 822              		.cfi_endproc
 823              	.LFE264:
 824              		.size	Vector12C, .-Vector12C
 825              		.section	.text.Vector130,"ax",%progbits
 826              		.align	2
 827              		.p2align 4,,15
 828              		.global	Vector130
 829              		.thumb
 830              		.thumb_func
 831              		.type	Vector130, %function
 832              	Vector130:
 833              	.LFB265:
 834              		.loc 1 343 0
 835              		.cfi_startproc
 836              		@ args = 0, pretend = 0, frame = 8
 837              		@ frame_needed = 0, uses_anonymous_args = 0
 838 0000 00B5     		push	{lr}
 839              		.cfi_def_cfa_offset 4
 840              		.cfi_offset 14, -4
 841 0002 83B0     		sub	sp, sp, #12
 842              		.cfi_def_cfa_offset 16
 843              		.loc 1 348 0
 844 0004 0B4B     		ldr	r3, .L51
 845 0006 5B68     		ldr	r3, [r3, #4]
 846 0008 03F03D03 		and	r3, r3, #61
 847 000c 0193     		str	r3, [sp, #4]
 848              		.loc 1 349 0
 849 000e 094A     		ldr	r2, .L51
 850 0010 019B     		ldr	r3, [sp, #4]
 851 0012 D360     		str	r3, [r2, #12]
ARM GAS  /tmp/cc5zJDjX.s 			page 16


 852              		.loc 1 350 0
 853 0014 084B     		ldr	r3, .L51+4
 854 0016 1B6E     		ldr	r3, [r3, #96]
 855 0018 002B     		cmp	r3, #0
 856 001a 06D0     		beq	.L50
 857              		.loc 1 351 0
 858 001c 064B     		ldr	r3, .L51+4
 859 001e 1B6E     		ldr	r3, [r3, #96]
 860 0020 054A     		ldr	r2, .L51+4
 861 0022 526E     		ldr	r2, [r2, #100]
 862 0024 1046     		mov	r0, r2
 863 0026 0199     		ldr	r1, [sp, #4]
 864 0028 9847     		blx	r3
 865              	.L50:
 866              		.loc 1 353 0
 867 002a FFF7FEFF 		bl	_port_irq_epilogue
 868              		.loc 1 354 0
 869 002e 03B0     		add	sp, sp, #12
 870              		.cfi_def_cfa_offset 4
 871              		@ sp needed
 872 0030 5DF804FB 		ldr	pc, [sp], #4
 873              	.L52:
 874              		.align	2
 875              	.L51:
 876 0034 00640240 		.word	1073898496
 877 0038 00000000 		.word	dma_isr_redir
 878              		.cfi_endproc
 879              	.LFE265:
 880              		.size	Vector130, .-Vector130
 881 003c AFF30080 		.section	.text.Vector150,"ax",%progbits
 882              		.align	2
 883              		.p2align 4,,15
 884              		.global	Vector150
 885              		.thumb
 886              		.thumb_func
 887              		.type	Vector150, %function
 888              	Vector150:
 889              	.LFB266:
 890              		.loc 1 361 0
 891              		.cfi_startproc
 892              		@ args = 0, pretend = 0, frame = 8
 893              		@ frame_needed = 0, uses_anonymous_args = 0
 894 0000 00B5     		push	{lr}
 895              		.cfi_def_cfa_offset 4
 896              		.cfi_offset 14, -4
 897 0002 83B0     		sub	sp, sp, #12
 898              		.cfi_def_cfa_offset 16
 899              		.loc 1 366 0
 900 0004 0C4B     		ldr	r3, .L55
 901 0006 5B68     		ldr	r3, [r3, #4]
 902 0008 9B09     		lsrs	r3, r3, #6
 903 000a 03F03D03 		and	r3, r3, #61
 904 000e 0193     		str	r3, [sp, #4]
 905              		.loc 1 367 0
 906 0010 094A     		ldr	r2, .L55
 907 0012 019B     		ldr	r3, [sp, #4]
 908 0014 9B01     		lsls	r3, r3, #6
ARM GAS  /tmp/cc5zJDjX.s 			page 17


 909 0016 D360     		str	r3, [r2, #12]
 910              		.loc 1 368 0
 911 0018 084B     		ldr	r3, .L55+4
 912 001a 9B6E     		ldr	r3, [r3, #104]
 913 001c 002B     		cmp	r3, #0
 914 001e 06D0     		beq	.L54
 915              		.loc 1 369 0
 916 0020 064B     		ldr	r3, .L55+4
 917 0022 9B6E     		ldr	r3, [r3, #104]
 918 0024 054A     		ldr	r2, .L55+4
 919 0026 D26E     		ldr	r2, [r2, #108]
 920 0028 1046     		mov	r0, r2
 921 002a 0199     		ldr	r1, [sp, #4]
 922 002c 9847     		blx	r3
 923              	.L54:
 924              		.loc 1 371 0
 925 002e FFF7FEFF 		bl	_port_irq_epilogue
 926              		.loc 1 372 0
 927 0032 03B0     		add	sp, sp, #12
 928              		.cfi_def_cfa_offset 4
 929              		@ sp needed
 930 0034 5DF804FB 		ldr	pc, [sp], #4
 931              	.L56:
 932              		.align	2
 933              	.L55:
 934 0038 00640240 		.word	1073898496
 935 003c 00000000 		.word	dma_isr_redir
 936              		.cfi_endproc
 937              	.LFE266:
 938              		.size	Vector150, .-Vector150
 939              		.section	.text.Vector154,"ax",%progbits
 940              		.align	2
 941              		.p2align 4,,15
 942              		.global	Vector154
 943              		.thumb
 944              		.thumb_func
 945              		.type	Vector154, %function
 946              	Vector154:
 947              	.LFB267:
 948              		.loc 1 379 0
 949              		.cfi_startproc
 950              		@ args = 0, pretend = 0, frame = 8
 951              		@ frame_needed = 0, uses_anonymous_args = 0
 952 0000 00B5     		push	{lr}
 953              		.cfi_def_cfa_offset 4
 954              		.cfi_offset 14, -4
 955 0002 83B0     		sub	sp, sp, #12
 956              		.cfi_def_cfa_offset 16
 957              		.loc 1 384 0
 958 0004 0C4B     		ldr	r3, .L59
 959 0006 5B68     		ldr	r3, [r3, #4]
 960 0008 1B0C     		lsrs	r3, r3, #16
 961 000a 03F03D03 		and	r3, r3, #61
 962 000e 0193     		str	r3, [sp, #4]
 963              		.loc 1 385 0
 964 0010 094A     		ldr	r2, .L59
 965 0012 019B     		ldr	r3, [sp, #4]
ARM GAS  /tmp/cc5zJDjX.s 			page 18


 966 0014 1B04     		lsls	r3, r3, #16
 967 0016 D360     		str	r3, [r2, #12]
 968              		.loc 1 386 0
 969 0018 084B     		ldr	r3, .L59+4
 970 001a 1B6F     		ldr	r3, [r3, #112]
 971 001c 002B     		cmp	r3, #0
 972 001e 06D0     		beq	.L58
 973              		.loc 1 387 0
 974 0020 064B     		ldr	r3, .L59+4
 975 0022 1B6F     		ldr	r3, [r3, #112]
 976 0024 054A     		ldr	r2, .L59+4
 977 0026 526F     		ldr	r2, [r2, #116]
 978 0028 1046     		mov	r0, r2
 979 002a 0199     		ldr	r1, [sp, #4]
 980 002c 9847     		blx	r3
 981              	.L58:
 982              		.loc 1 389 0
 983 002e FFF7FEFF 		bl	_port_irq_epilogue
 984              		.loc 1 390 0
 985 0032 03B0     		add	sp, sp, #12
 986              		.cfi_def_cfa_offset 4
 987              		@ sp needed
 988 0034 5DF804FB 		ldr	pc, [sp], #4
 989              	.L60:
 990              		.align	2
 991              	.L59:
 992 0038 00640240 		.word	1073898496
 993 003c 00000000 		.word	dma_isr_redir
 994              		.cfi_endproc
 995              	.LFE267:
 996              		.size	Vector154, .-Vector154
 997              		.section	.text.Vector158,"ax",%progbits
 998              		.align	2
 999              		.p2align 4,,15
 1000              		.global	Vector158
 1001              		.thumb
 1002              		.thumb_func
 1003              		.type	Vector158, %function
 1004              	Vector158:
 1005              	.LFB268:
 1006              		.loc 1 397 0
 1007              		.cfi_startproc
 1008              		@ args = 0, pretend = 0, frame = 8
 1009              		@ frame_needed = 0, uses_anonymous_args = 0
 1010 0000 00B5     		push	{lr}
 1011              		.cfi_def_cfa_offset 4
 1012              		.cfi_offset 14, -4
 1013 0002 83B0     		sub	sp, sp, #12
 1014              		.cfi_def_cfa_offset 16
 1015              		.loc 1 402 0
 1016 0004 0C4B     		ldr	r3, .L63
 1017 0006 5B68     		ldr	r3, [r3, #4]
 1018 0008 9B0D     		lsrs	r3, r3, #22
 1019 000a 03F03D03 		and	r3, r3, #61
 1020 000e 0193     		str	r3, [sp, #4]
 1021              		.loc 1 403 0
 1022 0010 094A     		ldr	r2, .L63
ARM GAS  /tmp/cc5zJDjX.s 			page 19


 1023 0012 019B     		ldr	r3, [sp, #4]
 1024 0014 9B05     		lsls	r3, r3, #22
 1025 0016 D360     		str	r3, [r2, #12]
 1026              		.loc 1 404 0
 1027 0018 084B     		ldr	r3, .L63+4
 1028 001a 9B6F     		ldr	r3, [r3, #120]
 1029 001c 002B     		cmp	r3, #0
 1030 001e 06D0     		beq	.L62
 1031              		.loc 1 405 0
 1032 0020 064B     		ldr	r3, .L63+4
 1033 0022 9B6F     		ldr	r3, [r3, #120]
 1034 0024 054A     		ldr	r2, .L63+4
 1035 0026 D26F     		ldr	r2, [r2, #124]
 1036 0028 1046     		mov	r0, r2
 1037 002a 0199     		ldr	r1, [sp, #4]
 1038 002c 9847     		blx	r3
 1039              	.L62:
 1040              		.loc 1 407 0
 1041 002e FFF7FEFF 		bl	_port_irq_epilogue
 1042              		.loc 1 408 0
 1043 0032 03B0     		add	sp, sp, #12
 1044              		.cfi_def_cfa_offset 4
 1045              		@ sp needed
 1046 0034 5DF804FB 		ldr	pc, [sp], #4
 1047              	.L64:
 1048              		.align	2
 1049              	.L63:
 1050 0038 00640240 		.word	1073898496
 1051 003c 00000000 		.word	dma_isr_redir
 1052              		.cfi_endproc
 1053              	.LFE268:
 1054              		.size	Vector158, .-Vector158
 1055              		.section	.text.dmaInit,"ax",%progbits
 1056              		.align	2
 1057              		.p2align 4,,15
 1058              		.global	dmaInit
 1059              		.thumb
 1060              		.thumb_func
 1061              		.type	dmaInit, %function
 1062              	dmaInit:
 1063              	.LFB269:
 1064              		.loc 1 419 0
 1065              		.cfi_startproc
 1066              		@ args = 0, pretend = 0, frame = 8
 1067              		@ frame_needed = 0, uses_anonymous_args = 0
 1068              		@ link register save eliminated.
 1069 0000 82B0     		sub	sp, sp, #8
 1070              		.cfi_def_cfa_offset 8
 1071              		.loc 1 422 0
 1072 0002 164B     		ldr	r3, .L68
 1073 0004 0022     		movs	r2, #0
 1074 0006 1A60     		str	r2, [r3]
 1075              		.loc 1 423 0
 1076 0008 0023     		movs	r3, #0
 1077 000a 0193     		str	r3, [sp, #4]
 1078 000c 11E0     		b	.L66
 1079              	.L67:
ARM GAS  /tmp/cc5zJDjX.s 			page 20


 1080              		.loc 1 424 0 discriminator 3
 1081 000e 1449     		ldr	r1, .L68+4
 1082 0010 019A     		ldr	r2, [sp, #4]
 1083 0012 1346     		mov	r3, r2
 1084 0014 5B00     		lsls	r3, r3, #1
 1085 0016 1344     		add	r3, r3, r2
 1086 0018 9B00     		lsls	r3, r3, #2
 1087 001a 0B44     		add	r3, r3, r1
 1088 001c 1B68     		ldr	r3, [r3]
 1089 001e 0022     		movs	r2, #0
 1090 0020 1A60     		str	r2, [r3]
 1091              		.loc 1 425 0 discriminator 3
 1092 0022 104A     		ldr	r2, .L68+8
 1093 0024 019B     		ldr	r3, [sp, #4]
 1094 0026 0021     		movs	r1, #0
 1095 0028 42F83310 		str	r1, [r2, r3, lsl #3]
 1096              		.loc 1 423 0 discriminator 3
 1097 002c 019B     		ldr	r3, [sp, #4]
 1098 002e 0133     		adds	r3, r3, #1
 1099 0030 0193     		str	r3, [sp, #4]
 1100              	.L66:
 1101              		.loc 1 423 0 is_stmt 0 discriminator 1
 1102 0032 019B     		ldr	r3, [sp, #4]
 1103 0034 0F2B     		cmp	r3, #15
 1104 0036 EADD     		ble	.L67
 1105              		.loc 1 427 0 is_stmt 1
 1106 0038 0B4B     		ldr	r3, .L68+12
 1107 003a 4FF0FF32 		mov	r2, #-1
 1108 003e 9A60     		str	r2, [r3, #8]
 1109              		.loc 1 428 0
 1110 0040 094B     		ldr	r3, .L68+12
 1111 0042 4FF0FF32 		mov	r2, #-1
 1112 0046 DA60     		str	r2, [r3, #12]
 1113              		.loc 1 429 0
 1114 0048 084B     		ldr	r3, .L68+16
 1115 004a 4FF0FF32 		mov	r2, #-1
 1116 004e 9A60     		str	r2, [r3, #8]
 1117              		.loc 1 430 0
 1118 0050 064B     		ldr	r3, .L68+16
 1119 0052 4FF0FF32 		mov	r2, #-1
 1120 0056 DA60     		str	r2, [r3, #12]
 1121              		.loc 1 431 0
 1122 0058 02B0     		add	sp, sp, #8
 1123              		.cfi_def_cfa_offset 0
 1124              		@ sp needed
 1125 005a 7047     		bx	lr
 1126              	.L69:
 1127              		.align	2
 1128              	.L68:
 1129 005c 00000000 		.word	dma_streams_mask
 1130 0060 00000000 		.word	_stm32_dma_streams
 1131 0064 00000000 		.word	dma_isr_redir
 1132 0068 00600240 		.word	1073897472
 1133 006c 00640240 		.word	1073898496
 1134              		.cfi_endproc
 1135              	.LFE269:
 1136              		.size	dmaInit, .-dmaInit
ARM GAS  /tmp/cc5zJDjX.s 			page 21


 1137              		.section	.text.dmaStreamAllocate,"ax",%progbits
 1138              		.align	2
 1139              		.p2align 4,,15
 1140              		.global	dmaStreamAllocate
 1141              		.thumb
 1142              		.thumb_func
 1143              		.type	dmaStreamAllocate, %function
 1144              	dmaStreamAllocate:
 1145              	.LFB270:
 1146              		.loc 1 460 0
 1147              		.cfi_startproc
 1148              		@ args = 0, pretend = 0, frame = 16
 1149              		@ frame_needed = 0, uses_anonymous_args = 0
 1150 0000 00B5     		push	{lr}
 1151              		.cfi_def_cfa_offset 4
 1152              		.cfi_offset 14, -4
 1153 0002 85B0     		sub	sp, sp, #20
 1154              		.cfi_def_cfa_offset 24
 1155 0004 0390     		str	r0, [sp, #12]
 1156 0006 0291     		str	r1, [sp, #8]
 1157 0008 0192     		str	r2, [sp, #4]
 1158 000a 0093     		str	r3, [sp]
 1159              		.loc 1 465 0
 1160 000c 039B     		ldr	r3, [sp, #12]
 1161 000e 5B7A     		ldrb	r3, [r3, #9]	@ zero_extendqisi2
 1162 0010 1A46     		mov	r2, r3
 1163 0012 0123     		movs	r3, #1
 1164 0014 9340     		lsls	r3, r3, r2
 1165 0016 1A46     		mov	r2, r3
 1166 0018 324B     		ldr	r3, .L77
 1167 001a 1B68     		ldr	r3, [r3]
 1168 001c 1340     		ands	r3, r3, r2
 1169 001e 002B     		cmp	r3, #0
 1170 0020 01D0     		beq	.L71
 1171              		.loc 1 466 0
 1172 0022 0123     		movs	r3, #1
 1173 0024 59E0     		b	.L72
 1174              	.L71:
 1175              		.loc 1 469 0
 1176 0026 039B     		ldr	r3, [sp, #12]
 1177 0028 5B7A     		ldrb	r3, [r3, #9]	@ zero_extendqisi2
 1178 002a 1946     		mov	r1, r3
 1179 002c 2E4A     		ldr	r2, .L77+4
 1180 002e 019B     		ldr	r3, [sp, #4]
 1181 0030 42F83130 		str	r3, [r2, r1, lsl #3]
 1182              		.loc 1 470 0
 1183 0034 039B     		ldr	r3, [sp, #12]
 1184 0036 5B7A     		ldrb	r3, [r3, #9]	@ zero_extendqisi2
 1185 0038 2B4A     		ldr	r2, .L77+4
 1186 003a DB00     		lsls	r3, r3, #3
 1187 003c 1344     		add	r3, r3, r2
 1188 003e 009A     		ldr	r2, [sp]
 1189 0040 5A60     		str	r2, [r3, #4]
 1190              		.loc 1 471 0
 1191 0042 039B     		ldr	r3, [sp, #12]
 1192 0044 5B7A     		ldrb	r3, [r3, #9]	@ zero_extendqisi2
 1193 0046 1A46     		mov	r2, r3
ARM GAS  /tmp/cc5zJDjX.s 			page 22


 1194 0048 0123     		movs	r3, #1
 1195 004a 9340     		lsls	r3, r3, r2
 1196 004c 1A46     		mov	r2, r3
 1197 004e 254B     		ldr	r3, .L77
 1198 0050 1B68     		ldr	r3, [r3]
 1199 0052 1343     		orrs	r3, r3, r2
 1200 0054 234A     		ldr	r2, .L77
 1201 0056 1360     		str	r3, [r2]
 1202              		.loc 1 474 0
 1203 0058 224B     		ldr	r3, .L77
 1204 005a 1B68     		ldr	r3, [r3]
 1205 005c DBB2     		uxtb	r3, r3
 1206 005e 002B     		cmp	r3, #0
 1207 0060 05D0     		beq	.L73
 1208              		.loc 1 475 0
 1209 0062 224A     		ldr	r2, .L77+8
 1210 0064 214B     		ldr	r3, .L77+8
 1211 0066 1B6B     		ldr	r3, [r3, #48]
 1212 0068 43F40013 		orr	r3, r3, #2097152
 1213 006c 1363     		str	r3, [r2, #48]
 1214              	.L73:
 1215              		.loc 1 476 0
 1216 006e 1D4B     		ldr	r3, .L77
 1217 0070 1B68     		ldr	r3, [r3]
 1218 0072 03F47F43 		and	r3, r3, #65280
 1219 0076 002B     		cmp	r3, #0
 1220 0078 05D0     		beq	.L74
 1221              		.loc 1 477 0
 1222 007a 1C4A     		ldr	r2, .L77+8
 1223 007c 1B4B     		ldr	r3, .L77+8
 1224 007e 1B6B     		ldr	r3, [r3, #48]
 1225 0080 43F48003 		orr	r3, r3, #4194304
 1226 0084 1363     		str	r3, [r2, #48]
 1227              	.L74:
 1228              		.loc 1 480 0
 1229 0086 039B     		ldr	r3, [sp, #12]
 1230 0088 1B68     		ldr	r3, [r3]
 1231 008a 039A     		ldr	r2, [sp, #12]
 1232 008c 1268     		ldr	r2, [r2]
 1233 008e 1268     		ldr	r2, [r2]
 1234 0090 22F01F02 		bic	r2, r2, #31
 1235 0094 1A60     		str	r2, [r3]
 1236 0096 00BF     		nop
 1237              	.L75:
 1238              		.loc 1 480 0 is_stmt 0 discriminator 2
 1239 0098 039B     		ldr	r3, [sp, #12]
 1240 009a 1B68     		ldr	r3, [r3]
 1241 009c 1B68     		ldr	r3, [r3]
 1242 009e 03F00103 		and	r3, r3, #1
 1243 00a2 002B     		cmp	r3, #0
 1244 00a4 F8D1     		bne	.L75
 1245              		.loc 1 480 0 discriminator 3
 1246 00a6 039B     		ldr	r3, [sp, #12]
 1247 00a8 5B68     		ldr	r3, [r3, #4]
 1248 00aa 039A     		ldr	r2, [sp, #12]
 1249 00ac 127A     		ldrb	r2, [r2, #8]	@ zero_extendqisi2
 1250 00ae 1146     		mov	r1, r2
ARM GAS  /tmp/cc5zJDjX.s 			page 23


 1251 00b0 3D22     		movs	r2, #61
 1252 00b2 8A40     		lsls	r2, r2, r1
 1253 00b4 1A60     		str	r2, [r3]
 1254              		.loc 1 481 0 is_stmt 1 discriminator 3
 1255 00b6 039B     		ldr	r3, [sp, #12]
 1256 00b8 1B68     		ldr	r3, [r3]
 1257 00ba 0022     		movs	r2, #0
 1258 00bc 1A60     		str	r2, [r3]
 1259              		.loc 1 482 0 discriminator 3
 1260 00be 039B     		ldr	r3, [sp, #12]
 1261 00c0 1B68     		ldr	r3, [r3]
 1262 00c2 2122     		movs	r2, #33
 1263 00c4 5A61     		str	r2, [r3, #20]
 1264              		.loc 1 485 0 discriminator 3
 1265 00c6 019B     		ldr	r3, [sp, #4]
 1266 00c8 002B     		cmp	r3, #0
 1267 00ca 05D0     		beq	.L76
 1268              		.loc 1 486 0
 1269 00cc 039B     		ldr	r3, [sp, #12]
 1270 00ce 9B7A     		ldrb	r3, [r3, #10]	@ zero_extendqisi2
 1271 00d0 1846     		mov	r0, r3
 1272 00d2 0299     		ldr	r1, [sp, #8]
 1273 00d4 FFF7FEFF 		bl	nvicEnableVector
 1274              	.L76:
 1275              		.loc 1 488 0
 1276 00d8 0023     		movs	r3, #0
 1277              	.L72:
 1278              		.loc 1 489 0
 1279 00da 1846     		mov	r0, r3
 1280 00dc 05B0     		add	sp, sp, #20
 1281              		.cfi_def_cfa_offset 4
 1282              		@ sp needed
 1283 00de 5DF804FB 		ldr	pc, [sp], #4
 1284              	.L78:
 1285 00e2 00BF     		.align	2
 1286              	.L77:
 1287 00e4 00000000 		.word	dma_streams_mask
 1288 00e8 00000000 		.word	dma_isr_redir
 1289 00ec 00380240 		.word	1073887232
 1290              		.cfi_endproc
 1291              	.LFE270:
 1292              		.size	dmaStreamAllocate, .-dmaStreamAllocate
 1293              		.section	.text.dmaStreamRelease,"ax",%progbits
 1294              		.align	2
 1295              		.p2align 4,,15
 1296              		.global	dmaStreamRelease
 1297              		.thumb
 1298              		.thumb_func
 1299              		.type	dmaStreamRelease, %function
 1300              	dmaStreamRelease:
 1301              	.LFB271:
 1302              		.loc 1 504 0
 1303              		.cfi_startproc
 1304              		@ args = 0, pretend = 0, frame = 8
 1305              		@ frame_needed = 0, uses_anonymous_args = 0
 1306 0000 00B5     		push	{lr}
 1307              		.cfi_def_cfa_offset 4
ARM GAS  /tmp/cc5zJDjX.s 			page 24


 1308              		.cfi_offset 14, -4
 1309 0002 83B0     		sub	sp, sp, #12
 1310              		.cfi_def_cfa_offset 16
 1311 0004 0190     		str	r0, [sp, #4]
 1312              		.loc 1 513 0
 1313 0006 019B     		ldr	r3, [sp, #4]
 1314 0008 9B7A     		ldrb	r3, [r3, #10]	@ zero_extendqisi2
 1315 000a 1846     		mov	r0, r3
 1316 000c FFF7FEFF 		bl	nvicDisableVector
 1317              		.loc 1 516 0
 1318 0010 019B     		ldr	r3, [sp, #4]
 1319 0012 5B7A     		ldrb	r3, [r3, #9]	@ zero_extendqisi2
 1320 0014 1A46     		mov	r2, r3
 1321 0016 0123     		movs	r3, #1
 1322 0018 9340     		lsls	r3, r3, r2
 1323 001a DB43     		mvns	r3, r3
 1324 001c 1A46     		mov	r2, r3
 1325 001e 0F4B     		ldr	r3, .L82
 1326 0020 1B68     		ldr	r3, [r3]
 1327 0022 1340     		ands	r3, r3, r2
 1328 0024 0D4A     		ldr	r2, .L82
 1329 0026 1360     		str	r3, [r2]
 1330              		.loc 1 519 0
 1331 0028 0C4B     		ldr	r3, .L82
 1332 002a 1B68     		ldr	r3, [r3]
 1333 002c DBB2     		uxtb	r3, r3
 1334 002e 002B     		cmp	r3, #0
 1335 0030 05D1     		bne	.L80
 1336              		.loc 1 520 0
 1337 0032 0B4A     		ldr	r2, .L82+4
 1338 0034 0A4B     		ldr	r3, .L82+4
 1339 0036 1B6B     		ldr	r3, [r3, #48]
 1340 0038 23F40013 		bic	r3, r3, #2097152
 1341 003c 1363     		str	r3, [r2, #48]
 1342              	.L80:
 1343              		.loc 1 521 0
 1344 003e 074B     		ldr	r3, .L82
 1345 0040 1B68     		ldr	r3, [r3]
 1346 0042 03F47F43 		and	r3, r3, #65280
 1347 0046 002B     		cmp	r3, #0
 1348 0048 05D1     		bne	.L79
 1349              		.loc 1 522 0
 1350 004a 054A     		ldr	r2, .L82+4
 1351 004c 044B     		ldr	r3, .L82+4
 1352 004e 1B6B     		ldr	r3, [r3, #48]
 1353 0050 23F48003 		bic	r3, r3, #4194304
 1354 0054 1363     		str	r3, [r2, #48]
 1355              	.L79:
 1356              		.loc 1 523 0
 1357 0056 03B0     		add	sp, sp, #12
 1358              		.cfi_def_cfa_offset 4
 1359              		@ sp needed
 1360 0058 5DF804FB 		ldr	pc, [sp], #4
 1361              	.L83:
 1362              		.align	2
 1363              	.L82:
 1364 005c 00000000 		.word	dma_streams_mask
ARM GAS  /tmp/cc5zJDjX.s 			page 25


 1365 0060 00380240 		.word	1073887232
 1366              		.cfi_endproc
 1367              	.LFE271:
 1368              		.size	dmaStreamRelease, .-dmaStreamRelease
 1369 0064 AFF30080 		.text
 1369      AFF30080 
 1369      AFF30080 
 1370              	.Letext0:
 1371              		.file 2 "/opt/gcc-arm-none-eabi/lib/gcc/arm-none-eabi/4.9.3/include/stddef.h"
 1372              		.file 3 "/opt/gcc-arm-none-eabi/arm-none-eabi/include/machine/_default_types.h"
 1373              		.file 4 "/opt/gcc-arm-none-eabi/arm-none-eabi/include/stdint.h"
 1374              		.file 5 "/home/makkmarci/workspace/CLEAN/ChibiOS/os/rt/ports/ARMCMx/compilers/GCC/chtypes.h"
 1375              		.file 6 "/home/makkmarci/workspace/CLEAN/ChibiOS/os/rt/include/chsystypes.h"
 1376              		.file 7 "/home/makkmarci/workspace/CLEAN/ChibiOS/os/rt/include/chschd.h"
 1377              		.file 8 "/home/makkmarci/workspace/CLEAN/ChibiOS/os/ext/CMSIS/ST/stm32f407xx.h"
 1378              		.file 9 "/home/makkmarci/workspace/CLEAN/ChibiOS/os/rt/ports/ARMCMx/chcore.h"
 1379              		.file 10 "/home/makkmarci/workspace/CLEAN/ChibiOS/os/rt/ports/ARMCMx/chcore_v7m.h"
 1380              		.file 11 "/home/makkmarci/workspace/CLEAN/ChibiOS/os/rt/include/chtm.h"
 1381              		.file 12 "/home/makkmarci/workspace/CLEAN/ChibiOS/os/rt/include/chsem.h"
 1382              		.file 13 "/home/makkmarci/workspace/CLEAN/ChibiOS/os/rt/include/chmtx.h"
 1383              		.file 14 "/home/makkmarci/workspace/CLEAN/ChibiOS/os/hal/ports/STM32/STM32F4xx/stm32_dma.h"
 1384              		.file 15 "/home/makkmarci/workspace/CLEAN/ChibiOS/os/ext/CMSIS/include/core_cm4.h"