ARM GAS  /tmp/ccfUjDUZ.s 			page 1


   1              		.syntax unified
   2              		.cpu cortex-m4
   3              		.eabi_attribute 27, 1
   4              		.eabi_attribute 28, 1
   5              		.fpu fpv4-sp-d16
   6              		.eabi_attribute 20, 1
   7              		.eabi_attribute 21, 1
   8              		.eabi_attribute 23, 3
   9              		.eabi_attribute 24, 1
  10              		.eabi_attribute 25, 1
  11              		.eabi_attribute 26, 1
  12              		.eabi_attribute 30, 6
  13              		.eabi_attribute 34, 1
  14              		.eabi_attribute 18, 4
  15              		.thumb
  16              		.file	"testbmk.c"
  17              		.text
  18              	.Ltext0:
  19              		.cfi_sections	.debug_frame
  20              		.section	.text.port_lock,"ax",%progbits
  21              		.align	2
  22              		.p2align 4,,15
  23              		.thumb
  24              		.thumb_func
  25              		.type	port_lock, %function
  26              	port_lock:
  27              	.LFB116:
  28              		.file 1 "/home/makkmarci/workspace/CLEAN/ChibiOS/os/rt/ports/ARMCMx/chcore_v7m.h"
  29              		.loc 1 444 0
  30              		.cfi_startproc
  31              		@ args = 0, pretend = 0, frame = 8
  32              		@ frame_needed = 0, uses_anonymous_args = 0
  33              		@ link register save eliminated.
  34 0000 82B0     		sub	sp, sp, #8
  35              		.cfi_def_cfa_offset 8
  36 0002 2023     		movs	r3, #32
  37 0004 0193     		str	r3, [sp, #4]
  38              	.LBB6:
  39              	.LBB7:
  40              		.file 2 "/home/makkmarci/workspace/CLEAN/ChibiOS/os/ext/CMSIS/include/core_cmFunc.h"
  41              		.loc 2 546 0
  42 0006 019B     		ldr	r3, [sp, #4]
  43              	@ 546 "/home/makkmarci/workspace/CLEAN/ChibiOS/os/ext/CMSIS/include/core_cmFunc.h" 1
  44 0008 83F31188 		MSR basepri, r3
  45              	@ 0 "" 2
  46              		.thumb
  47              	.LBE7:
  48              	.LBE6:
  49              		.loc 1 451 0
  50 000c 02B0     		add	sp, sp, #8
  51              		.cfi_def_cfa_offset 0
  52              		@ sp needed
  53 000e 7047     		bx	lr
  54              		.cfi_endproc
  55              	.LFE116:
  56              		.size	port_lock, .-port_lock
  57              		.section	.text.port_unlock,"ax",%progbits
ARM GAS  /tmp/ccfUjDUZ.s 			page 2


  58              		.align	2
  59              		.p2align 4,,15
  60              		.thumb
  61              		.thumb_func
  62              		.type	port_unlock, %function
  63              	port_unlock:
  64              	.LFB117:
  65              		.loc 1 458 0
  66              		.cfi_startproc
  67              		@ args = 0, pretend = 0, frame = 8
  68              		@ frame_needed = 0, uses_anonymous_args = 0
  69              		@ link register save eliminated.
  70 0000 82B0     		sub	sp, sp, #8
  71              		.cfi_def_cfa_offset 8
  72 0002 0023     		movs	r3, #0
  73 0004 0193     		str	r3, [sp, #4]
  74              	.LBB8:
  75              	.LBB9:
  76              		.loc 2 546 0
  77 0006 019B     		ldr	r3, [sp, #4]
  78              	@ 546 "/home/makkmarci/workspace/CLEAN/ChibiOS/os/ext/CMSIS/include/core_cmFunc.h" 1
  79 0008 83F31188 		MSR basepri, r3
  80              	@ 0 "" 2
  81              		.thumb
  82              	.LBE9:
  83              	.LBE8:
  84              		.loc 1 465 0
  85 000c 02B0     		add	sp, sp, #8
  86              		.cfi_def_cfa_offset 0
  87              		@ sp needed
  88 000e 7047     		bx	lr
  89              		.cfi_endproc
  90              	.LFE117:
  91              		.size	port_unlock, .-port_unlock
  92              		.section	.text.chSysLock,"ax",%progbits
  93              		.align	2
  94              		.p2align 4,,15
  95              		.thumb
  96              		.thumb_func
  97              		.type	chSysLock, %function
  98              	chSysLock:
  99              	.LFB145:
 100              		.file 3 "/home/makkmarci/workspace/CLEAN/ChibiOS/os/rt/include/chsys.h"
 101              		.loc 3 346 0
 102              		.cfi_startproc
 103              		@ args = 0, pretend = 0, frame = 0
 104              		@ frame_needed = 0, uses_anonymous_args = 0
 105 0000 08B5     		push	{r3, lr}
 106              		.cfi_def_cfa_offset 8
 107              		.cfi_offset 3, -8
 108              		.cfi_offset 14, -4
 109              		.loc 3 348 0
 110 0002 FFF7FEFF 		bl	port_lock
 111              		.loc 3 351 0
 112 0006 08BD     		pop	{r3, pc}
 113              		.cfi_endproc
 114              	.LFE145:
ARM GAS  /tmp/ccfUjDUZ.s 			page 3


 115              		.size	chSysLock, .-chSysLock
 116              		.section	.text.chSysUnlock,"ax",%progbits
 117              		.align	2
 118              		.p2align 4,,15
 119              		.thumb
 120              		.thumb_func
 121              		.type	chSysUnlock, %function
 122              	chSysUnlock:
 123              	.LFB146:
 124              		.loc 3 358 0
 125              		.cfi_startproc
 126              		@ args = 0, pretend = 0, frame = 0
 127              		@ frame_needed = 0, uses_anonymous_args = 0
 128 0000 08B5     		push	{r3, lr}
 129              		.cfi_def_cfa_offset 8
 130              		.cfi_offset 3, -8
 131              		.cfi_offset 14, -4
 132              		.loc 3 371 0
 133 0002 FFF7FEFF 		bl	port_unlock
 134              		.loc 3 372 0
 135 0006 08BD     		pop	{r3, pc}
 136              		.cfi_endproc
 137              	.LFE146:
 138              		.size	chSysUnlock, .-chSysUnlock
 139 0008 AFF30080 		.section	.text.chThdGetSelfX,"ax",%progbits
 139      AFF30080 
 140              		.align	2
 141              		.p2align 4,,15
 142              		.thumb
 143              		.thumb_func
 144              		.type	chThdGetSelfX, %function
 145              	chThdGetSelfX:
 146              	.LFB166:
 147              		.file 4 "/home/makkmarci/workspace/CLEAN/ChibiOS/os/rt/include/chthreads.h"
 148              		.loc 4 174 0
 149              		.cfi_startproc
 150              		@ args = 0, pretend = 0, frame = 0
 151              		@ frame_needed = 0, uses_anonymous_args = 0
 152              		@ link register save eliminated.
 153              		.loc 4 176 0
 154 0000 014B     		ldr	r3, .L7
 155 0002 9B69     		ldr	r3, [r3, #24]
 156              		.loc 4 177 0
 157 0004 1846     		mov	r0, r3
 158 0006 7047     		bx	lr
 159              	.L8:
 160              		.align	2
 161              	.L7:
 162 0008 00000000 		.word	ch
 163              		.cfi_endproc
 164              	.LFE166:
 165              		.size	chThdGetSelfX, .-chThdGetSelfX
 166 000c AFF30080 		.section	.text.chThdGetPriorityX,"ax",%progbits
 167              		.align	2
 168              		.p2align 4,,15
 169              		.thumb
 170              		.thumb_func
ARM GAS  /tmp/ccfUjDUZ.s 			page 4


 171              		.type	chThdGetPriorityX, %function
 172              	chThdGetPriorityX:
 173              	.LFB167:
 174              		.loc 4 187 0
 175              		.cfi_startproc
 176              		@ args = 0, pretend = 0, frame = 0
 177              		@ frame_needed = 0, uses_anonymous_args = 0
 178 0000 08B5     		push	{r3, lr}
 179              		.cfi_def_cfa_offset 8
 180              		.cfi_offset 3, -8
 181              		.cfi_offset 14, -4
 182              		.loc 4 189 0
 183 0002 FFF7FEFF 		bl	chThdGetSelfX
 184 0006 0346     		mov	r3, r0
 185 0008 9B68     		ldr	r3, [r3, #8]
 186              		.loc 4 190 0
 187 000a 1846     		mov	r0, r3
 188 000c 08BD     		pop	{r3, pc}
 189              		.cfi_endproc
 190              	.LFE167:
 191              		.size	chThdGetPriorityX, .-chThdGetPriorityX
 192 000e 00BF     		.section	.text.chThdShouldTerminateX,"ax",%progbits
 193              		.align	2
 194              		.p2align 4,,15
 195              		.thumb
 196              		.thumb_func
 197              		.type	chThdShouldTerminateX, %function
 198              	chThdShouldTerminateX:
 199              	.LFB169:
 200              		.loc 4 231 0
 201              		.cfi_startproc
 202              		@ args = 0, pretend = 0, frame = 0
 203              		@ frame_needed = 0, uses_anonymous_args = 0
 204 0000 08B5     		push	{r3, lr}
 205              		.cfi_def_cfa_offset 8
 206              		.cfi_offset 3, -8
 207              		.cfi_offset 14, -4
 208              		.loc 4 233 0
 209 0002 FFF7FEFF 		bl	chThdGetSelfX
 210 0006 0346     		mov	r3, r0
 211 0008 5B7F     		ldrb	r3, [r3, #29]	@ zero_extendqisi2
 212 000a 03F00403 		and	r3, r3, #4
 213 000e 002B     		cmp	r3, #0
 214 0010 14BF     		ite	ne
 215 0012 0123     		movne	r3, #1
 216 0014 0023     		moveq	r3, #0
 217 0016 DBB2     		uxtb	r3, r3
 218              		.loc 4 234 0
 219 0018 1846     		mov	r0, r3
 220 001a 08BD     		pop	{r3, pc}
 221              		.cfi_endproc
 222              	.LFE169:
 223              		.size	chThdShouldTerminateX, .-chThdShouldTerminateX
 224 001c AFF30080 		.section	.text.chMsgGet,"ax",%progbits
 225              		.align	2
 226              		.p2align 4,,15
 227              		.thumb
ARM GAS  /tmp/ccfUjDUZ.s 			page 5


 228              		.thumb_func
 229              		.type	chMsgGet, %function
 230              	chMsgGet:
 231              	.LFB198:
 232              		.file 5 "/home/makkmarci/workspace/CLEAN/ChibiOS/os/rt/include/chmsg.h"
 233              		.loc 5 96 0
 234              		.cfi_startproc
 235              		@ args = 0, pretend = 0, frame = 8
 236              		@ frame_needed = 0, uses_anonymous_args = 0
 237              		@ link register save eliminated.
 238 0000 82B0     		sub	sp, sp, #8
 239              		.cfi_def_cfa_offset 8
 240 0002 0190     		str	r0, [sp, #4]
 241              		.loc 5 98 0
 242 0004 019B     		ldr	r3, [sp, #4]
 243 0006 1B6B     		ldr	r3, [r3, #48]
 244              		.loc 5 99 0
 245 0008 1846     		mov	r0, r3
 246 000a 02B0     		add	sp, sp, #8
 247              		.cfi_def_cfa_offset 0
 248              		@ sp needed
 249 000c 7047     		bx	lr
 250              		.cfi_endproc
 251              	.LFE198:
 252              		.size	chMsgGet, .-chMsgGet
 253 000e 00BF     		.section	.text.chIQGet,"ax",%progbits
 254              		.align	2
 255              		.p2align 4,,15
 256              		.thumb
 257              		.thumb_func
 258              		.type	chIQGet, %function
 259              	chIQGet:
 260              	.LFB210:
 261              		.file 6 "/home/makkmarci/workspace/CLEAN/ChibiOS/os/rt/include/chqueues.h"
 262              		.loc 6 339 0
 263              		.cfi_startproc
 264              		@ args = 0, pretend = 0, frame = 8
 265              		@ frame_needed = 0, uses_anonymous_args = 0
 266 0000 00B5     		push	{lr}
 267              		.cfi_def_cfa_offset 4
 268              		.cfi_offset 14, -4
 269 0002 83B0     		sub	sp, sp, #12
 270              		.cfi_def_cfa_offset 16
 271 0004 0190     		str	r0, [sp, #4]
 272              		.loc 6 341 0
 273 0006 0198     		ldr	r0, [sp, #4]
 274 0008 4FF0FF31 		mov	r1, #-1
 275 000c FFF7FEFF 		bl	chIQGetTimeout
 276 0010 0346     		mov	r3, r0
 277              		.loc 6 342 0
 278 0012 1846     		mov	r0, r3
 279 0014 03B0     		add	sp, sp, #12
 280              		.cfi_def_cfa_offset 4
 281              		@ sp needed
 282 0016 5DF804FB 		ldr	pc, [sp], #4
 283              		.cfi_endproc
 284              	.LFE210:
ARM GAS  /tmp/ccfUjDUZ.s 			page 6


 285              		.size	chIQGet, .-chIQGet
 286 001a 00BFAFF3 		.section	.bss.sem1,"aw",%nobits
 286      0080
 287              		.align	2
 288              		.type	sem1, %object
 289              		.size	sem1, 12
 290              	sem1:
 291 0000 00000000 		.space	12
 291      00000000 
 291      00000000 
 292              		.section	.bss.mtx1,"aw",%nobits
 293              		.align	2
 294              		.type	mtx1, %object
 295              		.size	mtx1, 16
 296              	mtx1:
 297 0000 00000000 		.space	16
 297      00000000 
 297      00000000 
 297      00000000 
 298              		.section	.text.thread1,"ax",%progbits
 299              		.align	2
 300              		.p2align 4,,15
 301              		.thumb
 302              		.thumb_func
 303              		.type	thread1, %function
 304              	thread1:
 305              	.LFB216:
 306              		.file 7 "/home/makkmarci/workspace/CLEAN/ChibiOS/test/rt/testbmk.c"
 307              		.loc 7 66 0
 308              		.cfi_startproc
 309              		@ args = 0, pretend = 0, frame = 8
 310              		@ frame_needed = 0, uses_anonymous_args = 0
 311 0000 00B5     		push	{lr}
 312              		.cfi_def_cfa_offset 4
 313              		.cfi_offset 14, -4
 314 0002 83B0     		sub	sp, sp, #12
 315              		.cfi_def_cfa_offset 16
 316 0004 0190     		str	r0, [sp, #4]
 317              		.loc 7 68 0
 318 0006 019B     		ldr	r3, [sp, #4]
 319 0008 1846     		mov	r0, r3
 320 000a FFF7FEFF 		bl	chThdExit
 321              		.loc 7 69 0
 322 000e 03B0     		add	sp, sp, #12
 323              		.cfi_def_cfa_offset 4
 324              		@ sp needed
 325 0010 5DF804FB 		ldr	pc, [sp], #4
 326              		.cfi_endproc
 327              	.LFE216:
 328              		.size	thread1, .-thread1
 329 0014 AFF30080 		.section	.text.thread2,"ax",%progbits
 329      AFF30080 
 329      AFF30080 
 330              		.align	2
 331              		.p2align 4,,15
 332              		.thumb
 333              		.thumb_func
ARM GAS  /tmp/ccfUjDUZ.s 			page 7


 334              		.type	thread2, %function
 335              	thread2:
 336              	.LFB217:
 337              		.loc 7 72 0
 338              		.cfi_startproc
 339              		@ args = 0, pretend = 0, frame = 16
 340              		@ frame_needed = 0, uses_anonymous_args = 0
 341 0000 00B5     		push	{lr}
 342              		.cfi_def_cfa_offset 4
 343              		.cfi_offset 14, -4
 344 0002 85B0     		sub	sp, sp, #20
 345              		.cfi_def_cfa_offset 24
 346 0004 0190     		str	r0, [sp, #4]
 347              	.L19:
 348              		.loc 7 78 0 discriminator 1
 349 0006 FFF7FEFF 		bl	chMsgWait
 350 000a 0390     		str	r0, [sp, #12]
 351              		.loc 7 79 0 discriminator 1
 352 000c 0398     		ldr	r0, [sp, #12]
 353 000e FFF7FEFF 		bl	chMsgGet
 354 0012 0290     		str	r0, [sp, #8]
 355              		.loc 7 80 0 discriminator 1
 356 0014 0398     		ldr	r0, [sp, #12]
 357 0016 0299     		ldr	r1, [sp, #8]
 358 0018 FFF7FEFF 		bl	chMsgRelease
 359              		.loc 7 81 0 discriminator 1
 360 001c 029B     		ldr	r3, [sp, #8]
 361 001e 002B     		cmp	r3, #0
 362 0020 F1D1     		bne	.L19
 363              		.loc 7 82 0
 364 0022 05B0     		add	sp, sp, #20
 365              		.cfi_def_cfa_offset 4
 366              		@ sp needed
 367 0024 5DF804FB 		ldr	pc, [sp], #4
 368              		.cfi_endproc
 369              	.LFE217:
 370              		.size	thread2, .-thread2
 371 0028 AFF30080 		.section	.text.msg_loop_test,"ax",%progbits
 371      AFF30080 
 372              		.align	2
 373              		.p2align 4,,15
 374              		.thumb
 375              		.thumb_func
 376              		.type	msg_loop_test, %function
 377              	msg_loop_test:
 378              	.LFB218:
 379              		.loc 7 87 0
 380              		.cfi_startproc
 381              		@ args = 0, pretend = 0, frame = 16
 382              		@ frame_needed = 0, uses_anonymous_args = 0
 383 0000 00B5     		push	{lr}
 384              		.cfi_def_cfa_offset 4
 385              		.cfi_offset 14, -4
 386 0002 85B0     		sub	sp, sp, #20
 387              		.cfi_def_cfa_offset 24
 388 0004 0190     		str	r0, [sp, #4]
 389              		.loc 7 89 0
ARM GAS  /tmp/ccfUjDUZ.s 			page 8


 390 0006 0023     		movs	r3, #0
 391 0008 0393     		str	r3, [sp, #12]
 392              		.loc 7 90 0
 393 000a FFF7FEFF 		bl	test_wait_tick
 394              		.loc 7 91 0
 395 000e 4FF47A70 		mov	r0, #1000
 396 0012 FFF7FEFF 		bl	test_start_timer
 397              	.L21:
 398              		.loc 7 93 0 discriminator 1
 399 0016 0198     		ldr	r0, [sp, #4]
 400 0018 0121     		movs	r1, #1
 401 001a FFF7FEFF 		bl	chMsgSend
 402              		.loc 7 94 0 discriminator 1
 403 001e 039B     		ldr	r3, [sp, #12]
 404 0020 0133     		adds	r3, r3, #1
 405 0022 0393     		str	r3, [sp, #12]
 406              		.loc 7 98 0 discriminator 1
 407 0024 074B     		ldr	r3, .L23
 408 0026 1B78     		ldrb	r3, [r3]	@ zero_extendqisi2
 409 0028 83F00103 		eor	r3, r3, #1
 410 002c DBB2     		uxtb	r3, r3
 411 002e 002B     		cmp	r3, #0
 412 0030 F1D1     		bne	.L21
 413              		.loc 7 99 0
 414 0032 0198     		ldr	r0, [sp, #4]
 415 0034 0021     		movs	r1, #0
 416 0036 FFF7FEFF 		bl	chMsgSend
 417              		.loc 7 100 0
 418 003a 039B     		ldr	r3, [sp, #12]
 419              		.loc 7 101 0
 420 003c 1846     		mov	r0, r3
 421 003e 05B0     		add	sp, sp, #20
 422              		.cfi_def_cfa_offset 4
 423              		@ sp needed
 424 0040 5DF804FB 		ldr	pc, [sp], #4
 425              	.L24:
 426              		.align	2
 427              	.L23:
 428 0044 00000000 		.word	test_timer_done
 429              		.cfi_endproc
 430              	.LFE218:
 431              		.size	msg_loop_test, .-msg_loop_test
 432 0048 AFF30080 		.section	.rodata
 432      AFF30080 
 433              		.align	2
 434              	.LC0:
 435 0000 2D2D2D20 		.ascii	"--- Score : \000"
 435      53636F72 
 435      65203A20 
 435      00
 436 000d 000000   		.align	2
 437              	.LC1:
 438 0010 206D7367 		.ascii	" msgs/S, \000"
 438      732F532C 
 438      2000
 439 001a 0000     		.align	2
 440              	.LC2:
ARM GAS  /tmp/ccfUjDUZ.s 			page 9


 441 001c 20637478 		.ascii	" ctxswc/S\000"
 441      7377632F 
 441      5300
 442              		.section	.text.bmk1_execute,"ax",%progbits
 443              		.align	2
 444              		.p2align 4,,15
 445              		.thumb
 446              		.thumb_func
 447              		.type	bmk1_execute, %function
 448              	bmk1_execute:
 449              	.LFB219:
 450              		.loc 7 112 0
 451              		.cfi_startproc
 452              		@ args = 0, pretend = 0, frame = 8
 453              		@ frame_needed = 0, uses_anonymous_args = 0
 454 0000 10B5     		push	{r4, lr}
 455              		.cfi_def_cfa_offset 8
 456              		.cfi_offset 4, -8
 457              		.cfi_offset 14, -4
 458 0002 84B0     		sub	sp, sp, #16
 459              		.cfi_def_cfa_offset 24
 460              		.loc 7 115 0
 461 0004 154B     		ldr	r3, .L26
 462 0006 1C68     		ldr	r4, [r3]
 463 0008 FFF7FEFF 		bl	chThdGetPriorityX
 464 000c 0346     		mov	r3, r0
 465 000e 5A1E     		subs	r2, r3, #1
 466 0010 0023     		movs	r3, #0
 467 0012 0093     		str	r3, [sp]
 468 0014 2046     		mov	r0, r4
 469 0016 4FF4E871 		mov	r1, #464
 470 001a 114B     		ldr	r3, .L26+4
 471 001c FFF7FEFF 		bl	chThdCreateStatic
 472 0020 0246     		mov	r2, r0
 473 0022 104B     		ldr	r3, .L26+8
 474 0024 1A60     		str	r2, [r3]
 475              		.loc 7 116 0
 476 0026 0F4B     		ldr	r3, .L26+8
 477 0028 1B68     		ldr	r3, [r3]
 478 002a 1846     		mov	r0, r3
 479 002c FFF7FEFF 		bl	msg_loop_test
 480 0030 0390     		str	r0, [sp, #12]
 481              		.loc 7 117 0
 482 0032 FFF7FEFF 		bl	test_wait_threads
 483              		.loc 7 118 0
 484 0036 0C48     		ldr	r0, .L26+12
 485 0038 FFF7FEFF 		bl	test_print
 486              		.loc 7 119 0
 487 003c 0398     		ldr	r0, [sp, #12]
 488 003e FFF7FEFF 		bl	test_printn
 489              		.loc 7 120 0
 490 0042 0A48     		ldr	r0, .L26+16
 491 0044 FFF7FEFF 		bl	test_print
 492              		.loc 7 121 0
 493 0048 039B     		ldr	r3, [sp, #12]
 494 004a 5B00     		lsls	r3, r3, #1
 495 004c 1846     		mov	r0, r3
ARM GAS  /tmp/ccfUjDUZ.s 			page 10


 496 004e FFF7FEFF 		bl	test_printn
 497              		.loc 7 122 0
 498 0052 0748     		ldr	r0, .L26+20
 499 0054 FFF7FEFF 		bl	test_println
 500              		.loc 7 123 0
 501 0058 04B0     		add	sp, sp, #16
 502              		.cfi_def_cfa_offset 8
 503              		@ sp needed
 504 005a 10BD     		pop	{r4, pc}
 505              	.L27:
 506              		.align	2
 507              	.L26:
 508 005c 00000000 		.word	wa
 509 0060 00000000 		.word	thread2
 510 0064 00000000 		.word	threads
 511 0068 00000000 		.word	.LC0
 512 006c 10000000 		.word	.LC1
 513 0070 1C000000 		.word	.LC2
 514              		.cfi_endproc
 515              	.LFE219:
 516              		.size	bmk1_execute, .-bmk1_execute
 517              		.global	testbmk1
 518 0074 AFF30080 		.section	.rodata
 518      AFF30080 
 518      AFF30080 
 519 0026 0000     		.align	2
 520              	.LC3:
 521 0028 42656E63 		.ascii	"Benchmark, messages #1\000"
 521      686D6172 
 521      6B2C206D 
 521      65737361 
 521      67657320 
 522              		.section	.rodata.testbmk1,"a",%progbits
 523              		.align	2
 524              		.type	testbmk1, %object
 525              		.size	testbmk1, 16
 526              	testbmk1:
 527 0000 28000000 		.word	.LC3
 528 0004 00000000 		.word	0
 529 0008 00000000 		.word	0
 530 000c 00000000 		.word	bmk1_execute
 531              		.section	.text.bmk2_execute,"ax",%progbits
 532              		.align	2
 533              		.p2align 4,,15
 534              		.thumb
 535              		.thumb_func
 536              		.type	bmk2_execute, %function
 537              	bmk2_execute:
 538              	.LFB220:
 539              		.loc 7 141 0
 540              		.cfi_startproc
 541              		@ args = 0, pretend = 0, frame = 8
 542              		@ frame_needed = 0, uses_anonymous_args = 0
 543 0000 10B5     		push	{r4, lr}
 544              		.cfi_def_cfa_offset 8
 545              		.cfi_offset 4, -8
 546              		.cfi_offset 14, -4
ARM GAS  /tmp/ccfUjDUZ.s 			page 11


 547 0002 84B0     		sub	sp, sp, #16
 548              		.cfi_def_cfa_offset 24
 549              		.loc 7 144 0
 550 0004 154B     		ldr	r3, .L29
 551 0006 1C68     		ldr	r4, [r3]
 552 0008 FFF7FEFF 		bl	chThdGetPriorityX
 553 000c 0346     		mov	r3, r0
 554 000e 5A1C     		adds	r2, r3, #1
 555 0010 0023     		movs	r3, #0
 556 0012 0093     		str	r3, [sp]
 557 0014 2046     		mov	r0, r4
 558 0016 4FF4E871 		mov	r1, #464
 559 001a 114B     		ldr	r3, .L29+4
 560 001c FFF7FEFF 		bl	chThdCreateStatic
 561 0020 0246     		mov	r2, r0
 562 0022 104B     		ldr	r3, .L29+8
 563 0024 1A60     		str	r2, [r3]
 564              		.loc 7 145 0
 565 0026 0F4B     		ldr	r3, .L29+8
 566 0028 1B68     		ldr	r3, [r3]
 567 002a 1846     		mov	r0, r3
 568 002c FFF7FEFF 		bl	msg_loop_test
 569 0030 0390     		str	r0, [sp, #12]
 570              		.loc 7 146 0
 571 0032 FFF7FEFF 		bl	test_wait_threads
 572              		.loc 7 147 0
 573 0036 0C48     		ldr	r0, .L29+12
 574 0038 FFF7FEFF 		bl	test_print
 575              		.loc 7 148 0
 576 003c 0398     		ldr	r0, [sp, #12]
 577 003e FFF7FEFF 		bl	test_printn
 578              		.loc 7 149 0
 579 0042 0A48     		ldr	r0, .L29+16
 580 0044 FFF7FEFF 		bl	test_print
 581              		.loc 7 150 0
 582 0048 039B     		ldr	r3, [sp, #12]
 583 004a 5B00     		lsls	r3, r3, #1
 584 004c 1846     		mov	r0, r3
 585 004e FFF7FEFF 		bl	test_printn
 586              		.loc 7 151 0
 587 0052 0748     		ldr	r0, .L29+20
 588 0054 FFF7FEFF 		bl	test_println
 589              		.loc 7 152 0
 590 0058 04B0     		add	sp, sp, #16
 591              		.cfi_def_cfa_offset 8
 592              		@ sp needed
 593 005a 10BD     		pop	{r4, pc}
 594              	.L30:
 595              		.align	2
 596              	.L29:
 597 005c 00000000 		.word	wa
 598 0060 00000000 		.word	thread2
 599 0064 00000000 		.word	threads
 600 0068 00000000 		.word	.LC0
 601 006c 10000000 		.word	.LC1
 602 0070 1C000000 		.word	.LC2
 603              		.cfi_endproc
ARM GAS  /tmp/ccfUjDUZ.s 			page 12


 604              	.LFE220:
 605              		.size	bmk2_execute, .-bmk2_execute
 606              		.global	testbmk2
 607 0074 AFF30080 		.section	.rodata
 607      AFF30080 
 607      AFF30080 
 608 003f 00       		.align	2
 609              	.LC4:
 610 0040 42656E63 		.ascii	"Benchmark, messages #2\000"
 610      686D6172 
 610      6B2C206D 
 610      65737361 
 610      67657320 
 611              		.section	.rodata.testbmk2,"a",%progbits
 612              		.align	2
 613              		.type	testbmk2, %object
 614              		.size	testbmk2, 16
 615              	testbmk2:
 616 0000 40000000 		.word	.LC4
 617 0004 00000000 		.word	0
 618 0008 00000000 		.word	0
 619 000c 00000000 		.word	bmk2_execute
 620              		.section	.text.bmk3_execute,"ax",%progbits
 621              		.align	2
 622              		.p2align 4,,15
 623              		.thumb
 624              		.thumb_func
 625              		.type	bmk3_execute, %function
 626              	bmk3_execute:
 627              	.LFB221:
 628              		.loc 7 171 0
 629              		.cfi_startproc
 630              		@ args = 0, pretend = 0, frame = 8
 631              		@ frame_needed = 0, uses_anonymous_args = 0
 632 0000 10B5     		push	{r4, lr}
 633              		.cfi_def_cfa_offset 8
 634              		.cfi_offset 4, -8
 635              		.cfi_offset 14, -4
 636 0002 84B0     		sub	sp, sp, #16
 637              		.cfi_def_cfa_offset 24
 638              		.loc 7 174 0
 639 0004 374B     		ldr	r3, .L32
 640 0006 1C68     		ldr	r4, [r3]
 641 0008 FFF7FEFF 		bl	chThdGetPriorityX
 642 000c 0346     		mov	r3, r0
 643 000e 5A1C     		adds	r2, r3, #1
 644 0010 0023     		movs	r3, #0
 645 0012 0093     		str	r3, [sp]
 646 0014 2046     		mov	r0, r4
 647 0016 4FF4E871 		mov	r1, #464
 648 001a 334B     		ldr	r3, .L32+4
 649 001c FFF7FEFF 		bl	chThdCreateStatic
 650 0020 0246     		mov	r2, r0
 651 0022 324B     		ldr	r3, .L32+8
 652 0024 1A60     		str	r2, [r3]
 653              		.loc 7 175 0
 654 0026 2F4B     		ldr	r3, .L32
ARM GAS  /tmp/ccfUjDUZ.s 			page 13


 655 0028 5C68     		ldr	r4, [r3, #4]
 656 002a FFF7FEFF 		bl	chThdGetPriorityX
 657 002e 0346     		mov	r3, r0
 658 0030 9A1E     		subs	r2, r3, #2
 659 0032 0023     		movs	r3, #0
 660 0034 0093     		str	r3, [sp]
 661 0036 2046     		mov	r0, r4
 662 0038 4FF4E871 		mov	r1, #464
 663 003c 2C4B     		ldr	r3, .L32+12
 664 003e FFF7FEFF 		bl	chThdCreateStatic
 665 0042 0246     		mov	r2, r0
 666 0044 294B     		ldr	r3, .L32+8
 667 0046 5A60     		str	r2, [r3, #4]
 668              		.loc 7 176 0
 669 0048 264B     		ldr	r3, .L32
 670 004a 9C68     		ldr	r4, [r3, #8]
 671 004c FFF7FEFF 		bl	chThdGetPriorityX
 672 0050 0346     		mov	r3, r0
 673 0052 DA1E     		subs	r2, r3, #3
 674 0054 0023     		movs	r3, #0
 675 0056 0093     		str	r3, [sp]
 676 0058 2046     		mov	r0, r4
 677 005a 4FF4E871 		mov	r1, #464
 678 005e 244B     		ldr	r3, .L32+12
 679 0060 FFF7FEFF 		bl	chThdCreateStatic
 680 0064 0246     		mov	r2, r0
 681 0066 214B     		ldr	r3, .L32+8
 682 0068 9A60     		str	r2, [r3, #8]
 683              		.loc 7 177 0
 684 006a 1E4B     		ldr	r3, .L32
 685 006c DC68     		ldr	r4, [r3, #12]
 686 006e FFF7FEFF 		bl	chThdGetPriorityX
 687 0072 0346     		mov	r3, r0
 688 0074 1A1F     		subs	r2, r3, #4
 689 0076 0023     		movs	r3, #0
 690 0078 0093     		str	r3, [sp]
 691 007a 2046     		mov	r0, r4
 692 007c 4FF4E871 		mov	r1, #464
 693 0080 1B4B     		ldr	r3, .L32+12
 694 0082 FFF7FEFF 		bl	chThdCreateStatic
 695 0086 0246     		mov	r2, r0
 696 0088 184B     		ldr	r3, .L32+8
 697 008a DA60     		str	r2, [r3, #12]
 698              		.loc 7 178 0
 699 008c 154B     		ldr	r3, .L32
 700 008e 1C69     		ldr	r4, [r3, #16]
 701 0090 FFF7FEFF 		bl	chThdGetPriorityX
 702 0094 0346     		mov	r3, r0
 703 0096 5A1F     		subs	r2, r3, #5
 704 0098 0023     		movs	r3, #0
 705 009a 0093     		str	r3, [sp]
 706 009c 2046     		mov	r0, r4
 707 009e 4FF4E871 		mov	r1, #464
 708 00a2 134B     		ldr	r3, .L32+12
 709 00a4 FFF7FEFF 		bl	chThdCreateStatic
 710 00a8 0246     		mov	r2, r0
 711 00aa 104B     		ldr	r3, .L32+8
ARM GAS  /tmp/ccfUjDUZ.s 			page 14


 712 00ac 1A61     		str	r2, [r3, #16]
 713              		.loc 7 179 0
 714 00ae 0F4B     		ldr	r3, .L32+8
 715 00b0 1B68     		ldr	r3, [r3]
 716 00b2 1846     		mov	r0, r3
 717 00b4 FFF7FEFF 		bl	msg_loop_test
 718 00b8 0390     		str	r0, [sp, #12]
 719              		.loc 7 180 0
 720 00ba FFF7FEFF 		bl	test_wait_threads
 721              		.loc 7 181 0
 722 00be 0D48     		ldr	r0, .L32+16
 723 00c0 FFF7FEFF 		bl	test_print
 724              		.loc 7 182 0
 725 00c4 0398     		ldr	r0, [sp, #12]
 726 00c6 FFF7FEFF 		bl	test_printn
 727              		.loc 7 183 0
 728 00ca 0B48     		ldr	r0, .L32+20
 729 00cc FFF7FEFF 		bl	test_print
 730              		.loc 7 184 0
 731 00d0 039B     		ldr	r3, [sp, #12]
 732 00d2 5B00     		lsls	r3, r3, #1
 733 00d4 1846     		mov	r0, r3
 734 00d6 FFF7FEFF 		bl	test_printn
 735              		.loc 7 185 0
 736 00da 0848     		ldr	r0, .L32+24
 737 00dc FFF7FEFF 		bl	test_println
 738              		.loc 7 186 0
 739 00e0 04B0     		add	sp, sp, #16
 740              		.cfi_def_cfa_offset 8
 741              		@ sp needed
 742 00e2 10BD     		pop	{r4, pc}
 743              	.L33:
 744              		.align	2
 745              	.L32:
 746 00e4 00000000 		.word	wa
 747 00e8 00000000 		.word	thread2
 748 00ec 00000000 		.word	threads
 749 00f0 00000000 		.word	thread1
 750 00f4 00000000 		.word	.LC0
 751 00f8 10000000 		.word	.LC1
 752 00fc 1C000000 		.word	.LC2
 753              		.cfi_endproc
 754              	.LFE221:
 755              		.size	bmk3_execute, .-bmk3_execute
 756              		.global	testbmk3
 757              		.section	.rodata
 758 0057 00       		.align	2
 759              	.LC5:
 760 0058 42656E63 		.ascii	"Benchmark, messages #3\000"
 760      686D6172 
 760      6B2C206D 
 760      65737361 
 760      67657320 
 761              		.section	.rodata.testbmk3,"a",%progbits
 762              		.align	2
 763              		.type	testbmk3, %object
 764              		.size	testbmk3, 16
ARM GAS  /tmp/ccfUjDUZ.s 			page 15


 765              	testbmk3:
 766 0000 58000000 		.word	.LC5
 767 0004 00000000 		.word	0
 768 0008 00000000 		.word	0
 769 000c 00000000 		.word	bmk3_execute
 770              		.section	.text.thread4,"ax",%progbits
 771              		.align	2
 772              		.p2align 4,,15
 773              		.thumb
 774              		.thumb_func
 775              		.type	thread4, %function
 776              	thread4:
 777              	.LFB222:
 778              		.loc 7 206 0
 779              		.cfi_startproc
 780              		@ args = 0, pretend = 0, frame = 16
 781              		@ frame_needed = 0, uses_anonymous_args = 0
 782 0000 00B5     		push	{lr}
 783              		.cfi_def_cfa_offset 4
 784              		.cfi_offset 14, -4
 785 0002 85B0     		sub	sp, sp, #20
 786              		.cfi_def_cfa_offset 24
 787 0004 0190     		str	r0, [sp, #4]
 788              		.loc 7 208 0
 789 0006 FFF7FEFF 		bl	chThdGetSelfX
 790 000a 0390     		str	r0, [sp, #12]
 791              		.loc 7 211 0
 792 000c FFF7FEFF 		bl	chSysLock
 793              	.L35:
 794              		.loc 7 213 0 discriminator 1
 795 0010 0320     		movs	r0, #3
 796 0012 FFF7FEFF 		bl	chSchGoSleepS
 797              		.loc 7 214 0 discriminator 1
 798 0016 039B     		ldr	r3, [sp, #12]
 799 0018 1B6A     		ldr	r3, [r3, #32]
 800 001a 0293     		str	r3, [sp, #8]
 801              		.loc 7 215 0 discriminator 1
 802 001c 029B     		ldr	r3, [sp, #8]
 803 001e 002B     		cmp	r3, #0
 804 0020 F6D0     		beq	.L35
 805              		.loc 7 216 0
 806 0022 FFF7FEFF 		bl	chSysUnlock
 807              		.loc 7 217 0
 808 0026 05B0     		add	sp, sp, #20
 809              		.cfi_def_cfa_offset 4
 810              		@ sp needed
 811 0028 5DF804FB 		ldr	pc, [sp], #4
 812              		.cfi_endproc
 813              	.LFE222:
 814              		.size	thread4, .-thread4
 815 002c AFF30080 		.section	.text.bmk4_execute,"ax",%progbits
 816              		.align	2
 817              		.p2align 4,,15
 818              		.thumb
 819              		.thumb_func
 820              		.type	bmk4_execute, %function
 821              	bmk4_execute:
ARM GAS  /tmp/ccfUjDUZ.s 			page 16


 822              	.LFB223:
 823              		.loc 7 219 0
 824              		.cfi_startproc
 825              		@ args = 0, pretend = 0, frame = 8
 826              		@ frame_needed = 0, uses_anonymous_args = 0
 827 0000 10B5     		push	{r4, lr}
 828              		.cfi_def_cfa_offset 8
 829              		.cfi_offset 4, -8
 830              		.cfi_offset 14, -4
 831 0002 84B0     		sub	sp, sp, #16
 832              		.cfi_def_cfa_offset 24
 833              		.loc 7 223 0
 834 0004 284B     		ldr	r3, .L38
 835 0006 1C68     		ldr	r4, [r3]
 836 0008 FFF7FEFF 		bl	chThdGetPriorityX
 837 000c 0346     		mov	r3, r0
 838 000e 5A1C     		adds	r2, r3, #1
 839 0010 0023     		movs	r3, #0
 840 0012 0093     		str	r3, [sp]
 841 0014 2046     		mov	r0, r4
 842 0016 4FF4E871 		mov	r1, #464
 843 001a 244B     		ldr	r3, .L38+4
 844 001c FFF7FEFF 		bl	chThdCreateStatic
 845 0020 0246     		mov	r2, r0
 846 0022 234B     		ldr	r3, .L38+8
 847 0024 1A60     		str	r2, [r3]
 848 0026 224B     		ldr	r3, .L38+8
 849 0028 1B68     		ldr	r3, [r3]
 850 002a 0293     		str	r3, [sp, #8]
 851              		.loc 7 225 0
 852 002c 0023     		movs	r3, #0
 853 002e 0393     		str	r3, [sp, #12]
 854              		.loc 7 226 0
 855 0030 FFF7FEFF 		bl	test_wait_tick
 856              		.loc 7 227 0
 857 0034 4FF47A70 		mov	r0, #1000
 858 0038 FFF7FEFF 		bl	test_start_timer
 859              	.L37:
 860              		.loc 7 229 0 discriminator 1
 861 003c FFF7FEFF 		bl	chSysLock
 862              		.loc 7 230 0 discriminator 1
 863 0040 0298     		ldr	r0, [sp, #8]
 864 0042 0021     		movs	r1, #0
 865 0044 FFF7FEFF 		bl	chSchWakeupS
 866              		.loc 7 231 0 discriminator 1
 867 0048 0298     		ldr	r0, [sp, #8]
 868 004a 0021     		movs	r1, #0
 869 004c FFF7FEFF 		bl	chSchWakeupS
 870              		.loc 7 232 0 discriminator 1
 871 0050 0298     		ldr	r0, [sp, #8]
 872 0052 0021     		movs	r1, #0
 873 0054 FFF7FEFF 		bl	chSchWakeupS
 874              		.loc 7 233 0 discriminator 1
 875 0058 0298     		ldr	r0, [sp, #8]
 876 005a 0021     		movs	r1, #0
 877 005c FFF7FEFF 		bl	chSchWakeupS
 878              		.loc 7 234 0 discriminator 1
ARM GAS  /tmp/ccfUjDUZ.s 			page 17


 879 0060 FFF7FEFF 		bl	chSysUnlock
 880              		.loc 7 235 0 discriminator 1
 881 0064 039B     		ldr	r3, [sp, #12]
 882 0066 0433     		adds	r3, r3, #4
 883 0068 0393     		str	r3, [sp, #12]
 884              		.loc 7 239 0 discriminator 1
 885 006a 124B     		ldr	r3, .L38+12
 886 006c 1B78     		ldrb	r3, [r3]	@ zero_extendqisi2
 887 006e 83F00103 		eor	r3, r3, #1
 888 0072 DBB2     		uxtb	r3, r3
 889 0074 002B     		cmp	r3, #0
 890 0076 E1D1     		bne	.L37
 891              		.loc 7 240 0
 892 0078 FFF7FEFF 		bl	chSysLock
 893              		.loc 7 241 0
 894 007c 0298     		ldr	r0, [sp, #8]
 895 007e 4FF0FF31 		mov	r1, #-1
 896 0082 FFF7FEFF 		bl	chSchWakeupS
 897              		.loc 7 242 0
 898 0086 FFF7FEFF 		bl	chSysUnlock
 899              		.loc 7 244 0
 900 008a FFF7FEFF 		bl	test_wait_threads
 901              		.loc 7 245 0
 902 008e 0A48     		ldr	r0, .L38+16
 903 0090 FFF7FEFF 		bl	test_print
 904              		.loc 7 246 0
 905 0094 039B     		ldr	r3, [sp, #12]
 906 0096 5B00     		lsls	r3, r3, #1
 907 0098 1846     		mov	r0, r3
 908 009a FFF7FEFF 		bl	test_printn
 909              		.loc 7 247 0
 910 009e 0748     		ldr	r0, .L38+20
 911 00a0 FFF7FEFF 		bl	test_println
 912              		.loc 7 248 0
 913 00a4 04B0     		add	sp, sp, #16
 914              		.cfi_def_cfa_offset 8
 915              		@ sp needed
 916 00a6 10BD     		pop	{r4, pc}
 917              	.L39:
 918              		.align	2
 919              	.L38:
 920 00a8 00000000 		.word	wa
 921 00ac 00000000 		.word	thread4
 922 00b0 00000000 		.word	threads
 923 00b4 00000000 		.word	test_timer_done
 924 00b8 00000000 		.word	.LC0
 925 00bc 1C000000 		.word	.LC2
 926              		.cfi_endproc
 927              	.LFE223:
 928              		.size	bmk4_execute, .-bmk4_execute
 929              		.global	testbmk4
 930              		.section	.rodata
 931 006f 00       		.align	2
 932              	.LC6:
 933 0070 42656E63 		.ascii	"Benchmark, context switch\000"
 933      686D6172 
 933      6B2C2063 
ARM GAS  /tmp/ccfUjDUZ.s 			page 18


 933      6F6E7465 
 933      78742073 
 934              		.section	.rodata.testbmk4,"a",%progbits
 935              		.align	2
 936              		.type	testbmk4, %object
 937              		.size	testbmk4, 16
 938              	testbmk4:
 939 0000 70000000 		.word	.LC6
 940 0004 00000000 		.word	0
 941 0008 00000000 		.word	0
 942 000c 00000000 		.word	bmk4_execute
 943              		.section	.rodata
 944 008a 0000     		.align	2
 945              	.LC7:
 946 008c 20746872 		.ascii	" threads/S\000"
 946      65616473 
 946      2F5300
 947              		.section	.text.bmk5_execute,"ax",%progbits
 948              		.align	2
 949              		.p2align 4,,15
 950              		.thumb
 951              		.thumb_func
 952              		.type	bmk5_execute, %function
 953              	bmk5_execute:
 954              	.LFB224:
 955              		.loc 7 268 0
 956              		.cfi_startproc
 957              		@ args = 0, pretend = 0, frame = 16
 958              		@ frame_needed = 0, uses_anonymous_args = 0
 959 0000 00B5     		push	{lr}
 960              		.cfi_def_cfa_offset 4
 961              		.cfi_offset 14, -4
 962 0002 87B0     		sub	sp, sp, #28
 963              		.cfi_def_cfa_offset 32
 964              		.loc 7 270 0
 965 0004 0023     		movs	r3, #0
 966 0006 0593     		str	r3, [sp, #20]
 967              		.loc 7 271 0
 968 0008 184B     		ldr	r3, .L42
 969 000a 1B68     		ldr	r3, [r3]
 970 000c 0493     		str	r3, [sp, #16]
 971              		.loc 7 272 0
 972 000e FFF7FEFF 		bl	chThdGetPriorityX
 973 0012 0346     		mov	r3, r0
 974 0014 013B     		subs	r3, r3, #1
 975 0016 0393     		str	r3, [sp, #12]
 976              		.loc 7 273 0
 977 0018 FFF7FEFF 		bl	test_wait_tick
 978              		.loc 7 274 0
 979 001c 4FF47A70 		mov	r0, #1000
 980 0020 FFF7FEFF 		bl	test_start_timer
 981              	.L41:
 982              		.loc 7 276 0 discriminator 1
 983 0024 0023     		movs	r3, #0
 984 0026 0093     		str	r3, [sp]
 985 0028 0498     		ldr	r0, [sp, #16]
 986 002a 4FF4E871 		mov	r1, #464
ARM GAS  /tmp/ccfUjDUZ.s 			page 19


 987 002e 039A     		ldr	r2, [sp, #12]
 988 0030 0F4B     		ldr	r3, .L42+4
 989 0032 FFF7FEFF 		bl	chThdCreateStatic
 990 0036 0346     		mov	r3, r0
 991 0038 1846     		mov	r0, r3
 992 003a FFF7FEFF 		bl	chThdWait
 993              		.loc 7 277 0 discriminator 1
 994 003e 059B     		ldr	r3, [sp, #20]
 995 0040 0133     		adds	r3, r3, #1
 996 0042 0593     		str	r3, [sp, #20]
 997              		.loc 7 281 0 discriminator 1
 998 0044 0B4B     		ldr	r3, .L42+8
 999 0046 1B78     		ldrb	r3, [r3]	@ zero_extendqisi2
 1000 0048 83F00103 		eor	r3, r3, #1
 1001 004c DBB2     		uxtb	r3, r3
 1002 004e 002B     		cmp	r3, #0
 1003 0050 E8D1     		bne	.L41
 1004              		.loc 7 282 0
 1005 0052 0948     		ldr	r0, .L42+12
 1006 0054 FFF7FEFF 		bl	test_print
 1007              		.loc 7 283 0
 1008 0058 0598     		ldr	r0, [sp, #20]
 1009 005a FFF7FEFF 		bl	test_printn
 1010              		.loc 7 284 0
 1011 005e 0748     		ldr	r0, .L42+16
 1012 0060 FFF7FEFF 		bl	test_println
 1013              		.loc 7 285 0
 1014 0064 07B0     		add	sp, sp, #28
 1015              		.cfi_def_cfa_offset 4
 1016              		@ sp needed
 1017 0066 5DF804FB 		ldr	pc, [sp], #4
 1018              	.L43:
 1019 006a 00BF     		.align	2
 1020              	.L42:
 1021 006c 00000000 		.word	wa
 1022 0070 00000000 		.word	thread1
 1023 0074 00000000 		.word	test_timer_done
 1024 0078 00000000 		.word	.LC0
 1025 007c 8C000000 		.word	.LC7
 1026              		.cfi_endproc
 1027              	.LFE224:
 1028              		.size	bmk5_execute, .-bmk5_execute
 1029              		.global	testbmk5
 1030              		.section	.rodata
 1031 0097 00       		.align	2
 1032              	.LC8:
 1033 0098 42656E63 		.ascii	"Benchmark, threads, full cycle\000"
 1033      686D6172 
 1033      6B2C2074 
 1033      68726561 
 1033      64732C20 
 1034              		.section	.rodata.testbmk5,"a",%progbits
 1035              		.align	2
 1036              		.type	testbmk5, %object
 1037              		.size	testbmk5, 16
 1038              	testbmk5:
 1039 0000 98000000 		.word	.LC8
ARM GAS  /tmp/ccfUjDUZ.s 			page 20


 1040 0004 00000000 		.word	0
 1041 0008 00000000 		.word	0
 1042 000c 00000000 		.word	bmk5_execute
 1043              		.section	.text.bmk6_execute,"ax",%progbits
 1044              		.align	2
 1045              		.p2align 4,,15
 1046              		.thumb
 1047              		.thumb_func
 1048              		.type	bmk6_execute, %function
 1049              	bmk6_execute:
 1050              	.LFB225:
 1051              		.loc 7 307 0
 1052              		.cfi_startproc
 1053              		@ args = 0, pretend = 0, frame = 16
 1054              		@ frame_needed = 0, uses_anonymous_args = 0
 1055 0000 00B5     		push	{lr}
 1056              		.cfi_def_cfa_offset 4
 1057              		.cfi_offset 14, -4
 1058 0002 87B0     		sub	sp, sp, #28
 1059              		.cfi_def_cfa_offset 32
 1060              		.loc 7 309 0
 1061 0004 0023     		movs	r3, #0
 1062 0006 0593     		str	r3, [sp, #20]
 1063              		.loc 7 310 0
 1064 0008 164B     		ldr	r3, .L46
 1065 000a 1B68     		ldr	r3, [r3]
 1066 000c 0493     		str	r3, [sp, #16]
 1067              		.loc 7 311 0
 1068 000e FFF7FEFF 		bl	chThdGetPriorityX
 1069 0012 0346     		mov	r3, r0
 1070 0014 0133     		adds	r3, r3, #1
 1071 0016 0393     		str	r3, [sp, #12]
 1072              		.loc 7 312 0
 1073 0018 FFF7FEFF 		bl	test_wait_tick
 1074              		.loc 7 313 0
 1075 001c 4FF47A70 		mov	r0, #1000
 1076 0020 FFF7FEFF 		bl	test_start_timer
 1077              	.L45:
 1078              		.loc 7 315 0 discriminator 1
 1079 0024 0023     		movs	r3, #0
 1080 0026 0093     		str	r3, [sp]
 1081 0028 0498     		ldr	r0, [sp, #16]
 1082 002a 4FF4E871 		mov	r1, #464
 1083 002e 039A     		ldr	r2, [sp, #12]
 1084 0030 0D4B     		ldr	r3, .L46+4
 1085 0032 FFF7FEFF 		bl	chThdCreateStatic
 1086              		.loc 7 316 0 discriminator 1
 1087 0036 059B     		ldr	r3, [sp, #20]
 1088 0038 0133     		adds	r3, r3, #1
 1089 003a 0593     		str	r3, [sp, #20]
 1090              		.loc 7 320 0 discriminator 1
 1091 003c 0B4B     		ldr	r3, .L46+8
 1092 003e 1B78     		ldrb	r3, [r3]	@ zero_extendqisi2
 1093 0040 83F00103 		eor	r3, r3, #1
 1094 0044 DBB2     		uxtb	r3, r3
 1095 0046 002B     		cmp	r3, #0
 1096 0048 ECD1     		bne	.L45
ARM GAS  /tmp/ccfUjDUZ.s 			page 21


 1097              		.loc 7 321 0
 1098 004a 0948     		ldr	r0, .L46+12
 1099 004c FFF7FEFF 		bl	test_print
 1100              		.loc 7 322 0
 1101 0050 0598     		ldr	r0, [sp, #20]
 1102 0052 FFF7FEFF 		bl	test_printn
 1103              		.loc 7 323 0
 1104 0056 0748     		ldr	r0, .L46+16
 1105 0058 FFF7FEFF 		bl	test_println
 1106              		.loc 7 324 0
 1107 005c 07B0     		add	sp, sp, #28
 1108              		.cfi_def_cfa_offset 4
 1109              		@ sp needed
 1110 005e 5DF804FB 		ldr	pc, [sp], #4
 1111              	.L47:
 1112 0062 00BF     		.align	2
 1113              	.L46:
 1114 0064 00000000 		.word	wa
 1115 0068 00000000 		.word	thread1
 1116 006c 00000000 		.word	test_timer_done
 1117 0070 00000000 		.word	.LC0
 1118 0074 8C000000 		.word	.LC7
 1119              		.cfi_endproc
 1120              	.LFE225:
 1121              		.size	bmk6_execute, .-bmk6_execute
 1122              		.global	testbmk6
 1123 0078 AFF30080 		.section	.rodata
 1123      AFF30080 
 1124 00b7 00       		.align	2
 1125              	.LC9:
 1126 00b8 42656E63 		.ascii	"Benchmark, threads, create only\000"
 1126      686D6172 
 1126      6B2C2074 
 1126      68726561 
 1126      64732C20 
 1127              		.section	.rodata.testbmk6,"a",%progbits
 1128              		.align	2
 1129              		.type	testbmk6, %object
 1130              		.size	testbmk6, 16
 1131              	testbmk6:
 1132 0000 B8000000 		.word	.LC9
 1133 0004 00000000 		.word	0
 1134 0008 00000000 		.word	0
 1135 000c 00000000 		.word	bmk6_execute
 1136              		.section	.text.thread3,"ax",%progbits
 1137              		.align	2
 1138              		.p2align 4,,15
 1139              		.thumb
 1140              		.thumb_func
 1141              		.type	thread3, %function
 1142              	thread3:
 1143              	.LFB226:
 1144              		.loc 7 345 0
 1145              		.cfi_startproc
 1146              		@ args = 0, pretend = 0, frame = 8
 1147              		@ frame_needed = 0, uses_anonymous_args = 0
 1148 0000 00B5     		push	{lr}
ARM GAS  /tmp/ccfUjDUZ.s 			page 22


 1149              		.cfi_def_cfa_offset 4
 1150              		.cfi_offset 14, -4
 1151 0002 83B0     		sub	sp, sp, #12
 1152              		.cfi_def_cfa_offset 16
 1153 0004 0190     		str	r0, [sp, #4]
 1154              		.loc 7 348 0
 1155 0006 02E0     		b	.L49
 1156              	.L50:
 1157              		.loc 7 349 0
 1158 0008 0648     		ldr	r0, .L51
 1159 000a FFF7FEFF 		bl	chSemWait
 1160              	.L49:
 1161              		.loc 7 348 0
 1162 000e FFF7FEFF 		bl	chThdShouldTerminateX
 1163 0012 0346     		mov	r3, r0
 1164 0014 83F00103 		eor	r3, r3, #1
 1165 0018 DBB2     		uxtb	r3, r3
 1166 001a 002B     		cmp	r3, #0
 1167 001c F4D1     		bne	.L50
 1168              		.loc 7 350 0
 1169 001e 03B0     		add	sp, sp, #12
 1170              		.cfi_def_cfa_offset 4
 1171              		@ sp needed
 1172 0020 5DF804FB 		ldr	pc, [sp], #4
 1173              	.L52:
 1174              		.align	2
 1175              	.L51:
 1176 0024 00000000 		.word	sem1
 1177              		.cfi_endproc
 1178              	.LFE226:
 1179              		.size	thread3, .-thread3
 1180 0028 AFF30080 		.section	.text.bmk7_setup,"ax",%progbits
 1180      AFF30080 
 1181              		.align	2
 1182              		.p2align 4,,15
 1183              		.thumb
 1184              		.thumb_func
 1185              		.type	bmk7_setup, %function
 1186              	bmk7_setup:
 1187              	.LFB227:
 1188              		.loc 7 352 0
 1189              		.cfi_startproc
 1190              		@ args = 0, pretend = 0, frame = 0
 1191              		@ frame_needed = 0, uses_anonymous_args = 0
 1192 0000 08B5     		push	{r3, lr}
 1193              		.cfi_def_cfa_offset 8
 1194              		.cfi_offset 3, -8
 1195              		.cfi_offset 14, -4
 1196              		.loc 7 354 0
 1197 0002 0248     		ldr	r0, .L54
 1198 0004 0021     		movs	r1, #0
 1199 0006 FFF7FEFF 		bl	chSemObjectInit
 1200              		.loc 7 355 0
 1201 000a 08BD     		pop	{r3, pc}
 1202              	.L55:
 1203              		.align	2
 1204              	.L54:
ARM GAS  /tmp/ccfUjDUZ.s 			page 23


 1205 000c 00000000 		.word	sem1
 1206              		.cfi_endproc
 1207              	.LFE227:
 1208              		.size	bmk7_setup, .-bmk7_setup
 1209              		.section	.rodata
 1210              		.align	2
 1211              	.LC10:
 1212 00d8 20726573 		.ascii	" reschedules/S, \000"
 1212      63686564 
 1212      756C6573 
 1212      2F532C20 
 1212      00
 1213              		.section	.text.bmk7_execute,"ax",%progbits
 1214              		.align	2
 1215              		.p2align 4,,15
 1216              		.thumb
 1217              		.thumb_func
 1218              		.type	bmk7_execute, %function
 1219              	bmk7_execute:
 1220              	.LFB228:
 1221              		.loc 7 357 0
 1222              		.cfi_startproc
 1223              		@ args = 0, pretend = 0, frame = 8
 1224              		@ frame_needed = 0, uses_anonymous_args = 0
 1225 0000 10B5     		push	{r4, lr}
 1226              		.cfi_def_cfa_offset 8
 1227              		.cfi_offset 4, -8
 1228              		.cfi_offset 14, -4
 1229 0002 84B0     		sub	sp, sp, #16
 1230              		.cfi_def_cfa_offset 24
 1231              		.loc 7 360 0
 1232 0004 444B     		ldr	r3, .L58
 1233 0006 1C68     		ldr	r4, [r3]
 1234 0008 FFF7FEFF 		bl	chThdGetPriorityX
 1235 000c 0346     		mov	r3, r0
 1236 000e 5A1D     		adds	r2, r3, #5
 1237 0010 0023     		movs	r3, #0
 1238 0012 0093     		str	r3, [sp]
 1239 0014 2046     		mov	r0, r4
 1240 0016 4FF4E871 		mov	r1, #464
 1241 001a 404B     		ldr	r3, .L58+4
 1242 001c FFF7FEFF 		bl	chThdCreateStatic
 1243 0020 0246     		mov	r2, r0
 1244 0022 3F4B     		ldr	r3, .L58+8
 1245 0024 1A60     		str	r2, [r3]
 1246              		.loc 7 361 0
 1247 0026 3C4B     		ldr	r3, .L58
 1248 0028 5C68     		ldr	r4, [r3, #4]
 1249 002a FFF7FEFF 		bl	chThdGetPriorityX
 1250 002e 0346     		mov	r3, r0
 1251 0030 1A1D     		adds	r2, r3, #4
 1252 0032 0023     		movs	r3, #0
 1253 0034 0093     		str	r3, [sp]
 1254 0036 2046     		mov	r0, r4
 1255 0038 4FF4E871 		mov	r1, #464
 1256 003c 374B     		ldr	r3, .L58+4
 1257 003e FFF7FEFF 		bl	chThdCreateStatic
ARM GAS  /tmp/ccfUjDUZ.s 			page 24


 1258 0042 0246     		mov	r2, r0
 1259 0044 364B     		ldr	r3, .L58+8
 1260 0046 5A60     		str	r2, [r3, #4]
 1261              		.loc 7 362 0
 1262 0048 334B     		ldr	r3, .L58
 1263 004a 9C68     		ldr	r4, [r3, #8]
 1264 004c FFF7FEFF 		bl	chThdGetPriorityX
 1265 0050 0346     		mov	r3, r0
 1266 0052 DA1C     		adds	r2, r3, #3
 1267 0054 0023     		movs	r3, #0
 1268 0056 0093     		str	r3, [sp]
 1269 0058 2046     		mov	r0, r4
 1270 005a 4FF4E871 		mov	r1, #464
 1271 005e 2F4B     		ldr	r3, .L58+4
 1272 0060 FFF7FEFF 		bl	chThdCreateStatic
 1273 0064 0246     		mov	r2, r0
 1274 0066 2E4B     		ldr	r3, .L58+8
 1275 0068 9A60     		str	r2, [r3, #8]
 1276              		.loc 7 363 0
 1277 006a 2B4B     		ldr	r3, .L58
 1278 006c DC68     		ldr	r4, [r3, #12]
 1279 006e FFF7FEFF 		bl	chThdGetPriorityX
 1280 0072 0346     		mov	r3, r0
 1281 0074 9A1C     		adds	r2, r3, #2
 1282 0076 0023     		movs	r3, #0
 1283 0078 0093     		str	r3, [sp]
 1284 007a 2046     		mov	r0, r4
 1285 007c 4FF4E871 		mov	r1, #464
 1286 0080 264B     		ldr	r3, .L58+4
 1287 0082 FFF7FEFF 		bl	chThdCreateStatic
 1288 0086 0246     		mov	r2, r0
 1289 0088 254B     		ldr	r3, .L58+8
 1290 008a DA60     		str	r2, [r3, #12]
 1291              		.loc 7 364 0
 1292 008c 224B     		ldr	r3, .L58
 1293 008e 1C69     		ldr	r4, [r3, #16]
 1294 0090 FFF7FEFF 		bl	chThdGetPriorityX
 1295 0094 0346     		mov	r3, r0
 1296 0096 5A1C     		adds	r2, r3, #1
 1297 0098 0023     		movs	r3, #0
 1298 009a 0093     		str	r3, [sp]
 1299 009c 2046     		mov	r0, r4
 1300 009e 4FF4E871 		mov	r1, #464
 1301 00a2 1E4B     		ldr	r3, .L58+4
 1302 00a4 FFF7FEFF 		bl	chThdCreateStatic
 1303 00a8 0246     		mov	r2, r0
 1304 00aa 1D4B     		ldr	r3, .L58+8
 1305 00ac 1A61     		str	r2, [r3, #16]
 1306              		.loc 7 366 0
 1307 00ae 0023     		movs	r3, #0
 1308 00b0 0393     		str	r3, [sp, #12]
 1309              		.loc 7 367 0
 1310 00b2 FFF7FEFF 		bl	test_wait_tick
 1311              		.loc 7 368 0
 1312 00b6 4FF47A70 		mov	r0, #1000
 1313 00ba FFF7FEFF 		bl	test_start_timer
 1314              	.L57:
ARM GAS  /tmp/ccfUjDUZ.s 			page 25


 1315              		.loc 7 370 0 discriminator 1
 1316 00be 1948     		ldr	r0, .L58+12
 1317 00c0 0021     		movs	r1, #0
 1318 00c2 FFF7FEFF 		bl	chSemReset
 1319              		.loc 7 371 0 discriminator 1
 1320 00c6 039B     		ldr	r3, [sp, #12]
 1321 00c8 0133     		adds	r3, r3, #1
 1322 00ca 0393     		str	r3, [sp, #12]
 1323              		.loc 7 375 0 discriminator 1
 1324 00cc 164B     		ldr	r3, .L58+16
 1325 00ce 1B78     		ldrb	r3, [r3]	@ zero_extendqisi2
 1326 00d0 83F00103 		eor	r3, r3, #1
 1327 00d4 DBB2     		uxtb	r3, r3
 1328 00d6 002B     		cmp	r3, #0
 1329 00d8 F1D1     		bne	.L57
 1330              		.loc 7 376 0
 1331 00da FFF7FEFF 		bl	test_terminate_threads
 1332              		.loc 7 377 0
 1333 00de 1148     		ldr	r0, .L58+12
 1334 00e0 0021     		movs	r1, #0
 1335 00e2 FFF7FEFF 		bl	chSemReset
 1336              		.loc 7 378 0
 1337 00e6 FFF7FEFF 		bl	test_wait_threads
 1338              		.loc 7 380 0
 1339 00ea 1048     		ldr	r0, .L58+20
 1340 00ec FFF7FEFF 		bl	test_print
 1341              		.loc 7 381 0
 1342 00f0 0398     		ldr	r0, [sp, #12]
 1343 00f2 FFF7FEFF 		bl	test_printn
 1344              		.loc 7 382 0
 1345 00f6 0E48     		ldr	r0, .L58+24
 1346 00f8 FFF7FEFF 		bl	test_print
 1347              		.loc 7 383 0
 1348 00fc 039A     		ldr	r2, [sp, #12]
 1349 00fe 1346     		mov	r3, r2
 1350 0100 5B00     		lsls	r3, r3, #1
 1351 0102 1344     		add	r3, r3, r2
 1352 0104 5B00     		lsls	r3, r3, #1
 1353 0106 1846     		mov	r0, r3
 1354 0108 FFF7FEFF 		bl	test_printn
 1355              		.loc 7 384 0
 1356 010c 0948     		ldr	r0, .L58+28
 1357 010e FFF7FEFF 		bl	test_println
 1358              		.loc 7 385 0
 1359 0112 04B0     		add	sp, sp, #16
 1360              		.cfi_def_cfa_offset 8
 1361              		@ sp needed
 1362 0114 10BD     		pop	{r4, pc}
 1363              	.L59:
 1364 0116 00BF     		.align	2
 1365              	.L58:
 1366 0118 00000000 		.word	wa
 1367 011c 00000000 		.word	thread3
 1368 0120 00000000 		.word	threads
 1369 0124 00000000 		.word	sem1
 1370 0128 00000000 		.word	test_timer_done
 1371 012c 00000000 		.word	.LC0
ARM GAS  /tmp/ccfUjDUZ.s 			page 26


 1372 0130 D8000000 		.word	.LC10
 1373 0134 1C000000 		.word	.LC2
 1374              		.cfi_endproc
 1375              	.LFE228:
 1376              		.size	bmk7_execute, .-bmk7_execute
 1377              		.global	testbmk7
 1378 0138 AFF30080 		.section	.rodata
 1378      AFF30080 
 1379 00e9 000000   		.align	2
 1380              	.LC11:
 1381 00ec 42656E63 		.ascii	"Benchmark, mass reschedule, 5 threads\000"
 1381      686D6172 
 1381      6B2C206D 
 1381      61737320 
 1381      72657363 
 1382              		.section	.rodata.testbmk7,"a",%progbits
 1383              		.align	2
 1384              		.type	testbmk7, %object
 1385              		.size	testbmk7, 16
 1386              	testbmk7:
 1387 0000 EC000000 		.word	.LC11
 1388 0004 00000000 		.word	bmk7_setup
 1389 0008 00000000 		.word	0
 1390 000c 00000000 		.word	bmk7_execute
 1391              		.section	.text.thread8,"ax",%progbits
 1392              		.align	2
 1393              		.p2align 4,,15
 1394              		.thumb
 1395              		.thumb_func
 1396              		.type	thread8, %function
 1397              	thread8:
 1398              	.LFB229:
 1399              		.loc 7 405 0
 1400              		.cfi_startproc
 1401              		@ args = 0, pretend = 0, frame = 8
 1402              		@ frame_needed = 0, uses_anonymous_args = 0
 1403 0000 00B5     		push	{lr}
 1404              		.cfi_def_cfa_offset 4
 1405              		.cfi_offset 14, -4
 1406 0002 83B0     		sub	sp, sp, #12
 1407              		.cfi_def_cfa_offset 16
 1408 0004 0190     		str	r0, [sp, #4]
 1409              	.L61:
 1410              		.loc 7 408 0 discriminator 1
 1411 0006 FFF7FEFF 		bl	chThdYield
 1412              		.loc 7 409 0 discriminator 1
 1413 000a FFF7FEFF 		bl	chThdYield
 1414              		.loc 7 410 0 discriminator 1
 1415 000e FFF7FEFF 		bl	chThdYield
 1416              		.loc 7 411 0 discriminator 1
 1417 0012 FFF7FEFF 		bl	chThdYield
 1418              		.loc 7 412 0 discriminator 1
 1419 0016 019B     		ldr	r3, [sp, #4]
 1420 0018 1B68     		ldr	r3, [r3]
 1421 001a 1A1D     		adds	r2, r3, #4
 1422 001c 019B     		ldr	r3, [sp, #4]
 1423 001e 1A60     		str	r2, [r3]
ARM GAS  /tmp/ccfUjDUZ.s 			page 27


 1424              		.loc 7 416 0 discriminator 1
 1425 0020 FFF7FEFF 		bl	chThdShouldTerminateX
 1426 0024 0346     		mov	r3, r0
 1427 0026 83F00103 		eor	r3, r3, #1
 1428 002a DBB2     		uxtb	r3, r3
 1429 002c 002B     		cmp	r3, #0
 1430 002e EAD1     		bne	.L61
 1431              		.loc 7 417 0
 1432 0030 03B0     		add	sp, sp, #12
 1433              		.cfi_def_cfa_offset 4
 1434              		@ sp needed
 1435 0032 5DF804FB 		ldr	pc, [sp], #4
 1436              		.cfi_endproc
 1437              	.LFE229:
 1438              		.size	thread8, .-thread8
 1439 0036 00BFAFF3 		.section	.text.bmk8_execute,"ax",%progbits
 1439      0080AFF3 
 1439      0080
 1440              		.align	2
 1441              		.p2align 4,,15
 1442              		.thumb
 1443              		.thumb_func
 1444              		.type	bmk8_execute, %function
 1445              	bmk8_execute:
 1446              	.LFB230:
 1447              		.loc 7 419 0
 1448              		.cfi_startproc
 1449              		@ args = 0, pretend = 0, frame = 8
 1450              		@ frame_needed = 0, uses_anonymous_args = 0
 1451 0000 10B5     		push	{r4, lr}
 1452              		.cfi_def_cfa_offset 8
 1453              		.cfi_offset 4, -8
 1454              		.cfi_offset 14, -4
 1455 0002 84B0     		sub	sp, sp, #16
 1456              		.cfi_def_cfa_offset 24
 1457              		.loc 7 422 0
 1458 0004 0023     		movs	r3, #0
 1459 0006 0393     		str	r3, [sp, #12]
 1460              		.loc 7 423 0
 1461 0008 FFF7FEFF 		bl	test_wait_tick
 1462              		.loc 7 425 0
 1463 000c 344B     		ldr	r3, .L63
 1464 000e 1C68     		ldr	r4, [r3]
 1465 0010 FFF7FEFF 		bl	chThdGetPriorityX
 1466 0014 0346     		mov	r3, r0
 1467 0016 5A1E     		subs	r2, r3, #1
 1468 0018 03AB     		add	r3, sp, #12
 1469 001a 0093     		str	r3, [sp]
 1470 001c 2046     		mov	r0, r4
 1471 001e 4FF4E871 		mov	r1, #464
 1472 0022 304B     		ldr	r3, .L63+4
 1473 0024 FFF7FEFF 		bl	chThdCreateStatic
 1474 0028 0246     		mov	r2, r0
 1475 002a 2F4B     		ldr	r3, .L63+8
 1476 002c 1A60     		str	r2, [r3]
 1477              		.loc 7 426 0
 1478 002e 2C4B     		ldr	r3, .L63
ARM GAS  /tmp/ccfUjDUZ.s 			page 28


 1479 0030 5C68     		ldr	r4, [r3, #4]
 1480 0032 FFF7FEFF 		bl	chThdGetPriorityX
 1481 0036 0346     		mov	r3, r0
 1482 0038 5A1E     		subs	r2, r3, #1
 1483 003a 03AB     		add	r3, sp, #12
 1484 003c 0093     		str	r3, [sp]
 1485 003e 2046     		mov	r0, r4
 1486 0040 4FF4E871 		mov	r1, #464
 1487 0044 274B     		ldr	r3, .L63+4
 1488 0046 FFF7FEFF 		bl	chThdCreateStatic
 1489 004a 0246     		mov	r2, r0
 1490 004c 264B     		ldr	r3, .L63+8
 1491 004e 5A60     		str	r2, [r3, #4]
 1492              		.loc 7 427 0
 1493 0050 234B     		ldr	r3, .L63
 1494 0052 9C68     		ldr	r4, [r3, #8]
 1495 0054 FFF7FEFF 		bl	chThdGetPriorityX
 1496 0058 0346     		mov	r3, r0
 1497 005a 5A1E     		subs	r2, r3, #1
 1498 005c 03AB     		add	r3, sp, #12
 1499 005e 0093     		str	r3, [sp]
 1500 0060 2046     		mov	r0, r4
 1501 0062 4FF4E871 		mov	r1, #464
 1502 0066 1F4B     		ldr	r3, .L63+4
 1503 0068 FFF7FEFF 		bl	chThdCreateStatic
 1504 006c 0246     		mov	r2, r0
 1505 006e 1E4B     		ldr	r3, .L63+8
 1506 0070 9A60     		str	r2, [r3, #8]
 1507              		.loc 7 428 0
 1508 0072 1B4B     		ldr	r3, .L63
 1509 0074 DC68     		ldr	r4, [r3, #12]
 1510 0076 FFF7FEFF 		bl	chThdGetPriorityX
 1511 007a 0346     		mov	r3, r0
 1512 007c 5A1E     		subs	r2, r3, #1
 1513 007e 03AB     		add	r3, sp, #12
 1514 0080 0093     		str	r3, [sp]
 1515 0082 2046     		mov	r0, r4
 1516 0084 4FF4E871 		mov	r1, #464
 1517 0088 164B     		ldr	r3, .L63+4
 1518 008a FFF7FEFF 		bl	chThdCreateStatic
 1519 008e 0246     		mov	r2, r0
 1520 0090 154B     		ldr	r3, .L63+8
 1521 0092 DA60     		str	r2, [r3, #12]
 1522              		.loc 7 429 0
 1523 0094 124B     		ldr	r3, .L63
 1524 0096 1C69     		ldr	r4, [r3, #16]
 1525 0098 FFF7FEFF 		bl	chThdGetPriorityX
 1526 009c 0346     		mov	r3, r0
 1527 009e 5A1E     		subs	r2, r3, #1
 1528 00a0 03AB     		add	r3, sp, #12
 1529 00a2 0093     		str	r3, [sp]
 1530 00a4 2046     		mov	r0, r4
 1531 00a6 4FF4E871 		mov	r1, #464
 1532 00aa 0E4B     		ldr	r3, .L63+4
 1533 00ac FFF7FEFF 		bl	chThdCreateStatic
 1534 00b0 0246     		mov	r2, r0
 1535 00b2 0D4B     		ldr	r3, .L63+8
ARM GAS  /tmp/ccfUjDUZ.s 			page 29


 1536 00b4 1A61     		str	r2, [r3, #16]
 1537              		.loc 7 431 0
 1538 00b6 4FF47A70 		mov	r0, #1000
 1539 00ba FFF7FEFF 		bl	chThdSleep
 1540              		.loc 7 432 0
 1541 00be FFF7FEFF 		bl	test_terminate_threads
 1542              		.loc 7 433 0
 1543 00c2 FFF7FEFF 		bl	test_wait_threads
 1544              		.loc 7 435 0
 1545 00c6 0948     		ldr	r0, .L63+12
 1546 00c8 FFF7FEFF 		bl	test_print
 1547              		.loc 7 436 0
 1548 00cc 039B     		ldr	r3, [sp, #12]
 1549 00ce 1846     		mov	r0, r3
 1550 00d0 FFF7FEFF 		bl	test_printn
 1551              		.loc 7 437 0
 1552 00d4 0648     		ldr	r0, .L63+16
 1553 00d6 FFF7FEFF 		bl	test_println
 1554              		.loc 7 438 0
 1555 00da 04B0     		add	sp, sp, #16
 1556              		.cfi_def_cfa_offset 8
 1557              		@ sp needed
 1558 00dc 10BD     		pop	{r4, pc}
 1559              	.L64:
 1560 00de 00BF     		.align	2
 1561              	.L63:
 1562 00e0 00000000 		.word	wa
 1563 00e4 00000000 		.word	thread8
 1564 00e8 00000000 		.word	threads
 1565 00ec 00000000 		.word	.LC0
 1566 00f0 1C000000 		.word	.LC2
 1567              		.cfi_endproc
 1568              	.LFE230:
 1569              		.size	bmk8_execute, .-bmk8_execute
 1570              		.global	testbmk8
 1571 00f4 AFF30080 		.section	.rodata
 1571      AFF30080 
 1571      AFF30080 
 1572 0112 0000     		.align	2
 1573              	.LC12:
 1574 0114 42656E63 		.ascii	"Benchmark, round robin context switching\000"
 1574      686D6172 
 1574      6B2C2072 
 1574      6F756E64 
 1574      20726F62 
 1575              		.section	.rodata.testbmk8,"a",%progbits
 1576              		.align	2
 1577              		.type	testbmk8, %object
 1578              		.size	testbmk8, 16
 1579              	testbmk8:
 1580 0000 14010000 		.word	.LC12
 1581 0004 00000000 		.word	0
 1582 0008 00000000 		.word	0
 1583 000c 00000000 		.word	bmk8_execute
 1584              		.section	.rodata
 1585 013d 000000   		.align	2
 1586              	.LC13:
ARM GAS  /tmp/ccfUjDUZ.s 			page 30


 1587 0140 20627974 		.ascii	" bytes/S\000"
 1587      65732F53 
 1587      00
 1588              		.section	.text.bmk9_execute,"ax",%progbits
 1589              		.align	2
 1590              		.p2align 4,,15
 1591              		.thumb
 1592              		.thumb_func
 1593              		.type	bmk9_execute, %function
 1594              	bmk9_execute:
 1595              	.LFB231:
 1596              		.loc 7 458 0
 1597              		.cfi_startproc
 1598              		@ args = 0, pretend = 0, frame = 8
 1599              		@ frame_needed = 0, uses_anonymous_args = 0
 1600 0000 00B5     		push	{lr}
 1601              		.cfi_def_cfa_offset 4
 1602              		.cfi_offset 14, -4
 1603 0002 85B0     		sub	sp, sp, #20
 1604              		.cfi_def_cfa_offset 24
 1605              		.loc 7 463 0
 1606 0004 0023     		movs	r3, #0
 1607 0006 0093     		str	r3, [sp]
 1608 0008 2248     		ldr	r0, .L67
 1609 000a 2349     		ldr	r1, .L67+4
 1610 000c 1022     		movs	r2, #16
 1611 000e 0023     		movs	r3, #0
 1612 0010 FFF7FEFF 		bl	chIQObjectInit
 1613              		.loc 7 464 0
 1614 0014 0023     		movs	r3, #0
 1615 0016 0393     		str	r3, [sp, #12]
 1616              		.loc 7 465 0
 1617 0018 FFF7FEFF 		bl	test_wait_tick
 1618              		.loc 7 466 0
 1619 001c 4FF47A70 		mov	r0, #1000
 1620 0020 FFF7FEFF 		bl	test_start_timer
 1621              	.L66:
 1622              		.loc 7 468 0 discriminator 1
 1623 0024 FFF7FEFF 		bl	chSysLock
 1624              		.loc 7 469 0 discriminator 1
 1625 0028 1A48     		ldr	r0, .L67
 1626 002a 0021     		movs	r1, #0
 1627 002c FFF7FEFF 		bl	chIQPutI
 1628              		.loc 7 470 0 discriminator 1
 1629 0030 1848     		ldr	r0, .L67
 1630 0032 0121     		movs	r1, #1
 1631 0034 FFF7FEFF 		bl	chIQPutI
 1632              		.loc 7 471 0 discriminator 1
 1633 0038 1648     		ldr	r0, .L67
 1634 003a 0221     		movs	r1, #2
 1635 003c FFF7FEFF 		bl	chIQPutI
 1636              		.loc 7 472 0 discriminator 1
 1637 0040 1448     		ldr	r0, .L67
 1638 0042 0321     		movs	r1, #3
 1639 0044 FFF7FEFF 		bl	chIQPutI
 1640              		.loc 7 473 0 discriminator 1
 1641 0048 FFF7FEFF 		bl	chSysUnlock
ARM GAS  /tmp/ccfUjDUZ.s 			page 31


 1642              		.loc 7 474 0 discriminator 1
 1643 004c 1148     		ldr	r0, .L67
 1644 004e FFF7FEFF 		bl	chIQGet
 1645              		.loc 7 475 0 discriminator 1
 1646 0052 1048     		ldr	r0, .L67
 1647 0054 FFF7FEFF 		bl	chIQGet
 1648              		.loc 7 476 0 discriminator 1
 1649 0058 0E48     		ldr	r0, .L67
 1650 005a FFF7FEFF 		bl	chIQGet
 1651              		.loc 7 477 0 discriminator 1
 1652 005e 0D48     		ldr	r0, .L67
 1653 0060 FFF7FEFF 		bl	chIQGet
 1654              		.loc 7 478 0 discriminator 1
 1655 0064 039B     		ldr	r3, [sp, #12]
 1656 0066 0133     		adds	r3, r3, #1
 1657 0068 0393     		str	r3, [sp, #12]
 1658              		.loc 7 482 0 discriminator 1
 1659 006a 0C4B     		ldr	r3, .L67+8
 1660 006c 1B78     		ldrb	r3, [r3]	@ zero_extendqisi2
 1661 006e 83F00103 		eor	r3, r3, #1
 1662 0072 DBB2     		uxtb	r3, r3
 1663 0074 002B     		cmp	r3, #0
 1664 0076 D5D1     		bne	.L66
 1665              		.loc 7 483 0
 1666 0078 0948     		ldr	r0, .L67+12
 1667 007a FFF7FEFF 		bl	test_print
 1668              		.loc 7 484 0
 1669 007e 039B     		ldr	r3, [sp, #12]
 1670 0080 9B00     		lsls	r3, r3, #2
 1671 0082 1846     		mov	r0, r3
 1672 0084 FFF7FEFF 		bl	test_printn
 1673              		.loc 7 485 0
 1674 0088 0648     		ldr	r0, .L67+16
 1675 008a FFF7FEFF 		bl	test_println
 1676              		.loc 7 486 0
 1677 008e 05B0     		add	sp, sp, #20
 1678              		.cfi_def_cfa_offset 4
 1679              		@ sp needed
 1680 0090 5DF804FB 		ldr	pc, [sp], #4
 1681              	.L68:
 1682              		.align	2
 1683              	.L67:
 1684 0094 00000000 		.word	iq.6608
 1685 0098 00000000 		.word	ib.6607
 1686 009c 00000000 		.word	test_timer_done
 1687 00a0 00000000 		.word	.LC0
 1688 00a4 40010000 		.word	.LC13
 1689              		.cfi_endproc
 1690              	.LFE231:
 1691              		.size	bmk9_execute, .-bmk9_execute
 1692              		.global	testbmk9
 1693 00a8 AFF30080 		.section	.rodata
 1693      AFF30080 
 1694 0149 000000   		.align	2
 1695              	.LC14:
 1696 014c 42656E63 		.ascii	"Benchmark, I/O Queues throughput\000"
 1696      686D6172 
ARM GAS  /tmp/ccfUjDUZ.s 			page 32


 1696      6B2C2049 
 1696      2F4F2051 
 1696      75657565 
 1697              		.section	.rodata.testbmk9,"a",%progbits
 1698              		.align	2
 1699              		.type	testbmk9, %object
 1700              		.size	testbmk9, 16
 1701              	testbmk9:
 1702 0000 4C010000 		.word	.LC14
 1703 0004 00000000 		.word	0
 1704 0008 00000000 		.word	0
 1705 000c 00000000 		.word	bmk9_execute
 1706              		.section	.text.tmo,"ax",%progbits
 1707              		.align	2
 1708              		.p2align 4,,15
 1709              		.thumb
 1710              		.thumb_func
 1711              		.type	tmo, %function
 1712              	tmo:
 1713              	.LFB232:
 1714              		.loc 7 505 0
 1715              		.cfi_startproc
 1716              		@ args = 0, pretend = 0, frame = 8
 1717              		@ frame_needed = 0, uses_anonymous_args = 0
 1718              		@ link register save eliminated.
 1719 0000 82B0     		sub	sp, sp, #8
 1720              		.cfi_def_cfa_offset 8
 1721 0002 0190     		str	r0, [sp, #4]
 1722              		.loc 7 505 0
 1723 0004 02B0     		add	sp, sp, #8
 1724              		.cfi_def_cfa_offset 0
 1725              		@ sp needed
 1726 0006 7047     		bx	lr
 1727              		.cfi_endproc
 1728              	.LFE232:
 1729              		.size	tmo, .-tmo
 1730 0008 AFF30080 		.section	.rodata
 1730      AFF30080 
 1731 016d 000000   		.align	2
 1732              	.LC15:
 1733 0170 2074696D 		.ascii	" timers/S\000"
 1733      6572732F 
 1733      5300
 1734              		.section	.text.bmk10_execute,"ax",%progbits
 1735              		.align	2
 1736              		.p2align 4,,15
 1737              		.thumb
 1738              		.thumb_func
 1739              		.type	bmk10_execute, %function
 1740              	bmk10_execute:
 1741              	.LFB233:
 1742              		.loc 7 507 0
 1743              		.cfi_startproc
 1744              		@ args = 0, pretend = 0, frame = 8
 1745              		@ frame_needed = 0, uses_anonymous_args = 0
 1746 0000 00B5     		push	{lr}
 1747              		.cfi_def_cfa_offset 4
ARM GAS  /tmp/ccfUjDUZ.s 			page 33


 1748              		.cfi_offset 14, -4
 1749 0002 83B0     		sub	sp, sp, #12
 1750              		.cfi_def_cfa_offset 16
 1751              		.loc 7 509 0
 1752 0004 0023     		movs	r3, #0
 1753 0006 0193     		str	r3, [sp, #4]
 1754              		.loc 7 511 0
 1755 0008 FFF7FEFF 		bl	test_wait_tick
 1756              		.loc 7 512 0
 1757 000c 4FF47A70 		mov	r0, #1000
 1758 0010 FFF7FEFF 		bl	test_start_timer
 1759              	.L71:
 1760              		.loc 7 514 0 discriminator 1
 1761 0014 FFF7FEFF 		bl	chSysLock
 1762              		.loc 7 515 0 discriminator 1
 1763 0018 1648     		ldr	r0, .L72
 1764 001a 0121     		movs	r1, #1
 1765 001c 164A     		ldr	r2, .L72+4
 1766 001e 0023     		movs	r3, #0
 1767 0020 FFF7FEFF 		bl	chVTDoSetI
 1768              		.loc 7 516 0 discriminator 1
 1769 0024 1548     		ldr	r0, .L72+8
 1770 0026 42F21071 		movw	r1, #10000
 1771 002a 134A     		ldr	r2, .L72+4
 1772 002c 0023     		movs	r3, #0
 1773 002e FFF7FEFF 		bl	chVTDoSetI
 1774              		.loc 7 517 0 discriminator 1
 1775 0032 1048     		ldr	r0, .L72
 1776 0034 FFF7FEFF 		bl	chVTDoResetI
 1777              		.loc 7 518 0 discriminator 1
 1778 0038 1048     		ldr	r0, .L72+8
 1779 003a FFF7FEFF 		bl	chVTDoResetI
 1780              		.loc 7 519 0 discriminator 1
 1781 003e FFF7FEFF 		bl	chSysUnlock
 1782              		.loc 7 520 0 discriminator 1
 1783 0042 019B     		ldr	r3, [sp, #4]
 1784 0044 0133     		adds	r3, r3, #1
 1785 0046 0193     		str	r3, [sp, #4]
 1786              		.loc 7 524 0 discriminator 1
 1787 0048 0D4B     		ldr	r3, .L72+12
 1788 004a 1B78     		ldrb	r3, [r3]	@ zero_extendqisi2
 1789 004c 83F00103 		eor	r3, r3, #1
 1790 0050 DBB2     		uxtb	r3, r3
 1791 0052 002B     		cmp	r3, #0
 1792 0054 DED1     		bne	.L71
 1793              		.loc 7 525 0
 1794 0056 0B48     		ldr	r0, .L72+16
 1795 0058 FFF7FEFF 		bl	test_print
 1796              		.loc 7 526 0
 1797 005c 019B     		ldr	r3, [sp, #4]
 1798 005e 5B00     		lsls	r3, r3, #1
 1799 0060 1846     		mov	r0, r3
 1800 0062 FFF7FEFF 		bl	test_printn
 1801              		.loc 7 527 0
 1802 0066 0848     		ldr	r0, .L72+20
 1803 0068 FFF7FEFF 		bl	test_println
 1804              		.loc 7 528 0
ARM GAS  /tmp/ccfUjDUZ.s 			page 34


 1805 006c 03B0     		add	sp, sp, #12
 1806              		.cfi_def_cfa_offset 4
 1807              		@ sp needed
 1808 006e 5DF804FB 		ldr	pc, [sp], #4
 1809              	.L73:
 1810 0072 00BF     		.align	2
 1811              	.L72:
 1812 0074 00000000 		.word	vt1.6618
 1813 0078 00000000 		.word	tmo
 1814 007c 00000000 		.word	vt2.6619
 1815 0080 00000000 		.word	test_timer_done
 1816 0084 00000000 		.word	.LC0
 1817 0088 70010000 		.word	.LC15
 1818              		.cfi_endproc
 1819              	.LFE233:
 1820              		.size	bmk10_execute, .-bmk10_execute
 1821              		.global	testbmk10
 1822 008c AFF30080 		.section	.rodata
 1823 017a 0000     		.align	2
 1824              	.LC16:
 1825 017c 42656E63 		.ascii	"Benchmark, virtual timers set/reset\000"
 1825      686D6172 
 1825      6B2C2076 
 1825      69727475 
 1825      616C2074 
 1826              		.section	.rodata.testbmk10,"a",%progbits
 1827              		.align	2
 1828              		.type	testbmk10, %object
 1829              		.size	testbmk10, 16
 1830              	testbmk10:
 1831 0000 7C010000 		.word	.LC16
 1832 0004 00000000 		.word	0
 1833 0008 00000000 		.word	0
 1834 000c 00000000 		.word	bmk10_execute
 1835              		.section	.text.bmk11_setup,"ax",%progbits
 1836              		.align	2
 1837              		.p2align 4,,15
 1838              		.thumb
 1839              		.thumb_func
 1840              		.type	bmk11_setup, %function
 1841              	bmk11_setup:
 1842              	.LFB234:
 1843              		.loc 7 548 0
 1844              		.cfi_startproc
 1845              		@ args = 0, pretend = 0, frame = 0
 1846              		@ frame_needed = 0, uses_anonymous_args = 0
 1847 0000 08B5     		push	{r3, lr}
 1848              		.cfi_def_cfa_offset 8
 1849              		.cfi_offset 3, -8
 1850              		.cfi_offset 14, -4
 1851              		.loc 7 550 0
 1852 0002 0248     		ldr	r0, .L75
 1853 0004 0121     		movs	r1, #1
 1854 0006 FFF7FEFF 		bl	chSemObjectInit
 1855              		.loc 7 551 0
 1856 000a 08BD     		pop	{r3, pc}
 1857              	.L76:
ARM GAS  /tmp/ccfUjDUZ.s 			page 35


 1858              		.align	2
 1859              	.L75:
 1860 000c 00000000 		.word	sem1
 1861              		.cfi_endproc
 1862              	.LFE234:
 1863              		.size	bmk11_setup, .-bmk11_setup
 1864              		.section	.rodata
 1865              		.align	2
 1866              	.LC17:
 1867 01a0 20776169 		.ascii	" wait+signal/S\000"
 1867      742B7369 
 1867      676E616C 
 1867      2F5300
 1868              		.section	.text.bmk11_execute,"ax",%progbits
 1869              		.align	2
 1870              		.p2align 4,,15
 1871              		.thumb
 1872              		.thumb_func
 1873              		.type	bmk11_execute, %function
 1874              	bmk11_execute:
 1875              	.LFB235:
 1876              		.loc 7 553 0
 1877              		.cfi_startproc
 1878              		@ args = 0, pretend = 0, frame = 8
 1879              		@ frame_needed = 0, uses_anonymous_args = 0
 1880 0000 00B5     		push	{lr}
 1881              		.cfi_def_cfa_offset 4
 1882              		.cfi_offset 14, -4
 1883 0002 83B0     		sub	sp, sp, #12
 1884              		.cfi_def_cfa_offset 16
 1885              		.loc 7 554 0
 1886 0004 0023     		movs	r3, #0
 1887 0006 0193     		str	r3, [sp, #4]
 1888              		.loc 7 556 0
 1889 0008 FFF7FEFF 		bl	test_wait_tick
 1890              		.loc 7 557 0
 1891 000c 4FF47A70 		mov	r0, #1000
 1892 0010 FFF7FEFF 		bl	test_start_timer
 1893              	.L78:
 1894              		.loc 7 559 0 discriminator 1
 1895 0014 1748     		ldr	r0, .L79
 1896 0016 FFF7FEFF 		bl	chSemWait
 1897              		.loc 7 560 0 discriminator 1
 1898 001a 1648     		ldr	r0, .L79
 1899 001c FFF7FEFF 		bl	chSemSignal
 1900              		.loc 7 561 0 discriminator 1
 1901 0020 1448     		ldr	r0, .L79
 1902 0022 FFF7FEFF 		bl	chSemWait
 1903              		.loc 7 562 0 discriminator 1
 1904 0026 1348     		ldr	r0, .L79
 1905 0028 FFF7FEFF 		bl	chSemSignal
 1906              		.loc 7 563 0 discriminator 1
 1907 002c 1148     		ldr	r0, .L79
 1908 002e FFF7FEFF 		bl	chSemWait
 1909              		.loc 7 564 0 discriminator 1
 1910 0032 1048     		ldr	r0, .L79
 1911 0034 FFF7FEFF 		bl	chSemSignal
ARM GAS  /tmp/ccfUjDUZ.s 			page 36


 1912              		.loc 7 565 0 discriminator 1
 1913 0038 0E48     		ldr	r0, .L79
 1914 003a FFF7FEFF 		bl	chSemWait
 1915              		.loc 7 566 0 discriminator 1
 1916 003e 0D48     		ldr	r0, .L79
 1917 0040 FFF7FEFF 		bl	chSemSignal
 1918              		.loc 7 567 0 discriminator 1
 1919 0044 019B     		ldr	r3, [sp, #4]
 1920 0046 0133     		adds	r3, r3, #1
 1921 0048 0193     		str	r3, [sp, #4]
 1922              		.loc 7 571 0 discriminator 1
 1923 004a 0B4B     		ldr	r3, .L79+4
 1924 004c 1B78     		ldrb	r3, [r3]	@ zero_extendqisi2
 1925 004e 83F00103 		eor	r3, r3, #1
 1926 0052 DBB2     		uxtb	r3, r3
 1927 0054 002B     		cmp	r3, #0
 1928 0056 DDD1     		bne	.L78
 1929              		.loc 7 572 0
 1930 0058 0848     		ldr	r0, .L79+8
 1931 005a FFF7FEFF 		bl	test_print
 1932              		.loc 7 573 0
 1933 005e 019B     		ldr	r3, [sp, #4]
 1934 0060 9B00     		lsls	r3, r3, #2
 1935 0062 1846     		mov	r0, r3
 1936 0064 FFF7FEFF 		bl	test_printn
 1937              		.loc 7 574 0
 1938 0068 0548     		ldr	r0, .L79+12
 1939 006a FFF7FEFF 		bl	test_println
 1940              		.loc 7 575 0
 1941 006e 03B0     		add	sp, sp, #12
 1942              		.cfi_def_cfa_offset 4
 1943              		@ sp needed
 1944 0070 5DF804FB 		ldr	pc, [sp], #4
 1945              	.L80:
 1946              		.align	2
 1947              	.L79:
 1948 0074 00000000 		.word	sem1
 1949 0078 00000000 		.word	test_timer_done
 1950 007c 00000000 		.word	.LC0
 1951 0080 A0010000 		.word	.LC17
 1952              		.cfi_endproc
 1953              	.LFE235:
 1954              		.size	bmk11_execute, .-bmk11_execute
 1955              		.global	testbmk11
 1956 0084 AFF30080 		.section	.rodata
 1956      AFF30080 
 1956      AFF30080 
 1957 01af 00       		.align	2
 1958              	.LC18:
 1959 01b0 42656E63 		.ascii	"Benchmark, semaphores wait/signal\000"
 1959      686D6172 
 1959      6B2C2073 
 1959      656D6170 
 1959      686F7265 
 1960              		.section	.rodata.testbmk11,"a",%progbits
 1961              		.align	2
 1962              		.type	testbmk11, %object
ARM GAS  /tmp/ccfUjDUZ.s 			page 37


 1963              		.size	testbmk11, 16
 1964              	testbmk11:
 1965 0000 B0010000 		.word	.LC18
 1966 0004 00000000 		.word	bmk11_setup
 1967 0008 00000000 		.word	0
 1968 000c 00000000 		.word	bmk11_execute
 1969              		.section	.text.bmk12_setup,"ax",%progbits
 1970              		.align	2
 1971              		.p2align 4,,15
 1972              		.thumb
 1973              		.thumb_func
 1974              		.type	bmk12_setup, %function
 1975              	bmk12_setup:
 1976              	.LFB236:
 1977              		.loc 7 596 0
 1978              		.cfi_startproc
 1979              		@ args = 0, pretend = 0, frame = 0
 1980              		@ frame_needed = 0, uses_anonymous_args = 0
 1981 0000 08B5     		push	{r3, lr}
 1982              		.cfi_def_cfa_offset 8
 1983              		.cfi_offset 3, -8
 1984              		.cfi_offset 14, -4
 1985              		.loc 7 598 0
 1986 0002 0248     		ldr	r0, .L82
 1987 0004 FFF7FEFF 		bl	chMtxObjectInit
 1988              		.loc 7 599 0
 1989 0008 08BD     		pop	{r3, pc}
 1990              	.L83:
 1991 000a 00BF     		.align	2
 1992              	.L82:
 1993 000c 00000000 		.word	mtx1
 1994              		.cfi_endproc
 1995              	.LFE236:
 1996              		.size	bmk12_setup, .-bmk12_setup
 1997              		.section	.rodata
 1998 01d2 0000     		.align	2
 1999              	.LC19:
 2000 01d4 206C6F63 		.ascii	" lock+unlock/S\000"
 2000      6B2B756E 
 2000      6C6F636B 
 2000      2F5300
 2001              		.section	.text.bmk12_execute,"ax",%progbits
 2002              		.align	2
 2003              		.p2align 4,,15
 2004              		.thumb
 2005              		.thumb_func
 2006              		.type	bmk12_execute, %function
 2007              	bmk12_execute:
 2008              	.LFB237:
 2009              		.loc 7 601 0
 2010              		.cfi_startproc
 2011              		@ args = 0, pretend = 0, frame = 8
 2012              		@ frame_needed = 0, uses_anonymous_args = 0
 2013 0000 00B5     		push	{lr}
 2014              		.cfi_def_cfa_offset 4
 2015              		.cfi_offset 14, -4
 2016 0002 83B0     		sub	sp, sp, #12
ARM GAS  /tmp/ccfUjDUZ.s 			page 38


 2017              		.cfi_def_cfa_offset 16
 2018              		.loc 7 602 0
 2019 0004 0023     		movs	r3, #0
 2020 0006 0193     		str	r3, [sp, #4]
 2021              		.loc 7 604 0
 2022 0008 FFF7FEFF 		bl	test_wait_tick
 2023              		.loc 7 605 0
 2024 000c 4FF47A70 		mov	r0, #1000
 2025 0010 FFF7FEFF 		bl	test_start_timer
 2026              	.L85:
 2027              		.loc 7 607 0 discriminator 1
 2028 0014 1748     		ldr	r0, .L86
 2029 0016 FFF7FEFF 		bl	chMtxLock
 2030              		.loc 7 608 0 discriminator 1
 2031 001a 1648     		ldr	r0, .L86
 2032 001c FFF7FEFF 		bl	chMtxUnlock
 2033              		.loc 7 609 0 discriminator 1
 2034 0020 1448     		ldr	r0, .L86
 2035 0022 FFF7FEFF 		bl	chMtxLock
 2036              		.loc 7 610 0 discriminator 1
 2037 0026 1348     		ldr	r0, .L86
 2038 0028 FFF7FEFF 		bl	chMtxUnlock
 2039              		.loc 7 611 0 discriminator 1
 2040 002c 1148     		ldr	r0, .L86
 2041 002e FFF7FEFF 		bl	chMtxLock
 2042              		.loc 7 612 0 discriminator 1
 2043 0032 1048     		ldr	r0, .L86
 2044 0034 FFF7FEFF 		bl	chMtxUnlock
 2045              		.loc 7 613 0 discriminator 1
 2046 0038 0E48     		ldr	r0, .L86
 2047 003a FFF7FEFF 		bl	chMtxLock
 2048              		.loc 7 614 0 discriminator 1
 2049 003e 0D48     		ldr	r0, .L86
 2050 0040 FFF7FEFF 		bl	chMtxUnlock
 2051              		.loc 7 615 0 discriminator 1
 2052 0044 019B     		ldr	r3, [sp, #4]
 2053 0046 0133     		adds	r3, r3, #1
 2054 0048 0193     		str	r3, [sp, #4]
 2055              		.loc 7 619 0 discriminator 1
 2056 004a 0B4B     		ldr	r3, .L86+4
 2057 004c 1B78     		ldrb	r3, [r3]	@ zero_extendqisi2
 2058 004e 83F00103 		eor	r3, r3, #1
 2059 0052 DBB2     		uxtb	r3, r3
 2060 0054 002B     		cmp	r3, #0
 2061 0056 DDD1     		bne	.L85
 2062              		.loc 7 620 0
 2063 0058 0848     		ldr	r0, .L86+8
 2064 005a FFF7FEFF 		bl	test_print
 2065              		.loc 7 621 0
 2066 005e 019B     		ldr	r3, [sp, #4]
 2067 0060 9B00     		lsls	r3, r3, #2
 2068 0062 1846     		mov	r0, r3
 2069 0064 FFF7FEFF 		bl	test_printn
 2070              		.loc 7 622 0
 2071 0068 0548     		ldr	r0, .L86+12
 2072 006a FFF7FEFF 		bl	test_println
 2073              		.loc 7 623 0
ARM GAS  /tmp/ccfUjDUZ.s 			page 39


 2074 006e 03B0     		add	sp, sp, #12
 2075              		.cfi_def_cfa_offset 4
 2076              		@ sp needed
 2077 0070 5DF804FB 		ldr	pc, [sp], #4
 2078              	.L87:
 2079              		.align	2
 2080              	.L86:
 2081 0074 00000000 		.word	mtx1
 2082 0078 00000000 		.word	test_timer_done
 2083 007c 00000000 		.word	.LC0
 2084 0080 D4010000 		.word	.LC19
 2085              		.cfi_endproc
 2086              	.LFE237:
 2087              		.size	bmk12_execute, .-bmk12_execute
 2088              		.global	testbmk12
 2089 0084 AFF30080 		.section	.rodata
 2089      AFF30080 
 2089      AFF30080 
 2090 01e3 00       		.align	2
 2091              	.LC20:
 2092 01e4 42656E63 		.ascii	"Benchmark, mutexes lock/unlock\000"
 2092      686D6172 
 2092      6B2C206D 
 2092      75746578 
 2092      6573206C 
 2093              		.section	.rodata.testbmk12,"a",%progbits
 2094              		.align	2
 2095              		.type	testbmk12, %object
 2096              		.size	testbmk12, 16
 2097              	testbmk12:
 2098 0000 E4010000 		.word	.LC20
 2099 0004 00000000 		.word	bmk12_setup
 2100 0008 00000000 		.word	0
 2101 000c 00000000 		.word	bmk12_execute
 2102              		.section	.rodata
 2103 0203 00       		.align	2
 2104              	.LC21:
 2105 0204 2D2D2D20 		.ascii	"--- System: \000"
 2105      53797374 
 2105      656D3A20 
 2105      00
 2106 0211 000000   		.align	2
 2107              	.LC22:
 2108 0214 20627974 		.ascii	" bytes\000"
 2108      657300
 2109 021b 00       		.align	2
 2110              	.LC23:
 2111 021c 2D2D2D20 		.ascii	"--- Thread: \000"
 2111      54687265 
 2111      61643A20 
 2111      00
 2112 0229 000000   		.align	2
 2113              	.LC24:
 2114 022c 2D2D2D20 		.ascii	"--- Timer : \000"
 2114      54696D65 
 2114      72203A20 
 2114      00
ARM GAS  /tmp/ccfUjDUZ.s 			page 40


 2115 0239 000000   		.align	2
 2116              	.LC25:
 2117 023c 2D2D2D20 		.ascii	"--- Semaph: \000"
 2117      53656D61 
 2117      70683A20 
 2117      00
 2118 0249 000000   		.align	2
 2119              	.LC26:
 2120 024c 2D2D2D20 		.ascii	"--- EventS: \000"
 2120      4576656E 
 2120      74533A20 
 2120      00
 2121 0259 000000   		.align	2
 2122              	.LC27:
 2123 025c 2D2D2D20 		.ascii	"--- EventL: \000"
 2123      4576656E 
 2123      744C3A20 
 2123      00
 2124 0269 000000   		.align	2
 2125              	.LC28:
 2126 026c 2D2D2D20 		.ascii	"--- Mutex : \000"
 2126      4D757465 
 2126      78203A20 
 2126      00
 2127 0279 000000   		.align	2
 2128              	.LC29:
 2129 027c 2D2D2D20 		.ascii	"--- CondV.: \000"
 2129      436F6E64 
 2129      562E3A20 
 2129      00
 2130 0289 000000   		.align	2
 2131              	.LC30:
 2132 028c 2D2D2D20 		.ascii	"--- Queue : \000"
 2132      51756575 
 2132      65203A20 
 2132      00
 2133 0299 000000   		.align	2
 2134              	.LC31:
 2135 029c 2D2D2D20 		.ascii	"--- MailB.: \000"
 2135      4D61696C 
 2135      422E3A20 
 2135      00
 2136              		.section	.text.bmk13_execute,"ax",%progbits
 2137              		.align	2
 2138              		.p2align 4,,15
 2139              		.thumb
 2140              		.thumb_func
 2141              		.type	bmk13_execute, %function
 2142              	bmk13_execute:
 2143              	.LFB238:
 2144              		.loc 7 640 0
 2145              		.cfi_startproc
 2146              		@ args = 0, pretend = 0, frame = 0
 2147              		@ frame_needed = 0, uses_anonymous_args = 0
 2148 0000 08B5     		push	{r3, lr}
 2149              		.cfi_def_cfa_offset 8
 2150              		.cfi_offset 3, -8
ARM GAS  /tmp/ccfUjDUZ.s 			page 41


 2151              		.cfi_offset 14, -4
 2152              		.loc 7 642 0
 2153 0002 2E48     		ldr	r0, .L89
 2154 0004 FFF7FEFF 		bl	test_print
 2155              		.loc 7 643 0
 2156 0008 4FF4EC70 		mov	r0, #472
 2157 000c FFF7FEFF 		bl	test_printn
 2158              		.loc 7 644 0
 2159 0010 2B48     		ldr	r0, .L89+4
 2160 0012 FFF7FEFF 		bl	test_println
 2161              		.loc 7 645 0
 2162 0016 2B48     		ldr	r0, .L89+8
 2163 0018 FFF7FEFF 		bl	test_print
 2164              		.loc 7 646 0
 2165 001c 4420     		movs	r0, #68
 2166 001e FFF7FEFF 		bl	test_printn
 2167              		.loc 7 647 0
 2168 0022 2748     		ldr	r0, .L89+4
 2169 0024 FFF7FEFF 		bl	test_println
 2170              		.loc 7 648 0
 2171 0028 2748     		ldr	r0, .L89+12
 2172 002a FFF7FEFF 		bl	test_print
 2173              		.loc 7 649 0
 2174 002e 1420     		movs	r0, #20
 2175 0030 FFF7FEFF 		bl	test_printn
 2176              		.loc 7 650 0
 2177 0034 2248     		ldr	r0, .L89+4
 2178 0036 FFF7FEFF 		bl	test_println
 2179              		.loc 7 652 0
 2180 003a 2448     		ldr	r0, .L89+16
 2181 003c FFF7FEFF 		bl	test_print
 2182              		.loc 7 653 0
 2183 0040 0C20     		movs	r0, #12
 2184 0042 FFF7FEFF 		bl	test_printn
 2185              		.loc 7 654 0
 2186 0046 1E48     		ldr	r0, .L89+4
 2187 0048 FFF7FEFF 		bl	test_println
 2188              		.loc 7 657 0
 2189 004c 2048     		ldr	r0, .L89+20
 2190 004e FFF7FEFF 		bl	test_print
 2191              		.loc 7 658 0
 2192 0052 0420     		movs	r0, #4
 2193 0054 FFF7FEFF 		bl	test_printn
 2194              		.loc 7 659 0
 2195 0058 1948     		ldr	r0, .L89+4
 2196 005a FFF7FEFF 		bl	test_println
 2197              		.loc 7 660 0
 2198 005e 1D48     		ldr	r0, .L89+24
 2199 0060 FFF7FEFF 		bl	test_print
 2200              		.loc 7 661 0
 2201 0064 1420     		movs	r0, #20
 2202 0066 FFF7FEFF 		bl	test_printn
 2203              		.loc 7 662 0
 2204 006a 1548     		ldr	r0, .L89+4
 2205 006c FFF7FEFF 		bl	test_println
 2206              		.loc 7 665 0
 2207 0070 1948     		ldr	r0, .L89+28
ARM GAS  /tmp/ccfUjDUZ.s 			page 42


 2208 0072 FFF7FEFF 		bl	test_print
 2209              		.loc 7 666 0
 2210 0076 1020     		movs	r0, #16
 2211 0078 FFF7FEFF 		bl	test_printn
 2212              		.loc 7 667 0
 2213 007c 1048     		ldr	r0, .L89+4
 2214 007e FFF7FEFF 		bl	test_println
 2215              		.loc 7 670 0
 2216 0082 1648     		ldr	r0, .L89+32
 2217 0084 FFF7FEFF 		bl	test_print
 2218              		.loc 7 671 0
 2219 0088 0820     		movs	r0, #8
 2220 008a FFF7FEFF 		bl	test_printn
 2221              		.loc 7 672 0
 2222 008e 0C48     		ldr	r0, .L89+4
 2223 0090 FFF7FEFF 		bl	test_println
 2224              		.loc 7 675 0
 2225 0094 1248     		ldr	r0, .L89+36
 2226 0096 FFF7FEFF 		bl	test_print
 2227              		.loc 7 676 0
 2228 009a 2420     		movs	r0, #36
 2229 009c FFF7FEFF 		bl	test_printn
 2230              		.loc 7 677 0
 2231 00a0 0748     		ldr	r0, .L89+4
 2232 00a2 FFF7FEFF 		bl	test_println
 2233              		.loc 7 680 0
 2234 00a6 0F48     		ldr	r0, .L89+40
 2235 00a8 FFF7FEFF 		bl	test_print
 2236              		.loc 7 681 0
 2237 00ac 2820     		movs	r0, #40
 2238 00ae FFF7FEFF 		bl	test_printn
 2239              		.loc 7 682 0
 2240 00b2 0348     		ldr	r0, .L89+4
 2241 00b4 FFF7FEFF 		bl	test_println
 2242              		.loc 7 684 0
 2243 00b8 08BD     		pop	{r3, pc}
 2244              	.L90:
 2245 00ba 00BF     		.align	2
 2246              	.L89:
 2247 00bc 04020000 		.word	.LC21
 2248 00c0 14020000 		.word	.LC22
 2249 00c4 1C020000 		.word	.LC23
 2250 00c8 2C020000 		.word	.LC24
 2251 00cc 3C020000 		.word	.LC25
 2252 00d0 4C020000 		.word	.LC26
 2253 00d4 5C020000 		.word	.LC27
 2254 00d8 6C020000 		.word	.LC28
 2255 00dc 7C020000 		.word	.LC29
 2256 00e0 8C020000 		.word	.LC30
 2257 00e4 9C020000 		.word	.LC31
 2258              		.cfi_endproc
 2259              	.LFE238:
 2260              		.size	bmk13_execute, .-bmk13_execute
 2261              		.global	testbmk13
 2262 00e8 AFF30080 		.section	.rodata
 2262      AFF30080 
 2263 02a9 000000   		.align	2
ARM GAS  /tmp/ccfUjDUZ.s 			page 43


 2264              	.LC32:
 2265 02ac 42656E63 		.ascii	"Benchmark, RAM footprint\000"
 2265      686D6172 
 2265      6B2C2052 
 2265      414D2066 
 2265      6F6F7470 
 2266 02c5 000000   		.section	.rodata.testbmk13,"a",%progbits
 2267              		.align	2
 2268              		.type	testbmk13, %object
 2269              		.size	testbmk13, 16
 2270              	testbmk13:
 2271 0000 AC020000 		.word	.LC32
 2272 0004 00000000 		.word	0
 2273 0008 00000000 		.word	0
 2274 000c 00000000 		.word	bmk13_execute
 2275              		.global	patternbmk
 2276              		.section	.rodata.patternbmk,"a",%progbits
 2277              		.align	2
 2278              		.type	patternbmk, %object
 2279              		.size	patternbmk, 56
 2280              	patternbmk:
 2281 0000 00000000 		.word	testbmk1
 2282 0004 00000000 		.word	testbmk2
 2283 0008 00000000 		.word	testbmk3
 2284 000c 00000000 		.word	testbmk4
 2285 0010 00000000 		.word	testbmk5
 2286 0014 00000000 		.word	testbmk6
 2287 0018 00000000 		.word	testbmk7
 2288 001c 00000000 		.word	testbmk8
 2289 0020 00000000 		.word	testbmk9
 2290 0024 00000000 		.word	testbmk10
 2291 0028 00000000 		.word	testbmk11
 2292 002c 00000000 		.word	testbmk12
 2293 0030 00000000 		.word	testbmk13
 2294 0034 00000000 		.word	0
 2295              		.section	.bss.iq.6608,"aw",%nobits
 2296              		.align	2
 2297              		.type	iq.6608, %object
 2298              		.size	iq.6608, 36
 2299              	iq.6608:
 2300 0000 00000000 		.space	36
 2300      00000000 
 2300      00000000 
 2300      00000000 
 2300      00000000 
 2301              		.section	.bss.ib.6607,"aw",%nobits
 2302              		.align	2
 2303              		.type	ib.6607, %object
 2304              		.size	ib.6607, 16
 2305              	ib.6607:
 2306 0000 00000000 		.space	16
 2306      00000000 
 2306      00000000 
 2306      00000000 
 2307              		.section	.bss.vt1.6618,"aw",%nobits
 2308              		.align	2
 2309              		.type	vt1.6618, %object
ARM GAS  /tmp/ccfUjDUZ.s 			page 44


 2310              		.size	vt1.6618, 20
 2311              	vt1.6618:
 2312 0000 00000000 		.space	20
 2312      00000000 
 2312      00000000 
 2312      00000000 
 2312      00000000 
 2313              		.section	.bss.vt2.6619,"aw",%nobits
 2314              		.align	2
 2315              		.type	vt2.6619, %object
 2316              		.size	vt2.6619, 20
 2317              	vt2.6619:
 2318 0000 00000000 		.space	20
 2318      00000000 
 2318      00000000 
 2318      00000000 
 2318      00000000 
 2319              		.text
 2320              	.Letext0:
 2321              		.file 8 "/opt/gcc-arm-none-eabi/lib/gcc/arm-none-eabi/4.9.3/include/stddef.h"
 2322              		.file 9 "/opt/gcc-arm-none-eabi/arm-none-eabi/include/machine/_default_types.h"
 2323              		.file 10 "/opt/gcc-arm-none-eabi/arm-none-eabi/include/stdint.h"
 2324              		.file 11 "/home/makkmarci/workspace/CLEAN/ChibiOS/os/rt/ports/ARMCMx/compilers/GCC/chtypes.h"
 2325              		.file 12 "/home/makkmarci/workspace/CLEAN/ChibiOS/os/rt/include/chsystypes.h"
 2326              		.file 13 "/home/makkmarci/workspace/CLEAN/ChibiOS/os/rt/include/chschd.h"
 2327              		.file 14 "/home/makkmarci/workspace/CLEAN/ChibiOS/os/rt/ports/ARMCMx/chcore.h"
 2328              		.file 15 "/home/makkmarci/workspace/CLEAN/ChibiOS/os/rt/include/chtm.h"
 2329              		.file 16 "/home/makkmarci/workspace/CLEAN/ChibiOS/os/rt/include/chsem.h"
 2330              		.file 17 "/home/makkmarci/workspace/CLEAN/ChibiOS/os/rt/include/chmtx.h"
 2331              		.file 18 "/home/makkmarci/workspace/CLEAN/ChibiOS/test/rt/test.h"
 2332              		.file 19 "/home/makkmarci/workspace/CLEAN/ChibiOS/os/ext/CMSIS/include/core_cm4.h"