ARM GAS  /tmp/ccbsxt0J.s 			page 1


   1              		.syntax unified
   2              		.cpu cortex-m4
   3              		.eabi_attribute 27, 1
   4              		.eabi_attribute 28, 1
   5              		.fpu fpv4-sp-d16
   6              		.eabi_attribute 20, 1
   7              		.eabi_attribute 21, 1
   8              		.eabi_attribute 23, 3
   9              		.eabi_attribute 24, 1
  10              		.eabi_attribute 25, 1
  11              		.eabi_attribute 26, 1
  12              		.eabi_attribute 30, 6
  13              		.eabi_attribute 34, 1
  14              		.eabi_attribute 18, 4
  15              		.thumb
  16              		.file	"testmbox.c"
  17              		.text
  18              	.Ltext0:
  19              		.cfi_sections	.debug_frame
  20              		.section	.text.port_lock,"ax",%progbits
  21              		.align	2
  22              		.p2align 4,,15
  23              		.thumb
  24              		.thumb_func
  25              		.type	port_lock, %function
  26              	port_lock:
  27              	.LFB116:
  28              		.file 1 "/home/makkmarci/workspace/CLEAN/ChibiOS/os/rt/ports/ARMCMx/chcore_v7m.h"
  29              		.loc 1 444 0
  30              		.cfi_startproc
  31              		@ args = 0, pretend = 0, frame = 8
  32              		@ frame_needed = 0, uses_anonymous_args = 0
  33              		@ link register save eliminated.
  34 0000 82B0     		sub	sp, sp, #8
  35              		.cfi_def_cfa_offset 8
  36 0002 2023     		movs	r3, #32
  37 0004 0193     		str	r3, [sp, #4]
  38              	.LBB6:
  39              	.LBB7:
  40              		.file 2 "/home/makkmarci/workspace/CLEAN/ChibiOS/os/ext/CMSIS/include/core_cmFunc.h"
  41              		.loc 2 546 0
  42 0006 019B     		ldr	r3, [sp, #4]
  43              	@ 546 "/home/makkmarci/workspace/CLEAN/ChibiOS/os/ext/CMSIS/include/core_cmFunc.h" 1
  44 0008 83F31188 		MSR basepri, r3
  45              	@ 0 "" 2
  46              		.thumb
  47              	.LBE7:
  48              	.LBE6:
  49              		.loc 1 451 0
  50 000c 02B0     		add	sp, sp, #8
  51              		.cfi_def_cfa_offset 0
  52              		@ sp needed
  53 000e 7047     		bx	lr
  54              		.cfi_endproc
  55              	.LFE116:
  56              		.size	port_lock, .-port_lock
  57              		.section	.text.port_unlock,"ax",%progbits
ARM GAS  /tmp/ccbsxt0J.s 			page 2


  58              		.align	2
  59              		.p2align 4,,15
  60              		.thumb
  61              		.thumb_func
  62              		.type	port_unlock, %function
  63              	port_unlock:
  64              	.LFB117:
  65              		.loc 1 458 0
  66              		.cfi_startproc
  67              		@ args = 0, pretend = 0, frame = 8
  68              		@ frame_needed = 0, uses_anonymous_args = 0
  69              		@ link register save eliminated.
  70 0000 82B0     		sub	sp, sp, #8
  71              		.cfi_def_cfa_offset 8
  72 0002 0023     		movs	r3, #0
  73 0004 0193     		str	r3, [sp, #4]
  74              	.LBB8:
  75              	.LBB9:
  76              		.loc 2 546 0
  77 0006 019B     		ldr	r3, [sp, #4]
  78              	@ 546 "/home/makkmarci/workspace/CLEAN/ChibiOS/os/ext/CMSIS/include/core_cmFunc.h" 1
  79 0008 83F31188 		MSR basepri, r3
  80              	@ 0 "" 2
  81              		.thumb
  82              	.LBE9:
  83              	.LBE8:
  84              		.loc 1 465 0
  85 000c 02B0     		add	sp, sp, #8
  86              		.cfi_def_cfa_offset 0
  87              		@ sp needed
  88 000e 7047     		bx	lr
  89              		.cfi_endproc
  90              	.LFE117:
  91              		.size	port_unlock, .-port_unlock
  92              		.section	.text.chSysLock,"ax",%progbits
  93              		.align	2
  94              		.p2align 4,,15
  95              		.thumb
  96              		.thumb_func
  97              		.type	chSysLock, %function
  98              	chSysLock:
  99              	.LFB145:
 100              		.file 3 "/home/makkmarci/workspace/CLEAN/ChibiOS/os/rt/include/chsys.h"
 101              		.loc 3 346 0
 102              		.cfi_startproc
 103              		@ args = 0, pretend = 0, frame = 0
 104              		@ frame_needed = 0, uses_anonymous_args = 0
 105 0000 08B5     		push	{r3, lr}
 106              		.cfi_def_cfa_offset 8
 107              		.cfi_offset 3, -8
 108              		.cfi_offset 14, -4
 109              		.loc 3 348 0
 110 0002 FFF7FEFF 		bl	port_lock
 111              		.loc 3 351 0
 112 0006 08BD     		pop	{r3, pc}
 113              		.cfi_endproc
 114              	.LFE145:
ARM GAS  /tmp/ccbsxt0J.s 			page 3


 115              		.size	chSysLock, .-chSysLock
 116              		.section	.text.chSysUnlock,"ax",%progbits
 117              		.align	2
 118              		.p2align 4,,15
 119              		.thumb
 120              		.thumb_func
 121              		.type	chSysUnlock, %function
 122              	chSysUnlock:
 123              	.LFB146:
 124              		.loc 3 358 0
 125              		.cfi_startproc
 126              		@ args = 0, pretend = 0, frame = 0
 127              		@ frame_needed = 0, uses_anonymous_args = 0
 128 0000 08B5     		push	{r3, lr}
 129              		.cfi_def_cfa_offset 8
 130              		.cfi_offset 3, -8
 131              		.cfi_offset 14, -4
 132              		.loc 3 371 0
 133 0002 FFF7FEFF 		bl	port_unlock
 134              		.loc 3 372 0
 135 0006 08BD     		pop	{r3, pc}
 136              		.cfi_endproc
 137              	.LFE146:
 138              		.size	chSysUnlock, .-chSysUnlock
 139 0008 AFF30080 		.section	.text.chSemGetCounterI,"ax",%progbits
 139      AFF30080 
 140              		.align	2
 141              		.p2align 4,,15
 142              		.thumb
 143              		.thumb_func
 144              		.type	chSemGetCounterI, %function
 145              	chSemGetCounterI:
 146              	.LFB178:
 147              		.file 4 "/home/makkmarci/workspace/CLEAN/ChibiOS/os/rt/include/chsem.h"
 148              		.loc 4 149 0
 149              		.cfi_startproc
 150              		@ args = 0, pretend = 0, frame = 8
 151              		@ frame_needed = 0, uses_anonymous_args = 0
 152              		@ link register save eliminated.
 153 0000 82B0     		sub	sp, sp, #8
 154              		.cfi_def_cfa_offset 8
 155 0002 0190     		str	r0, [sp, #4]
 156              		.loc 4 153 0
 157 0004 019B     		ldr	r3, [sp, #4]
 158 0006 9B68     		ldr	r3, [r3, #8]
 159              		.loc 4 154 0
 160 0008 1846     		mov	r0, r3
 161 000a 02B0     		add	sp, sp, #8
 162              		.cfi_def_cfa_offset 0
 163              		@ sp needed
 164 000c 7047     		bx	lr
 165              		.cfi_endproc
 166              	.LFE178:
 167              		.size	chSemGetCounterI, .-chSemGetCounterI
 168 000e 00BF     		.section	.text.chMBGetFreeCountI,"ax",%progbits
 169              		.align	2
 170              		.p2align 4,,15
ARM GAS  /tmp/ccbsxt0J.s 			page 4


 171              		.thumb
 172              		.thumb_func
 173              		.type	chMBGetFreeCountI, %function
 174              	chMBGetFreeCountI:
 175              	.LFB201:
 176              		.file 5 "/home/makkmarci/workspace/CLEAN/ChibiOS/os/rt/include/chmboxes.h"
 177              		.loc 5 158 0
 178              		.cfi_startproc
 179              		@ args = 0, pretend = 0, frame = 8
 180              		@ frame_needed = 0, uses_anonymous_args = 0
 181 0000 00B5     		push	{lr}
 182              		.cfi_def_cfa_offset 4
 183              		.cfi_offset 14, -4
 184 0002 83B0     		sub	sp, sp, #12
 185              		.cfi_def_cfa_offset 16
 186 0004 0190     		str	r0, [sp, #4]
 187              		.loc 5 162 0
 188 0006 019B     		ldr	r3, [sp, #4]
 189 0008 1C33     		adds	r3, r3, #28
 190 000a 1846     		mov	r0, r3
 191 000c FFF7FEFF 		bl	chSemGetCounterI
 192 0010 0346     		mov	r3, r0
 193              		.loc 5 163 0
 194 0012 1846     		mov	r0, r3
 195 0014 03B0     		add	sp, sp, #12
 196              		.cfi_def_cfa_offset 4
 197              		@ sp needed
 198 0016 5DF804FB 		ldr	pc, [sp], #4
 199              		.cfi_endproc
 200              	.LFE201:
 201              		.size	chMBGetFreeCountI, .-chMBGetFreeCountI
 202 001a 00BFAFF3 		.section	.text.chMBGetUsedCountI,"ax",%progbits
 202      0080
 203              		.align	2
 204              		.p2align 4,,15
 205              		.thumb
 206              		.thumb_func
 207              		.type	chMBGetUsedCountI, %function
 208              	chMBGetUsedCountI:
 209              	.LFB202:
 210              		.loc 5 177 0
 211              		.cfi_startproc
 212              		@ args = 0, pretend = 0, frame = 8
 213              		@ frame_needed = 0, uses_anonymous_args = 0
 214 0000 00B5     		push	{lr}
 215              		.cfi_def_cfa_offset 4
 216              		.cfi_offset 14, -4
 217 0002 83B0     		sub	sp, sp, #12
 218              		.cfi_def_cfa_offset 16
 219 0004 0190     		str	r0, [sp, #4]
 220              		.loc 5 181 0
 221 0006 019B     		ldr	r3, [sp, #4]
 222 0008 1033     		adds	r3, r3, #16
 223 000a 1846     		mov	r0, r3
 224 000c FFF7FEFF 		bl	chSemGetCounterI
 225 0010 0346     		mov	r3, r0
 226              		.loc 5 182 0
ARM GAS  /tmp/ccbsxt0J.s 			page 5


 227 0012 1846     		mov	r0, r3
 228 0014 03B0     		add	sp, sp, #12
 229              		.cfi_def_cfa_offset 4
 230              		@ sp needed
 231 0016 5DF804FB 		ldr	pc, [sp], #4
 232              		.cfi_endproc
 233              	.LFE202:
 234              		.size	chMBGetUsedCountI, .-chMBGetUsedCountI
 235 001a 00BFAFF3 		.section	.data.mb1,"aw",%progbits
 235      0080
 236              		.align	2
 237              		.type	mb1, %object
 238              		.size	mb1, 40
 239              	mb1:
 240 0000 00000000 		.word	test
 241 0004 14000000 		.word	test+20
 242 0008 00000000 		.word	test
 243 000c 00000000 		.word	test
 244 0010 10000000 		.word	mb1+16
 245 0014 10000000 		.word	mb1+16
 246 0018 00000000 		.word	0
 247 001c 1C000000 		.word	mb1+28
 248 0020 1C000000 		.word	mb1+28
 249 0024 05000000 		.word	5
 250              		.section	.text.mbox1_setup,"ax",%progbits
 251              		.align	2
 252              		.p2align 4,,15
 253              		.thumb
 254              		.thumb_func
 255              		.type	mbox1_setup, %function
 256              	mbox1_setup:
 257              	.LFB216:
 258              		.file 6 "/home/makkmarci/workspace/CLEAN/ChibiOS/test/rt/testmbox.c"
 259              		.loc 6 71 0
 260              		.cfi_startproc
 261              		@ args = 0, pretend = 0, frame = 0
 262              		@ frame_needed = 0, uses_anonymous_args = 0
 263 0000 08B5     		push	{r3, lr}
 264              		.cfi_def_cfa_offset 8
 265              		.cfi_offset 3, -8
 266              		.cfi_offset 14, -4
 267              		.loc 6 73 0
 268 0002 0348     		ldr	r0, .L12
 269 0004 0349     		ldr	r1, .L12+4
 270 0006 0522     		movs	r2, #5
 271 0008 FFF7FEFF 		bl	chMBObjectInit
 272              		.loc 6 74 0
 273 000c 08BD     		pop	{r3, pc}
 274              	.L13:
 275 000e 00BF     		.align	2
 276              	.L12:
 277 0010 00000000 		.word	mb1
 278 0014 00000000 		.word	test
 279              		.cfi_endproc
 280              	.LFE216:
 281              		.size	mbox1_setup, .-mbox1_setup
 282 0018 AFF30080 		.section	.rodata
ARM GAS  /tmp/ccbsxt0J.s 			page 6


 282      AFF30080 
 283              		.align	2
 284              	.LC0:
 285 0000 41424344 		.ascii	"ABCDE\000"
 285      4500
 286              		.section	.text.mbox1_execute,"ax",%progbits
 287              		.align	2
 288              		.p2align 4,,15
 289              		.thumb
 290              		.thumb_func
 291              		.type	mbox1_execute, %function
 292              	mbox1_execute:
 293              	.LFB217:
 294              		.loc 6 76 0
 295              		.cfi_startproc
 296              		@ args = 0, pretend = 0, frame = 16
 297              		@ frame_needed = 0, uses_anonymous_args = 0
 298 0000 00B5     		push	{lr}
 299              		.cfi_def_cfa_offset 4
 300              		.cfi_offset 14, -4
 301 0002 85B0     		sub	sp, sp, #20
 302              		.cfi_def_cfa_offset 24
 303              		.loc 6 83 0
 304 0004 FFF7FEFF 		bl	chSysLock
 305 0008 A948     		ldr	r0, .L72
 306 000a FFF7FEFF 		bl	chMBGetFreeCountI
 307 000e 0346     		mov	r3, r0
 308 0010 052B     		cmp	r3, #5
 309 0012 0CBF     		ite	eq
 310 0014 0123     		moveq	r3, #1
 311 0016 0023     		movne	r3, #0
 312 0018 DBB2     		uxtb	r3, r3
 313 001a 0120     		movs	r0, #1
 314 001c 1946     		mov	r1, r3
 315 001e FFF7FEFF 		bl	_test_assert
 316 0022 0346     		mov	r3, r0
 317 0024 002B     		cmp	r3, #0
 318 0026 02D0     		beq	.L15
 319              		.loc 6 83 0 is_stmt 0 discriminator 1
 320 0028 FFF7FEFF 		bl	chSysUnlock
 321 002c EFE3     		b	.L14
 322              	.L15:
 323              		.loc 6 83 0 discriminator 2
 324 002e FFF7FEFF 		bl	chSysUnlock
 325              		.loc 6 88 0 is_stmt 1 discriminator 2
 326 0032 0023     		movs	r3, #0
 327 0034 0393     		str	r3, [sp, #12]
 328 0036 19E0     		b	.L17
 329              	.L19:
 330              		.loc 6 89 0
 331 0038 039B     		ldr	r3, [sp, #12]
 332 003a 4233     		adds	r3, r3, #66
 333 003c 9C48     		ldr	r0, .L72
 334 003e 1946     		mov	r1, r3
 335 0040 4FF0FF32 		mov	r2, #-1
 336 0044 FFF7FEFF 		bl	chMBPost
 337 0048 0290     		str	r0, [sp, #8]
ARM GAS  /tmp/ccbsxt0J.s 			page 7


 338              		.loc 6 90 0
 339 004a 029B     		ldr	r3, [sp, #8]
 340 004c 002B     		cmp	r3, #0
 341 004e 0CBF     		ite	eq
 342 0050 0123     		moveq	r3, #1
 343 0052 0023     		movne	r3, #0
 344 0054 DBB2     		uxtb	r3, r3
 345 0056 0220     		movs	r0, #2
 346 0058 1946     		mov	r1, r3
 347 005a FFF7FEFF 		bl	_test_assert
 348 005e 0346     		mov	r3, r0
 349 0060 002B     		cmp	r3, #0
 350 0062 00D0     		beq	.L18
 351 0064 D3E3     		b	.L14
 352              	.L18:
 353              		.loc 6 88 0 discriminator 2
 354 0066 039B     		ldr	r3, [sp, #12]
 355 0068 0133     		adds	r3, r3, #1
 356 006a 0393     		str	r3, [sp, #12]
 357              	.L17:
 358              		.loc 6 88 0 is_stmt 0 discriminator 1
 359 006c 039B     		ldr	r3, [sp, #12]
 360 006e 032B     		cmp	r3, #3
 361 0070 E2D9     		bls	.L19
 362              		.loc 6 92 0 is_stmt 1
 363 0072 8F48     		ldr	r0, .L72
 364 0074 4121     		movs	r1, #65
 365 0076 4FF0FF32 		mov	r2, #-1
 366 007a FFF7FEFF 		bl	chMBPostAhead
 367 007e 0290     		str	r0, [sp, #8]
 368              		.loc 6 93 0
 369 0080 029B     		ldr	r3, [sp, #8]
 370 0082 002B     		cmp	r3, #0
 371 0084 0CBF     		ite	eq
 372 0086 0123     		moveq	r3, #1
 373 0088 0023     		movne	r3, #0
 374 008a DBB2     		uxtb	r3, r3
 375 008c 0320     		movs	r0, #3
 376 008e 1946     		mov	r1, r3
 377 0090 FFF7FEFF 		bl	_test_assert
 378 0094 0346     		mov	r3, r0
 379 0096 002B     		cmp	r3, #0
 380 0098 00D0     		beq	.L20
 381 009a B8E3     		b	.L14
 382              	.L20:
 383              		.loc 6 98 0
 384 009c 8448     		ldr	r0, .L72
 385 009e 5821     		movs	r1, #88
 386 00a0 0122     		movs	r2, #1
 387 00a2 FFF7FEFF 		bl	chMBPost
 388 00a6 0290     		str	r0, [sp, #8]
 389              		.loc 6 99 0
 390 00a8 029B     		ldr	r3, [sp, #8]
 391 00aa B3F1FF3F 		cmp	r3, #-1
 392 00ae 0CBF     		ite	eq
 393 00b0 0123     		moveq	r3, #1
 394 00b2 0023     		movne	r3, #0
ARM GAS  /tmp/ccbsxt0J.s 			page 8


 395 00b4 DBB2     		uxtb	r3, r3
 396 00b6 0420     		movs	r0, #4
 397 00b8 1946     		mov	r1, r3
 398 00ba FFF7FEFF 		bl	_test_assert
 399 00be 0346     		mov	r3, r0
 400 00c0 002B     		cmp	r3, #0
 401 00c2 00D0     		beq	.L21
 402 00c4 A3E3     		b	.L14
 403              	.L21:
 404              		.loc 6 100 0
 405 00c6 FFF7FEFF 		bl	chSysLock
 406              		.loc 6 101 0
 407 00ca 7948     		ldr	r0, .L72
 408 00cc 5821     		movs	r1, #88
 409 00ce FFF7FEFF 		bl	chMBPostI
 410 00d2 0290     		str	r0, [sp, #8]
 411              		.loc 6 102 0
 412 00d4 FFF7FEFF 		bl	chSysUnlock
 413              		.loc 6 103 0
 414 00d8 029B     		ldr	r3, [sp, #8]
 415 00da B3F1FF3F 		cmp	r3, #-1
 416 00de 0CBF     		ite	eq
 417 00e0 0123     		moveq	r3, #1
 418 00e2 0023     		movne	r3, #0
 419 00e4 DBB2     		uxtb	r3, r3
 420 00e6 0520     		movs	r0, #5
 421 00e8 1946     		mov	r1, r3
 422 00ea FFF7FEFF 		bl	_test_assert
 423 00ee 0346     		mov	r3, r0
 424 00f0 002B     		cmp	r3, #0
 425 00f2 00D0     		beq	.L22
 426 00f4 8BE3     		b	.L14
 427              	.L22:
 428              		.loc 6 104 0
 429 00f6 6E48     		ldr	r0, .L72
 430 00f8 5821     		movs	r1, #88
 431 00fa 0122     		movs	r2, #1
 432 00fc FFF7FEFF 		bl	chMBPostAhead
 433 0100 0290     		str	r0, [sp, #8]
 434              		.loc 6 105 0
 435 0102 029B     		ldr	r3, [sp, #8]
 436 0104 B3F1FF3F 		cmp	r3, #-1
 437 0108 0CBF     		ite	eq
 438 010a 0123     		moveq	r3, #1
 439 010c 0023     		movne	r3, #0
 440 010e DBB2     		uxtb	r3, r3
 441 0110 0620     		movs	r0, #6
 442 0112 1946     		mov	r1, r3
 443 0114 FFF7FEFF 		bl	_test_assert
 444 0118 0346     		mov	r3, r0
 445 011a 002B     		cmp	r3, #0
 446 011c 00D0     		beq	.L23
 447 011e 76E3     		b	.L14
 448              	.L23:
 449              		.loc 6 106 0
 450 0120 FFF7FEFF 		bl	chSysLock
 451              		.loc 6 107 0
ARM GAS  /tmp/ccbsxt0J.s 			page 9


 452 0124 6248     		ldr	r0, .L72
 453 0126 5821     		movs	r1, #88
 454 0128 FFF7FEFF 		bl	chMBPostAheadI
 455 012c 0290     		str	r0, [sp, #8]
 456              		.loc 6 108 0
 457 012e FFF7FEFF 		bl	chSysUnlock
 458              		.loc 6 109 0
 459 0132 029B     		ldr	r3, [sp, #8]
 460 0134 B3F1FF3F 		cmp	r3, #-1
 461 0138 0CBF     		ite	eq
 462 013a 0123     		moveq	r3, #1
 463 013c 0023     		movne	r3, #0
 464 013e DBB2     		uxtb	r3, r3
 465 0140 0720     		movs	r0, #7
 466 0142 1946     		mov	r1, r3
 467 0144 FFF7FEFF 		bl	_test_assert
 468 0148 0346     		mov	r3, r0
 469 014a 002B     		cmp	r3, #0
 470 014c 00D0     		beq	.L24
 471 014e 5EE3     		b	.L14
 472              	.L24:
 473              		.loc 6 114 0
 474 0150 FFF7FEFF 		bl	chSysLock
 475 0154 5648     		ldr	r0, .L72
 476 0156 FFF7FEFF 		bl	chMBGetFreeCountI
 477 015a 0346     		mov	r3, r0
 478 015c 002B     		cmp	r3, #0
 479 015e 0CBF     		ite	eq
 480 0160 0123     		moveq	r3, #1
 481 0162 0023     		movne	r3, #0
 482 0164 DBB2     		uxtb	r3, r3
 483 0166 0820     		movs	r0, #8
 484 0168 1946     		mov	r1, r3
 485 016a FFF7FEFF 		bl	_test_assert
 486 016e 0346     		mov	r3, r0
 487 0170 002B     		cmp	r3, #0
 488 0172 02D0     		beq	.L25
 489              		.loc 6 114 0 is_stmt 0 discriminator 1
 490 0174 FFF7FEFF 		bl	chSysUnlock
 491 0178 49E3     		b	.L14
 492              	.L25:
 493              		.loc 6 114 0 discriminator 2
 494 017a FFF7FEFF 		bl	chSysUnlock
 495              		.loc 6 115 0 is_stmt 1 discriminator 2
 496 017e FFF7FEFF 		bl	chSysLock
 497 0182 4B48     		ldr	r0, .L72
 498 0184 FFF7FEFF 		bl	chMBGetUsedCountI
 499 0188 0346     		mov	r3, r0
 500 018a 052B     		cmp	r3, #5
 501 018c 0CBF     		ite	eq
 502 018e 0123     		moveq	r3, #1
 503 0190 0023     		movne	r3, #0
 504 0192 DBB2     		uxtb	r3, r3
 505 0194 0920     		movs	r0, #9
 506 0196 1946     		mov	r1, r3
 507 0198 FFF7FEFF 		bl	_test_assert
 508 019c 0346     		mov	r3, r0
ARM GAS  /tmp/ccbsxt0J.s 			page 10


 509 019e 002B     		cmp	r3, #0
 510 01a0 02D0     		beq	.L26
 511              		.loc 6 115 0 is_stmt 0 discriminator 1
 512 01a2 FFF7FEFF 		bl	chSysUnlock
 513 01a6 32E3     		b	.L14
 514              	.L26:
 515              		.loc 6 115 0 discriminator 2
 516 01a8 FFF7FEFF 		bl	chSysUnlock
 517              		.loc 6 116 0 is_stmt 1 discriminator 2
 518 01ac FFF7FEFF 		bl	chSysLock
 519 01b0 3F4B     		ldr	r3, .L72
 520 01b2 DA68     		ldr	r2, [r3, #12]
 521 01b4 3E4B     		ldr	r3, .L72
 522 01b6 9B68     		ldr	r3, [r3, #8]
 523 01b8 9A42     		cmp	r2, r3
 524 01ba 0CBF     		ite	eq
 525 01bc 0123     		moveq	r3, #1
 526 01be 0023     		movne	r3, #0
 527 01c0 DBB2     		uxtb	r3, r3
 528 01c2 0A20     		movs	r0, #10
 529 01c4 1946     		mov	r1, r3
 530 01c6 FFF7FEFF 		bl	_test_assert
 531 01ca 0346     		mov	r3, r0
 532 01cc 002B     		cmp	r3, #0
 533 01ce 02D0     		beq	.L27
 534              		.loc 6 116 0 is_stmt 0 discriminator 1
 535 01d0 FFF7FEFF 		bl	chSysUnlock
 536 01d4 1BE3     		b	.L14
 537              	.L27:
 538              		.loc 6 116 0 discriminator 2
 539 01d6 FFF7FEFF 		bl	chSysUnlock
 540              		.loc 6 121 0 is_stmt 1 discriminator 2
 541 01da 0023     		movs	r3, #0
 542 01dc 0393     		str	r3, [sp, #12]
 543 01de 1DE0     		b	.L28
 544              	.L30:
 545              		.loc 6 122 0
 546 01e0 01AB     		add	r3, sp, #4
 547 01e2 3348     		ldr	r0, .L72
 548 01e4 1946     		mov	r1, r3
 549 01e6 4FF0FF32 		mov	r2, #-1
 550 01ea FFF7FEFF 		bl	chMBFetch
 551 01ee 0290     		str	r0, [sp, #8]
 552              		.loc 6 123 0
 553 01f0 029B     		ldr	r3, [sp, #8]
 554 01f2 002B     		cmp	r3, #0
 555 01f4 0CBF     		ite	eq
 556 01f6 0123     		moveq	r3, #1
 557 01f8 0023     		movne	r3, #0
 558 01fa DBB2     		uxtb	r3, r3
 559 01fc 0B20     		movs	r0, #11
 560 01fe 1946     		mov	r1, r3
 561 0200 FFF7FEFF 		bl	_test_assert
 562 0204 0346     		mov	r3, r0
 563 0206 002B     		cmp	r3, #0
 564 0208 00D0     		beq	.L29
 565 020a 00E3     		b	.L14
ARM GAS  /tmp/ccbsxt0J.s 			page 11


 566              	.L29:
 567              		.loc 6 124 0 discriminator 2
 568 020c 019B     		ldr	r3, [sp, #4]
 569 020e DBB2     		uxtb	r3, r3
 570 0210 1846     		mov	r0, r3
 571 0212 FFF7FEFF 		bl	test_emit_token
 572              		.loc 6 121 0 discriminator 2
 573 0216 039B     		ldr	r3, [sp, #12]
 574 0218 0133     		adds	r3, r3, #1
 575 021a 0393     		str	r3, [sp, #12]
 576              	.L28:
 577              		.loc 6 121 0 is_stmt 0 discriminator 1
 578 021c 039B     		ldr	r3, [sp, #12]
 579 021e 042B     		cmp	r3, #4
 580 0220 DED9     		bls	.L30
 581              		.loc 6 126 0 is_stmt 1
 582 0222 0C20     		movs	r0, #12
 583 0224 2349     		ldr	r1, .L72+4
 584 0226 FFF7FEFF 		bl	_test_assert_sequence
 585 022a 0346     		mov	r3, r0
 586 022c 002B     		cmp	r3, #0
 587 022e 00D0     		beq	.L31
 588 0230 EDE2     		b	.L14
 589              	.L31:
 590              		.loc 6 131 0
 591 0232 039B     		ldr	r3, [sp, #12]
 592 0234 4233     		adds	r3, r3, #66
 593 0236 1E48     		ldr	r0, .L72
 594 0238 1946     		mov	r1, r3
 595 023a 4FF0FF32 		mov	r2, #-1
 596 023e FFF7FEFF 		bl	chMBPost
 597 0242 0290     		str	r0, [sp, #8]
 598              		.loc 6 132 0
 599 0244 029B     		ldr	r3, [sp, #8]
 600 0246 002B     		cmp	r3, #0
 601 0248 0CBF     		ite	eq
 602 024a 0123     		moveq	r3, #1
 603 024c 0023     		movne	r3, #0
 604 024e DBB2     		uxtb	r3, r3
 605 0250 0D20     		movs	r0, #13
 606 0252 1946     		mov	r1, r3
 607 0254 FFF7FEFF 		bl	_test_assert
 608 0258 0346     		mov	r3, r0
 609 025a 002B     		cmp	r3, #0
 610 025c 00D0     		beq	.L32
 611 025e D6E2     		b	.L14
 612              	.L32:
 613              		.loc 6 133 0
 614 0260 01AB     		add	r3, sp, #4
 615 0262 1348     		ldr	r0, .L72
 616 0264 1946     		mov	r1, r3
 617 0266 4FF0FF32 		mov	r2, #-1
 618 026a FFF7FEFF 		bl	chMBFetch
 619 026e 0290     		str	r0, [sp, #8]
 620              		.loc 6 134 0
 621 0270 029B     		ldr	r3, [sp, #8]
 622 0272 002B     		cmp	r3, #0
ARM GAS  /tmp/ccbsxt0J.s 			page 12


 623 0274 0CBF     		ite	eq
 624 0276 0123     		moveq	r3, #1
 625 0278 0023     		movne	r3, #0
 626 027a DBB2     		uxtb	r3, r3
 627 027c 0E20     		movs	r0, #14
 628 027e 1946     		mov	r1, r3
 629 0280 FFF7FEFF 		bl	_test_assert
 630 0284 0346     		mov	r3, r0
 631 0286 002B     		cmp	r3, #0
 632 0288 00D0     		beq	.L33
 633 028a C0E2     		b	.L14
 634              	.L33:
 635              		.loc 6 135 0
 636 028c 084B     		ldr	r3, .L72
 637 028e 1A68     		ldr	r2, [r3]
 638 0290 074B     		ldr	r3, .L72
 639 0292 9B68     		ldr	r3, [r3, #8]
 640 0294 9A42     		cmp	r2, r3
 641 0296 0CBF     		ite	eq
 642 0298 0123     		moveq	r3, #1
 643 029a 0023     		movne	r3, #0
 644 029c DBB2     		uxtb	r3, r3
 645 029e 0F20     		movs	r0, #15
 646 02a0 1946     		mov	r1, r3
 647 02a2 FFF7FEFF 		bl	_test_assert
 648 02a6 0346     		mov	r3, r0
 649 02a8 002B     		cmp	r3, #0
 650 02aa 05D0     		beq	.L34
 651 02ac AFE2     		b	.L14
 652              	.L73:
 653 02ae 00BF     		.align	2
 654              	.L72:
 655 02b0 00000000 		.word	mb1
 656 02b4 00000000 		.word	.LC0
 657              	.L34:
 658              		.loc 6 136 0
 659 02b8 A94B     		ldr	r3, .L74
 660 02ba 1A68     		ldr	r2, [r3]
 661 02bc A84B     		ldr	r3, .L74
 662 02be DB68     		ldr	r3, [r3, #12]
 663 02c0 9A42     		cmp	r2, r3
 664 02c2 0CBF     		ite	eq
 665 02c4 0123     		moveq	r3, #1
 666 02c6 0023     		movne	r3, #0
 667 02c8 DBB2     		uxtb	r3, r3
 668 02ca 1020     		movs	r0, #16
 669 02cc 1946     		mov	r1, r3
 670 02ce FFF7FEFF 		bl	_test_assert
 671 02d2 0346     		mov	r3, r0
 672 02d4 002B     		cmp	r3, #0
 673 02d6 00D0     		beq	.L35
 674 02d8 99E2     		b	.L14
 675              	.L35:
 676              		.loc 6 141 0
 677 02da 01AB     		add	r3, sp, #4
 678 02dc A048     		ldr	r0, .L74
 679 02de 1946     		mov	r1, r3
ARM GAS  /tmp/ccbsxt0J.s 			page 13


 680 02e0 0122     		movs	r2, #1
 681 02e2 FFF7FEFF 		bl	chMBFetch
 682 02e6 0290     		str	r0, [sp, #8]
 683              		.loc 6 142 0
 684 02e8 029B     		ldr	r3, [sp, #8]
 685 02ea B3F1FF3F 		cmp	r3, #-1
 686 02ee 0CBF     		ite	eq
 687 02f0 0123     		moveq	r3, #1
 688 02f2 0023     		movne	r3, #0
 689 02f4 DBB2     		uxtb	r3, r3
 690 02f6 1120     		movs	r0, #17
 691 02f8 1946     		mov	r1, r3
 692 02fa FFF7FEFF 		bl	_test_assert
 693 02fe 0346     		mov	r3, r0
 694 0300 002B     		cmp	r3, #0
 695 0302 00D0     		beq	.L36
 696 0304 83E2     		b	.L14
 697              	.L36:
 698              		.loc 6 143 0
 699 0306 FFF7FEFF 		bl	chSysLock
 700              		.loc 6 144 0
 701 030a 01AB     		add	r3, sp, #4
 702 030c 9448     		ldr	r0, .L74
 703 030e 1946     		mov	r1, r3
 704 0310 FFF7FEFF 		bl	chMBFetchI
 705 0314 0290     		str	r0, [sp, #8]
 706              		.loc 6 145 0
 707 0316 FFF7FEFF 		bl	chSysUnlock
 708              		.loc 6 146 0
 709 031a 029B     		ldr	r3, [sp, #8]
 710 031c B3F1FF3F 		cmp	r3, #-1
 711 0320 0CBF     		ite	eq
 712 0322 0123     		moveq	r3, #1
 713 0324 0023     		movne	r3, #0
 714 0326 DBB2     		uxtb	r3, r3
 715 0328 1220     		movs	r0, #18
 716 032a 1946     		mov	r1, r3
 717 032c FFF7FEFF 		bl	_test_assert
 718 0330 0346     		mov	r3, r0
 719 0332 002B     		cmp	r3, #0
 720 0334 00D0     		beq	.L37
 721 0336 6AE2     		b	.L14
 722              	.L37:
 723              		.loc 6 151 0
 724 0338 FFF7FEFF 		bl	chSysLock
 725 033c 8848     		ldr	r0, .L74
 726 033e FFF7FEFF 		bl	chMBGetFreeCountI
 727 0342 0346     		mov	r3, r0
 728 0344 052B     		cmp	r3, #5
 729 0346 0CBF     		ite	eq
 730 0348 0123     		moveq	r3, #1
 731 034a 0023     		movne	r3, #0
 732 034c DBB2     		uxtb	r3, r3
 733 034e 1320     		movs	r0, #19
 734 0350 1946     		mov	r1, r3
 735 0352 FFF7FEFF 		bl	_test_assert
 736 0356 0346     		mov	r3, r0
ARM GAS  /tmp/ccbsxt0J.s 			page 14


 737 0358 002B     		cmp	r3, #0
 738 035a 02D0     		beq	.L38
 739              		.loc 6 151 0 is_stmt 0 discriminator 1
 740 035c FFF7FEFF 		bl	chSysUnlock
 741 0360 55E2     		b	.L14
 742              	.L38:
 743              		.loc 6 151 0 discriminator 2
 744 0362 FFF7FEFF 		bl	chSysUnlock
 745              		.loc 6 152 0 is_stmt 1 discriminator 2
 746 0366 FFF7FEFF 		bl	chSysLock
 747 036a 7D48     		ldr	r0, .L74
 748 036c FFF7FEFF 		bl	chMBGetUsedCountI
 749 0370 0346     		mov	r3, r0
 750 0372 002B     		cmp	r3, #0
 751 0374 0CBF     		ite	eq
 752 0376 0123     		moveq	r3, #1
 753 0378 0023     		movne	r3, #0
 754 037a DBB2     		uxtb	r3, r3
 755 037c 1420     		movs	r0, #20
 756 037e 1946     		mov	r1, r3
 757 0380 FFF7FEFF 		bl	_test_assert
 758 0384 0346     		mov	r3, r0
 759 0386 002B     		cmp	r3, #0
 760 0388 02D0     		beq	.L39
 761              		.loc 6 152 0 is_stmt 0 discriminator 1
 762 038a FFF7FEFF 		bl	chSysUnlock
 763 038e 3EE2     		b	.L14
 764              	.L39:
 765              		.loc 6 152 0 discriminator 2
 766 0390 FFF7FEFF 		bl	chSysUnlock
 767              		.loc 6 153 0 is_stmt 1 discriminator 2
 768 0394 FFF7FEFF 		bl	chSysLock
 769 0398 714B     		ldr	r3, .L74
 770 039a DA68     		ldr	r2, [r3, #12]
 771 039c 704B     		ldr	r3, .L74
 772 039e 9B68     		ldr	r3, [r3, #8]
 773 03a0 9A42     		cmp	r2, r3
 774 03a2 0CBF     		ite	eq
 775 03a4 0123     		moveq	r3, #1
 776 03a6 0023     		movne	r3, #0
 777 03a8 DBB2     		uxtb	r3, r3
 778 03aa 1520     		movs	r0, #21
 779 03ac 1946     		mov	r1, r3
 780 03ae FFF7FEFF 		bl	_test_assert
 781 03b2 0346     		mov	r3, r0
 782 03b4 002B     		cmp	r3, #0
 783 03b6 02D0     		beq	.L40
 784              		.loc 6 153 0 is_stmt 0 discriminator 1
 785 03b8 FFF7FEFF 		bl	chSysUnlock
 786 03bc 27E2     		b	.L14
 787              	.L40:
 788              		.loc 6 153 0 discriminator 2
 789 03be FFF7FEFF 		bl	chSysUnlock
 790              		.loc 6 158 0 is_stmt 1 discriminator 2
 791 03c2 FFF7FEFF 		bl	chSysLock
 792              		.loc 6 159 0 discriminator 2
 793 03c6 6648     		ldr	r0, .L74
ARM GAS  /tmp/ccbsxt0J.s 			page 15


 794 03c8 4121     		movs	r1, #65
 795 03ca FFF7FEFF 		bl	chMBPostI
 796 03ce 0290     		str	r0, [sp, #8]
 797              		.loc 6 160 0 discriminator 2
 798 03d0 029B     		ldr	r3, [sp, #8]
 799 03d2 002B     		cmp	r3, #0
 800 03d4 0CBF     		ite	eq
 801 03d6 0123     		moveq	r3, #1
 802 03d8 0023     		movne	r3, #0
 803 03da DBB2     		uxtb	r3, r3
 804 03dc 1620     		movs	r0, #22
 805 03de 1946     		mov	r1, r3
 806 03e0 FFF7FEFF 		bl	_test_assert
 807 03e4 0346     		mov	r3, r0
 808 03e6 002B     		cmp	r3, #0
 809 03e8 00D0     		beq	.L41
 810              		.loc 6 160 0 is_stmt 0
 811 03ea 10E2     		b	.L14
 812              	.L41:
 813              		.loc 6 161 0 is_stmt 1
 814 03ec 5C48     		ldr	r0, .L74
 815 03ee 4221     		movs	r1, #66
 816 03f0 FFF7FEFF 		bl	chMBPostI
 817 03f4 0290     		str	r0, [sp, #8]
 818              		.loc 6 162 0
 819 03f6 029B     		ldr	r3, [sp, #8]
 820 03f8 002B     		cmp	r3, #0
 821 03fa 0CBF     		ite	eq
 822 03fc 0123     		moveq	r3, #1
 823 03fe 0023     		movne	r3, #0
 824 0400 DBB2     		uxtb	r3, r3
 825 0402 1720     		movs	r0, #23
 826 0404 1946     		mov	r1, r3
 827 0406 FFF7FEFF 		bl	_test_assert
 828 040a 0346     		mov	r3, r0
 829 040c 002B     		cmp	r3, #0
 830 040e 00D0     		beq	.L42
 831 0410 FDE1     		b	.L14
 832              	.L42:
 833              		.loc 6 163 0
 834 0412 5348     		ldr	r0, .L74
 835 0414 4321     		movs	r1, #67
 836 0416 FFF7FEFF 		bl	chMBPostI
 837 041a 0290     		str	r0, [sp, #8]
 838              		.loc 6 164 0
 839 041c 029B     		ldr	r3, [sp, #8]
 840 041e 002B     		cmp	r3, #0
 841 0420 0CBF     		ite	eq
 842 0422 0123     		moveq	r3, #1
 843 0424 0023     		movne	r3, #0
 844 0426 DBB2     		uxtb	r3, r3
 845 0428 1820     		movs	r0, #24
 846 042a 1946     		mov	r1, r3
 847 042c FFF7FEFF 		bl	_test_assert
 848 0430 0346     		mov	r3, r0
 849 0432 002B     		cmp	r3, #0
 850 0434 00D0     		beq	.L43
ARM GAS  /tmp/ccbsxt0J.s 			page 16


 851 0436 EAE1     		b	.L14
 852              	.L43:
 853              		.loc 6 165 0
 854 0438 4948     		ldr	r0, .L74
 855 043a 4421     		movs	r1, #68
 856 043c FFF7FEFF 		bl	chMBPostI
 857 0440 0290     		str	r0, [sp, #8]
 858              		.loc 6 166 0
 859 0442 029B     		ldr	r3, [sp, #8]
 860 0444 002B     		cmp	r3, #0
 861 0446 0CBF     		ite	eq
 862 0448 0123     		moveq	r3, #1
 863 044a 0023     		movne	r3, #0
 864 044c DBB2     		uxtb	r3, r3
 865 044e 1920     		movs	r0, #25
 866 0450 1946     		mov	r1, r3
 867 0452 FFF7FEFF 		bl	_test_assert
 868 0456 0346     		mov	r3, r0
 869 0458 002B     		cmp	r3, #0
 870 045a 00D0     		beq	.L44
 871 045c D7E1     		b	.L14
 872              	.L44:
 873              		.loc 6 167 0
 874 045e 4048     		ldr	r0, .L74
 875 0460 4521     		movs	r1, #69
 876 0462 FFF7FEFF 		bl	chMBPostI
 877 0466 0290     		str	r0, [sp, #8]
 878              		.loc 6 168 0
 879 0468 FFF7FEFF 		bl	chSysUnlock
 880              		.loc 6 169 0
 881 046c 029B     		ldr	r3, [sp, #8]
 882 046e 002B     		cmp	r3, #0
 883 0470 0CBF     		ite	eq
 884 0472 0123     		moveq	r3, #1
 885 0474 0023     		movne	r3, #0
 886 0476 DBB2     		uxtb	r3, r3
 887 0478 1A20     		movs	r0, #26
 888 047a 1946     		mov	r1, r3
 889 047c FFF7FEFF 		bl	_test_assert
 890 0480 0346     		mov	r3, r0
 891 0482 002B     		cmp	r3, #0
 892 0484 00D0     		beq	.L45
 893 0486 C2E1     		b	.L14
 894              	.L45:
 895              		.loc 6 170 0
 896 0488 354B     		ldr	r3, .L74
 897 048a DA68     		ldr	r2, [r3, #12]
 898 048c 344B     		ldr	r3, .L74
 899 048e 9B68     		ldr	r3, [r3, #8]
 900 0490 9A42     		cmp	r2, r3
 901 0492 0CBF     		ite	eq
 902 0494 0123     		moveq	r3, #1
 903 0496 0023     		movne	r3, #0
 904 0498 DBB2     		uxtb	r3, r3
 905 049a 1B20     		movs	r0, #27
 906 049c 1946     		mov	r1, r3
 907 049e FFF7FEFF 		bl	_test_assert
ARM GAS  /tmp/ccbsxt0J.s 			page 17


 908 04a2 0346     		mov	r3, r0
 909 04a4 002B     		cmp	r3, #0
 910 04a6 00D0     		beq	.L46
 911 04a8 B1E1     		b	.L14
 912              	.L46:
 913              		.loc 6 171 0
 914 04aa 0023     		movs	r3, #0
 915 04ac 0393     		str	r3, [sp, #12]
 916 04ae 1FE0     		b	.L47
 917              	.L49:
 918              		.loc 6 172 0
 919 04b0 FFF7FEFF 		bl	chSysLock
 920              		.loc 6 173 0
 921 04b4 01AB     		add	r3, sp, #4
 922 04b6 2A48     		ldr	r0, .L74
 923 04b8 1946     		mov	r1, r3
 924 04ba FFF7FEFF 		bl	chMBFetchI
 925 04be 0290     		str	r0, [sp, #8]
 926              		.loc 6 174 0
 927 04c0 FFF7FEFF 		bl	chSysUnlock
 928              		.loc 6 175 0
 929 04c4 029B     		ldr	r3, [sp, #8]
 930 04c6 002B     		cmp	r3, #0
 931 04c8 0CBF     		ite	eq
 932 04ca 0123     		moveq	r3, #1
 933 04cc 0023     		movne	r3, #0
 934 04ce DBB2     		uxtb	r3, r3
 935 04d0 1C20     		movs	r0, #28
 936 04d2 1946     		mov	r1, r3
 937 04d4 FFF7FEFF 		bl	_test_assert
 938 04d8 0346     		mov	r3, r0
 939 04da 002B     		cmp	r3, #0
 940 04dc 00D0     		beq	.L48
 941 04de 96E1     		b	.L14
 942              	.L48:
 943              		.loc 6 176 0 discriminator 2
 944 04e0 019B     		ldr	r3, [sp, #4]
 945 04e2 DBB2     		uxtb	r3, r3
 946 04e4 1846     		mov	r0, r3
 947 04e6 FFF7FEFF 		bl	test_emit_token
 948              		.loc 6 171 0 discriminator 2
 949 04ea 039B     		ldr	r3, [sp, #12]
 950 04ec 0133     		adds	r3, r3, #1
 951 04ee 0393     		str	r3, [sp, #12]
 952              	.L47:
 953              		.loc 6 171 0 is_stmt 0 discriminator 1
 954 04f0 039B     		ldr	r3, [sp, #12]
 955 04f2 042B     		cmp	r3, #4
 956 04f4 DCD9     		bls	.L49
 957              		.loc 6 178 0 is_stmt 1
 958 04f6 1D20     		movs	r0, #29
 959 04f8 1A49     		ldr	r1, .L74+4
 960 04fa FFF7FEFF 		bl	_test_assert_sequence
 961 04fe 0346     		mov	r3, r0
 962 0500 002B     		cmp	r3, #0
 963 0502 00D0     		beq	.L50
 964 0504 83E1     		b	.L14
ARM GAS  /tmp/ccbsxt0J.s 			page 18


 965              	.L50:
 966              		.loc 6 179 0
 967 0506 FFF7FEFF 		bl	chSysLock
 968 050a 1548     		ldr	r0, .L74
 969 050c FFF7FEFF 		bl	chMBGetFreeCountI
 970 0510 0346     		mov	r3, r0
 971 0512 052B     		cmp	r3, #5
 972 0514 0CBF     		ite	eq
 973 0516 0123     		moveq	r3, #1
 974 0518 0023     		movne	r3, #0
 975 051a DBB2     		uxtb	r3, r3
 976 051c 1E20     		movs	r0, #30
 977 051e 1946     		mov	r1, r3
 978 0520 FFF7FEFF 		bl	_test_assert
 979 0524 0346     		mov	r3, r0
 980 0526 002B     		cmp	r3, #0
 981 0528 02D0     		beq	.L51
 982              		.loc 6 179 0 is_stmt 0 discriminator 1
 983 052a FFF7FEFF 		bl	chSysUnlock
 984 052e 6EE1     		b	.L14
 985              	.L51:
 986              		.loc 6 179 0 discriminator 2
 987 0530 FFF7FEFF 		bl	chSysUnlock
 988              		.loc 6 180 0 is_stmt 1 discriminator 2
 989 0534 FFF7FEFF 		bl	chSysLock
 990 0538 0948     		ldr	r0, .L74
 991 053a FFF7FEFF 		bl	chMBGetUsedCountI
 992 053e 0346     		mov	r3, r0
 993 0540 002B     		cmp	r3, #0
 994 0542 0CBF     		ite	eq
 995 0544 0123     		moveq	r3, #1
 996 0546 0023     		movne	r3, #0
 997 0548 DBB2     		uxtb	r3, r3
 998 054a 1F20     		movs	r0, #31
 999 054c 1946     		mov	r1, r3
 1000 054e FFF7FEFF 		bl	_test_assert
 1001 0552 0346     		mov	r3, r0
 1002 0554 002B     		cmp	r3, #0
 1003 0556 07D0     		beq	.L52
 1004              		.loc 6 180 0 is_stmt 0 discriminator 1
 1005 0558 FFF7FEFF 		bl	chSysUnlock
 1006 055c 57E1     		b	.L14
 1007              	.L75:
 1008 055e 00BF     		.align	2
 1009              	.L74:
 1010 0560 00000000 		.word	mb1
 1011 0564 00000000 		.word	.LC0
 1012              	.L52:
 1013              		.loc 6 180 0 discriminator 2
 1014 0568 FFF7FEFF 		bl	chSysUnlock
 1015              		.loc 6 181 0 is_stmt 1 discriminator 2
 1016 056c A94B     		ldr	r3, .L76
 1017 056e DA68     		ldr	r2, [r3, #12]
 1018 0570 A84B     		ldr	r3, .L76
 1019 0572 9B68     		ldr	r3, [r3, #8]
 1020 0574 9A42     		cmp	r2, r3
 1021 0576 0CBF     		ite	eq
ARM GAS  /tmp/ccbsxt0J.s 			page 19


 1022 0578 0123     		moveq	r3, #1
 1023 057a 0023     		movne	r3, #0
 1024 057c DBB2     		uxtb	r3, r3
 1025 057e 2020     		movs	r0, #32
 1026 0580 1946     		mov	r1, r3
 1027 0582 FFF7FEFF 		bl	_test_assert
 1028 0586 0346     		mov	r3, r0
 1029 0588 002B     		cmp	r3, #0
 1030 058a 00D0     		beq	.L53
 1031              		.loc 6 181 0 is_stmt 0
 1032 058c 3FE1     		b	.L14
 1033              	.L53:
 1034              		.loc 6 183 0 is_stmt 1
 1035 058e FFF7FEFF 		bl	chSysLock
 1036              		.loc 6 184 0
 1037 0592 A048     		ldr	r0, .L76
 1038 0594 4521     		movs	r1, #69
 1039 0596 FFF7FEFF 		bl	chMBPostAheadI
 1040 059a 0290     		str	r0, [sp, #8]
 1041              		.loc 6 185 0
 1042 059c 029B     		ldr	r3, [sp, #8]
 1043 059e 002B     		cmp	r3, #0
 1044 05a0 0CBF     		ite	eq
 1045 05a2 0123     		moveq	r3, #1
 1046 05a4 0023     		movne	r3, #0
 1047 05a6 DBB2     		uxtb	r3, r3
 1048 05a8 2120     		movs	r0, #33
 1049 05aa 1946     		mov	r1, r3
 1050 05ac FFF7FEFF 		bl	_test_assert
 1051 05b0 0346     		mov	r3, r0
 1052 05b2 002B     		cmp	r3, #0
 1053 05b4 00D0     		beq	.L54
 1054 05b6 2AE1     		b	.L14
 1055              	.L54:
 1056              		.loc 6 186 0
 1057 05b8 9648     		ldr	r0, .L76
 1058 05ba 4421     		movs	r1, #68
 1059 05bc FFF7FEFF 		bl	chMBPostAheadI
 1060 05c0 0290     		str	r0, [sp, #8]
 1061              		.loc 6 187 0
 1062 05c2 029B     		ldr	r3, [sp, #8]
 1063 05c4 002B     		cmp	r3, #0
 1064 05c6 0CBF     		ite	eq
 1065 05c8 0123     		moveq	r3, #1
 1066 05ca 0023     		movne	r3, #0
 1067 05cc DBB2     		uxtb	r3, r3
 1068 05ce 2220     		movs	r0, #34
 1069 05d0 1946     		mov	r1, r3
 1070 05d2 FFF7FEFF 		bl	_test_assert
 1071 05d6 0346     		mov	r3, r0
 1072 05d8 002B     		cmp	r3, #0
 1073 05da 00D0     		beq	.L55
 1074 05dc 17E1     		b	.L14
 1075              	.L55:
 1076              		.loc 6 188 0
 1077 05de 8D48     		ldr	r0, .L76
 1078 05e0 4321     		movs	r1, #67
ARM GAS  /tmp/ccbsxt0J.s 			page 20


 1079 05e2 FFF7FEFF 		bl	chMBPostAheadI
 1080 05e6 0290     		str	r0, [sp, #8]
 1081              		.loc 6 189 0
 1082 05e8 029B     		ldr	r3, [sp, #8]
 1083 05ea 002B     		cmp	r3, #0
 1084 05ec 0CBF     		ite	eq
 1085 05ee 0123     		moveq	r3, #1
 1086 05f0 0023     		movne	r3, #0
 1087 05f2 DBB2     		uxtb	r3, r3
 1088 05f4 2320     		movs	r0, #35
 1089 05f6 1946     		mov	r1, r3
 1090 05f8 FFF7FEFF 		bl	_test_assert
 1091 05fc 0346     		mov	r3, r0
 1092 05fe 002B     		cmp	r3, #0
 1093 0600 00D0     		beq	.L56
 1094 0602 04E1     		b	.L14
 1095              	.L56:
 1096              		.loc 6 190 0
 1097 0604 8348     		ldr	r0, .L76
 1098 0606 4221     		movs	r1, #66
 1099 0608 FFF7FEFF 		bl	chMBPostAheadI
 1100 060c 0290     		str	r0, [sp, #8]
 1101              		.loc 6 191 0
 1102 060e 029B     		ldr	r3, [sp, #8]
 1103 0610 002B     		cmp	r3, #0
 1104 0612 0CBF     		ite	eq
 1105 0614 0123     		moveq	r3, #1
 1106 0616 0023     		movne	r3, #0
 1107 0618 DBB2     		uxtb	r3, r3
 1108 061a 2420     		movs	r0, #36
 1109 061c 1946     		mov	r1, r3
 1110 061e FFF7FEFF 		bl	_test_assert
 1111 0622 0346     		mov	r3, r0
 1112 0624 002B     		cmp	r3, #0
 1113 0626 00D0     		beq	.L57
 1114 0628 F1E0     		b	.L14
 1115              	.L57:
 1116              		.loc 6 192 0
 1117 062a 7A48     		ldr	r0, .L76
 1118 062c 4121     		movs	r1, #65
 1119 062e FFF7FEFF 		bl	chMBPostAheadI
 1120 0632 0290     		str	r0, [sp, #8]
 1121              		.loc 6 193 0
 1122 0634 FFF7FEFF 		bl	chSysUnlock
 1123              		.loc 6 194 0
 1124 0638 029B     		ldr	r3, [sp, #8]
 1125 063a 002B     		cmp	r3, #0
 1126 063c 0CBF     		ite	eq
 1127 063e 0123     		moveq	r3, #1
 1128 0640 0023     		movne	r3, #0
 1129 0642 DBB2     		uxtb	r3, r3
 1130 0644 2520     		movs	r0, #37
 1131 0646 1946     		mov	r1, r3
 1132 0648 FFF7FEFF 		bl	_test_assert
 1133 064c 0346     		mov	r3, r0
 1134 064e 002B     		cmp	r3, #0
 1135 0650 00D0     		beq	.L58
ARM GAS  /tmp/ccbsxt0J.s 			page 21


 1136 0652 DCE0     		b	.L14
 1137              	.L58:
 1138              		.loc 6 195 0
 1139 0654 6F4B     		ldr	r3, .L76
 1140 0656 DA68     		ldr	r2, [r3, #12]
 1141 0658 6E4B     		ldr	r3, .L76
 1142 065a 9B68     		ldr	r3, [r3, #8]
 1143 065c 9A42     		cmp	r2, r3
 1144 065e 0CBF     		ite	eq
 1145 0660 0123     		moveq	r3, #1
 1146 0662 0023     		movne	r3, #0
 1147 0664 DBB2     		uxtb	r3, r3
 1148 0666 2620     		movs	r0, #38
 1149 0668 1946     		mov	r1, r3
 1150 066a FFF7FEFF 		bl	_test_assert
 1151 066e 0346     		mov	r3, r0
 1152 0670 002B     		cmp	r3, #0
 1153 0672 00D0     		beq	.L59
 1154 0674 CBE0     		b	.L14
 1155              	.L59:
 1156              		.loc 6 196 0
 1157 0676 0023     		movs	r3, #0
 1158 0678 0393     		str	r3, [sp, #12]
 1159 067a 1FE0     		b	.L60
 1160              	.L62:
 1161              		.loc 6 197 0
 1162 067c FFF7FEFF 		bl	chSysLock
 1163              		.loc 6 198 0
 1164 0680 01AB     		add	r3, sp, #4
 1165 0682 6448     		ldr	r0, .L76
 1166 0684 1946     		mov	r1, r3
 1167 0686 FFF7FEFF 		bl	chMBFetchI
 1168 068a 0290     		str	r0, [sp, #8]
 1169              		.loc 6 199 0
 1170 068c FFF7FEFF 		bl	chSysUnlock
 1171              		.loc 6 200 0
 1172 0690 029B     		ldr	r3, [sp, #8]
 1173 0692 002B     		cmp	r3, #0
 1174 0694 0CBF     		ite	eq
 1175 0696 0123     		moveq	r3, #1
 1176 0698 0023     		movne	r3, #0
 1177 069a DBB2     		uxtb	r3, r3
 1178 069c 2720     		movs	r0, #39
 1179 069e 1946     		mov	r1, r3
 1180 06a0 FFF7FEFF 		bl	_test_assert
 1181 06a4 0346     		mov	r3, r0
 1182 06a6 002B     		cmp	r3, #0
 1183 06a8 00D0     		beq	.L61
 1184 06aa B0E0     		b	.L14
 1185              	.L61:
 1186              		.loc 6 201 0 discriminator 2
 1187 06ac 019B     		ldr	r3, [sp, #4]
 1188 06ae DBB2     		uxtb	r3, r3
 1189 06b0 1846     		mov	r0, r3
 1190 06b2 FFF7FEFF 		bl	test_emit_token
 1191              		.loc 6 196 0 discriminator 2
 1192 06b6 039B     		ldr	r3, [sp, #12]
ARM GAS  /tmp/ccbsxt0J.s 			page 22


 1193 06b8 0133     		adds	r3, r3, #1
 1194 06ba 0393     		str	r3, [sp, #12]
 1195              	.L60:
 1196              		.loc 6 196 0 is_stmt 0 discriminator 1
 1197 06bc 039B     		ldr	r3, [sp, #12]
 1198 06be 042B     		cmp	r3, #4
 1199 06c0 DCD9     		bls	.L62
 1200              		.loc 6 203 0 is_stmt 1
 1201 06c2 2820     		movs	r0, #40
 1202 06c4 5449     		ldr	r1, .L76+4
 1203 06c6 FFF7FEFF 		bl	_test_assert_sequence
 1204 06ca 0346     		mov	r3, r0
 1205 06cc 002B     		cmp	r3, #0
 1206 06ce 00D0     		beq	.L63
 1207 06d0 9DE0     		b	.L14
 1208              	.L63:
 1209              		.loc 6 204 0
 1210 06d2 FFF7FEFF 		bl	chSysLock
 1211 06d6 4F48     		ldr	r0, .L76
 1212 06d8 FFF7FEFF 		bl	chMBGetFreeCountI
 1213 06dc 0346     		mov	r3, r0
 1214 06de 052B     		cmp	r3, #5
 1215 06e0 0CBF     		ite	eq
 1216 06e2 0123     		moveq	r3, #1
 1217 06e4 0023     		movne	r3, #0
 1218 06e6 DBB2     		uxtb	r3, r3
 1219 06e8 2920     		movs	r0, #41
 1220 06ea 1946     		mov	r1, r3
 1221 06ec FFF7FEFF 		bl	_test_assert
 1222 06f0 0346     		mov	r3, r0
 1223 06f2 002B     		cmp	r3, #0
 1224 06f4 02D0     		beq	.L64
 1225              		.loc 6 204 0 is_stmt 0 discriminator 1
 1226 06f6 FFF7FEFF 		bl	chSysUnlock
 1227 06fa 88E0     		b	.L14
 1228              	.L64:
 1229              		.loc 6 204 0 discriminator 2
 1230 06fc FFF7FEFF 		bl	chSysUnlock
 1231              		.loc 6 205 0 is_stmt 1 discriminator 2
 1232 0700 FFF7FEFF 		bl	chSysLock
 1233 0704 4348     		ldr	r0, .L76
 1234 0706 FFF7FEFF 		bl	chMBGetUsedCountI
 1235 070a 0346     		mov	r3, r0
 1236 070c 002B     		cmp	r3, #0
 1237 070e 0CBF     		ite	eq
 1238 0710 0123     		moveq	r3, #1
 1239 0712 0023     		movne	r3, #0
 1240 0714 DBB2     		uxtb	r3, r3
 1241 0716 2A20     		movs	r0, #42
 1242 0718 1946     		mov	r1, r3
 1243 071a FFF7FEFF 		bl	_test_assert
 1244 071e 0346     		mov	r3, r0
 1245 0720 002B     		cmp	r3, #0
 1246 0722 02D0     		beq	.L65
 1247              		.loc 6 205 0 is_stmt 0 discriminator 1
 1248 0724 FFF7FEFF 		bl	chSysUnlock
 1249 0728 71E0     		b	.L14
ARM GAS  /tmp/ccbsxt0J.s 			page 23


 1250              	.L65:
 1251              		.loc 6 205 0 discriminator 2
 1252 072a FFF7FEFF 		bl	chSysUnlock
 1253              		.loc 6 206 0 is_stmt 1 discriminator 2
 1254 072e 394B     		ldr	r3, .L76
 1255 0730 DA68     		ldr	r2, [r3, #12]
 1256 0732 384B     		ldr	r3, .L76
 1257 0734 9B68     		ldr	r3, [r3, #8]
 1258 0736 9A42     		cmp	r2, r3
 1259 0738 0CBF     		ite	eq
 1260 073a 0123     		moveq	r3, #1
 1261 073c 0023     		movne	r3, #0
 1262 073e DBB2     		uxtb	r3, r3
 1263 0740 2B20     		movs	r0, #43
 1264 0742 1946     		mov	r1, r3
 1265 0744 FFF7FEFF 		bl	_test_assert
 1266 0748 0346     		mov	r3, r0
 1267 074a 002B     		cmp	r3, #0
 1268 074c 00D0     		beq	.L66
 1269              		.loc 6 206 0 is_stmt 0
 1270 074e 5EE0     		b	.L14
 1271              	.L66:
 1272              		.loc 6 211 0 is_stmt 1
 1273 0750 3048     		ldr	r0, .L76
 1274 0752 FFF7FEFF 		bl	chMBReset
 1275              		.loc 6 216 0
 1276 0756 FFF7FEFF 		bl	chSysLock
 1277 075a 2E48     		ldr	r0, .L76
 1278 075c FFF7FEFF 		bl	chMBGetFreeCountI
 1279 0760 0346     		mov	r3, r0
 1280 0762 052B     		cmp	r3, #5
 1281 0764 0CBF     		ite	eq
 1282 0766 0123     		moveq	r3, #1
 1283 0768 0023     		movne	r3, #0
 1284 076a DBB2     		uxtb	r3, r3
 1285 076c 2C20     		movs	r0, #44
 1286 076e 1946     		mov	r1, r3
 1287 0770 FFF7FEFF 		bl	_test_assert
 1288 0774 0346     		mov	r3, r0
 1289 0776 002B     		cmp	r3, #0
 1290 0778 02D0     		beq	.L67
 1291              		.loc 6 216 0 is_stmt 0 discriminator 1
 1292 077a FFF7FEFF 		bl	chSysUnlock
 1293 077e 46E0     		b	.L14
 1294              	.L67:
 1295              		.loc 6 216 0 discriminator 2
 1296 0780 FFF7FEFF 		bl	chSysUnlock
 1297              		.loc 6 217 0 is_stmt 1 discriminator 2
 1298 0784 FFF7FEFF 		bl	chSysLock
 1299 0788 2248     		ldr	r0, .L76
 1300 078a FFF7FEFF 		bl	chMBGetUsedCountI
 1301 078e 0346     		mov	r3, r0
 1302 0790 002B     		cmp	r3, #0
 1303 0792 0CBF     		ite	eq
 1304 0794 0123     		moveq	r3, #1
 1305 0796 0023     		movne	r3, #0
 1306 0798 DBB2     		uxtb	r3, r3
ARM GAS  /tmp/ccbsxt0J.s 			page 24


 1307 079a 2D20     		movs	r0, #45
 1308 079c 1946     		mov	r1, r3
 1309 079e FFF7FEFF 		bl	_test_assert
 1310 07a2 0346     		mov	r3, r0
 1311 07a4 002B     		cmp	r3, #0
 1312 07a6 02D0     		beq	.L68
 1313              		.loc 6 217 0 is_stmt 0 discriminator 1
 1314 07a8 FFF7FEFF 		bl	chSysUnlock
 1315 07ac 2FE0     		b	.L14
 1316              	.L68:
 1317              		.loc 6 217 0 discriminator 2
 1318 07ae FFF7FEFF 		bl	chSysUnlock
 1319              		.loc 6 218 0 is_stmt 1 discriminator 2
 1320 07b2 FFF7FEFF 		bl	chSysLock
 1321 07b6 174B     		ldr	r3, .L76
 1322 07b8 1A68     		ldr	r2, [r3]
 1323 07ba 164B     		ldr	r3, .L76
 1324 07bc 9B68     		ldr	r3, [r3, #8]
 1325 07be 9A42     		cmp	r2, r3
 1326 07c0 0CBF     		ite	eq
 1327 07c2 0123     		moveq	r3, #1
 1328 07c4 0023     		movne	r3, #0
 1329 07c6 DBB2     		uxtb	r3, r3
 1330 07c8 2E20     		movs	r0, #46
 1331 07ca 1946     		mov	r1, r3
 1332 07cc FFF7FEFF 		bl	_test_assert
 1333 07d0 0346     		mov	r3, r0
 1334 07d2 002B     		cmp	r3, #0
 1335 07d4 02D0     		beq	.L69
 1336              		.loc 6 218 0 is_stmt 0 discriminator 1
 1337 07d6 FFF7FEFF 		bl	chSysUnlock
 1338 07da 18E0     		b	.L14
 1339              	.L69:
 1340              		.loc 6 218 0 discriminator 2
 1341 07dc FFF7FEFF 		bl	chSysUnlock
 1342              		.loc 6 219 0 is_stmt 1 discriminator 2
 1343 07e0 FFF7FEFF 		bl	chSysLock
 1344 07e4 0B4B     		ldr	r3, .L76
 1345 07e6 1A68     		ldr	r2, [r3]
 1346 07e8 0A4B     		ldr	r3, .L76
 1347 07ea DB68     		ldr	r3, [r3, #12]
 1348 07ec 9A42     		cmp	r2, r3
 1349 07ee 0CBF     		ite	eq
 1350 07f0 0123     		moveq	r3, #1
 1351 07f2 0023     		movne	r3, #0
 1352 07f4 DBB2     		uxtb	r3, r3
 1353 07f6 2F20     		movs	r0, #47
 1354 07f8 1946     		mov	r1, r3
 1355 07fa FFF7FEFF 		bl	_test_assert
 1356 07fe 0346     		mov	r3, r0
 1357 0800 002B     		cmp	r3, #0
 1358 0802 02D0     		beq	.L70
 1359              		.loc 6 219 0 is_stmt 0 discriminator 1
 1360 0804 FFF7FEFF 		bl	chSysUnlock
 1361 0808 01E0     		b	.L14
 1362              	.L70:
 1363              		.loc 6 219 0 discriminator 2
ARM GAS  /tmp/ccbsxt0J.s 			page 25


 1364 080a FFF7FEFF 		bl	chSysUnlock
 1365              	.L14:
 1366              		.loc 6 220 0 is_stmt 1
 1367 080e 05B0     		add	sp, sp, #20
 1368              		.cfi_def_cfa_offset 4
 1369              		@ sp needed
 1370 0810 5DF804FB 		ldr	pc, [sp], #4
 1371              	.L77:
 1372              		.align	2
 1373              	.L76:
 1374 0814 00000000 		.word	mb1
 1375 0818 00000000 		.word	.LC0
 1376              		.cfi_endproc
 1377              	.LFE217:
 1378              		.size	mbox1_execute, .-mbox1_execute
 1379              		.global	testmbox1
 1380 081c AFF30080 		.section	.rodata
 1381 0006 0000     		.align	2
 1382              	.LC1:
 1383 0008 4D61696C 		.ascii	"Mailboxes, queuing and timeouts\000"
 1383      626F7865 
 1383      732C2071 
 1383      75657569 
 1383      6E672061 
 1384              		.section	.rodata.testmbox1,"a",%progbits
 1385              		.align	2
 1386              		.type	testmbox1, %object
 1387              		.size	testmbox1, 16
 1388              	testmbox1:
 1389 0000 08000000 		.word	.LC1
 1390 0004 00000000 		.word	mbox1_setup
 1391 0008 00000000 		.word	0
 1392 000c 00000000 		.word	mbox1_execute
 1393              		.global	patternmbox
 1394              		.section	.rodata.patternmbox,"a",%progbits
 1395              		.align	2
 1396              		.type	patternmbox, %object
 1397              		.size	patternmbox, 8
 1398              	patternmbox:
 1399 0000 00000000 		.word	testmbox1
 1400 0004 00000000 		.word	0
 1401              		.text
 1402              	.Letext0:
 1403              		.file 7 "/opt/gcc-arm-none-eabi/lib/gcc/arm-none-eabi/4.9.3/include/stddef.h"
 1404              		.file 8 "/opt/gcc-arm-none-eabi/arm-none-eabi/include/machine/_default_types.h"
 1405              		.file 9 "/opt/gcc-arm-none-eabi/arm-none-eabi/include/stdint.h"
 1406              		.file 10 "/home/makkmarci/workspace/CLEAN/ChibiOS/os/rt/ports/ARMCMx/compilers/GCC/chtypes.h"
 1407              		.file 11 "/home/makkmarci/workspace/CLEAN/ChibiOS/os/rt/include/chsystypes.h"
 1408              		.file 12 "/home/makkmarci/workspace/CLEAN/ChibiOS/os/rt/include/chschd.h"
 1409              		.file 13 "/home/makkmarci/workspace/CLEAN/ChibiOS/os/rt/ports/ARMCMx/chcore.h"
 1410              		.file 14 "/home/makkmarci/workspace/CLEAN/ChibiOS/os/rt/include/chtm.h"
 1411              		.file 15 "/home/makkmarci/workspace/CLEAN/ChibiOS/os/rt/include/chmtx.h"
 1412              		.file 16 "/home/makkmarci/workspace/CLEAN/ChibiOS/test/rt/test.h"
 1413              		.file 17 "/home/makkmarci/workspace/CLEAN/ChibiOS/os/ext/CMSIS/include/core_cm4.h"