ARM GAS  /tmp/cc0QnwBB.s 			page 1


   1              		.syntax unified
   2              		.cpu cortex-m4
   3              		.eabi_attribute 27, 1
   4              		.eabi_attribute 28, 1
   5              		.fpu fpv4-sp-d16
   6              		.eabi_attribute 20, 1
   7              		.eabi_attribute 21, 1
   8              		.eabi_attribute 23, 3
   9              		.eabi_attribute 24, 1
  10              		.eabi_attribute 25, 1
  11              		.eabi_attribute 26, 1
  12              		.eabi_attribute 30, 6
  13              		.eabi_attribute 34, 1
  14              		.eabi_attribute 18, 4
  15              		.thumb
  16              		.file	"test.c"
  17              		.text
  18              	.Ltext0:
  19              		.cfi_sections	.debug_frame
  20              		.section	.text.port_lock,"ax",%progbits
  21              		.align	2
  22              		.p2align 4,,15
  23              		.thumb
  24              		.thumb_func
  25              		.type	port_lock, %function
  26              	port_lock:
  27              	.LFB116:
  28              		.file 1 "/home/makkmarci/workspace/CLEAN/ChibiOS/os/rt/ports/ARMCMx/chcore_v7m.h"
  29              		.loc 1 444 0
  30              		.cfi_startproc
  31              		@ args = 0, pretend = 0, frame = 8
  32              		@ frame_needed = 0, uses_anonymous_args = 0
  33              		@ link register save eliminated.
  34 0000 82B0     		sub	sp, sp, #8
  35              		.cfi_def_cfa_offset 8
  36 0002 2023     		movs	r3, #32
  37 0004 0193     		str	r3, [sp, #4]
  38              	.LBB6:
  39              	.LBB7:
  40              		.file 2 "/home/makkmarci/workspace/CLEAN/ChibiOS/os/ext/CMSIS/include/core_cmFunc.h"
  41              		.loc 2 546 0
  42 0006 019B     		ldr	r3, [sp, #4]
  43              	@ 546 "/home/makkmarci/workspace/CLEAN/ChibiOS/os/ext/CMSIS/include/core_cmFunc.h" 1
  44 0008 83F31188 		MSR basepri, r3
  45              	@ 0 "" 2
  46              		.thumb
  47              	.LBE7:
  48              	.LBE6:
  49              		.loc 1 451 0
  50 000c 02B0     		add	sp, sp, #8
  51              		.cfi_def_cfa_offset 0
  52              		@ sp needed
  53 000e 7047     		bx	lr
  54              		.cfi_endproc
  55              	.LFE116:
  56              		.size	port_lock, .-port_lock
  57              		.section	.text.port_unlock,"ax",%progbits
ARM GAS  /tmp/cc0QnwBB.s 			page 2


  58              		.align	2
  59              		.p2align 4,,15
  60              		.thumb
  61              		.thumb_func
  62              		.type	port_unlock, %function
  63              	port_unlock:
  64              	.LFB117:
  65              		.loc 1 458 0
  66              		.cfi_startproc
  67              		@ args = 0, pretend = 0, frame = 8
  68              		@ frame_needed = 0, uses_anonymous_args = 0
  69              		@ link register save eliminated.
  70 0000 82B0     		sub	sp, sp, #8
  71              		.cfi_def_cfa_offset 8
  72 0002 0023     		movs	r3, #0
  73 0004 0193     		str	r3, [sp, #4]
  74              	.LBB8:
  75              	.LBB9:
  76              		.loc 2 546 0
  77 0006 019B     		ldr	r3, [sp, #4]
  78              	@ 546 "/home/makkmarci/workspace/CLEAN/ChibiOS/os/ext/CMSIS/include/core_cmFunc.h" 1
  79 0008 83F31188 		MSR basepri, r3
  80              	@ 0 "" 2
  81              		.thumb
  82              	.LBE9:
  83              	.LBE8:
  84              		.loc 1 465 0
  85 000c 02B0     		add	sp, sp, #8
  86              		.cfi_def_cfa_offset 0
  87              		@ sp needed
  88 000e 7047     		bx	lr
  89              		.cfi_endproc
  90              	.LFE117:
  91              		.size	port_unlock, .-port_unlock
  92              		.section	.text.chSysLock,"ax",%progbits
  93              		.align	2
  94              		.p2align 4,,15
  95              		.thumb
  96              		.thumb_func
  97              		.type	chSysLock, %function
  98              	chSysLock:
  99              	.LFB145:
 100              		.file 3 "/home/makkmarci/workspace/CLEAN/ChibiOS/os/rt/include/chsys.h"
 101              		.loc 3 346 0
 102              		.cfi_startproc
 103              		@ args = 0, pretend = 0, frame = 0
 104              		@ frame_needed = 0, uses_anonymous_args = 0
 105 0000 08B5     		push	{r3, lr}
 106              		.cfi_def_cfa_offset 8
 107              		.cfi_offset 3, -8
 108              		.cfi_offset 14, -4
 109              		.loc 3 348 0
 110 0002 FFF7FEFF 		bl	port_lock
 111              		.loc 3 351 0
 112 0006 08BD     		pop	{r3, pc}
 113              		.cfi_endproc
 114              	.LFE145:
ARM GAS  /tmp/cc0QnwBB.s 			page 3


 115              		.size	chSysLock, .-chSysLock
 116              		.section	.text.chSysUnlock,"ax",%progbits
 117              		.align	2
 118              		.p2align 4,,15
 119              		.thumb
 120              		.thumb_func
 121              		.type	chSysUnlock, %function
 122              	chSysUnlock:
 123              	.LFB146:
 124              		.loc 3 358 0
 125              		.cfi_startproc
 126              		@ args = 0, pretend = 0, frame = 0
 127              		@ frame_needed = 0, uses_anonymous_args = 0
 128 0000 08B5     		push	{r3, lr}
 129              		.cfi_def_cfa_offset 8
 130              		.cfi_offset 3, -8
 131              		.cfi_offset 14, -4
 132              		.loc 3 371 0
 133 0002 FFF7FEFF 		bl	port_unlock
 134              		.loc 3 372 0
 135 0006 08BD     		pop	{r3, pc}
 136              		.cfi_endproc
 137              	.LFE146:
 138              		.size	chSysUnlock, .-chSysUnlock
 139 0008 AFF30080 		.section	.text.chVTGetSystemTimeX,"ax",%progbits
 139      AFF30080 
 140              		.align	2
 141              		.p2align 4,,15
 142              		.thumb
 143              		.thumb_func
 144              		.type	chVTGetSystemTimeX, %function
 145              	chVTGetSystemTimeX:
 146              	.LFB153:
 147              		.file 4 "/home/makkmarci/workspace/CLEAN/ChibiOS/os/rt/include/chvt.h"
 148              		.loc 4 228 0
 149              		.cfi_startproc
 150              		@ args = 0, pretend = 0, frame = 0
 151              		@ frame_needed = 0, uses_anonymous_args = 0
 152              		@ link register save eliminated.
 153              		.loc 4 231 0
 154 0000 014B     		ldr	r3, .L7
 155 0002 9B6A     		ldr	r3, [r3, #40]
 156              		.loc 4 235 0
 157 0004 1846     		mov	r0, r3
 158 0006 7047     		bx	lr
 159              	.L8:
 160              		.align	2
 161              	.L7:
 162 0008 00000000 		.word	ch
 163              		.cfi_endproc
 164              	.LFE153:
 165              		.size	chVTGetSystemTimeX, .-chVTGetSystemTimeX
 166 000c AFF30080 		.section	.text.chVTGetSystemTime,"ax",%progbits
 167              		.align	2
 168              		.p2align 4,,15
 169              		.thumb
 170              		.thumb_func
ARM GAS  /tmp/cc0QnwBB.s 			page 4


 171              		.type	chVTGetSystemTime, %function
 172              	chVTGetSystemTime:
 173              	.LFB154:
 174              		.loc 4 247 0
 175              		.cfi_startproc
 176              		@ args = 0, pretend = 0, frame = 8
 177              		@ frame_needed = 0, uses_anonymous_args = 0
 178 0000 00B5     		push	{lr}
 179              		.cfi_def_cfa_offset 4
 180              		.cfi_offset 14, -4
 181 0002 83B0     		sub	sp, sp, #12
 182              		.cfi_def_cfa_offset 16
 183              		.loc 4 250 0
 184 0004 FFF7FEFF 		bl	chSysLock
 185              		.loc 4 251 0
 186 0008 FFF7FEFF 		bl	chVTGetSystemTimeX
 187 000c 0190     		str	r0, [sp, #4]
 188              		.loc 4 252 0
 189 000e FFF7FEFF 		bl	chSysUnlock
 190              		.loc 4 254 0
 191 0012 019B     		ldr	r3, [sp, #4]
 192              		.loc 4 255 0
 193 0014 1846     		mov	r0, r3
 194 0016 03B0     		add	sp, sp, #12
 195              		.cfi_def_cfa_offset 4
 196              		@ sp needed
 197 0018 5DF804FB 		ldr	pc, [sp], #4
 198              		.cfi_endproc
 199              	.LFE154:
 200              		.size	chVTGetSystemTime, .-chVTGetSystemTime
 201 001c AFF30080 		.section	.text.chVTIsTimeWithinX,"ax",%progbits
 202              		.align	2
 203              		.p2align 4,,15
 204              		.thumb
 205              		.thumb_func
 206              		.type	chVTIsTimeWithinX, %function
 207              	chVTIsTimeWithinX:
 208              	.LFB156:
 209              		.loc 4 286 0
 210              		.cfi_startproc
 211              		@ args = 0, pretend = 0, frame = 16
 212              		@ frame_needed = 0, uses_anonymous_args = 0
 213              		@ link register save eliminated.
 214 0000 84B0     		sub	sp, sp, #16
 215              		.cfi_def_cfa_offset 16
 216 0002 0390     		str	r0, [sp, #12]
 217 0004 0291     		str	r1, [sp, #8]
 218 0006 0192     		str	r2, [sp, #4]
 219              		.loc 4 288 0
 220 0008 039A     		ldr	r2, [sp, #12]
 221 000a 029B     		ldr	r3, [sp, #8]
 222 000c D21A     		subs	r2, r2, r3
 223 000e 0199     		ldr	r1, [sp, #4]
 224 0010 029B     		ldr	r3, [sp, #8]
 225 0012 CB1A     		subs	r3, r1, r3
 226 0014 9A42     		cmp	r2, r3
 227 0016 34BF     		ite	cc
ARM GAS  /tmp/cc0QnwBB.s 			page 5


 228 0018 0123     		movcc	r3, #1
 229 001a 0023     		movcs	r3, #0
 230 001c DBB2     		uxtb	r3, r3
 231              		.loc 4 289 0
 232 001e 1846     		mov	r0, r3
 233 0020 04B0     		add	sp, sp, #16
 234              		.cfi_def_cfa_offset 0
 235              		@ sp needed
 236 0022 7047     		bx	lr
 237              		.cfi_endproc
 238              	.LFE156:
 239              		.size	chVTIsTimeWithinX, .-chVTIsTimeWithinX
 240 0024 AFF30080 		.section	.text.chVTIsSystemTimeWithin,"ax",%progbits
 240      AFF30080 
 240      AFF30080 
 241              		.align	2
 242              		.p2align 4,,15
 243              		.thumb
 244              		.thumb_func
 245              		.type	chVTIsSystemTimeWithin, %function
 246              	chVTIsSystemTimeWithin:
 247              	.LFB158:
 248              		.loc 4 322 0
 249              		.cfi_startproc
 250              		@ args = 0, pretend = 0, frame = 8
 251              		@ frame_needed = 0, uses_anonymous_args = 0
 252 0000 00B5     		push	{lr}
 253              		.cfi_def_cfa_offset 4
 254              		.cfi_offset 14, -4
 255 0002 83B0     		sub	sp, sp, #12
 256              		.cfi_def_cfa_offset 16
 257 0004 0190     		str	r0, [sp, #4]
 258 0006 0091     		str	r1, [sp]
 259              		.loc 4 324 0
 260 0008 FFF7FEFF 		bl	chVTGetSystemTime
 261 000c 0346     		mov	r3, r0
 262 000e 1846     		mov	r0, r3
 263 0010 0199     		ldr	r1, [sp, #4]
 264 0012 009A     		ldr	r2, [sp]
 265 0014 FFF7FEFF 		bl	chVTIsTimeWithinX
 266 0018 0346     		mov	r3, r0
 267              		.loc 4 325 0
 268 001a 1846     		mov	r0, r3
 269 001c 03B0     		add	sp, sp, #12
 270              		.cfi_def_cfa_offset 4
 271              		@ sp needed
 272 001e 5DF804FB 		ldr	pc, [sp], #4
 273              		.cfi_endproc
 274              	.LFE158:
 275              		.size	chVTIsSystemTimeWithin, .-chVTIsSystemTimeWithin
 276 0022 00BFAFF3 		.section	.text.chVTIsArmedI,"ax",%progbits
 276      0080AFF3 
 276      0080AFF3 
 276      0080
 277              		.align	2
 278              		.p2align 4,,15
 279              		.thumb
ARM GAS  /tmp/cc0QnwBB.s 			page 6


 280              		.thumb_func
 281              		.type	chVTIsArmedI, %function
 282              	chVTIsArmedI:
 283              	.LFB159:
 284              		.loc 4 337 0
 285              		.cfi_startproc
 286              		@ args = 0, pretend = 0, frame = 8
 287              		@ frame_needed = 0, uses_anonymous_args = 0
 288              		@ link register save eliminated.
 289 0000 82B0     		sub	sp, sp, #8
 290              		.cfi_def_cfa_offset 8
 291 0002 0190     		str	r0, [sp, #4]
 292              		.loc 4 341 0
 293 0004 019B     		ldr	r3, [sp, #4]
 294 0006 DB68     		ldr	r3, [r3, #12]
 295 0008 002B     		cmp	r3, #0
 296 000a 14BF     		ite	ne
 297 000c 0123     		movne	r3, #1
 298 000e 0023     		moveq	r3, #0
 299 0010 DBB2     		uxtb	r3, r3
 300              		.loc 4 342 0
 301 0012 1846     		mov	r0, r3
 302 0014 02B0     		add	sp, sp, #8
 303              		.cfi_def_cfa_offset 0
 304              		@ sp needed
 305 0016 7047     		bx	lr
 306              		.cfi_endproc
 307              	.LFE159:
 308              		.size	chVTIsArmedI, .-chVTIsArmedI
 309 0018 AFF30080 		.section	.text.chVTResetI,"ax",%progbits
 309      AFF30080 
 310              		.align	2
 311              		.p2align 4,,15
 312              		.thumb
 313              		.thumb_func
 314              		.type	chVTResetI, %function
 315              	chVTResetI:
 316              	.LFB161:
 317              		.loc 4 374 0
 318              		.cfi_startproc
 319              		@ args = 0, pretend = 0, frame = 8
 320              		@ frame_needed = 0, uses_anonymous_args = 0
 321 0000 00B5     		push	{lr}
 322              		.cfi_def_cfa_offset 4
 323              		.cfi_offset 14, -4
 324 0002 83B0     		sub	sp, sp, #12
 325              		.cfi_def_cfa_offset 16
 326 0004 0190     		str	r0, [sp, #4]
 327              		.loc 4 376 0
 328 0006 0198     		ldr	r0, [sp, #4]
 329 0008 FFF7FEFF 		bl	chVTIsArmedI
 330 000c 0346     		mov	r3, r0
 331 000e 002B     		cmp	r3, #0
 332 0010 02D0     		beq	.L17
 333              		.loc 4 377 0
 334 0012 0198     		ldr	r0, [sp, #4]
 335 0014 FFF7FEFF 		bl	chVTDoResetI
ARM GAS  /tmp/cc0QnwBB.s 			page 7


 336              	.L17:
 337              		.loc 4 379 0
 338 0018 03B0     		add	sp, sp, #12
 339              		.cfi_def_cfa_offset 4
 340              		@ sp needed
 341 001a 5DF804FB 		ldr	pc, [sp], #4
 342              		.cfi_endproc
 343              	.LFE161:
 344              		.size	chVTResetI, .-chVTResetI
 345 001e 00BF     		.section	.text.chVTSetI,"ax",%progbits
 346              		.align	2
 347              		.p2align 4,,15
 348              		.thumb
 349              		.thumb_func
 350              		.type	chVTSetI, %function
 351              	chVTSetI:
 352              	.LFB163:
 353              		.loc 4 421 0
 354              		.cfi_startproc
 355              		@ args = 0, pretend = 0, frame = 16
 356              		@ frame_needed = 0, uses_anonymous_args = 0
 357 0000 00B5     		push	{lr}
 358              		.cfi_def_cfa_offset 4
 359              		.cfi_offset 14, -4
 360 0002 85B0     		sub	sp, sp, #20
 361              		.cfi_def_cfa_offset 24
 362 0004 0390     		str	r0, [sp, #12]
 363 0006 0291     		str	r1, [sp, #8]
 364 0008 0192     		str	r2, [sp, #4]
 365 000a 0093     		str	r3, [sp]
 366              		.loc 4 423 0
 367 000c 0398     		ldr	r0, [sp, #12]
 368 000e FFF7FEFF 		bl	chVTResetI
 369              		.loc 4 424 0
 370 0012 0398     		ldr	r0, [sp, #12]
 371 0014 0299     		ldr	r1, [sp, #8]
 372 0016 019A     		ldr	r2, [sp, #4]
 373 0018 009B     		ldr	r3, [sp]
 374 001a FFF7FEFF 		bl	chVTDoSetI
 375              		.loc 4 425 0
 376 001e 05B0     		add	sp, sp, #20
 377              		.cfi_def_cfa_offset 4
 378              		@ sp needed
 379 0020 5DF804FB 		ldr	pc, [sp], #4
 380              		.cfi_endproc
 381              	.LFE163:
 382              		.size	chVTSetI, .-chVTSetI
 383 0024 AFF30080 		.section	.text.chVTSet,"ax",%progbits
 383      AFF30080 
 383      AFF30080 
 384              		.align	2
 385              		.p2align 4,,15
 386              		.thumb
 387              		.thumb_func
 388              		.type	chVTSet, %function
 389              	chVTSet:
 390              	.LFB164:
ARM GAS  /tmp/cc0QnwBB.s 			page 8


 391              		.loc 4 450 0
 392              		.cfi_startproc
 393              		@ args = 0, pretend = 0, frame = 16
 394              		@ frame_needed = 0, uses_anonymous_args = 0
 395 0000 00B5     		push	{lr}
 396              		.cfi_def_cfa_offset 4
 397              		.cfi_offset 14, -4
 398 0002 85B0     		sub	sp, sp, #20
 399              		.cfi_def_cfa_offset 24
 400 0004 0390     		str	r0, [sp, #12]
 401 0006 0291     		str	r1, [sp, #8]
 402 0008 0192     		str	r2, [sp, #4]
 403 000a 0093     		str	r3, [sp]
 404              		.loc 4 452 0
 405 000c FFF7FEFF 		bl	chSysLock
 406              		.loc 4 453 0
 407 0010 0398     		ldr	r0, [sp, #12]
 408 0012 0299     		ldr	r1, [sp, #8]
 409 0014 019A     		ldr	r2, [sp, #4]
 410 0016 009B     		ldr	r3, [sp]
 411 0018 FFF7FEFF 		bl	chVTSetI
 412              		.loc 4 454 0
 413 001c FFF7FEFF 		bl	chSysUnlock
 414              		.loc 4 455 0
 415 0020 05B0     		add	sp, sp, #20
 416              		.cfi_def_cfa_offset 4
 417              		@ sp needed
 418 0022 5DF804FB 		ldr	pc, [sp], #4
 419              		.cfi_endproc
 420              	.LFE164:
 421              		.size	chVTSet, .-chVTSet
 422 0026 00BFAFF3 		.section	.data.patterns,"aw",%progbits
 422      0080AFF3 
 422      0080
 423              		.align	2
 424              		.type	patterns, %object
 425              		.size	patterns, 52
 426              	patterns:
 427 0000 00000000 		.word	patternsys
 428 0004 00000000 		.word	patternthd
 429 0008 00000000 		.word	patternsem
 430 000c 00000000 		.word	patternmtx
 431 0010 00000000 		.word	patternmsg
 432 0014 00000000 		.word	patternmbox
 433 0018 00000000 		.word	patternevt
 434 001c 00000000 		.word	patternheap
 435 0020 00000000 		.word	patternpools
 436 0024 00000000 		.word	patterndyn
 437 0028 00000000 		.word	patternqueues
 438 002c 00000000 		.word	patternbmk
 439 0030 00000000 		.word	0
 440              		.global	test_global_fail
 441              		.section	.bss.test_global_fail,"aw",%nobits
 442              		.type	test_global_fail, %object
 443              		.size	test_global_fail, 1
 444              	test_global_fail:
 445 0000 00       		.space	1
ARM GAS  /tmp/cc0QnwBB.s 			page 9


 446              		.section	.bss.local_fail,"aw",%nobits
 447              		.type	local_fail, %object
 448              		.size	local_fail, 1
 449              	local_fail:
 450 0000 00       		.space	1
 451              		.section	.bss.failpoint,"aw",%nobits
 452              		.align	2
 453              		.type	failpoint, %object
 454              		.size	failpoint, 4
 455              	failpoint:
 456 0000 00000000 		.space	4
 457              		.section	.bss.tokens_buffer,"aw",%nobits
 458              		.align	2
 459              		.type	tokens_buffer, %object
 460              		.size	tokens_buffer, 16
 461              	tokens_buffer:
 462 0000 00000000 		.space	16
 462      00000000 
 462      00000000 
 462      00000000 
 463              		.section	.bss.tokp,"aw",%nobits
 464              		.align	2
 465              		.type	tokp, %object
 466              		.size	tokp, 4
 467              	tokp:
 468 0000 00000000 		.space	4
 469              		.global	test
 470              		.section	.bss.test,"aw",%nobits
 471              		.align	3
 472              		.type	test, %object
 473              		.size	test, 2320
 474              	test:
 475 0000 00000000 		.space	2320
 475      00000000 
 475      00000000 
 475      00000000 
 475      00000000 
 476              		.global	threads
 477              		.section	.bss.threads,"aw",%nobits
 478              		.align	2
 479              		.type	threads, %object
 480              		.size	threads, 20
 481              	threads:
 482 0000 00000000 		.space	20
 482      00000000 
 482      00000000 
 482      00000000 
 482      00000000 
 483              		.global	wa
 484              		.section	.rodata.wa,"a",%progbits
 485              		.align	2
 486              		.type	wa, %object
 487              		.size	wa, 20
 488              	wa:
 489 0000 00000000 		.word	test
 490 0004 D0010000 		.word	test+464
 491 0008 A0030000 		.word	test+928
ARM GAS  /tmp/cc0QnwBB.s 			page 10


 492 000c 70050000 		.word	test+1392
 493 0010 40070000 		.word	test+1856
 494              		.section	.bss.chp,"aw",%nobits
 495              		.align	2
 496              		.type	chp, %object
 497              		.size	chp, 4
 498              	chp:
 499 0000 00000000 		.space	4
 500              		.section	.text.test_printn,"ax",%progbits
 501              		.align	2
 502              		.p2align 4,,15
 503              		.global	test_printn
 504              		.thumb
 505              		.thumb_func
 506              		.type	test_printn, %function
 507              	test_printn:
 508              	.LFB253:
 509              		.file 5 "/home/makkmarci/workspace/CLEAN/ChibiOS/test/rt/test.c"
 510              		.loc 5 94 0
 511              		.cfi_startproc
 512              		@ args = 0, pretend = 0, frame = 32
 513              		@ frame_needed = 0, uses_anonymous_args = 0
 514 0000 00B5     		push	{lr}
 515              		.cfi_def_cfa_offset 4
 516              		.cfi_offset 14, -4
 517 0002 89B0     		sub	sp, sp, #36
 518              		.cfi_def_cfa_offset 40
 519 0004 0190     		str	r0, [sp, #4]
 520              		.loc 5 97 0
 521 0006 019B     		ldr	r3, [sp, #4]
 522 0008 002B     		cmp	r3, #0
 523 000a 09D1     		bne	.L22
 524              		.loc 5 98 0
 525 000c 1E4B     		ldr	r3, .L28
 526 000e 1B68     		ldr	r3, [r3]
 527 0010 1B68     		ldr	r3, [r3]
 528 0012 9B68     		ldr	r3, [r3, #8]
 529 0014 1C4A     		ldr	r2, .L28
 530 0016 1268     		ldr	r2, [r2]
 531 0018 1046     		mov	r0, r2
 532 001a 3021     		movs	r1, #48
 533 001c 9847     		blx	r3
 534 001e 2FE0     		b	.L21
 535              	.L22:
 536              		.loc 5 100 0
 537 0020 03AB     		add	r3, sp, #12
 538 0022 0793     		str	r3, [sp, #28]
 539              		.loc 5 101 0
 540 0024 16E0     		b	.L24
 541              	.L25:
 542              		.loc 5 102 0
 543 0026 0799     		ldr	r1, [sp, #28]
 544 0028 4B1C     		adds	r3, r1, #1
 545 002a 0793     		str	r3, [sp, #28]
 546 002c 0198     		ldr	r0, [sp, #4]
 547 002e 174B     		ldr	r3, .L28+4
 548 0030 A3FB0023 		umull	r2, r3, r3, r0
ARM GAS  /tmp/cc0QnwBB.s 			page 11


 549 0034 DA08     		lsrs	r2, r3, #3
 550 0036 1346     		mov	r3, r2
 551 0038 9B00     		lsls	r3, r3, #2
 552 003a 1344     		add	r3, r3, r2
 553 003c 5B00     		lsls	r3, r3, #1
 554 003e C21A     		subs	r2, r0, r3
 555 0040 D3B2     		uxtb	r3, r2
 556 0042 3033     		adds	r3, r3, #48
 557 0044 DBB2     		uxtb	r3, r3
 558 0046 0B70     		strb	r3, [r1]
 559 0048 019B     		ldr	r3, [sp, #4]
 560 004a 104A     		ldr	r2, .L28+4
 561 004c A2FB0323 		umull	r2, r3, r2, r3
 562 0050 DB08     		lsrs	r3, r3, #3
 563 0052 0193     		str	r3, [sp, #4]
 564              	.L24:
 565              		.loc 5 101 0
 566 0054 019B     		ldr	r3, [sp, #4]
 567 0056 002B     		cmp	r3, #0
 568 0058 E5D1     		bne	.L25
 569              		.loc 5 103 0
 570 005a 0DE0     		b	.L26
 571              	.L27:
 572              		.loc 5 104 0
 573 005c 0A4B     		ldr	r3, .L28
 574 005e 1B68     		ldr	r3, [r3]
 575 0060 1B68     		ldr	r3, [r3]
 576 0062 9B68     		ldr	r3, [r3, #8]
 577 0064 084A     		ldr	r2, .L28
 578 0066 1168     		ldr	r1, [r2]
 579 0068 079A     		ldr	r2, [sp, #28]
 580 006a 013A     		subs	r2, r2, #1
 581 006c 0792     		str	r2, [sp, #28]
 582 006e 079A     		ldr	r2, [sp, #28]
 583 0070 1278     		ldrb	r2, [r2]	@ zero_extendqisi2
 584 0072 0846     		mov	r0, r1
 585 0074 1146     		mov	r1, r2
 586 0076 9847     		blx	r3
 587              	.L26:
 588              		.loc 5 103 0
 589 0078 03AB     		add	r3, sp, #12
 590 007a 079A     		ldr	r2, [sp, #28]
 591 007c 9A42     		cmp	r2, r3
 592 007e EDD8     		bhi	.L27
 593              	.L21:
 594              		.loc 5 106 0
 595 0080 09B0     		add	sp, sp, #36
 596              		.cfi_def_cfa_offset 4
 597              		@ sp needed
 598 0082 5DF804FB 		ldr	pc, [sp], #4
 599              	.L29:
 600 0086 00BF     		.align	2
 601              	.L28:
 602 0088 00000000 		.word	chp
 603 008c CDCCCCCC 		.word	-858993459
 604              		.cfi_endproc
 605              	.LFE253:
ARM GAS  /tmp/cc0QnwBB.s 			page 12


 606              		.size	test_printn, .-test_printn
 607              		.section	.text.test_print,"ax",%progbits
 608              		.align	2
 609              		.p2align 4,,15
 610              		.global	test_print
 611              		.thumb
 612              		.thumb_func
 613              		.type	test_print, %function
 614              	test_print:
 615              	.LFB254:
 616              		.loc 5 113 0
 617              		.cfi_startproc
 618              		@ args = 0, pretend = 0, frame = 8
 619              		@ frame_needed = 0, uses_anonymous_args = 0
 620 0000 00B5     		push	{lr}
 621              		.cfi_def_cfa_offset 4
 622              		.cfi_offset 14, -4
 623 0002 83B0     		sub	sp, sp, #12
 624              		.cfi_def_cfa_offset 16
 625 0004 0190     		str	r0, [sp, #4]
 626              		.loc 5 115 0
 627 0006 0BE0     		b	.L31
 628              	.L32:
 629              		.loc 5 116 0
 630 0008 094B     		ldr	r3, .L33
 631 000a 1B68     		ldr	r3, [r3]
 632 000c 1B68     		ldr	r3, [r3]
 633 000e 9A68     		ldr	r2, [r3, #8]
 634 0010 074B     		ldr	r3, .L33
 635 0012 1868     		ldr	r0, [r3]
 636 0014 019B     		ldr	r3, [sp, #4]
 637 0016 591C     		adds	r1, r3, #1
 638 0018 0191     		str	r1, [sp, #4]
 639 001a 1B78     		ldrb	r3, [r3]	@ zero_extendqisi2
 640 001c 1946     		mov	r1, r3
 641 001e 9047     		blx	r2
 642              	.L31:
 643              		.loc 5 115 0
 644 0020 019B     		ldr	r3, [sp, #4]
 645 0022 1B78     		ldrb	r3, [r3]	@ zero_extendqisi2
 646 0024 002B     		cmp	r3, #0
 647 0026 EFD1     		bne	.L32
 648              		.loc 5 117 0
 649 0028 03B0     		add	sp, sp, #12
 650              		.cfi_def_cfa_offset 4
 651              		@ sp needed
 652 002a 5DF804FB 		ldr	pc, [sp], #4
 653              	.L34:
 654 002e 00BF     		.align	2
 655              	.L33:
 656 0030 00000000 		.word	chp
 657              		.cfi_endproc
 658              	.LFE254:
 659              		.size	test_print, .-test_print
 660 0034 AFF30080 		.section	.rodata
 660      AFF30080 
 660      AFF30080 
ARM GAS  /tmp/cc0QnwBB.s 			page 13


 661              		.align	2
 662              	.LC0:
 663 0000 0D0A00   		.ascii	"\015\012\000"
 664              		.section	.text.test_println,"ax",%progbits
 665              		.align	2
 666              		.p2align 4,,15
 667              		.global	test_println
 668              		.thumb
 669              		.thumb_func
 670              		.type	test_println, %function
 671              	test_println:
 672              	.LFB255:
 673              		.loc 5 124 0
 674              		.cfi_startproc
 675              		@ args = 0, pretend = 0, frame = 8
 676              		@ frame_needed = 0, uses_anonymous_args = 0
 677 0000 00B5     		push	{lr}
 678              		.cfi_def_cfa_offset 4
 679              		.cfi_offset 14, -4
 680 0002 83B0     		sub	sp, sp, #12
 681              		.cfi_def_cfa_offset 16
 682 0004 0190     		str	r0, [sp, #4]
 683              		.loc 5 126 0
 684 0006 0198     		ldr	r0, [sp, #4]
 685 0008 FFF7FEFF 		bl	test_print
 686              		.loc 5 127 0
 687 000c 064B     		ldr	r3, .L36
 688 000e 1B68     		ldr	r3, [r3]
 689 0010 1B68     		ldr	r3, [r3]
 690 0012 1B68     		ldr	r3, [r3]
 691 0014 044A     		ldr	r2, .L36
 692 0016 1268     		ldr	r2, [r2]
 693 0018 1046     		mov	r0, r2
 694 001a 0449     		ldr	r1, .L36+4
 695 001c 0222     		movs	r2, #2
 696 001e 9847     		blx	r3
 697              		.loc 5 128 0
 698 0020 03B0     		add	sp, sp, #12
 699              		.cfi_def_cfa_offset 4
 700              		@ sp needed
 701 0022 5DF804FB 		ldr	pc, [sp], #4
 702              	.L37:
 703 0026 00BF     		.align	2
 704              	.L36:
 705 0028 00000000 		.word	chp
 706 002c 00000000 		.word	.LC0
 707              		.cfi_endproc
 708              	.LFE255:
 709              		.size	test_println, .-test_println
 710              		.section	.text.clear_tokens,"ax",%progbits
 711              		.align	2
 712              		.p2align 4,,15
 713              		.thumb
 714              		.thumb_func
 715              		.type	clear_tokens, %function
 716              	clear_tokens:
 717              	.LFB256:
ARM GAS  /tmp/cc0QnwBB.s 			page 14


 718              		.loc 5 133 0
 719              		.cfi_startproc
 720              		@ args = 0, pretend = 0, frame = 0
 721              		@ frame_needed = 0, uses_anonymous_args = 0
 722              		@ link register save eliminated.
 723              		.loc 5 135 0
 724 0000 014B     		ldr	r3, .L39
 725 0002 024A     		ldr	r2, .L39+4
 726 0004 1A60     		str	r2, [r3]
 727              		.loc 5 136 0
 728 0006 7047     		bx	lr
 729              	.L40:
 730              		.align	2
 731              	.L39:
 732 0008 00000000 		.word	tokp
 733 000c 00000000 		.word	tokens_buffer
 734              		.cfi_endproc
 735              	.LFE256:
 736              		.size	clear_tokens, .-clear_tokens
 737              		.section	.text.print_tokens,"ax",%progbits
 738              		.align	2
 739              		.p2align 4,,15
 740              		.thumb
 741              		.thumb_func
 742              		.type	print_tokens, %function
 743              	print_tokens:
 744              	.LFB257:
 745              		.loc 5 138 0
 746              		.cfi_startproc
 747              		@ args = 0, pretend = 0, frame = 8
 748              		@ frame_needed = 0, uses_anonymous_args = 0
 749 0000 00B5     		push	{lr}
 750              		.cfi_def_cfa_offset 4
 751              		.cfi_offset 14, -4
 752 0002 83B0     		sub	sp, sp, #12
 753              		.cfi_def_cfa_offset 16
 754              		.loc 5 139 0
 755 0004 0B4B     		ldr	r3, .L44
 756 0006 0193     		str	r3, [sp, #4]
 757              		.loc 5 141 0
 758 0008 0BE0     		b	.L42
 759              	.L43:
 760              		.loc 5 142 0
 761 000a 0B4B     		ldr	r3, .L44+4
 762 000c 1B68     		ldr	r3, [r3]
 763 000e 1B68     		ldr	r3, [r3]
 764 0010 9A68     		ldr	r2, [r3, #8]
 765 0012 094B     		ldr	r3, .L44+4
 766 0014 1868     		ldr	r0, [r3]
 767 0016 019B     		ldr	r3, [sp, #4]
 768 0018 591C     		adds	r1, r3, #1
 769 001a 0191     		str	r1, [sp, #4]
 770 001c 1B78     		ldrb	r3, [r3]	@ zero_extendqisi2
 771 001e 1946     		mov	r1, r3
 772 0020 9047     		blx	r2
 773              	.L42:
 774              		.loc 5 141 0
ARM GAS  /tmp/cc0QnwBB.s 			page 15


 775 0022 064B     		ldr	r3, .L44+8
 776 0024 1B68     		ldr	r3, [r3]
 777 0026 019A     		ldr	r2, [sp, #4]
 778 0028 9A42     		cmp	r2, r3
 779 002a EED3     		bcc	.L43
 780              		.loc 5 143 0
 781 002c 03B0     		add	sp, sp, #12
 782              		.cfi_def_cfa_offset 4
 783              		@ sp needed
 784 002e 5DF804FB 		ldr	pc, [sp], #4
 785              	.L45:
 786 0032 00BF     		.align	2
 787              	.L44:
 788 0034 00000000 		.word	tokens_buffer
 789 0038 00000000 		.word	chp
 790 003c 00000000 		.word	tokp
 791              		.cfi_endproc
 792              	.LFE257:
 793              		.size	print_tokens, .-print_tokens
 794              		.section	.text.test_emit_token,"ax",%progbits
 795              		.align	2
 796              		.p2align 4,,15
 797              		.global	test_emit_token
 798              		.thumb
 799              		.thumb_func
 800              		.type	test_emit_token, %function
 801              	test_emit_token:
 802              	.LFB258:
 803              		.loc 5 150 0
 804              		.cfi_startproc
 805              		@ args = 0, pretend = 0, frame = 8
 806              		@ frame_needed = 0, uses_anonymous_args = 0
 807 0000 00B5     		push	{lr}
 808              		.cfi_def_cfa_offset 4
 809              		.cfi_offset 14, -4
 810 0002 83B0     		sub	sp, sp, #12
 811              		.cfi_def_cfa_offset 16
 812 0004 0346     		mov	r3, r0
 813 0006 8DF80730 		strb	r3, [sp, #7]
 814              		.loc 5 152 0
 815 000a FFF7FEFF 		bl	chSysLock
 816              		.loc 5 153 0
 817 000e 064B     		ldr	r3, .L47
 818 0010 1B68     		ldr	r3, [r3]
 819 0012 5A1C     		adds	r2, r3, #1
 820 0014 0449     		ldr	r1, .L47
 821 0016 0A60     		str	r2, [r1]
 822 0018 9DF80720 		ldrb	r2, [sp, #7]
 823 001c 1A70     		strb	r2, [r3]
 824              		.loc 5 154 0
 825 001e FFF7FEFF 		bl	chSysUnlock
 826              		.loc 5 155 0
 827 0022 03B0     		add	sp, sp, #12
 828              		.cfi_def_cfa_offset 4
 829              		@ sp needed
 830 0024 5DF804FB 		ldr	pc, [sp], #4
 831              	.L48:
ARM GAS  /tmp/cc0QnwBB.s 			page 16


 832              		.align	2
 833              	.L47:
 834 0028 00000000 		.word	tokp
 835              		.cfi_endproc
 836              	.LFE258:
 837              		.size	test_emit_token, .-test_emit_token
 838 002c AFF30080 		.section	.text._test_fail,"ax",%progbits
 839              		.align	2
 840              		.p2align 4,,15
 841              		.global	_test_fail
 842              		.thumb
 843              		.thumb_func
 844              		.type	_test_fail, %function
 845              	_test_fail:
 846              	.LFB259:
 847              		.loc 5 160 0
 848              		.cfi_startproc
 849              		@ args = 0, pretend = 0, frame = 8
 850              		@ frame_needed = 0, uses_anonymous_args = 0
 851              		@ link register save eliminated.
 852 0000 82B0     		sub	sp, sp, #8
 853              		.cfi_def_cfa_offset 8
 854 0002 0190     		str	r0, [sp, #4]
 855              		.loc 5 162 0
 856 0004 064B     		ldr	r3, .L51
 857 0006 0122     		movs	r2, #1
 858 0008 1A70     		strb	r2, [r3]
 859              		.loc 5 163 0
 860 000a 064B     		ldr	r3, .L51+4
 861 000c 0122     		movs	r2, #1
 862 000e 1A70     		strb	r2, [r3]
 863              		.loc 5 164 0
 864 0010 054A     		ldr	r2, .L51+8
 865 0012 019B     		ldr	r3, [sp, #4]
 866 0014 1360     		str	r3, [r2]
 867              		.loc 5 165 0
 868 0016 0123     		movs	r3, #1
 869              		.loc 5 166 0
 870 0018 1846     		mov	r0, r3
 871 001a 02B0     		add	sp, sp, #8
 872              		.cfi_def_cfa_offset 0
 873              		@ sp needed
 874 001c 7047     		bx	lr
 875              	.L52:
 876 001e 00BF     		.align	2
 877              	.L51:
 878 0020 00000000 		.word	test_global_fail
 879 0024 00000000 		.word	local_fail
 880 0028 00000000 		.word	failpoint
 881              		.cfi_endproc
 882              	.LFE259:
 883              		.size	_test_fail, .-_test_fail
 884 002c AFF30080 		.section	.text._test_assert,"ax",%progbits
 885              		.align	2
 886              		.p2align 4,,15
 887              		.global	_test_assert
 888              		.thumb
ARM GAS  /tmp/cc0QnwBB.s 			page 17


 889              		.thumb_func
 890              		.type	_test_assert, %function
 891              	_test_assert:
 892              	.LFB260:
 893              		.loc 5 168 0
 894              		.cfi_startproc
 895              		@ args = 0, pretend = 0, frame = 8
 896              		@ frame_needed = 0, uses_anonymous_args = 0
 897 0000 00B5     		push	{lr}
 898              		.cfi_def_cfa_offset 4
 899              		.cfi_offset 14, -4
 900 0002 83B0     		sub	sp, sp, #12
 901              		.cfi_def_cfa_offset 16
 902 0004 0190     		str	r0, [sp, #4]
 903 0006 0B46     		mov	r3, r1
 904 0008 8DF80330 		strb	r3, [sp, #3]
 905              		.loc 5 170 0
 906 000c 9DF80330 		ldrb	r3, [sp, #3]
 907 0010 83F00103 		eor	r3, r3, #1
 908 0014 DBB2     		uxtb	r3, r3
 909 0016 002B     		cmp	r3, #0
 910 0018 04D0     		beq	.L54
 911              		.loc 5 171 0
 912 001a 0198     		ldr	r0, [sp, #4]
 913 001c FFF7FEFF 		bl	_test_fail
 914 0020 0346     		mov	r3, r0
 915 0022 00E0     		b	.L55
 916              	.L54:
 917              		.loc 5 172 0
 918 0024 0023     		movs	r3, #0
 919              	.L55:
 920              		.loc 5 173 0
 921 0026 1846     		mov	r0, r3
 922 0028 03B0     		add	sp, sp, #12
 923              		.cfi_def_cfa_offset 4
 924              		@ sp needed
 925 002a 5DF804FB 		ldr	pc, [sp], #4
 926              		.cfi_endproc
 927              	.LFE260:
 928              		.size	_test_assert, .-_test_assert
 929 002e 00BF     		.section	.text._test_assert_sequence,"ax",%progbits
 930              		.align	2
 931              		.p2align 4,,15
 932              		.global	_test_assert_sequence
 933              		.thumb
 934              		.thumb_func
 935              		.type	_test_assert_sequence, %function
 936              	_test_assert_sequence:
 937              	.LFB261:
 938              		.loc 5 175 0
 939              		.cfi_startproc
 940              		@ args = 0, pretend = 0, frame = 16
 941              		@ frame_needed = 0, uses_anonymous_args = 0
 942 0000 00B5     		push	{lr}
 943              		.cfi_def_cfa_offset 4
 944              		.cfi_offset 14, -4
 945 0002 85B0     		sub	sp, sp, #20
ARM GAS  /tmp/cc0QnwBB.s 			page 18


 946              		.cfi_def_cfa_offset 24
 947 0004 0190     		str	r0, [sp, #4]
 948 0006 0091     		str	r1, [sp]
 949              		.loc 5 176 0
 950 0008 134B     		ldr	r3, .L61
 951 000a 0393     		str	r3, [sp, #12]
 952              		.loc 5 177 0
 953 000c 0EE0     		b	.L57
 954              	.L59:
 955              		.loc 5 178 0
 956 000e 039B     		ldr	r3, [sp, #12]
 957 0010 5A1C     		adds	r2, r3, #1
 958 0012 0392     		str	r2, [sp, #12]
 959 0014 1A78     		ldrb	r2, [r3]	@ zero_extendqisi2
 960 0016 009B     		ldr	r3, [sp]
 961 0018 591C     		adds	r1, r3, #1
 962 001a 0091     		str	r1, [sp]
 963 001c 1B78     		ldrb	r3, [r3]	@ zero_extendqisi2
 964 001e 9A42     		cmp	r2, r3
 965 0020 04D0     		beq	.L57
 966              		.loc 5 179 0
 967 0022 0198     		ldr	r0, [sp, #4]
 968 0024 FFF7FEFF 		bl	_test_fail
 969 0028 0346     		mov	r3, r0
 970 002a 10E0     		b	.L58
 971              	.L57:
 972              		.loc 5 177 0
 973 002c 0B4B     		ldr	r3, .L61+4
 974 002e 1B68     		ldr	r3, [r3]
 975 0030 039A     		ldr	r2, [sp, #12]
 976 0032 9A42     		cmp	r2, r3
 977 0034 EBD3     		bcc	.L59
 978              		.loc 5 181 0
 979 0036 009B     		ldr	r3, [sp]
 980 0038 1B78     		ldrb	r3, [r3]	@ zero_extendqisi2
 981 003a 002B     		cmp	r3, #0
 982 003c 04D0     		beq	.L60
 983              		.loc 5 182 0
 984 003e 0198     		ldr	r0, [sp, #4]
 985 0040 FFF7FEFF 		bl	_test_fail
 986 0044 0346     		mov	r3, r0
 987 0046 02E0     		b	.L58
 988              	.L60:
 989              		.loc 5 183 0
 990 0048 FFF7FEFF 		bl	clear_tokens
 991              		.loc 5 184 0
 992 004c 0023     		movs	r3, #0
 993              	.L58:
 994              		.loc 5 185 0
 995 004e 1846     		mov	r0, r3
 996 0050 05B0     		add	sp, sp, #20
 997              		.cfi_def_cfa_offset 4
 998              		@ sp needed
 999 0052 5DF804FB 		ldr	pc, [sp], #4
 1000              	.L62:
 1001 0056 00BF     		.align	2
 1002              	.L61:
ARM GAS  /tmp/cc0QnwBB.s 			page 19


 1003 0058 00000000 		.word	tokens_buffer
 1004 005c 00000000 		.word	tokp
 1005              		.cfi_endproc
 1006              	.LFE261:
 1007              		.size	_test_assert_sequence, .-_test_assert_sequence
 1008              		.section	.text._test_assert_time_window,"ax",%progbits
 1009              		.align	2
 1010              		.p2align 4,,15
 1011              		.global	_test_assert_time_window
 1012              		.thumb
 1013              		.thumb_func
 1014              		.type	_test_assert_time_window, %function
 1015              	_test_assert_time_window:
 1016              	.LFB262:
 1017              		.loc 5 187 0
 1018              		.cfi_startproc
 1019              		@ args = 0, pretend = 0, frame = 16
 1020              		@ frame_needed = 0, uses_anonymous_args = 0
 1021 0000 00B5     		push	{lr}
 1022              		.cfi_def_cfa_offset 4
 1023              		.cfi_offset 14, -4
 1024 0002 85B0     		sub	sp, sp, #20
 1025              		.cfi_def_cfa_offset 24
 1026 0004 0390     		str	r0, [sp, #12]
 1027 0006 0291     		str	r1, [sp, #8]
 1028 0008 0192     		str	r2, [sp, #4]
 1029              		.loc 5 189 0
 1030 000a 0298     		ldr	r0, [sp, #8]
 1031 000c 0199     		ldr	r1, [sp, #4]
 1032 000e FFF7FEFF 		bl	chVTIsSystemTimeWithin
 1033 0012 0346     		mov	r3, r0
 1034 0014 0398     		ldr	r0, [sp, #12]
 1035 0016 1946     		mov	r1, r3
 1036 0018 FFF7FEFF 		bl	_test_assert
 1037 001c 0346     		mov	r3, r0
 1038              		.loc 5 190 0
 1039 001e 1846     		mov	r0, r3
 1040 0020 05B0     		add	sp, sp, #20
 1041              		.cfi_def_cfa_offset 4
 1042              		@ sp needed
 1043 0022 5DF804FB 		ldr	pc, [sp], #4
 1044              		.cfi_endproc
 1045              	.LFE262:
 1046              		.size	_test_assert_time_window, .-_test_assert_time_window
 1047 0026 00BFAFF3 		.section	.text.test_terminate_threads,"ax",%progbits
 1047      0080AFF3 
 1047      0080
 1048              		.align	2
 1049              		.p2align 4,,15
 1050              		.global	test_terminate_threads
 1051              		.thumb
 1052              		.thumb_func
 1053              		.type	test_terminate_threads, %function
 1054              	test_terminate_threads:
 1055              	.LFB263:
 1056              		.loc 5 199 0
 1057              		.cfi_startproc
ARM GAS  /tmp/cc0QnwBB.s 			page 20


 1058              		@ args = 0, pretend = 0, frame = 8
 1059              		@ frame_needed = 0, uses_anonymous_args = 0
 1060 0000 00B5     		push	{lr}
 1061              		.cfi_def_cfa_offset 4
 1062              		.cfi_offset 14, -4
 1063 0002 83B0     		sub	sp, sp, #12
 1064              		.cfi_def_cfa_offset 16
 1065              		.loc 5 202 0
 1066 0004 0023     		movs	r3, #0
 1067 0006 0193     		str	r3, [sp, #4]
 1068 0008 0FE0     		b	.L66
 1069              	.L68:
 1070              		.loc 5 203 0
 1071 000a 0B4A     		ldr	r2, .L69
 1072 000c 019B     		ldr	r3, [sp, #4]
 1073 000e 52F82330 		ldr	r3, [r2, r3, lsl #2]
 1074 0012 002B     		cmp	r3, #0
 1075 0014 06D0     		beq	.L67
 1076              		.loc 5 204 0
 1077 0016 084A     		ldr	r2, .L69
 1078 0018 019B     		ldr	r3, [sp, #4]
 1079 001a 52F82330 		ldr	r3, [r2, r3, lsl #2]
 1080 001e 1846     		mov	r0, r3
 1081 0020 FFF7FEFF 		bl	chThdTerminate
 1082              	.L67:
 1083              		.loc 5 202 0 discriminator 2
 1084 0024 019B     		ldr	r3, [sp, #4]
 1085 0026 0133     		adds	r3, r3, #1
 1086 0028 0193     		str	r3, [sp, #4]
 1087              	.L66:
 1088              		.loc 5 202 0 is_stmt 0 discriminator 1
 1089 002a 019B     		ldr	r3, [sp, #4]
 1090 002c 042B     		cmp	r3, #4
 1091 002e ECDD     		ble	.L68
 1092              		.loc 5 205 0 is_stmt 1
 1093 0030 03B0     		add	sp, sp, #12
 1094              		.cfi_def_cfa_offset 4
 1095              		@ sp needed
 1096 0032 5DF804FB 		ldr	pc, [sp], #4
 1097              	.L70:
 1098 0036 00BF     		.align	2
 1099              	.L69:
 1100 0038 00000000 		.word	threads
 1101              		.cfi_endproc
 1102              	.LFE263:
 1103              		.size	test_terminate_threads, .-test_terminate_threads
 1104 003c AFF30080 		.section	.text.test_wait_threads,"ax",%progbits
 1105              		.align	2
 1106              		.p2align 4,,15
 1107              		.global	test_wait_threads
 1108              		.thumb
 1109              		.thumb_func
 1110              		.type	test_wait_threads, %function
 1111              	test_wait_threads:
 1112              	.LFB264:
 1113              		.loc 5 210 0
 1114              		.cfi_startproc
ARM GAS  /tmp/cc0QnwBB.s 			page 21


 1115              		@ args = 0, pretend = 0, frame = 8
 1116              		@ frame_needed = 0, uses_anonymous_args = 0
 1117 0000 00B5     		push	{lr}
 1118              		.cfi_def_cfa_offset 4
 1119              		.cfi_offset 14, -4
 1120 0002 83B0     		sub	sp, sp, #12
 1121              		.cfi_def_cfa_offset 16
 1122              		.loc 5 213 0
 1123 0004 0023     		movs	r3, #0
 1124 0006 0193     		str	r3, [sp, #4]
 1125 0008 14E0     		b	.L72
 1126              	.L74:
 1127              		.loc 5 214 0
 1128 000a 0D4A     		ldr	r2, .L75
 1129 000c 019B     		ldr	r3, [sp, #4]
 1130 000e 52F82330 		ldr	r3, [r2, r3, lsl #2]
 1131 0012 002B     		cmp	r3, #0
 1132 0014 0BD0     		beq	.L73
 1133              		.loc 5 215 0
 1134 0016 0A4A     		ldr	r2, .L75
 1135 0018 019B     		ldr	r3, [sp, #4]
 1136 001a 52F82330 		ldr	r3, [r2, r3, lsl #2]
 1137 001e 1846     		mov	r0, r3
 1138 0020 FFF7FEFF 		bl	chThdWait
 1139              		.loc 5 216 0
 1140 0024 064A     		ldr	r2, .L75
 1141 0026 019B     		ldr	r3, [sp, #4]
 1142 0028 0021     		movs	r1, #0
 1143 002a 42F82310 		str	r1, [r2, r3, lsl #2]
 1144              	.L73:
 1145              		.loc 5 213 0 discriminator 2
 1146 002e 019B     		ldr	r3, [sp, #4]
 1147 0030 0133     		adds	r3, r3, #1
 1148 0032 0193     		str	r3, [sp, #4]
 1149              	.L72:
 1150              		.loc 5 213 0 is_stmt 0 discriminator 1
 1151 0034 019B     		ldr	r3, [sp, #4]
 1152 0036 042B     		cmp	r3, #4
 1153 0038 E7DD     		ble	.L74
 1154              		.loc 5 218 0 is_stmt 1
 1155 003a 03B0     		add	sp, sp, #12
 1156              		.cfi_def_cfa_offset 4
 1157              		@ sp needed
 1158 003c 5DF804FB 		ldr	pc, [sp], #4
 1159              	.L76:
 1160              		.align	2
 1161              	.L75:
 1162 0040 00000000 		.word	threads
 1163              		.cfi_endproc
 1164              	.LFE264:
 1165              		.size	test_wait_threads, .-test_wait_threads
 1166 0044 AFF30080 		.section	.text.test_wait_tick,"ax",%progbits
 1166      AFF30080 
 1166      AFF30080 
 1167              		.align	2
 1168              		.p2align 4,,15
 1169              		.global	test_wait_tick
ARM GAS  /tmp/cc0QnwBB.s 			page 22


 1170              		.thumb
 1171              		.thumb_func
 1172              		.type	test_wait_tick, %function
 1173              	test_wait_tick:
 1174              	.LFB265:
 1175              		.loc 5 248 0
 1176              		.cfi_startproc
 1177              		@ args = 0, pretend = 0, frame = 0
 1178              		@ frame_needed = 0, uses_anonymous_args = 0
 1179 0000 08B5     		push	{r3, lr}
 1180              		.cfi_def_cfa_offset 8
 1181              		.cfi_offset 3, -8
 1182              		.cfi_offset 14, -4
 1183              		.loc 5 250 0
 1184 0002 0120     		movs	r0, #1
 1185 0004 FFF7FEFF 		bl	chThdSleep
 1186              		.loc 5 251 0
 1187 0008 FFF7FEFF 		bl	chVTGetSystemTime
 1188 000c 0346     		mov	r3, r0
 1189              		.loc 5 252 0
 1190 000e 1846     		mov	r0, r3
 1191 0010 08BD     		pop	{r3, pc}
 1192              		.cfi_endproc
 1193              	.LFE265:
 1194              		.size	test_wait_tick, .-test_wait_tick
 1195              		.global	test_timer_done
 1196 0012 00BFAFF3 		.section	.bss.test_timer_done,"aw",%nobits
 1196      0080AFF3 
 1196      0080AFF3 
 1196      0080
 1197              		.type	test_timer_done, %object
 1198              		.size	test_timer_done, 1
 1199              	test_timer_done:
 1200 0000 00       		.space	1
 1201              		.section	.bss.vt,"aw",%nobits
 1202              		.align	2
 1203              		.type	vt, %object
 1204              		.size	vt, 20
 1205              	vt:
 1206 0000 00000000 		.space	20
 1206      00000000 
 1206      00000000 
 1206      00000000 
 1206      00000000 
 1207              		.section	.text.tmr,"ax",%progbits
 1208              		.align	2
 1209              		.p2align 4,,15
 1210              		.thumb
 1211              		.thumb_func
 1212              		.type	tmr, %function
 1213              	tmr:
 1214              	.LFB266:
 1215              		.loc 5 264 0
 1216              		.cfi_startproc
 1217              		@ args = 0, pretend = 0, frame = 8
 1218              		@ frame_needed = 0, uses_anonymous_args = 0
 1219              		@ link register save eliminated.
ARM GAS  /tmp/cc0QnwBB.s 			page 23


 1220 0000 82B0     		sub	sp, sp, #8
 1221              		.cfi_def_cfa_offset 8
 1222 0002 0190     		str	r0, [sp, #4]
 1223              		.loc 5 267 0
 1224 0004 024B     		ldr	r3, .L80
 1225 0006 0122     		movs	r2, #1
 1226 0008 1A70     		strb	r2, [r3]
 1227              		.loc 5 268 0
 1228 000a 02B0     		add	sp, sp, #8
 1229              		.cfi_def_cfa_offset 0
 1230              		@ sp needed
 1231 000c 7047     		bx	lr
 1232              	.L81:
 1233 000e 00BF     		.align	2
 1234              	.L80:
 1235 0010 00000000 		.word	test_timer_done
 1236              		.cfi_endproc
 1237              	.LFE266:
 1238              		.size	tmr, .-tmr
 1239 0014 AFF30080 		.section	.text.test_start_timer,"ax",%progbits
 1239      AFF30080 
 1239      AFF30080 
 1240              		.align	2
 1241              		.p2align 4,,15
 1242              		.global	test_start_timer
 1243              		.thumb
 1244              		.thumb_func
 1245              		.type	test_start_timer, %function
 1246              	test_start_timer:
 1247              	.LFB267:
 1248              		.loc 5 275 0
 1249              		.cfi_startproc
 1250              		@ args = 0, pretend = 0, frame = 16
 1251              		@ frame_needed = 0, uses_anonymous_args = 0
 1252 0000 00B5     		push	{lr}
 1253              		.cfi_def_cfa_offset 4
 1254              		.cfi_offset 14, -4
 1255 0002 85B0     		sub	sp, sp, #20
 1256              		.cfi_def_cfa_offset 24
 1257 0004 0190     		str	r0, [sp, #4]
 1258              		.loc 5 277 0
 1259 0006 019B     		ldr	r3, [sp, #4]
 1260 0008 4FF47A72 		mov	r2, #1000
 1261 000c 02FB03F3 		mul	r3, r2, r3
 1262 0010 03F2E733 		addw	r3, r3, #999
 1263 0014 084A     		ldr	r2, .L83
 1264 0016 A2FB0323 		umull	r2, r3, r2, r3
 1265 001a 9B09     		lsrs	r3, r3, #6
 1266 001c 0393     		str	r3, [sp, #12]
 1267              		.loc 5 278 0
 1268 001e 074B     		ldr	r3, .L83+4
 1269 0020 0022     		movs	r2, #0
 1270 0022 1A70     		strb	r2, [r3]
 1271              		.loc 5 279 0
 1272 0024 0648     		ldr	r0, .L83+8
 1273 0026 0399     		ldr	r1, [sp, #12]
 1274 0028 064A     		ldr	r2, .L83+12
ARM GAS  /tmp/cc0QnwBB.s 			page 24


 1275 002a 0023     		movs	r3, #0
 1276 002c FFF7FEFF 		bl	chVTSet
 1277              		.loc 5 280 0
 1278 0030 05B0     		add	sp, sp, #20
 1279              		.cfi_def_cfa_offset 4
 1280              		@ sp needed
 1281 0032 5DF804FB 		ldr	pc, [sp], #4
 1282              	.L84:
 1283 0036 00BF     		.align	2
 1284              	.L83:
 1285 0038 D34D6210 		.word	274877907
 1286 003c 00000000 		.word	test_timer_done
 1287 0040 00000000 		.word	vt
 1288 0044 00000000 		.word	tmr
 1289              		.cfi_endproc
 1290              	.LFE267:
 1291              		.size	test_start_timer, .-test_start_timer
 1292 0048 AFF30080 		.section	.text.execute_test,"ax",%progbits
 1292      AFF30080 
 1293              		.align	2
 1294              		.p2align 4,,15
 1295              		.thumb
 1296              		.thumb_func
 1297              		.type	execute_test, %function
 1298              	execute_test:
 1299              	.LFB268:
 1300              		.loc 5 285 0
 1301              		.cfi_startproc
 1302              		@ args = 0, pretend = 0, frame = 16
 1303              		@ frame_needed = 0, uses_anonymous_args = 0
 1304 0000 00B5     		push	{lr}
 1305              		.cfi_def_cfa_offset 4
 1306              		.cfi_offset 14, -4
 1307 0002 85B0     		sub	sp, sp, #20
 1308              		.cfi_def_cfa_offset 24
 1309 0004 0190     		str	r0, [sp, #4]
 1310              		.loc 5 289 0
 1311 0006 FFF7FEFF 		bl	clear_tokens
 1312              		.loc 5 290 0
 1313 000a 134B     		ldr	r3, .L90
 1314 000c 0022     		movs	r2, #0
 1315 000e 1A70     		strb	r2, [r3]
 1316              		.loc 5 291 0
 1317 0010 0023     		movs	r3, #0
 1318 0012 0393     		str	r3, [sp, #12]
 1319 0014 07E0     		b	.L86
 1320              	.L87:
 1321              		.loc 5 292 0 discriminator 3
 1322 0016 114A     		ldr	r2, .L90+4
 1323 0018 039B     		ldr	r3, [sp, #12]
 1324 001a 0021     		movs	r1, #0
 1325 001c 42F82310 		str	r1, [r2, r3, lsl #2]
 1326              		.loc 5 291 0 discriminator 3
 1327 0020 039B     		ldr	r3, [sp, #12]
 1328 0022 0133     		adds	r3, r3, #1
 1329 0024 0393     		str	r3, [sp, #12]
 1330              	.L86:
ARM GAS  /tmp/cc0QnwBB.s 			page 25


 1331              		.loc 5 291 0 is_stmt 0 discriminator 1
 1332 0026 039B     		ldr	r3, [sp, #12]
 1333 0028 042B     		cmp	r3, #4
 1334 002a F4DD     		ble	.L87
 1335              		.loc 5 294 0 is_stmt 1
 1336 002c 019B     		ldr	r3, [sp, #4]
 1337 002e 5B68     		ldr	r3, [r3, #4]
 1338 0030 002B     		cmp	r3, #0
 1339 0032 02D0     		beq	.L88
 1340              		.loc 5 295 0
 1341 0034 019B     		ldr	r3, [sp, #4]
 1342 0036 5B68     		ldr	r3, [r3, #4]
 1343 0038 9847     		blx	r3
 1344              	.L88:
 1345              		.loc 5 296 0
 1346 003a 019B     		ldr	r3, [sp, #4]
 1347 003c DB68     		ldr	r3, [r3, #12]
 1348 003e 9847     		blx	r3
 1349              		.loc 5 297 0
 1350 0040 019B     		ldr	r3, [sp, #4]
 1351 0042 9B68     		ldr	r3, [r3, #8]
 1352 0044 002B     		cmp	r3, #0
 1353 0046 02D0     		beq	.L89
 1354              		.loc 5 298 0
 1355 0048 019B     		ldr	r3, [sp, #4]
 1356 004a 9B68     		ldr	r3, [r3, #8]
 1357 004c 9847     		blx	r3
 1358              	.L89:
 1359              		.loc 5 300 0
 1360 004e FFF7FEFF 		bl	test_wait_threads
 1361              		.loc 5 301 0
 1362 0052 05B0     		add	sp, sp, #20
 1363              		.cfi_def_cfa_offset 4
 1364              		@ sp needed
 1365 0054 5DF804FB 		ldr	pc, [sp], #4
 1366              	.L91:
 1367              		.align	2
 1368              	.L90:
 1369 0058 00000000 		.word	local_fail
 1370 005c 00000000 		.word	threads
 1371              		.cfi_endproc
 1372              	.LFE268:
 1373              		.size	execute_test, .-execute_test
 1374              		.section	.text.print_line,"ax",%progbits
 1375              		.align	2
 1376              		.p2align 4,,15
 1377              		.thumb
 1378              		.thumb_func
 1379              		.type	print_line, %function
 1380              	print_line:
 1381              	.LFB269:
 1382              		.loc 5 303 0
 1383              		.cfi_startproc
 1384              		@ args = 0, pretend = 0, frame = 8
 1385              		@ frame_needed = 0, uses_anonymous_args = 0
 1386 0000 00B5     		push	{lr}
 1387              		.cfi_def_cfa_offset 4
ARM GAS  /tmp/cc0QnwBB.s 			page 26


 1388              		.cfi_offset 14, -4
 1389 0002 83B0     		sub	sp, sp, #12
 1390              		.cfi_def_cfa_offset 16
 1391              		.loc 5 306 0
 1392 0004 0023     		movs	r3, #0
 1393 0006 0193     		str	r3, [sp, #4]
 1394 0008 0BE0     		b	.L93
 1395              	.L94:
 1396              		.loc 5 307 0 discriminator 3
 1397 000a 0E4B     		ldr	r3, .L95
 1398 000c 1B68     		ldr	r3, [r3]
 1399 000e 1B68     		ldr	r3, [r3]
 1400 0010 9B68     		ldr	r3, [r3, #8]
 1401 0012 0C4A     		ldr	r2, .L95
 1402 0014 1268     		ldr	r2, [r2]
 1403 0016 1046     		mov	r0, r2
 1404 0018 2D21     		movs	r1, #45
 1405 001a 9847     		blx	r3
 1406              		.loc 5 306 0 discriminator 3
 1407 001c 019B     		ldr	r3, [sp, #4]
 1408 001e 0133     		adds	r3, r3, #1
 1409 0020 0193     		str	r3, [sp, #4]
 1410              	.L93:
 1411              		.loc 5 306 0 is_stmt 0 discriminator 1
 1412 0022 019B     		ldr	r3, [sp, #4]
 1413 0024 4B2B     		cmp	r3, #75
 1414 0026 F0D9     		bls	.L94
 1415              		.loc 5 308 0 is_stmt 1
 1416 0028 064B     		ldr	r3, .L95
 1417 002a 1B68     		ldr	r3, [r3]
 1418 002c 1B68     		ldr	r3, [r3]
 1419 002e 1B68     		ldr	r3, [r3]
 1420 0030 044A     		ldr	r2, .L95
 1421 0032 1268     		ldr	r2, [r2]
 1422 0034 1046     		mov	r0, r2
 1423 0036 0449     		ldr	r1, .L95+4
 1424 0038 0222     		movs	r2, #2
 1425 003a 9847     		blx	r3
 1426              		.loc 5 309 0
 1427 003c 03B0     		add	sp, sp, #12
 1428              		.cfi_def_cfa_offset 4
 1429              		@ sp needed
 1430 003e 5DF804FB 		ldr	pc, [sp], #4
 1431              	.L96:
 1432 0042 00BF     		.align	2
 1433              	.L95:
 1434 0044 00000000 		.word	chp
 1435 0048 00000000 		.word	.LC0
 1436              		.cfi_endproc
 1437              	.LFE269:
 1438              		.size	print_line, .-print_line
 1439 004c AFF30080 		.section	.rodata
 1440 0003 00       		.align	2
 1441              	.LC1:
 1442 0004 00       		.ascii	"\000"
 1443 0005 000000   		.align	2
 1444              	.LC2:
ARM GAS  /tmp/cc0QnwBB.s 			page 27


 1445 0008 2A2A2A20 		.ascii	"*** ChibiOS/RT test suite\000"
 1445      43686962 
 1445      694F532F 
 1445      52542074 
 1445      65737420 
 1446 0022 0000     		.align	2
 1447              	.LC3:
 1448 0024 2A2A2A00 		.ascii	"***\000"
 1449              		.align	2
 1450              	.LC4:
 1451 0028 2A2A2A20 		.ascii	"*** Kernel:       \000"
 1451      4B65726E 
 1451      656C3A20 
 1451      20202020 
 1451      202000
 1452 003b 00       		.align	2
 1453              	.LC5:
 1454 003c 332E302E 		.ascii	"3.0.0p6\000"
 1454      30703600 
 1455              		.align	2
 1456              	.LC6:
 1457 0044 2A2A2A20 		.ascii	"*** Compiled:     \000"
 1457      436F6D70 
 1457      696C6564 
 1457      3A202020 
 1457      202000
 1458 0057 00       		.align	2
 1459              	.LC7:
 1460 0058 4A756E20 		.ascii	"Jun  8 2015 - 21:07:19\000"
 1460      20382032 
 1460      30313520 
 1460      2D203231 
 1460      3A30373A 
 1461 006f 00       		.align	2
 1462              	.LC8:
 1463 0070 2A2A2A20 		.ascii	"*** Compiler:     \000"
 1463      436F6D70 
 1463      696C6572 
 1463      3A202020 
 1463      202000
 1464 0083 00       		.align	2
 1465              	.LC9:
 1466 0084 47434320 		.ascii	"GCC 4.9.3 20150303 (release) [ARM/embedded-4_9-bran"
 1466      342E392E 
 1466      33203230 
 1466      31353033 
 1466      30332028 
 1467 00b7 63682072 		.ascii	"ch revision 221220]\000"
 1467      65766973 
 1467      696F6E20 
 1467      32323132 
 1467      32305D00 
 1468 00cb 00       		.align	2
 1469              	.LC10:
 1470 00cc 2A2A2A20 		.ascii	"*** Architecture: \000"
 1470      41726368 
 1470      69746563 
ARM GAS  /tmp/cc0QnwBB.s 			page 28


 1470      74757265 
 1470      3A2000
 1471 00df 00       		.align	2
 1472              	.LC11:
 1473 00e0 41524D76 		.ascii	"ARMv7-ME\000"
 1473      372D4D45 
 1473      00
 1474 00e9 000000   		.align	2
 1475              	.LC12:
 1476 00ec 2A2A2A20 		.ascii	"*** Core Variant: \000"
 1476      436F7265 
 1476      20566172 
 1476      69616E74 
 1476      3A2000
 1477 00ff 00       		.align	2
 1478              	.LC13:
 1479 0100 436F7274 		.ascii	"Cortex-M4F\000"
 1479      65782D4D 
 1479      344600
 1480 010b 00       		.align	2
 1481              	.LC14:
 1482 010c 2A2A2A20 		.ascii	"*** Port Info:    \000"
 1482      506F7274 
 1482      20496E66 
 1482      6F3A2020 
 1482      202000
 1483 011f 00       		.align	2
 1484              	.LC15:
 1485 0120 41647661 		.ascii	"Advanced kernel mode\000"
 1485      6E636564 
 1485      206B6572 
 1485      6E656C20 
 1485      6D6F6465 
 1486 0135 000000   		.align	2
 1487              	.LC16:
 1488 0138 2A2A2A20 		.ascii	"*** Platform:     \000"
 1488      506C6174 
 1488      666F726D 
 1488      3A202020 
 1488      202000
 1489 014b 00       		.align	2
 1490              	.LC17:
 1491 014c 53544D33 		.ascii	"STM32F407 High Performance with DSP and FPU\000"
 1491      32463430 
 1491      37204869 
 1491      67682050 
 1491      6572666F 
 1492              		.align	2
 1493              	.LC18:
 1494 0178 2A2A2A20 		.ascii	"*** Test Board:   \000"
 1494      54657374 
 1494      20426F61 
 1494      72643A20 
 1494      202000
 1495 018b 00       		.align	2
 1496              	.LC19:
 1497 018c 53544D69 		.ascii	"STMicroelectronics STM32F4-Discovery\000"
ARM GAS  /tmp/cc0QnwBB.s 			page 29


 1497      63726F65 
 1497      6C656374 
 1497      726F6E69 
 1497      63732053 
 1498 01b1 000000   		.align	2
 1499              	.LC20:
 1500 01b4 2D2D2D20 		.ascii	"--- Test Case \000"
 1500      54657374 
 1500      20436173 
 1500      652000
 1501 01c3 00       		.align	2
 1502              	.LC21:
 1503 01c4 2E00     		.ascii	".\000"
 1504 01c6 0000     		.align	2
 1505              	.LC22:
 1506 01c8 202800   		.ascii	" (\000"
 1507 01cb 00       		.align	2
 1508              	.LC23:
 1509 01cc 2900     		.ascii	")\000"
 1510 01ce 0000     		.align	2
 1511              	.LC24:
 1512 01d0 2D2D2D20 		.ascii	"--- Result: FAILURE (#\000"
 1512      52657375 
 1512      6C743A20 
 1512      4641494C 
 1512      55524520 
 1513 01e7 00       		.align	2
 1514              	.LC25:
 1515 01e8 205B00   		.ascii	" [\000"
 1516 01eb 00       		.align	2
 1517              	.LC26:
 1518 01ec 5D2900   		.ascii	"])\000"
 1519 01ef 00       		.align	2
 1520              	.LC27:
 1521 01f0 2D2D2D20 		.ascii	"--- Result: SUCCESS\000"
 1521      52657375 
 1521      6C743A20 
 1521      53554343 
 1521      45535300 
 1522              		.align	2
 1523              	.LC28:
 1524 0204 46696E61 		.ascii	"Final result: \000"
 1524      6C207265 
 1524      73756C74 
 1524      3A2000
 1525 0213 00       		.align	2
 1526              	.LC29:
 1527 0214 4641494C 		.ascii	"FAILURE\000"
 1527      55524500 
 1528              		.align	2
 1529              	.LC30:
 1530 021c 53554343 		.ascii	"SUCCESS\000"
 1530      45535300 
 1531              		.section	.text.TestThread,"ax",%progbits
 1532              		.align	2
 1533              		.p2align 4,,15
 1534              		.global	TestThread
ARM GAS  /tmp/cc0QnwBB.s 			page 30


 1535              		.thumb
 1536              		.thumb_func
 1537              		.type	TestThread, %function
 1538              	TestThread:
 1539              	.LFB270:
 1540              		.loc 5 316 0
 1541              		.cfi_startproc
 1542              		@ args = 0, pretend = 0, frame = 16
 1543              		@ frame_needed = 0, uses_anonymous_args = 0
 1544 0000 00B5     		push	{lr}
 1545              		.cfi_def_cfa_offset 4
 1546              		.cfi_offset 14, -4
 1547 0002 85B0     		sub	sp, sp, #20
 1548              		.cfi_def_cfa_offset 24
 1549 0004 0190     		str	r0, [sp, #4]
 1550              		.loc 5 319 0
 1551 0006 5F4A     		ldr	r2, .L106
 1552 0008 019B     		ldr	r3, [sp, #4]
 1553 000a 1360     		str	r3, [r2]
 1554              		.loc 5 320 0
 1555 000c 5E48     		ldr	r0, .L106+4
 1556 000e FFF7FEFF 		bl	test_println
 1557              		.loc 5 321 0
 1558 0012 5E48     		ldr	r0, .L106+8
 1559 0014 FFF7FEFF 		bl	test_println
 1560              		.loc 5 322 0
 1561 0018 5D48     		ldr	r0, .L106+12
 1562 001a FFF7FEFF 		bl	test_println
 1563              		.loc 5 323 0
 1564 001e 5D48     		ldr	r0, .L106+16
 1565 0020 FFF7FEFF 		bl	test_print
 1566              		.loc 5 324 0
 1567 0024 5C48     		ldr	r0, .L106+20
 1568 0026 FFF7FEFF 		bl	test_println
 1569              		.loc 5 325 0
 1570 002a 5C48     		ldr	r0, .L106+24
 1571 002c FFF7FEFF 		bl	test_print
 1572              		.loc 5 326 0
 1573 0030 5B48     		ldr	r0, .L106+28
 1574 0032 FFF7FEFF 		bl	test_println
 1575              		.loc 5 328 0
 1576 0036 5B48     		ldr	r0, .L106+32
 1577 0038 FFF7FEFF 		bl	test_print
 1578              		.loc 5 329 0
 1579 003c 5A48     		ldr	r0, .L106+36
 1580 003e FFF7FEFF 		bl	test_println
 1581              		.loc 5 331 0
 1582 0042 5A48     		ldr	r0, .L106+40
 1583 0044 FFF7FEFF 		bl	test_print
 1584              		.loc 5 332 0
 1585 0048 5948     		ldr	r0, .L106+44
 1586 004a FFF7FEFF 		bl	test_println
 1587              		.loc 5 334 0
 1588 004e 5948     		ldr	r0, .L106+48
 1589 0050 FFF7FEFF 		bl	test_print
 1590              		.loc 5 335 0
 1591 0054 5848     		ldr	r0, .L106+52
ARM GAS  /tmp/cc0QnwBB.s 			page 31


 1592 0056 FFF7FEFF 		bl	test_println
 1593              		.loc 5 338 0
 1594 005a 5848     		ldr	r0, .L106+56
 1595 005c FFF7FEFF 		bl	test_print
 1596              		.loc 5 339 0
 1597 0060 5748     		ldr	r0, .L106+60
 1598 0062 FFF7FEFF 		bl	test_println
 1599              		.loc 5 342 0
 1600 0066 5748     		ldr	r0, .L106+64
 1601 0068 FFF7FEFF 		bl	test_print
 1602              		.loc 5 343 0
 1603 006c 5648     		ldr	r0, .L106+68
 1604 006e FFF7FEFF 		bl	test_println
 1605              		.loc 5 346 0
 1606 0072 5648     		ldr	r0, .L106+72
 1607 0074 FFF7FEFF 		bl	test_print
 1608              		.loc 5 347 0
 1609 0078 5548     		ldr	r0, .L106+76
 1610 007a FFF7FEFF 		bl	test_println
 1611              		.loc 5 349 0
 1612 007e 4248     		ldr	r0, .L106+4
 1613 0080 FFF7FEFF 		bl	test_println
 1614              		.loc 5 351 0
 1615 0084 534B     		ldr	r3, .L106+80
 1616 0086 0022     		movs	r2, #0
 1617 0088 1A70     		strb	r2, [r3]
 1618              		.loc 5 352 0
 1619 008a 0023     		movs	r3, #0
 1620 008c 0393     		str	r3, [sp, #12]
 1621              		.loc 5 353 0
 1622 008e 5CE0     		b	.L98
 1623              	.L103:
 1624              		.loc 5 354 0
 1625 0090 0023     		movs	r3, #0
 1626 0092 0293     		str	r3, [sp, #8]
 1627              		.loc 5 355 0
 1628 0094 4CE0     		b	.L99
 1629              	.L102:
 1630              		.loc 5 356 0
 1631 0096 FFF7FEFF 		bl	print_line
 1632              		.loc 5 357 0
 1633 009a 4F48     		ldr	r0, .L106+84
 1634 009c FFF7FEFF 		bl	test_print
 1635              		.loc 5 358 0
 1636 00a0 039B     		ldr	r3, [sp, #12]
 1637 00a2 0133     		adds	r3, r3, #1
 1638 00a4 1846     		mov	r0, r3
 1639 00a6 FFF7FEFF 		bl	test_printn
 1640              		.loc 5 359 0
 1641 00aa 4C48     		ldr	r0, .L106+88
 1642 00ac FFF7FEFF 		bl	test_print
 1643              		.loc 5 360 0
 1644 00b0 029B     		ldr	r3, [sp, #8]
 1645 00b2 0133     		adds	r3, r3, #1
 1646 00b4 1846     		mov	r0, r3
 1647 00b6 FFF7FEFF 		bl	test_printn
 1648              		.loc 5 361 0
ARM GAS  /tmp/cc0QnwBB.s 			page 32


 1649 00ba 4948     		ldr	r0, .L106+92
 1650 00bc FFF7FEFF 		bl	test_print
 1651              		.loc 5 362 0
 1652 00c0 484A     		ldr	r2, .L106+96
 1653 00c2 039B     		ldr	r3, [sp, #12]
 1654 00c4 52F82320 		ldr	r2, [r2, r3, lsl #2]
 1655 00c8 029B     		ldr	r3, [sp, #8]
 1656 00ca 9B00     		lsls	r3, r3, #2
 1657 00cc 1344     		add	r3, r3, r2
 1658 00ce 1B68     		ldr	r3, [r3]
 1659 00d0 1B68     		ldr	r3, [r3]
 1660 00d2 1846     		mov	r0, r3
 1661 00d4 FFF7FEFF 		bl	test_print
 1662              		.loc 5 363 0
 1663 00d8 4348     		ldr	r0, .L106+100
 1664 00da FFF7FEFF 		bl	test_println
 1665              		.loc 5 365 0
 1666 00de C820     		movs	r0, #200
 1667 00e0 FFF7FEFF 		bl	chThdSleep
 1668              		.loc 5 367 0
 1669 00e4 3F4A     		ldr	r2, .L106+96
 1670 00e6 039B     		ldr	r3, [sp, #12]
 1671 00e8 52F82320 		ldr	r2, [r2, r3, lsl #2]
 1672 00ec 029B     		ldr	r3, [sp, #8]
 1673 00ee 9B00     		lsls	r3, r3, #2
 1674 00f0 1344     		add	r3, r3, r2
 1675 00f2 1B68     		ldr	r3, [r3]
 1676 00f4 1846     		mov	r0, r3
 1677 00f6 FFF7FEFF 		bl	execute_test
 1678              		.loc 5 368 0
 1679 00fa 3C4B     		ldr	r3, .L106+104
 1680 00fc 1B78     		ldrb	r3, [r3]	@ zero_extendqisi2
 1681 00fe 002B     		cmp	r3, #0
 1682 0100 10D0     		beq	.L100
 1683              		.loc 5 369 0
 1684 0102 3B48     		ldr	r0, .L106+108
 1685 0104 FFF7FEFF 		bl	test_print
 1686              		.loc 5 370 0
 1687 0108 3A4B     		ldr	r3, .L106+112
 1688 010a 1B68     		ldr	r3, [r3]
 1689 010c 1846     		mov	r0, r3
 1690 010e FFF7FEFF 		bl	test_printn
 1691              		.loc 5 371 0
 1692 0112 3948     		ldr	r0, .L106+116
 1693 0114 FFF7FEFF 		bl	test_print
 1694              		.loc 5 372 0
 1695 0118 FFF7FEFF 		bl	print_tokens
 1696              		.loc 5 373 0
 1697 011c 3748     		ldr	r0, .L106+120
 1698 011e FFF7FEFF 		bl	test_println
 1699 0122 02E0     		b	.L101
 1700              	.L100:
 1701              		.loc 5 376 0
 1702 0124 3648     		ldr	r0, .L106+124
 1703 0126 FFF7FEFF 		bl	test_println
 1704              	.L101:
 1705              		.loc 5 377 0
ARM GAS  /tmp/cc0QnwBB.s 			page 33


 1706 012a 029B     		ldr	r3, [sp, #8]
 1707 012c 0133     		adds	r3, r3, #1
 1708 012e 0293     		str	r3, [sp, #8]
 1709              	.L99:
 1710              		.loc 5 355 0
 1711 0130 2C4A     		ldr	r2, .L106+96
 1712 0132 039B     		ldr	r3, [sp, #12]
 1713 0134 52F82320 		ldr	r2, [r2, r3, lsl #2]
 1714 0138 029B     		ldr	r3, [sp, #8]
 1715 013a 9B00     		lsls	r3, r3, #2
 1716 013c 1344     		add	r3, r3, r2
 1717 013e 1B68     		ldr	r3, [r3]
 1718 0140 002B     		cmp	r3, #0
 1719 0142 A8D1     		bne	.L102
 1720              		.loc 5 379 0
 1721 0144 039B     		ldr	r3, [sp, #12]
 1722 0146 0133     		adds	r3, r3, #1
 1723 0148 0393     		str	r3, [sp, #12]
 1724              	.L98:
 1725              		.loc 5 353 0
 1726 014a 264A     		ldr	r2, .L106+96
 1727 014c 039B     		ldr	r3, [sp, #12]
 1728 014e 52F82330 		ldr	r3, [r2, r3, lsl #2]
 1729 0152 002B     		cmp	r3, #0
 1730 0154 9CD1     		bne	.L103
 1731              		.loc 5 381 0
 1732 0156 FFF7FEFF 		bl	print_line
 1733              		.loc 5 382 0
 1734 015a 0B48     		ldr	r0, .L106+4
 1735 015c FFF7FEFF 		bl	test_println
 1736              		.loc 5 383 0
 1737 0160 2848     		ldr	r0, .L106+128
 1738 0162 FFF7FEFF 		bl	test_print
 1739              		.loc 5 384 0
 1740 0166 1B4B     		ldr	r3, .L106+80
 1741 0168 1B78     		ldrb	r3, [r3]	@ zero_extendqisi2
 1742 016a 002B     		cmp	r3, #0
 1743 016c 03D0     		beq	.L104
 1744              		.loc 5 385 0
 1745 016e 2648     		ldr	r0, .L106+132
 1746 0170 FFF7FEFF 		bl	test_println
 1747 0174 02E0     		b	.L97
 1748              	.L104:
 1749              		.loc 5 387 0
 1750 0176 2548     		ldr	r0, .L106+136
 1751 0178 FFF7FEFF 		bl	test_println
 1752              	.L97:
 1753              		.loc 5 388 0
 1754 017c 05B0     		add	sp, sp, #20
 1755              		.cfi_def_cfa_offset 4
 1756              		@ sp needed
 1757 017e 5DF804FB 		ldr	pc, [sp], #4
 1758              	.L107:
 1759 0182 00BF     		.align	2
 1760              	.L106:
 1761 0184 00000000 		.word	chp
 1762 0188 04000000 		.word	.LC1
ARM GAS  /tmp/cc0QnwBB.s 			page 34


 1763 018c 08000000 		.word	.LC2
 1764 0190 24000000 		.word	.LC3
 1765 0194 28000000 		.word	.LC4
 1766 0198 3C000000 		.word	.LC5
 1767 019c 44000000 		.word	.LC6
 1768 01a0 58000000 		.word	.LC7
 1769 01a4 70000000 		.word	.LC8
 1770 01a8 84000000 		.word	.LC9
 1771 01ac CC000000 		.word	.LC10
 1772 01b0 E0000000 		.word	.LC11
 1773 01b4 EC000000 		.word	.LC12
 1774 01b8 00010000 		.word	.LC13
 1775 01bc 0C010000 		.word	.LC14
 1776 01c0 20010000 		.word	.LC15
 1777 01c4 38010000 		.word	.LC16
 1778 01c8 4C010000 		.word	.LC17
 1779 01cc 78010000 		.word	.LC18
 1780 01d0 8C010000 		.word	.LC19
 1781 01d4 00000000 		.word	test_global_fail
 1782 01d8 B4010000 		.word	.LC20
 1783 01dc C4010000 		.word	.LC21
 1784 01e0 C8010000 		.word	.LC22
 1785 01e4 00000000 		.word	patterns
 1786 01e8 CC010000 		.word	.LC23
 1787 01ec 00000000 		.word	local_fail
 1788 01f0 D0010000 		.word	.LC24
 1789 01f4 00000000 		.word	failpoint
 1790 01f8 E8010000 		.word	.LC25
 1791 01fc EC010000 		.word	.LC26
 1792 0200 F0010000 		.word	.LC27
 1793 0204 04020000 		.word	.LC28
 1794 0208 14020000 		.word	.LC29
 1795 020c 1C020000 		.word	.LC30
 1796              		.cfi_endproc
 1797              	.LFE270:
 1798              		.size	TestThread, .-TestThread
 1799              		.text
 1800              	.Letext0:
 1801              		.file 6 "/opt/gcc-arm-none-eabi/lib/gcc/arm-none-eabi/4.9.3/include/stddef.h"
 1802              		.file 7 "/opt/gcc-arm-none-eabi/arm-none-eabi/include/machine/_default_types.h"
 1803              		.file 8 "/opt/gcc-arm-none-eabi/arm-none-eabi/include/stdint.h"
 1804              		.file 9 "/home/makkmarci/workspace/CLEAN/ChibiOS/os/rt/ports/ARMCMx/compilers/GCC/chtypes.h"
 1805              		.file 10 "/home/makkmarci/workspace/CLEAN/ChibiOS/os/rt/include/chsystypes.h"
 1806              		.file 11 "/home/makkmarci/workspace/CLEAN/ChibiOS/os/rt/include/chschd.h"
 1807              		.file 12 "/home/makkmarci/workspace/CLEAN/ChibiOS/os/rt/ports/ARMCMx/chcore.h"
 1808              		.file 13 "/home/makkmarci/workspace/CLEAN/ChibiOS/os/rt/include/chtm.h"
 1809              		.file 14 "/home/makkmarci/workspace/CLEAN/ChibiOS/os/rt/include/chsem.h"
 1810              		.file 15 "/home/makkmarci/workspace/CLEAN/ChibiOS/os/rt/include/chmtx.h"
 1811              		.file 16 "/home/makkmarci/workspace/CLEAN/ChibiOS/os/rt/include/chstreams.h"
 1812              		.file 17 "/home/makkmarci/workspace/CLEAN/ChibiOS/test/rt/test.h"
 1813              		.file 18 "/home/makkmarci/workspace/CLEAN/ChibiOS/os/ext/CMSIS/include/core_cm4.h"
 1814              		.file 19 "/home/makkmarci/workspace/CLEAN/ChibiOS/test/rt/testsys.h"
 1815              		.file 20 "/home/makkmarci/workspace/CLEAN/ChibiOS/test/rt/testthd.h"
 1816              		.file 21 "/home/makkmarci/workspace/CLEAN/ChibiOS/test/rt/testsem.h"
 1817              		.file 22 "/home/makkmarci/workspace/CLEAN/ChibiOS/test/rt/testmtx.h"
 1818              		.file 23 "/home/makkmarci/workspace/CLEAN/ChibiOS/test/rt/testmsg.h"
 1819              		.file 24 "/home/makkmarci/workspace/CLEAN/ChibiOS/test/rt/testmbox.h"
ARM GAS  /tmp/cc0QnwBB.s 			page 35


 1820              		.file 25 "/home/makkmarci/workspace/CLEAN/ChibiOS/test/rt/testevt.h"
 1821              		.file 26 "/home/makkmarci/workspace/CLEAN/ChibiOS/test/rt/testheap.h"
 1822              		.file 27 "/home/makkmarci/workspace/CLEAN/ChibiOS/test/rt/testpools.h"
 1823              		.file 28 "/home/makkmarci/workspace/CLEAN/ChibiOS/test/rt/testdyn.h"
 1824              		.file 29 "/home/makkmarci/workspace/CLEAN/ChibiOS/test/rt/testqueues.h"
 1825              		.file 30 "/home/makkmarci/workspace/CLEAN/ChibiOS/test/rt/testbmk.h"