ARM GAS  /tmp/ccaMkMTV.s 			page 1


   1              		.syntax unified
   2              		.cpu cortex-m4
   3              		.eabi_attribute 27, 1
   4              		.eabi_attribute 28, 1
   5              		.fpu fpv4-sp-d16
   6              		.eabi_attribute 20, 1
   7              		.eabi_attribute 21, 1
   8              		.eabi_attribute 23, 3
   9              		.eabi_attribute 24, 1
  10              		.eabi_attribute 25, 1
  11              		.eabi_attribute 26, 1
  12              		.eabi_attribute 30, 6
  13              		.eabi_attribute 34, 1
  14              		.eabi_attribute 18, 4
  15              		.thumb
  16              		.file	"testqueues.c"
  17              		.text
  18              	.Ltext0:
  19              		.cfi_sections	.debug_frame
  20              		.section	.text.port_lock,"ax",%progbits
  21              		.align	2
  22              		.p2align 4,,15
  23              		.thumb
  24              		.thumb_func
  25              		.type	port_lock, %function
  26              	port_lock:
  27              	.LFB116:
  28              		.file 1 "/home/makkmarci/workspace/CLEAN/ChibiOS/os/rt/ports/ARMCMx/chcore_v7m.h"
  29              		.loc 1 444 0
  30              		.cfi_startproc
  31              		@ args = 0, pretend = 0, frame = 8
  32              		@ frame_needed = 0, uses_anonymous_args = 0
  33              		@ link register save eliminated.
  34 0000 82B0     		sub	sp, sp, #8
  35              		.cfi_def_cfa_offset 8
  36 0002 2023     		movs	r3, #32
  37 0004 0193     		str	r3, [sp, #4]
  38              	.LBB6:
  39              	.LBB7:
  40              		.file 2 "/home/makkmarci/workspace/CLEAN/ChibiOS/os/ext/CMSIS/include/core_cmFunc.h"
  41              		.loc 2 546 0
  42 0006 019B     		ldr	r3, [sp, #4]
  43              	@ 546 "/home/makkmarci/workspace/CLEAN/ChibiOS/os/ext/CMSIS/include/core_cmFunc.h" 1
  44 0008 83F31188 		MSR basepri, r3
  45              	@ 0 "" 2
  46              		.thumb
  47              	.LBE7:
  48              	.LBE6:
  49              		.loc 1 451 0
  50 000c 02B0     		add	sp, sp, #8
  51              		.cfi_def_cfa_offset 0
  52              		@ sp needed
  53 000e 7047     		bx	lr
  54              		.cfi_endproc
  55              	.LFE116:
  56              		.size	port_lock, .-port_lock
  57              		.section	.text.port_unlock,"ax",%progbits
ARM GAS  /tmp/ccaMkMTV.s 			page 2


  58              		.align	2
  59              		.p2align 4,,15
  60              		.thumb
  61              		.thumb_func
  62              		.type	port_unlock, %function
  63              	port_unlock:
  64              	.LFB117:
  65              		.loc 1 458 0
  66              		.cfi_startproc
  67              		@ args = 0, pretend = 0, frame = 8
  68              		@ frame_needed = 0, uses_anonymous_args = 0
  69              		@ link register save eliminated.
  70 0000 82B0     		sub	sp, sp, #8
  71              		.cfi_def_cfa_offset 8
  72 0002 0023     		movs	r3, #0
  73 0004 0193     		str	r3, [sp, #4]
  74              	.LBB8:
  75              	.LBB9:
  76              		.loc 2 546 0
  77 0006 019B     		ldr	r3, [sp, #4]
  78              	@ 546 "/home/makkmarci/workspace/CLEAN/ChibiOS/os/ext/CMSIS/include/core_cmFunc.h" 1
  79 0008 83F31188 		MSR basepri, r3
  80              	@ 0 "" 2
  81              		.thumb
  82              	.LBE9:
  83              	.LBE8:
  84              		.loc 1 465 0
  85 000c 02B0     		add	sp, sp, #8
  86              		.cfi_def_cfa_offset 0
  87              		@ sp needed
  88 000e 7047     		bx	lr
  89              		.cfi_endproc
  90              	.LFE117:
  91              		.size	port_unlock, .-port_unlock
  92              		.section	.text.chSysLock,"ax",%progbits
  93              		.align	2
  94              		.p2align 4,,15
  95              		.thumb
  96              		.thumb_func
  97              		.type	chSysLock, %function
  98              	chSysLock:
  99              	.LFB145:
 100              		.file 3 "/home/makkmarci/workspace/CLEAN/ChibiOS/os/rt/include/chsys.h"
 101              		.loc 3 346 0
 102              		.cfi_startproc
 103              		@ args = 0, pretend = 0, frame = 0
 104              		@ frame_needed = 0, uses_anonymous_args = 0
 105 0000 08B5     		push	{r3, lr}
 106              		.cfi_def_cfa_offset 8
 107              		.cfi_offset 3, -8
 108              		.cfi_offset 14, -4
 109              		.loc 3 348 0
 110 0002 FFF7FEFF 		bl	port_lock
 111              		.loc 3 351 0
 112 0006 08BD     		pop	{r3, pc}
 113              		.cfi_endproc
 114              	.LFE145:
ARM GAS  /tmp/ccaMkMTV.s 			page 3


 115              		.size	chSysLock, .-chSysLock
 116              		.section	.text.chSysUnlock,"ax",%progbits
 117              		.align	2
 118              		.p2align 4,,15
 119              		.thumb
 120              		.thumb_func
 121              		.type	chSysUnlock, %function
 122              	chSysUnlock:
 123              	.LFB146:
 124              		.loc 3 358 0
 125              		.cfi_startproc
 126              		@ args = 0, pretend = 0, frame = 0
 127              		@ frame_needed = 0, uses_anonymous_args = 0
 128 0000 08B5     		push	{r3, lr}
 129              		.cfi_def_cfa_offset 8
 130              		.cfi_offset 3, -8
 131              		.cfi_offset 14, -4
 132              		.loc 3 371 0
 133 0002 FFF7FEFF 		bl	port_unlock
 134              		.loc 3 372 0
 135 0006 08BD     		pop	{r3, pc}
 136              		.cfi_endproc
 137              	.LFE146:
 138              		.size	chSysUnlock, .-chSysUnlock
 139 0008 AFF30080 		.section	.text.chThdGetSelfX,"ax",%progbits
 139      AFF30080 
 140              		.align	2
 141              		.p2align 4,,15
 142              		.thumb
 143              		.thumb_func
 144              		.type	chThdGetSelfX, %function
 145              	chThdGetSelfX:
 146              	.LFB166:
 147              		.file 4 "/home/makkmarci/workspace/CLEAN/ChibiOS/os/rt/include/chthreads.h"
 148              		.loc 4 174 0
 149              		.cfi_startproc
 150              		@ args = 0, pretend = 0, frame = 0
 151              		@ frame_needed = 0, uses_anonymous_args = 0
 152              		@ link register save eliminated.
 153              		.loc 4 176 0
 154 0000 014B     		ldr	r3, .L7
 155 0002 9B69     		ldr	r3, [r3, #24]
 156              		.loc 4 177 0
 157 0004 1846     		mov	r0, r3
 158 0006 7047     		bx	lr
 159              	.L8:
 160              		.align	2
 161              	.L7:
 162 0008 00000000 		.word	ch
 163              		.cfi_endproc
 164              	.LFE166:
 165              		.size	chThdGetSelfX, .-chThdGetSelfX
 166 000c AFF30080 		.section	.text.chThdGetPriorityX,"ax",%progbits
 167              		.align	2
 168              		.p2align 4,,15
 169              		.thumb
 170              		.thumb_func
ARM GAS  /tmp/ccaMkMTV.s 			page 4


 171              		.type	chThdGetPriorityX, %function
 172              	chThdGetPriorityX:
 173              	.LFB167:
 174              		.loc 4 187 0
 175              		.cfi_startproc
 176              		@ args = 0, pretend = 0, frame = 0
 177              		@ frame_needed = 0, uses_anonymous_args = 0
 178 0000 08B5     		push	{r3, lr}
 179              		.cfi_def_cfa_offset 8
 180              		.cfi_offset 3, -8
 181              		.cfi_offset 14, -4
 182              		.loc 4 189 0
 183 0002 FFF7FEFF 		bl	chThdGetSelfX
 184 0006 0346     		mov	r3, r0
 185 0008 9B68     		ldr	r3, [r3, #8]
 186              		.loc 4 190 0
 187 000a 1846     		mov	r0, r3
 188 000c 08BD     		pop	{r3, pc}
 189              		.cfi_endproc
 190              	.LFE167:
 191              		.size	chThdGetPriorityX, .-chThdGetPriorityX
 192 000e 00BF     		.section	.text.chIQGetFullI,"ax",%progbits
 193              		.align	2
 194              		.p2align 4,,15
 195              		.thumb
 196              		.thumb_func
 197              		.type	chIQGetFullI, %function
 198              	chIQGetFullI:
 199              	.LFB206:
 200              		.file 5 "/home/makkmarci/workspace/CLEAN/ChibiOS/os/rt/include/chqueues.h"
 201              		.loc 5 270 0
 202              		.cfi_startproc
 203              		@ args = 0, pretend = 0, frame = 8
 204              		@ frame_needed = 0, uses_anonymous_args = 0
 205              		@ link register save eliminated.
 206 0000 82B0     		sub	sp, sp, #8
 207              		.cfi_def_cfa_offset 8
 208 0002 0190     		str	r0, [sp, #4]
 209              		.loc 5 274 0
 210 0004 019B     		ldr	r3, [sp, #4]
 211 0006 9B68     		ldr	r3, [r3, #8]
 212              		.loc 5 275 0
 213 0008 1846     		mov	r0, r3
 214 000a 02B0     		add	sp, sp, #8
 215              		.cfi_def_cfa_offset 0
 216              		@ sp needed
 217 000c 7047     		bx	lr
 218              		.cfi_endproc
 219              	.LFE206:
 220              		.size	chIQGetFullI, .-chIQGetFullI
 221 000e 00BF     		.section	.text.chIQIsEmptyI,"ax",%progbits
 222              		.align	2
 223              		.p2align 4,,15
 224              		.thumb
 225              		.thumb_func
 226              		.type	chIQIsEmptyI, %function
 227              	chIQIsEmptyI:
ARM GAS  /tmp/ccaMkMTV.s 			page 5


 228              	.LFB208:
 229              		.loc 5 303 0
 230              		.cfi_startproc
 231              		@ args = 0, pretend = 0, frame = 8
 232              		@ frame_needed = 0, uses_anonymous_args = 0
 233              		@ link register save eliminated.
 234 0000 82B0     		sub	sp, sp, #8
 235              		.cfi_def_cfa_offset 8
 236 0002 0190     		str	r0, [sp, #4]
 237              		.loc 5 307 0
 238 0004 019B     		ldr	r3, [sp, #4]
 239 0006 9B68     		ldr	r3, [r3, #8]
 240 0008 002B     		cmp	r3, #0
 241 000a 0CBF     		ite	eq
 242 000c 0123     		moveq	r3, #1
 243 000e 0023     		movne	r3, #0
 244 0010 DBB2     		uxtb	r3, r3
 245              		.loc 5 308 0
 246 0012 1846     		mov	r0, r3
 247 0014 02B0     		add	sp, sp, #8
 248              		.cfi_def_cfa_offset 0
 249              		@ sp needed
 250 0016 7047     		bx	lr
 251              		.cfi_endproc
 252              	.LFE208:
 253              		.size	chIQIsEmptyI, .-chIQIsEmptyI
 254 0018 AFF30080 		.section	.text.chIQIsFullI,"ax",%progbits
 254      AFF30080 
 255              		.align	2
 256              		.p2align 4,,15
 257              		.thumb
 258              		.thumb_func
 259              		.type	chIQIsFullI, %function
 260              	chIQIsFullI:
 261              	.LFB209:
 262              		.loc 5 320 0
 263              		.cfi_startproc
 264              		@ args = 0, pretend = 0, frame = 8
 265              		@ frame_needed = 0, uses_anonymous_args = 0
 266              		@ link register save eliminated.
 267 0000 82B0     		sub	sp, sp, #8
 268              		.cfi_def_cfa_offset 8
 269 0002 0190     		str	r0, [sp, #4]
 270              		.loc 5 324 0
 271 0004 019B     		ldr	r3, [sp, #4]
 272 0006 5A69     		ldr	r2, [r3, #20]
 273 0008 019B     		ldr	r3, [sp, #4]
 274 000a 9B69     		ldr	r3, [r3, #24]
 275 000c 9A42     		cmp	r2, r3
 276 000e 05D1     		bne	.L16
 277              		.loc 5 324 0 is_stmt 0 discriminator 1
 278 0010 019B     		ldr	r3, [sp, #4]
 279 0012 9B68     		ldr	r3, [r3, #8]
 280 0014 002B     		cmp	r3, #0
 281 0016 01D0     		beq	.L16
 282              		.loc 5 324 0 discriminator 3
 283 0018 0123     		movs	r3, #1
ARM GAS  /tmp/ccaMkMTV.s 			page 6


 284 001a 00E0     		b	.L17
 285              	.L16:
 286              		.loc 5 324 0 discriminator 4
 287 001c 0023     		movs	r3, #0
 288              	.L17:
 289              		.loc 5 324 0 discriminator 6
 290 001e 03F00103 		and	r3, r3, #1
 291 0022 DBB2     		uxtb	r3, r3
 292              		.loc 5 325 0 is_stmt 1 discriminator 6
 293 0024 1846     		mov	r0, r3
 294 0026 02B0     		add	sp, sp, #8
 295              		.cfi_def_cfa_offset 0
 296              		@ sp needed
 297 0028 7047     		bx	lr
 298              		.cfi_endproc
 299              	.LFE209:
 300              		.size	chIQIsFullI, .-chIQIsFullI
 301 002a 00BFAFF3 		.section	.text.chIQGet,"ax",%progbits
 301      0080
 302              		.align	2
 303              		.p2align 4,,15
 304              		.thumb
 305              		.thumb_func
 306              		.type	chIQGet, %function
 307              	chIQGet:
 308              	.LFB210:
 309              		.loc 5 339 0
 310              		.cfi_startproc
 311              		@ args = 0, pretend = 0, frame = 8
 312              		@ frame_needed = 0, uses_anonymous_args = 0
 313 0000 00B5     		push	{lr}
 314              		.cfi_def_cfa_offset 4
 315              		.cfi_offset 14, -4
 316 0002 83B0     		sub	sp, sp, #12
 317              		.cfi_def_cfa_offset 16
 318 0004 0190     		str	r0, [sp, #4]
 319              		.loc 5 341 0
 320 0006 0198     		ldr	r0, [sp, #4]
 321 0008 4FF0FF31 		mov	r1, #-1
 322 000c FFF7FEFF 		bl	chIQGetTimeout
 323 0010 0346     		mov	r3, r0
 324              		.loc 5 342 0
 325 0012 1846     		mov	r0, r3
 326 0014 03B0     		add	sp, sp, #12
 327              		.cfi_def_cfa_offset 4
 328              		@ sp needed
 329 0016 5DF804FB 		ldr	pc, [sp], #4
 330              		.cfi_endproc
 331              	.LFE210:
 332              		.size	chIQGet, .-chIQGet
 333 001a 00BFAFF3 		.section	.text.chOQGetFullI,"ax",%progbits
 333      0080
 334              		.align	2
 335              		.p2align 4,,15
 336              		.thumb
 337              		.thumb_func
 338              		.type	chOQGetFullI, %function
ARM GAS  /tmp/ccaMkMTV.s 			page 7


 339              	chOQGetFullI:
 340              	.LFB211:
 341              		.loc 5 353 0
 342              		.cfi_startproc
 343              		@ args = 0, pretend = 0, frame = 8
 344              		@ frame_needed = 0, uses_anonymous_args = 0
 345              		@ link register save eliminated.
 346 0000 82B0     		sub	sp, sp, #8
 347              		.cfi_def_cfa_offset 8
 348 0002 0190     		str	r0, [sp, #4]
 349              		.loc 5 357 0
 350 0004 019B     		ldr	r3, [sp, #4]
 351 0006 1B69     		ldr	r3, [r3, #16]
 352 0008 1A46     		mov	r2, r3
 353 000a 019B     		ldr	r3, [sp, #4]
 354 000c DB68     		ldr	r3, [r3, #12]
 355 000e D31A     		subs	r3, r2, r3
 356 0010 1A46     		mov	r2, r3
 357 0012 019B     		ldr	r3, [sp, #4]
 358 0014 9B68     		ldr	r3, [r3, #8]
 359 0016 D31A     		subs	r3, r2, r3
 360              		.loc 5 358 0
 361 0018 1846     		mov	r0, r3
 362 001a 02B0     		add	sp, sp, #8
 363              		.cfi_def_cfa_offset 0
 364              		@ sp needed
 365 001c 7047     		bx	lr
 366              		.cfi_endproc
 367              	.LFE211:
 368              		.size	chOQGetFullI, .-chOQGetFullI
 369 001e 00BF     		.section	.text.chOQIsEmptyI,"ax",%progbits
 370              		.align	2
 371              		.p2align 4,,15
 372              		.thumb
 373              		.thumb_func
 374              		.type	chOQIsEmptyI, %function
 375              	chOQIsEmptyI:
 376              	.LFB213:
 377              		.loc 5 386 0
 378              		.cfi_startproc
 379              		@ args = 0, pretend = 0, frame = 8
 380              		@ frame_needed = 0, uses_anonymous_args = 0
 381              		@ link register save eliminated.
 382 0000 82B0     		sub	sp, sp, #8
 383              		.cfi_def_cfa_offset 8
 384 0002 0190     		str	r0, [sp, #4]
 385              		.loc 5 390 0
 386 0004 019B     		ldr	r3, [sp, #4]
 387 0006 5A69     		ldr	r2, [r3, #20]
 388 0008 019B     		ldr	r3, [sp, #4]
 389 000a 9B69     		ldr	r3, [r3, #24]
 390 000c 9A42     		cmp	r2, r3
 391 000e 05D1     		bne	.L24
 392              		.loc 5 390 0 is_stmt 0 discriminator 1
 393 0010 019B     		ldr	r3, [sp, #4]
 394 0012 9B68     		ldr	r3, [r3, #8]
 395 0014 002B     		cmp	r3, #0
ARM GAS  /tmp/ccaMkMTV.s 			page 8


 396 0016 01D0     		beq	.L24
 397              		.loc 5 390 0 discriminator 3
 398 0018 0123     		movs	r3, #1
 399 001a 00E0     		b	.L25
 400              	.L24:
 401              		.loc 5 390 0 discriminator 4
 402 001c 0023     		movs	r3, #0
 403              	.L25:
 404              		.loc 5 390 0 discriminator 6
 405 001e 03F00103 		and	r3, r3, #1
 406 0022 DBB2     		uxtb	r3, r3
 407              		.loc 5 391 0 is_stmt 1 discriminator 6
 408 0024 1846     		mov	r0, r3
 409 0026 02B0     		add	sp, sp, #8
 410              		.cfi_def_cfa_offset 0
 411              		@ sp needed
 412 0028 7047     		bx	lr
 413              		.cfi_endproc
 414              	.LFE213:
 415              		.size	chOQIsEmptyI, .-chOQIsEmptyI
 416 002a 00BFAFF3 		.section	.text.chOQIsFullI,"ax",%progbits
 416      0080
 417              		.align	2
 418              		.p2align 4,,15
 419              		.thumb
 420              		.thumb_func
 421              		.type	chOQIsFullI, %function
 422              	chOQIsFullI:
 423              	.LFB214:
 424              		.loc 5 403 0
 425              		.cfi_startproc
 426              		@ args = 0, pretend = 0, frame = 8
 427              		@ frame_needed = 0, uses_anonymous_args = 0
 428              		@ link register save eliminated.
 429 0000 82B0     		sub	sp, sp, #8
 430              		.cfi_def_cfa_offset 8
 431 0002 0190     		str	r0, [sp, #4]
 432              		.loc 5 407 0
 433 0004 019B     		ldr	r3, [sp, #4]
 434 0006 9B68     		ldr	r3, [r3, #8]
 435 0008 002B     		cmp	r3, #0
 436 000a 0CBF     		ite	eq
 437 000c 0123     		moveq	r3, #1
 438 000e 0023     		movne	r3, #0
 439 0010 DBB2     		uxtb	r3, r3
 440              		.loc 5 408 0
 441 0012 1846     		mov	r0, r3
 442 0014 02B0     		add	sp, sp, #8
 443              		.cfi_def_cfa_offset 0
 444              		@ sp needed
 445 0016 7047     		bx	lr
 446              		.cfi_endproc
 447              	.LFE214:
 448              		.size	chOQIsFullI, .-chOQIsFullI
 449 0018 AFF30080 		.section	.text.chOQPut,"ax",%progbits
 449      AFF30080 
 450              		.align	2
ARM GAS  /tmp/ccaMkMTV.s 			page 9


 451              		.p2align 4,,15
 452              		.thumb
 453              		.thumb_func
 454              		.type	chOQPut, %function
 455              	chOQPut:
 456              	.LFB215:
 457              		.loc 5 424 0
 458              		.cfi_startproc
 459              		@ args = 0, pretend = 0, frame = 8
 460              		@ frame_needed = 0, uses_anonymous_args = 0
 461 0000 00B5     		push	{lr}
 462              		.cfi_def_cfa_offset 4
 463              		.cfi_offset 14, -4
 464 0002 83B0     		sub	sp, sp, #12
 465              		.cfi_def_cfa_offset 16
 466 0004 0190     		str	r0, [sp, #4]
 467 0006 0B46     		mov	r3, r1
 468 0008 8DF80330 		strb	r3, [sp, #3]
 469              		.loc 5 426 0
 470 000c 9DF80330 		ldrb	r3, [sp, #3]	@ zero_extendqisi2
 471 0010 0198     		ldr	r0, [sp, #4]
 472 0012 1946     		mov	r1, r3
 473 0014 4FF0FF32 		mov	r2, #-1
 474 0018 FFF7FEFF 		bl	chOQPutTimeout
 475 001c 0346     		mov	r3, r0
 476              		.loc 5 427 0
 477 001e 1846     		mov	r0, r3
 478 0020 03B0     		add	sp, sp, #12
 479              		.cfi_def_cfa_offset 4
 480              		@ sp needed
 481 0022 5DF804FB 		ldr	pc, [sp], #4
 482              		.cfi_endproc
 483              	.LFE215:
 484              		.size	chOQPut, .-chOQPut
 485 0026 00BFAFF3 		.section	.text.notify,"ax",%progbits
 485      0080AFF3 
 485      0080
 486              		.align	2
 487              		.p2align 4,,15
 488              		.thumb
 489              		.thumb_func
 490              		.type	notify, %function
 491              	notify:
 492              	.LFB216:
 493              		.file 6 "/home/makkmarci/workspace/CLEAN/ChibiOS/test/rt/testqueues.c"
 494              		.loc 6 57 0
 495              		.cfi_startproc
 496              		@ args = 0, pretend = 0, frame = 8
 497              		@ frame_needed = 0, uses_anonymous_args = 0
 498              		@ link register save eliminated.
 499 0000 82B0     		sub	sp, sp, #8
 500              		.cfi_def_cfa_offset 8
 501 0002 0190     		str	r0, [sp, #4]
 502              		.loc 6 59 0
 503 0004 02B0     		add	sp, sp, #8
 504              		.cfi_def_cfa_offset 0
 505              		@ sp needed
ARM GAS  /tmp/ccaMkMTV.s 			page 10


 506 0006 7047     		bx	lr
 507              		.cfi_endproc
 508              	.LFE216:
 509              		.size	notify, .-notify
 510 0008 AFF30080 		.section	.data.iq,"aw",%progbits
 510      AFF30080 
 511              		.align	2
 512              		.type	iq, %object
 513              		.size	iq, 36
 514              	iq:
 515 0000 00000000 		.word	iq
 516 0004 00000000 		.word	iq
 517 0008 00000000 		.word	0
 518 000c 00000000 		.word	test
 519 0010 04000000 		.word	test+4
 520 0014 00000000 		.word	test
 521 0018 00000000 		.word	test
 522 001c 00000000 		.word	notify
 523 0020 00000000 		.word	0
 524              		.section	.data.oq,"aw",%progbits
 525              		.align	2
 526              		.type	oq, %object
 527              		.size	oq, 36
 528              	oq:
 529 0000 00000000 		.word	oq
 530 0004 00000000 		.word	oq
 531 0008 04000000 		.word	4
 532 000c D0010000 		.word	test+464
 533 0010 D4010000 		.word	test+468
 534 0014 D0010000 		.word	test+464
 535 0018 D0010000 		.word	test+464
 536 001c 00000000 		.word	notify
 537 0020 00000000 		.word	0
 538              		.section	.text.queues1_setup,"ax",%progbits
 539              		.align	2
 540              		.p2align 4,,15
 541              		.thumb
 542              		.thumb_func
 543              		.type	queues1_setup, %function
 544              	queues1_setup:
 545              	.LFB217:
 546              		.loc 6 78 0
 547              		.cfi_startproc
 548              		@ args = 0, pretend = 0, frame = 0
 549              		@ frame_needed = 0, uses_anonymous_args = 0
 550 0000 00B5     		push	{lr}
 551              		.cfi_def_cfa_offset 4
 552              		.cfi_offset 14, -4
 553 0002 83B0     		sub	sp, sp, #12
 554              		.cfi_def_cfa_offset 16
 555              		.loc 6 80 0
 556 0004 064B     		ldr	r3, .L33
 557 0006 1A68     		ldr	r2, [r3]
 558 0008 0023     		movs	r3, #0
 559 000a 0093     		str	r3, [sp]
 560 000c 0548     		ldr	r0, .L33+4
 561 000e 1146     		mov	r1, r2
ARM GAS  /tmp/ccaMkMTV.s 			page 11


 562 0010 0422     		movs	r2, #4
 563 0012 054B     		ldr	r3, .L33+8
 564 0014 FFF7FEFF 		bl	chIQObjectInit
 565              		.loc 6 81 0
 566 0018 03B0     		add	sp, sp, #12
 567              		.cfi_def_cfa_offset 4
 568              		@ sp needed
 569 001a 5DF804FB 		ldr	pc, [sp], #4
 570              	.L34:
 571 001e 00BF     		.align	2
 572              	.L33:
 573 0020 00000000 		.word	wa
 574 0024 00000000 		.word	iq
 575 0028 00000000 		.word	notify
 576              		.cfi_endproc
 577              	.LFE217:
 578              		.size	queues1_setup, .-queues1_setup
 579 002c AFF30080 		.section	.text.thread1,"ax",%progbits
 580              		.align	2
 581              		.p2align 4,,15
 582              		.thumb
 583              		.thumb_func
 584              		.type	thread1, %function
 585              	thread1:
 586              	.LFB218:
 587              		.loc 6 83 0
 588              		.cfi_startproc
 589              		@ args = 0, pretend = 0, frame = 8
 590              		@ frame_needed = 0, uses_anonymous_args = 0
 591 0000 00B5     		push	{lr}
 592              		.cfi_def_cfa_offset 4
 593              		.cfi_offset 14, -4
 594 0002 83B0     		sub	sp, sp, #12
 595              		.cfi_def_cfa_offset 16
 596 0004 0190     		str	r0, [sp, #4]
 597              		.loc 6 86 0
 598 0006 0348     		ldr	r0, .L36
 599 0008 C821     		movs	r1, #200
 600 000a FFF7FEFF 		bl	chIQGetTimeout
 601              		.loc 6 87 0
 602 000e 03B0     		add	sp, sp, #12
 603              		.cfi_def_cfa_offset 4
 604              		@ sp needed
 605 0010 5DF804FB 		ldr	pc, [sp], #4
 606              	.L37:
 607              		.align	2
 608              	.L36:
 609 0014 00000000 		.word	iq
 610              		.cfi_endproc
 611              	.LFE218:
 612              		.size	thread1, .-thread1
 613 0018 AFF30080 		.section	.rodata
 613      AFF30080 
 614              		.align	2
 615              	.LC0:
 616 0000 41424344 		.ascii	"ABCD\000"
 616      00
ARM GAS  /tmp/ccaMkMTV.s 			page 12


 617              		.section	.text.queues1_execute,"ax",%progbits
 618              		.align	2
 619              		.p2align 4,,15
 620              		.thumb
 621              		.thumb_func
 622              		.type	queues1_execute, %function
 623              	queues1_execute:
 624              	.LFB219:
 625              		.loc 6 89 0
 626              		.cfi_startproc
 627              		@ args = 0, pretend = 0, frame = 8
 628              		@ frame_needed = 0, uses_anonymous_args = 0
 629 0000 10B5     		push	{r4, lr}
 630              		.cfi_def_cfa_offset 8
 631              		.cfi_offset 4, -8
 632              		.cfi_offset 14, -4
 633 0002 84B0     		sub	sp, sp, #16
 634              		.cfi_def_cfa_offset 24
 635              		.loc 6 94 0
 636 0004 FFF7FEFF 		bl	chSysLock
 637 0008 B748     		ldr	r0, .L60
 638 000a FFF7FEFF 		bl	chIQIsEmptyI
 639 000e 0346     		mov	r3, r0
 640 0010 0120     		movs	r0, #1
 641 0012 1946     		mov	r1, r3
 642 0014 FFF7FEFF 		bl	_test_assert
 643 0018 0346     		mov	r3, r0
 644 001a 002B     		cmp	r3, #0
 645 001c 02D0     		beq	.L39
 646              		.loc 6 94 0 is_stmt 0 discriminator 1
 647 001e FFF7FEFF 		bl	chSysUnlock
 648 0022 5EE1     		b	.L38
 649              	.L39:
 650              		.loc 6 94 0 discriminator 2
 651 0024 FFF7FEFF 		bl	chSysUnlock
 652              		.loc 6 97 0 is_stmt 1 discriminator 2
 653 0028 FFF7FEFF 		bl	chSysLock
 654              		.loc 6 98 0 discriminator 2
 655 002c 0023     		movs	r3, #0
 656 002e 0393     		str	r3, [sp, #12]
 657 0030 0AE0     		b	.L41
 658              	.L42:
 659              		.loc 6 99 0 discriminator 3
 660 0032 039B     		ldr	r3, [sp, #12]
 661 0034 DBB2     		uxtb	r3, r3
 662 0036 4133     		adds	r3, r3, #65
 663 0038 DBB2     		uxtb	r3, r3
 664 003a AB48     		ldr	r0, .L60
 665 003c 1946     		mov	r1, r3
 666 003e FFF7FEFF 		bl	chIQPutI
 667              		.loc 6 98 0 discriminator 3
 668 0042 039B     		ldr	r3, [sp, #12]
 669 0044 0133     		adds	r3, r3, #1
 670 0046 0393     		str	r3, [sp, #12]
 671              	.L41:
 672              		.loc 6 98 0 is_stmt 0 discriminator 1
 673 0048 039B     		ldr	r3, [sp, #12]
ARM GAS  /tmp/ccaMkMTV.s 			page 13


 674 004a 032B     		cmp	r3, #3
 675 004c F1D9     		bls	.L42
 676              		.loc 6 100 0 is_stmt 1
 677 004e FFF7FEFF 		bl	chSysUnlock
 678              		.loc 6 101 0
 679 0052 FFF7FEFF 		bl	chSysLock
 680 0056 A448     		ldr	r0, .L60
 681 0058 FFF7FEFF 		bl	chIQIsFullI
 682 005c 0346     		mov	r3, r0
 683 005e 0220     		movs	r0, #2
 684 0060 1946     		mov	r1, r3
 685 0062 FFF7FEFF 		bl	_test_assert
 686 0066 0346     		mov	r3, r0
 687 0068 002B     		cmp	r3, #0
 688 006a 02D0     		beq	.L43
 689              		.loc 6 101 0 is_stmt 0 discriminator 1
 690 006c FFF7FEFF 		bl	chSysUnlock
 691 0070 37E1     		b	.L38
 692              	.L43:
 693              		.loc 6 101 0 discriminator 2
 694 0072 FFF7FEFF 		bl	chSysUnlock
 695              		.loc 6 102 0 is_stmt 1 discriminator 2
 696 0076 FFF7FEFF 		bl	chSysLock
 697 007a 9B48     		ldr	r0, .L60
 698 007c 0021     		movs	r1, #0
 699 007e FFF7FEFF 		bl	chIQPutI
 700 0082 0346     		mov	r3, r0
 701 0084 13F1040F 		cmn	r3, #4
 702 0088 0CBF     		ite	eq
 703 008a 0123     		moveq	r3, #1
 704 008c 0023     		movne	r3, #0
 705 008e DBB2     		uxtb	r3, r3
 706 0090 0320     		movs	r0, #3
 707 0092 1946     		mov	r1, r3
 708 0094 FFF7FEFF 		bl	_test_assert
 709 0098 0346     		mov	r3, r0
 710 009a 002B     		cmp	r3, #0
 711 009c 02D0     		beq	.L44
 712              		.loc 6 102 0 is_stmt 0 discriminator 1
 713 009e FFF7FEFF 		bl	chSysUnlock
 714 00a2 1EE1     		b	.L38
 715              	.L44:
 716              		.loc 6 102 0 discriminator 2
 717 00a4 FFF7FEFF 		bl	chSysUnlock
 718              		.loc 6 105 0 is_stmt 1 discriminator 2
 719 00a8 0023     		movs	r3, #0
 720 00aa 0393     		str	r3, [sp, #12]
 721 00ac 0AE0     		b	.L45
 722              	.L46:
 723              		.loc 6 106 0 discriminator 3
 724 00ae 8E48     		ldr	r0, .L60
 725 00b0 FFF7FEFF 		bl	chIQGet
 726 00b4 0346     		mov	r3, r0
 727 00b6 DBB2     		uxtb	r3, r3
 728 00b8 1846     		mov	r0, r3
 729 00ba FFF7FEFF 		bl	test_emit_token
 730              		.loc 6 105 0 discriminator 3
ARM GAS  /tmp/ccaMkMTV.s 			page 14


 731 00be 039B     		ldr	r3, [sp, #12]
 732 00c0 0133     		adds	r3, r3, #1
 733 00c2 0393     		str	r3, [sp, #12]
 734              	.L45:
 735              		.loc 6 105 0 is_stmt 0 discriminator 1
 736 00c4 039B     		ldr	r3, [sp, #12]
 737 00c6 032B     		cmp	r3, #3
 738 00c8 F1D9     		bls	.L46
 739              		.loc 6 107 0 is_stmt 1
 740 00ca FFF7FEFF 		bl	chSysLock
 741 00ce 8648     		ldr	r0, .L60
 742 00d0 FFF7FEFF 		bl	chIQIsEmptyI
 743 00d4 0346     		mov	r3, r0
 744 00d6 0420     		movs	r0, #4
 745 00d8 1946     		mov	r1, r3
 746 00da FFF7FEFF 		bl	_test_assert
 747 00de 0346     		mov	r3, r0
 748 00e0 002B     		cmp	r3, #0
 749 00e2 02D0     		beq	.L47
 750              		.loc 6 107 0 is_stmt 0 discriminator 1
 751 00e4 FFF7FEFF 		bl	chSysUnlock
 752 00e8 FBE0     		b	.L38
 753              	.L47:
 754              		.loc 6 107 0 discriminator 2
 755 00ea FFF7FEFF 		bl	chSysUnlock
 756              		.loc 6 108 0 is_stmt 1 discriminator 2
 757 00ee 0520     		movs	r0, #5
 758 00f0 7E49     		ldr	r1, .L60+4
 759 00f2 FFF7FEFF 		bl	_test_assert_sequence
 760 00f6 0346     		mov	r3, r0
 761 00f8 002B     		cmp	r3, #0
 762 00fa 00D0     		beq	.L48
 763              		.loc 6 108 0 is_stmt 0
 764 00fc F1E0     		b	.L38
 765              	.L48:
 766              		.loc 6 111 0 is_stmt 1
 767 00fe FFF7FEFF 		bl	chSysLock
 768              		.loc 6 112 0
 769 0102 0023     		movs	r3, #0
 770 0104 0393     		str	r3, [sp, #12]
 771 0106 0AE0     		b	.L49
 772              	.L50:
 773              		.loc 6 113 0 discriminator 3
 774 0108 039B     		ldr	r3, [sp, #12]
 775 010a DBB2     		uxtb	r3, r3
 776 010c 4133     		adds	r3, r3, #65
 777 010e DBB2     		uxtb	r3, r3
 778 0110 7548     		ldr	r0, .L60
 779 0112 1946     		mov	r1, r3
 780 0114 FFF7FEFF 		bl	chIQPutI
 781              		.loc 6 112 0 discriminator 3
 782 0118 039B     		ldr	r3, [sp, #12]
 783 011a 0133     		adds	r3, r3, #1
 784 011c 0393     		str	r3, [sp, #12]
 785              	.L49:
 786              		.loc 6 112 0 is_stmt 0 discriminator 1
 787 011e 039B     		ldr	r3, [sp, #12]
ARM GAS  /tmp/ccaMkMTV.s 			page 15


 788 0120 032B     		cmp	r3, #3
 789 0122 F1D9     		bls	.L50
 790              		.loc 6 114 0 is_stmt 1
 791 0124 FFF7FEFF 		bl	chSysUnlock
 792              		.loc 6 117 0
 793 0128 714B     		ldr	r3, .L60+8
 794 012a 5B68     		ldr	r3, [r3, #4]
 795 012c 6E48     		ldr	r0, .L60
 796 012e 1946     		mov	r1, r3
 797 0130 0822     		movs	r2, #8
 798 0132 0023     		movs	r3, #0
 799 0134 FFF7FEFF 		bl	chIQReadTimeout
 800 0138 0290     		str	r0, [sp, #8]
 801              		.loc 6 118 0
 802 013a 029B     		ldr	r3, [sp, #8]
 803 013c 042B     		cmp	r3, #4
 804 013e 0CBF     		ite	eq
 805 0140 0123     		moveq	r3, #1
 806 0142 0023     		movne	r3, #0
 807 0144 DBB2     		uxtb	r3, r3
 808 0146 0620     		movs	r0, #6
 809 0148 1946     		mov	r1, r3
 810 014a FFF7FEFF 		bl	_test_assert
 811 014e 0346     		mov	r3, r0
 812 0150 002B     		cmp	r3, #0
 813 0152 00D0     		beq	.L51
 814              		.loc 6 118 0 is_stmt 0 discriminator 2
 815 0154 C5E0     		b	.L38
 816              	.L51:
 817              		.loc 6 119 0 is_stmt 1
 818 0156 FFF7FEFF 		bl	chSysLock
 819 015a 6348     		ldr	r0, .L60
 820 015c FFF7FEFF 		bl	chIQIsEmptyI
 821 0160 0346     		mov	r3, r0
 822 0162 0720     		movs	r0, #7
 823 0164 1946     		mov	r1, r3
 824 0166 FFF7FEFF 		bl	_test_assert
 825 016a 0346     		mov	r3, r0
 826 016c 002B     		cmp	r3, #0
 827 016e 02D0     		beq	.L52
 828              		.loc 6 119 0 is_stmt 0 discriminator 1
 829 0170 FFF7FEFF 		bl	chSysUnlock
 830 0174 B5E0     		b	.L38
 831              	.L52:
 832              		.loc 6 119 0 discriminator 2
 833 0176 FFF7FEFF 		bl	chSysUnlock
 834              		.loc 6 122 0 is_stmt 1 discriminator 2
 835 017a FFF7FEFF 		bl	chSysLock
 836              		.loc 6 123 0 discriminator 2
 837 017e 0023     		movs	r3, #0
 838 0180 0393     		str	r3, [sp, #12]
 839 0182 0AE0     		b	.L53
 840              	.L54:
 841              		.loc 6 124 0 discriminator 3
 842 0184 039B     		ldr	r3, [sp, #12]
 843 0186 DBB2     		uxtb	r3, r3
 844 0188 4133     		adds	r3, r3, #65
ARM GAS  /tmp/ccaMkMTV.s 			page 16


 845 018a DBB2     		uxtb	r3, r3
 846 018c 5648     		ldr	r0, .L60
 847 018e 1946     		mov	r1, r3
 848 0190 FFF7FEFF 		bl	chIQPutI
 849              		.loc 6 123 0 discriminator 3
 850 0194 039B     		ldr	r3, [sp, #12]
 851 0196 0133     		adds	r3, r3, #1
 852 0198 0393     		str	r3, [sp, #12]
 853              	.L53:
 854              		.loc 6 123 0 is_stmt 0 discriminator 1
 855 019a 039B     		ldr	r3, [sp, #12]
 856 019c 032B     		cmp	r3, #3
 857 019e F1D9     		bls	.L54
 858              		.loc 6 125 0 is_stmt 1
 859 01a0 FFF7FEFF 		bl	chSysUnlock
 860              		.loc 6 128 0
 861 01a4 524B     		ldr	r3, .L60+8
 862 01a6 5B68     		ldr	r3, [r3, #4]
 863 01a8 4F48     		ldr	r0, .L60
 864 01aa 1946     		mov	r1, r3
 865 01ac 0222     		movs	r2, #2
 866 01ae 0023     		movs	r3, #0
 867 01b0 FFF7FEFF 		bl	chIQReadTimeout
 868 01b4 0290     		str	r0, [sp, #8]
 869              		.loc 6 129 0
 870 01b6 029B     		ldr	r3, [sp, #8]
 871 01b8 022B     		cmp	r3, #2
 872 01ba 0CBF     		ite	eq
 873 01bc 0123     		moveq	r3, #1
 874 01be 0023     		movne	r3, #0
 875 01c0 DBB2     		uxtb	r3, r3
 876 01c2 0820     		movs	r0, #8
 877 01c4 1946     		mov	r1, r3
 878 01c6 FFF7FEFF 		bl	_test_assert
 879 01ca 0346     		mov	r3, r0
 880 01cc 002B     		cmp	r3, #0
 881 01ce 00D0     		beq	.L55
 882              		.loc 6 129 0 is_stmt 0 discriminator 3
 883 01d0 87E0     		b	.L38
 884              	.L55:
 885              		.loc 6 130 0 is_stmt 1
 886 01d2 474B     		ldr	r3, .L60+8
 887 01d4 5B68     		ldr	r3, [r3, #4]
 888 01d6 4448     		ldr	r0, .L60
 889 01d8 1946     		mov	r1, r3
 890 01da 0222     		movs	r2, #2
 891 01dc 0023     		movs	r3, #0
 892 01de FFF7FEFF 		bl	chIQReadTimeout
 893 01e2 0290     		str	r0, [sp, #8]
 894              		.loc 6 131 0
 895 01e4 029B     		ldr	r3, [sp, #8]
 896 01e6 022B     		cmp	r3, #2
 897 01e8 0CBF     		ite	eq
 898 01ea 0123     		moveq	r3, #1
 899 01ec 0023     		movne	r3, #0
 900 01ee DBB2     		uxtb	r3, r3
 901 01f0 0920     		movs	r0, #9
ARM GAS  /tmp/ccaMkMTV.s 			page 17


 902 01f2 1946     		mov	r1, r3
 903 01f4 FFF7FEFF 		bl	_test_assert
 904 01f8 0346     		mov	r3, r0
 905 01fa 002B     		cmp	r3, #0
 906 01fc 00D0     		beq	.L56
 907              		.loc 6 131 0 is_stmt 0 discriminator 4
 908 01fe 70E0     		b	.L38
 909              	.L56:
 910              		.loc 6 132 0 is_stmt 1
 911 0200 FFF7FEFF 		bl	chSysLock
 912 0204 3848     		ldr	r0, .L60
 913 0206 FFF7FEFF 		bl	chIQIsEmptyI
 914 020a 0346     		mov	r3, r0
 915 020c 0A20     		movs	r0, #10
 916 020e 1946     		mov	r1, r3
 917 0210 FFF7FEFF 		bl	_test_assert
 918 0214 0346     		mov	r3, r0
 919 0216 002B     		cmp	r3, #0
 920 0218 02D0     		beq	.L57
 921              		.loc 6 132 0 is_stmt 0 discriminator 1
 922 021a FFF7FEFF 		bl	chSysUnlock
 923 021e 60E0     		b	.L38
 924              	.L57:
 925              		.loc 6 132 0 discriminator 2
 926 0220 FFF7FEFF 		bl	chSysUnlock
 927              		.loc 6 135 0 is_stmt 1 discriminator 2
 928 0224 FFF7FEFF 		bl	chSysLock
 929              		.loc 6 136 0 discriminator 2
 930 0228 2F48     		ldr	r0, .L60
 931 022a 0021     		movs	r1, #0
 932 022c FFF7FEFF 		bl	chIQPutI
 933              		.loc 6 137 0 discriminator 2
 934 0230 2D48     		ldr	r0, .L60
 935 0232 FFF7FEFF 		bl	chIQResetI
 936              		.loc 6 138 0 discriminator 2
 937 0236 FFF7FEFF 		bl	chSysUnlock
 938              		.loc 6 139 0 discriminator 2
 939 023a FFF7FEFF 		bl	chSysLock
 940 023e 2A48     		ldr	r0, .L60
 941 0240 FFF7FEFF 		bl	chIQGetFullI
 942 0244 0346     		mov	r3, r0
 943 0246 002B     		cmp	r3, #0
 944 0248 0CBF     		ite	eq
 945 024a 0123     		moveq	r3, #1
 946 024c 0023     		movne	r3, #0
 947 024e DBB2     		uxtb	r3, r3
 948 0250 0B20     		movs	r0, #11
 949 0252 1946     		mov	r1, r3
 950 0254 FFF7FEFF 		bl	_test_assert
 951 0258 0346     		mov	r3, r0
 952 025a 002B     		cmp	r3, #0
 953 025c 02D0     		beq	.L58
 954              		.loc 6 139 0 is_stmt 0 discriminator 1
 955 025e FFF7FEFF 		bl	chSysUnlock
 956 0262 3EE0     		b	.L38
 957              	.L58:
 958              		.loc 6 139 0 discriminator 2
ARM GAS  /tmp/ccaMkMTV.s 			page 18


 959 0264 FFF7FEFF 		bl	chSysUnlock
 960              		.loc 6 140 0 is_stmt 1 discriminator 2
 961 0268 214B     		ldr	r3, .L60+8
 962 026a 1C68     		ldr	r4, [r3]
 963 026c FFF7FEFF 		bl	chThdGetPriorityX
 964 0270 0346     		mov	r3, r0
 965 0272 5A1C     		adds	r2, r3, #1
 966 0274 0023     		movs	r3, #0
 967 0276 0093     		str	r3, [sp]
 968 0278 2046     		mov	r0, r4
 969 027a 4FF4E871 		mov	r1, #464
 970 027e 1D4B     		ldr	r3, .L60+12
 971 0280 FFF7FEFF 		bl	chThdCreateStatic
 972 0284 0246     		mov	r2, r0
 973 0286 1C4B     		ldr	r3, .L60+16
 974 0288 1A60     		str	r2, [r3]
 975              		.loc 6 141 0 discriminator 2
 976 028a FFF7FEFF 		bl	chSysLock
 977 028e 1648     		ldr	r0, .L60
 978 0290 FFF7FEFF 		bl	chIQGetFullI
 979 0294 0346     		mov	r3, r0
 980 0296 002B     		cmp	r3, #0
 981 0298 0CBF     		ite	eq
 982 029a 0123     		moveq	r3, #1
 983 029c 0023     		movne	r3, #0
 984 029e DBB2     		uxtb	r3, r3
 985 02a0 0C20     		movs	r0, #12
 986 02a2 1946     		mov	r1, r3
 987 02a4 FFF7FEFF 		bl	_test_assert
 988 02a8 0346     		mov	r3, r0
 989 02aa 002B     		cmp	r3, #0
 990 02ac 02D0     		beq	.L59
 991              		.loc 6 141 0 is_stmt 0 discriminator 1
 992 02ae FFF7FEFF 		bl	chSysUnlock
 993 02b2 16E0     		b	.L38
 994              	.L59:
 995              		.loc 6 141 0 discriminator 2
 996 02b4 FFF7FEFF 		bl	chSysUnlock
 997              		.loc 6 142 0 is_stmt 1 discriminator 2
 998 02b8 FFF7FEFF 		bl	test_wait_threads
 999              		.loc 6 145 0 discriminator 2
 1000 02bc 0A48     		ldr	r0, .L60
 1001 02be 0A21     		movs	r1, #10
 1002 02c0 FFF7FEFF 		bl	chIQGetTimeout
 1003 02c4 0346     		mov	r3, r0
 1004 02c6 B3F1FF3F 		cmp	r3, #-1
 1005 02ca 0CBF     		ite	eq
 1006 02cc 0123     		moveq	r3, #1
 1007 02ce 0023     		movne	r3, #0
 1008 02d0 DBB2     		uxtb	r3, r3
 1009 02d2 0D20     		movs	r0, #13
 1010 02d4 1946     		mov	r1, r3
 1011 02d6 FFF7FEFF 		bl	_test_assert
 1012 02da 0346     		mov	r3, r0
 1013 02dc 002B     		cmp	r3, #0
 1014 02de 00D0     		beq	.L38
 1015              		.loc 6 145 0 is_stmt 0 discriminator 5
ARM GAS  /tmp/ccaMkMTV.s 			page 19


 1016 02e0 00BF     		nop
 1017              	.L38:
 1018              		.loc 6 146 0 is_stmt 1
 1019 02e2 04B0     		add	sp, sp, #16
 1020              		.cfi_def_cfa_offset 8
 1021              		@ sp needed
 1022 02e4 10BD     		pop	{r4, pc}
 1023              	.L61:
 1024 02e6 00BF     		.align	2
 1025              	.L60:
 1026 02e8 00000000 		.word	iq
 1027 02ec 00000000 		.word	.LC0
 1028 02f0 00000000 		.word	wa
 1029 02f4 00000000 		.word	thread1
 1030 02f8 00000000 		.word	threads
 1031              		.cfi_endproc
 1032              	.LFE219:
 1033              		.size	queues1_execute, .-queues1_execute
 1034              		.global	testqueues1
 1035 02fc AFF30080 		.section	.rodata
 1036 0005 000000   		.align	2
 1037              	.LC1:
 1038 0008 51756575 		.ascii	"Queues, input queues\000"
 1038      65732C20 
 1038      696E7075 
 1038      74207175 
 1038      65756573 
 1039              		.section	.rodata.testqueues1,"a",%progbits
 1040              		.align	2
 1041              		.type	testqueues1, %object
 1042              		.size	testqueues1, 16
 1043              	testqueues1:
 1044 0000 08000000 		.word	.LC1
 1045 0004 00000000 		.word	queues1_setup
 1046 0008 00000000 		.word	0
 1047 000c 00000000 		.word	queues1_execute
 1048              		.section	.text.queues2_setup,"ax",%progbits
 1049              		.align	2
 1050              		.p2align 4,,15
 1051              		.thumb
 1052              		.thumb_func
 1053              		.type	queues2_setup, %function
 1054              	queues2_setup:
 1055              	.LFB220:
 1056              		.loc 6 164 0
 1057              		.cfi_startproc
 1058              		@ args = 0, pretend = 0, frame = 0
 1059              		@ frame_needed = 0, uses_anonymous_args = 0
 1060 0000 00B5     		push	{lr}
 1061              		.cfi_def_cfa_offset 4
 1062              		.cfi_offset 14, -4
 1063 0002 83B0     		sub	sp, sp, #12
 1064              		.cfi_def_cfa_offset 16
 1065              		.loc 6 166 0
 1066 0004 064B     		ldr	r3, .L63
 1067 0006 1A68     		ldr	r2, [r3]
 1068 0008 0023     		movs	r3, #0
ARM GAS  /tmp/ccaMkMTV.s 			page 20


 1069 000a 0093     		str	r3, [sp]
 1070 000c 0548     		ldr	r0, .L63+4
 1071 000e 1146     		mov	r1, r2
 1072 0010 0422     		movs	r2, #4
 1073 0012 054B     		ldr	r3, .L63+8
 1074 0014 FFF7FEFF 		bl	chOQObjectInit
 1075              		.loc 6 167 0
 1076 0018 03B0     		add	sp, sp, #12
 1077              		.cfi_def_cfa_offset 4
 1078              		@ sp needed
 1079 001a 5DF804FB 		ldr	pc, [sp], #4
 1080              	.L64:
 1081 001e 00BF     		.align	2
 1082              	.L63:
 1083 0020 00000000 		.word	wa
 1084 0024 00000000 		.word	oq
 1085 0028 00000000 		.word	notify
 1086              		.cfi_endproc
 1087              	.LFE220:
 1088              		.size	queues2_setup, .-queues2_setup
 1089 002c AFF30080 		.section	.text.thread2,"ax",%progbits
 1090              		.align	2
 1091              		.p2align 4,,15
 1092              		.thumb
 1093              		.thumb_func
 1094              		.type	thread2, %function
 1095              	thread2:
 1096              	.LFB221:
 1097              		.loc 6 169 0
 1098              		.cfi_startproc
 1099              		@ args = 0, pretend = 0, frame = 8
 1100              		@ frame_needed = 0, uses_anonymous_args = 0
 1101 0000 00B5     		push	{lr}
 1102              		.cfi_def_cfa_offset 4
 1103              		.cfi_offset 14, -4
 1104 0002 83B0     		sub	sp, sp, #12
 1105              		.cfi_def_cfa_offset 16
 1106 0004 0190     		str	r0, [sp, #4]
 1107              		.loc 6 172 0
 1108 0006 0448     		ldr	r0, .L66
 1109 0008 0021     		movs	r1, #0
 1110 000a C822     		movs	r2, #200
 1111 000c FFF7FEFF 		bl	chOQPutTimeout
 1112              		.loc 6 173 0
 1113 0010 03B0     		add	sp, sp, #12
 1114              		.cfi_def_cfa_offset 4
 1115              		@ sp needed
 1116 0012 5DF804FB 		ldr	pc, [sp], #4
 1117              	.L67:
 1118 0016 00BF     		.align	2
 1119              	.L66:
 1120 0018 00000000 		.word	oq
 1121              		.cfi_endproc
 1122              	.LFE221:
 1123              		.size	thread2, .-thread2
 1124 001c AFF30080 		.section	.text.queues2_execute,"ax",%progbits
 1125              		.align	2
ARM GAS  /tmp/ccaMkMTV.s 			page 21


 1126              		.p2align 4,,15
 1127              		.thumb
 1128              		.thumb_func
 1129              		.type	queues2_execute, %function
 1130              	queues2_execute:
 1131              	.LFB222:
 1132              		.loc 6 175 0
 1133              		.cfi_startproc
 1134              		@ args = 0, pretend = 0, frame = 16
 1135              		@ frame_needed = 0, uses_anonymous_args = 0
 1136 0000 10B5     		push	{r4, lr}
 1137              		.cfi_def_cfa_offset 8
 1138              		.cfi_offset 4, -8
 1139              		.cfi_offset 14, -4
 1140 0002 86B0     		sub	sp, sp, #24
 1141              		.cfi_def_cfa_offset 32
 1142              		.loc 6 180 0
 1143 0004 FFF7FEFF 		bl	chSysLock
 1144 0008 A148     		ldr	r0, .L86
 1145 000a FFF7FEFF 		bl	chOQIsEmptyI
 1146 000e 0346     		mov	r3, r0
 1147 0010 0120     		movs	r0, #1
 1148 0012 1946     		mov	r1, r3
 1149 0014 FFF7FEFF 		bl	_test_assert
 1150 0018 0346     		mov	r3, r0
 1151 001a 002B     		cmp	r3, #0
 1152 001c 02D0     		beq	.L69
 1153              		.loc 6 180 0 is_stmt 0 discriminator 1
 1154 001e FFF7FEFF 		bl	chSysUnlock
 1155 0022 33E1     		b	.L68
 1156              	.L69:
 1157              		.loc 6 180 0 discriminator 2
 1158 0024 FFF7FEFF 		bl	chSysUnlock
 1159              		.loc 6 183 0 is_stmt 1 discriminator 2
 1160 0028 0023     		movs	r3, #0
 1161 002a 0593     		str	r3, [sp, #20]
 1162 002c 0AE0     		b	.L71
 1163              	.L72:
 1164              		.loc 6 184 0 discriminator 3
 1165 002e 059B     		ldr	r3, [sp, #20]
 1166 0030 DBB2     		uxtb	r3, r3
 1167 0032 4133     		adds	r3, r3, #65
 1168 0034 DBB2     		uxtb	r3, r3
 1169 0036 9648     		ldr	r0, .L86
 1170 0038 1946     		mov	r1, r3
 1171 003a FFF7FEFF 		bl	chOQPut
 1172              		.loc 6 183 0 discriminator 3
 1173 003e 059B     		ldr	r3, [sp, #20]
 1174 0040 0133     		adds	r3, r3, #1
 1175 0042 0593     		str	r3, [sp, #20]
 1176              	.L71:
 1177              		.loc 6 183 0 is_stmt 0 discriminator 1
 1178 0044 059B     		ldr	r3, [sp, #20]
 1179 0046 032B     		cmp	r3, #3
 1180 0048 F1D9     		bls	.L72
 1181              		.loc 6 185 0 is_stmt 1
 1182 004a FFF7FEFF 		bl	chSysLock
ARM GAS  /tmp/ccaMkMTV.s 			page 22


 1183 004e 9048     		ldr	r0, .L86
 1184 0050 FFF7FEFF 		bl	chOQIsFullI
 1185 0054 0346     		mov	r3, r0
 1186 0056 0220     		movs	r0, #2
 1187 0058 1946     		mov	r1, r3
 1188 005a FFF7FEFF 		bl	_test_assert
 1189 005e 0346     		mov	r3, r0
 1190 0060 002B     		cmp	r3, #0
 1191 0062 02D0     		beq	.L73
 1192              		.loc 6 185 0 is_stmt 0 discriminator 1
 1193 0064 FFF7FEFF 		bl	chSysUnlock
 1194 0068 10E1     		b	.L68
 1195              	.L73:
 1196              		.loc 6 185 0 discriminator 2
 1197 006a FFF7FEFF 		bl	chSysUnlock
 1198              		.loc 6 188 0 is_stmt 1 discriminator 2
 1199 006e 0023     		movs	r3, #0
 1200 0070 0593     		str	r3, [sp, #20]
 1201 0072 11E0     		b	.L74
 1202              	.L75:
 1203              	.LBB10:
 1204              		.loc 6 191 0 discriminator 3
 1205 0074 FFF7FEFF 		bl	chSysLock
 1206              		.loc 6 192 0 discriminator 3
 1207 0078 8548     		ldr	r0, .L86
 1208 007a FFF7FEFF 		bl	chOQGetI
 1209 007e 0346     		mov	r3, r0
 1210 0080 8DF81330 		strb	r3, [sp, #19]
 1211              		.loc 6 193 0 discriminator 3
 1212 0084 FFF7FEFF 		bl	chSysUnlock
 1213              		.loc 6 194 0 discriminator 3
 1214 0088 9DF81330 		ldrb	r3, [sp, #19]	@ zero_extendqisi2
 1215 008c 1846     		mov	r0, r3
 1216 008e FFF7FEFF 		bl	test_emit_token
 1217              	.LBE10:
 1218              		.loc 6 188 0 discriminator 3
 1219 0092 059B     		ldr	r3, [sp, #20]
 1220 0094 0133     		adds	r3, r3, #1
 1221 0096 0593     		str	r3, [sp, #20]
 1222              	.L74:
 1223              		.loc 6 188 0 is_stmt 0 discriminator 1
 1224 0098 059B     		ldr	r3, [sp, #20]
 1225 009a 032B     		cmp	r3, #3
 1226 009c EAD9     		bls	.L75
 1227              		.loc 6 196 0 is_stmt 1
 1228 009e FFF7FEFF 		bl	chSysLock
 1229 00a2 7B48     		ldr	r0, .L86
 1230 00a4 FFF7FEFF 		bl	chOQIsEmptyI
 1231 00a8 0346     		mov	r3, r0
 1232 00aa 0320     		movs	r0, #3
 1233 00ac 1946     		mov	r1, r3
 1234 00ae FFF7FEFF 		bl	_test_assert
 1235 00b2 0346     		mov	r3, r0
 1236 00b4 002B     		cmp	r3, #0
 1237 00b6 02D0     		beq	.L76
 1238              		.loc 6 196 0 is_stmt 0 discriminator 1
 1239 00b8 FFF7FEFF 		bl	chSysUnlock
ARM GAS  /tmp/ccaMkMTV.s 			page 23


 1240 00bc E6E0     		b	.L68
 1241              	.L76:
 1242              		.loc 6 196 0 discriminator 2
 1243 00be FFF7FEFF 		bl	chSysUnlock
 1244              		.loc 6 197 0 is_stmt 1 discriminator 2
 1245 00c2 0420     		movs	r0, #4
 1246 00c4 7349     		ldr	r1, .L86+4
 1247 00c6 FFF7FEFF 		bl	_test_assert_sequence
 1248 00ca 0346     		mov	r3, r0
 1249 00cc 002B     		cmp	r3, #0
 1250 00ce 00D0     		beq	.L77
 1251              		.loc 6 197 0 is_stmt 0
 1252 00d0 DCE0     		b	.L68
 1253              	.L77:
 1254              		.loc 6 198 0 is_stmt 1
 1255 00d2 FFF7FEFF 		bl	chSysLock
 1256 00d6 6E48     		ldr	r0, .L86
 1257 00d8 FFF7FEFF 		bl	chOQGetI
 1258 00dc 0346     		mov	r3, r0
 1259 00de 13F1030F 		cmn	r3, #3
 1260 00e2 0CBF     		ite	eq
 1261 00e4 0123     		moveq	r3, #1
 1262 00e6 0023     		movne	r3, #0
 1263 00e8 DBB2     		uxtb	r3, r3
 1264 00ea 0520     		movs	r0, #5
 1265 00ec 1946     		mov	r1, r3
 1266 00ee FFF7FEFF 		bl	_test_assert
 1267 00f2 0346     		mov	r3, r0
 1268 00f4 002B     		cmp	r3, #0
 1269 00f6 02D0     		beq	.L78
 1270              		.loc 6 198 0 is_stmt 0 discriminator 1
 1271 00f8 FFF7FEFF 		bl	chSysUnlock
 1272 00fc C6E0     		b	.L68
 1273              	.L78:
 1274              		.loc 6 198 0 discriminator 2
 1275 00fe FFF7FEFF 		bl	chSysUnlock
 1276              		.loc 6 201 0 is_stmt 1 discriminator 2
 1277 0102 654B     		ldr	r3, .L86+8
 1278 0104 5B68     		ldr	r3, [r3, #4]
 1279 0106 6248     		ldr	r0, .L86
 1280 0108 1946     		mov	r1, r3
 1281 010a 0822     		movs	r2, #8
 1282 010c 0023     		movs	r3, #0
 1283 010e FFF7FEFF 		bl	chOQWriteTimeout
 1284 0112 0390     		str	r0, [sp, #12]
 1285              		.loc 6 202 0 discriminator 2
 1286 0114 039B     		ldr	r3, [sp, #12]
 1287 0116 042B     		cmp	r3, #4
 1288 0118 0CBF     		ite	eq
 1289 011a 0123     		moveq	r3, #1
 1290 011c 0023     		movne	r3, #0
 1291 011e DBB2     		uxtb	r3, r3
 1292 0120 0620     		movs	r0, #6
 1293 0122 1946     		mov	r1, r3
 1294 0124 FFF7FEFF 		bl	_test_assert
 1295 0128 0346     		mov	r3, r0
 1296 012a 002B     		cmp	r3, #0
ARM GAS  /tmp/ccaMkMTV.s 			page 24


 1297 012c 00D0     		beq	.L79
 1298 012e ADE0     		b	.L68
 1299              	.L79:
 1300              		.loc 6 203 0
 1301 0130 FFF7FEFF 		bl	chSysLock
 1302 0134 5648     		ldr	r0, .L86
 1303 0136 FFF7FEFF 		bl	chOQIsFullI
 1304 013a 0346     		mov	r3, r0
 1305 013c 0720     		movs	r0, #7
 1306 013e 1946     		mov	r1, r3
 1307 0140 FFF7FEFF 		bl	_test_assert
 1308 0144 0346     		mov	r3, r0
 1309 0146 002B     		cmp	r3, #0
 1310 0148 02D0     		beq	.L80
 1311              		.loc 6 203 0 is_stmt 0 discriminator 1
 1312 014a FFF7FEFF 		bl	chSysUnlock
 1313 014e 9DE0     		b	.L68
 1314              	.L80:
 1315              		.loc 6 203 0 discriminator 2
 1316 0150 FFF7FEFF 		bl	chSysUnlock
 1317              		.loc 6 204 0 is_stmt 1 discriminator 2
 1318 0154 504B     		ldr	r3, .L86+8
 1319 0156 1C68     		ldr	r4, [r3]
 1320 0158 FFF7FEFF 		bl	chThdGetPriorityX
 1321 015c 0346     		mov	r3, r0
 1322 015e 5A1C     		adds	r2, r3, #1
 1323 0160 0023     		movs	r3, #0
 1324 0162 0093     		str	r3, [sp]
 1325 0164 2046     		mov	r0, r4
 1326 0166 4FF4E871 		mov	r1, #464
 1327 016a 4C4B     		ldr	r3, .L86+12
 1328 016c FFF7FEFF 		bl	chThdCreateStatic
 1329 0170 0246     		mov	r2, r0
 1330 0172 4B4B     		ldr	r3, .L86+16
 1331 0174 1A60     		str	r2, [r3]
 1332              		.loc 6 205 0 discriminator 2
 1333 0176 FFF7FEFF 		bl	chSysLock
 1334 017a 4548     		ldr	r0, .L86
 1335 017c FFF7FEFF 		bl	chOQGetFullI
 1336 0180 0346     		mov	r3, r0
 1337 0182 042B     		cmp	r3, #4
 1338 0184 0CBF     		ite	eq
 1339 0186 0123     		moveq	r3, #1
 1340 0188 0023     		movne	r3, #0
 1341 018a DBB2     		uxtb	r3, r3
 1342 018c 0820     		movs	r0, #8
 1343 018e 1946     		mov	r1, r3
 1344 0190 FFF7FEFF 		bl	_test_assert
 1345 0194 0346     		mov	r3, r0
 1346 0196 002B     		cmp	r3, #0
 1347 0198 02D0     		beq	.L81
 1348              		.loc 6 205 0 is_stmt 0 discriminator 1
 1349 019a FFF7FEFF 		bl	chSysUnlock
 1350 019e 75E0     		b	.L68
 1351              	.L81:
 1352              		.loc 6 205 0 discriminator 2
 1353 01a0 FFF7FEFF 		bl	chSysUnlock
ARM GAS  /tmp/ccaMkMTV.s 			page 25


 1354              		.loc 6 206 0 is_stmt 1 discriminator 2
 1355 01a4 FFF7FEFF 		bl	test_wait_threads
 1356              		.loc 6 209 0 discriminator 2
 1357 01a8 FFF7FEFF 		bl	chSysLock
 1358              		.loc 6 210 0 discriminator 2
 1359 01ac 3848     		ldr	r0, .L86
 1360 01ae FFF7FEFF 		bl	chOQResetI
 1361              		.loc 6 211 0 discriminator 2
 1362 01b2 FFF7FEFF 		bl	chSysUnlock
 1363              		.loc 6 212 0 discriminator 2
 1364 01b6 FFF7FEFF 		bl	chSysLock
 1365 01ba 3548     		ldr	r0, .L86
 1366 01bc FFF7FEFF 		bl	chOQGetFullI
 1367 01c0 0346     		mov	r3, r0
 1368 01c2 002B     		cmp	r3, #0
 1369 01c4 0CBF     		ite	eq
 1370 01c6 0123     		moveq	r3, #1
 1371 01c8 0023     		movne	r3, #0
 1372 01ca DBB2     		uxtb	r3, r3
 1373 01cc 0920     		movs	r0, #9
 1374 01ce 1946     		mov	r1, r3
 1375 01d0 FFF7FEFF 		bl	_test_assert
 1376 01d4 0346     		mov	r3, r0
 1377 01d6 002B     		cmp	r3, #0
 1378 01d8 02D0     		beq	.L82
 1379              		.loc 6 212 0 is_stmt 0 discriminator 1
 1380 01da FFF7FEFF 		bl	chSysUnlock
 1381 01de 55E0     		b	.L68
 1382              	.L82:
 1383              		.loc 6 212 0 discriminator 2
 1384 01e0 FFF7FEFF 		bl	chSysUnlock
 1385              		.loc 6 215 0 is_stmt 1 discriminator 2
 1386 01e4 2C4B     		ldr	r3, .L86+8
 1387 01e6 5B68     		ldr	r3, [r3, #4]
 1388 01e8 2948     		ldr	r0, .L86
 1389 01ea 1946     		mov	r1, r3
 1390 01ec 0222     		movs	r2, #2
 1391 01ee 0023     		movs	r3, #0
 1392 01f0 FFF7FEFF 		bl	chOQWriteTimeout
 1393 01f4 0390     		str	r0, [sp, #12]
 1394              		.loc 6 216 0 discriminator 2
 1395 01f6 039B     		ldr	r3, [sp, #12]
 1396 01f8 022B     		cmp	r3, #2
 1397 01fa 0CBF     		ite	eq
 1398 01fc 0123     		moveq	r3, #1
 1399 01fe 0023     		movne	r3, #0
 1400 0200 DBB2     		uxtb	r3, r3
 1401 0202 0A20     		movs	r0, #10
 1402 0204 1946     		mov	r1, r3
 1403 0206 FFF7FEFF 		bl	_test_assert
 1404 020a 0346     		mov	r3, r0
 1405 020c 002B     		cmp	r3, #0
 1406 020e 00D0     		beq	.L83
 1407              		.loc 6 216 0 is_stmt 0 discriminator 3
 1408 0210 3CE0     		b	.L68
 1409              	.L83:
 1410              		.loc 6 217 0 is_stmt 1
ARM GAS  /tmp/ccaMkMTV.s 			page 26


 1411 0212 214B     		ldr	r3, .L86+8
 1412 0214 5B68     		ldr	r3, [r3, #4]
 1413 0216 1E48     		ldr	r0, .L86
 1414 0218 1946     		mov	r1, r3
 1415 021a 0222     		movs	r2, #2
 1416 021c 0023     		movs	r3, #0
 1417 021e FFF7FEFF 		bl	chOQWriteTimeout
 1418 0222 0390     		str	r0, [sp, #12]
 1419              		.loc 6 218 0
 1420 0224 039B     		ldr	r3, [sp, #12]
 1421 0226 022B     		cmp	r3, #2
 1422 0228 0CBF     		ite	eq
 1423 022a 0123     		moveq	r3, #1
 1424 022c 0023     		movne	r3, #0
 1425 022e DBB2     		uxtb	r3, r3
 1426 0230 0B20     		movs	r0, #11
 1427 0232 1946     		mov	r1, r3
 1428 0234 FFF7FEFF 		bl	_test_assert
 1429 0238 0346     		mov	r3, r0
 1430 023a 002B     		cmp	r3, #0
 1431 023c 00D0     		beq	.L84
 1432              		.loc 6 218 0 is_stmt 0 discriminator 4
 1433 023e 25E0     		b	.L68
 1434              	.L84:
 1435              		.loc 6 219 0 is_stmt 1
 1436 0240 FFF7FEFF 		bl	chSysLock
 1437 0244 1248     		ldr	r0, .L86
 1438 0246 FFF7FEFF 		bl	chOQIsFullI
 1439 024a 0346     		mov	r3, r0
 1440 024c 0C20     		movs	r0, #12
 1441 024e 1946     		mov	r1, r3
 1442 0250 FFF7FEFF 		bl	_test_assert
 1443 0254 0346     		mov	r3, r0
 1444 0256 002B     		cmp	r3, #0
 1445 0258 02D0     		beq	.L85
 1446              		.loc 6 219 0 is_stmt 0 discriminator 1
 1447 025a FFF7FEFF 		bl	chSysUnlock
 1448 025e 15E0     		b	.L68
 1449              	.L85:
 1450              		.loc 6 219 0 discriminator 2
 1451 0260 FFF7FEFF 		bl	chSysUnlock
 1452              		.loc 6 222 0 is_stmt 1 discriminator 2
 1453 0264 0A48     		ldr	r0, .L86
 1454 0266 0021     		movs	r1, #0
 1455 0268 0A22     		movs	r2, #10
 1456 026a FFF7FEFF 		bl	chOQPutTimeout
 1457 026e 0346     		mov	r3, r0
 1458 0270 B3F1FF3F 		cmp	r3, #-1
 1459 0274 0CBF     		ite	eq
 1460 0276 0123     		moveq	r3, #1
 1461 0278 0023     		movne	r3, #0
 1462 027a DBB2     		uxtb	r3, r3
 1463 027c 0D20     		movs	r0, #13
 1464 027e 1946     		mov	r1, r3
 1465 0280 FFF7FEFF 		bl	_test_assert
 1466 0284 0346     		mov	r3, r0
 1467 0286 002B     		cmp	r3, #0
ARM GAS  /tmp/ccaMkMTV.s 			page 27


 1468 0288 00D0     		beq	.L68
 1469              		.loc 6 222 0 is_stmt 0 discriminator 5
 1470 028a 00BF     		nop
 1471              	.L68:
 1472              		.loc 6 223 0 is_stmt 1
 1473 028c 06B0     		add	sp, sp, #24
 1474              		.cfi_def_cfa_offset 8
 1475              		@ sp needed
 1476 028e 10BD     		pop	{r4, pc}
 1477              	.L87:
 1478              		.align	2
 1479              	.L86:
 1480 0290 00000000 		.word	oq
 1481 0294 00000000 		.word	.LC0
 1482 0298 00000000 		.word	wa
 1483 029c 00000000 		.word	thread2
 1484 02a0 00000000 		.word	threads
 1485              		.cfi_endproc
 1486              	.LFE222:
 1487              		.size	queues2_execute, .-queues2_execute
 1488              		.global	testqueues2
 1489 02a4 AFF30080 		.section	.rodata
 1489      AFF30080 
 1489      AFF30080 
 1490 001d 000000   		.align	2
 1491              	.LC2:
 1492 0020 51756575 		.ascii	"Queues, output queues\000"
 1492      65732C20 
 1492      6F757470 
 1492      75742071 
 1492      75657565 
 1493 0036 0000     		.section	.rodata.testqueues2,"a",%progbits
 1494              		.align	2
 1495              		.type	testqueues2, %object
 1496              		.size	testqueues2, 16
 1497              	testqueues2:
 1498 0000 20000000 		.word	.LC2
 1499 0004 00000000 		.word	queues2_setup
 1500 0008 00000000 		.word	0
 1501 000c 00000000 		.word	queues2_execute
 1502              		.global	patternqueues
 1503              		.section	.rodata.patternqueues,"a",%progbits
 1504              		.align	2
 1505              		.type	patternqueues, %object
 1506              		.size	patternqueues, 12
 1507              	patternqueues:
 1508 0000 00000000 		.word	testqueues1
 1509 0004 00000000 		.word	testqueues2
 1510 0008 00000000 		.word	0
 1511              		.text
 1512              	.Letext0:
 1513              		.file 7 "/opt/gcc-arm-none-eabi/lib/gcc/arm-none-eabi/4.9.3/include/stddef.h"
 1514              		.file 8 "/opt/gcc-arm-none-eabi/arm-none-eabi/include/machine/_default_types.h"
 1515              		.file 9 "/opt/gcc-arm-none-eabi/arm-none-eabi/include/stdint.h"
 1516              		.file 10 "/home/makkmarci/workspace/CLEAN/ChibiOS/os/rt/ports/ARMCMx/compilers/GCC/chtypes.h"
 1517              		.file 11 "/home/makkmarci/workspace/CLEAN/ChibiOS/os/rt/include/chsystypes.h"
 1518              		.file 12 "/home/makkmarci/workspace/CLEAN/ChibiOS/os/rt/include/chschd.h"
ARM GAS  /tmp/ccaMkMTV.s 			page 28


 1519              		.file 13 "/home/makkmarci/workspace/CLEAN/ChibiOS/os/rt/ports/ARMCMx/chcore.h"
 1520              		.file 14 "/home/makkmarci/workspace/CLEAN/ChibiOS/os/rt/include/chtm.h"
 1521              		.file 15 "/home/makkmarci/workspace/CLEAN/ChibiOS/os/rt/include/chsem.h"
 1522              		.file 16 "/home/makkmarci/workspace/CLEAN/ChibiOS/os/rt/include/chmtx.h"
 1523              		.file 17 "/home/makkmarci/workspace/CLEAN/ChibiOS/test/rt/test.h"
 1524              		.file 18 "/home/makkmarci/workspace/CLEAN/ChibiOS/os/ext/CMSIS/include/core_cm4.h"