ARM GAS  /tmp/cc7g3u4R.s 			page 1


   1              		.syntax unified
   2              		.cpu cortex-m4
   3              		.eabi_attribute 27, 1
   4              		.eabi_attribute 28, 1
   5              		.fpu fpv4-sp-d16
   6              		.eabi_attribute 20, 1
   7              		.eabi_attribute 21, 1
   8              		.eabi_attribute 23, 3
   9              		.eabi_attribute 24, 1
  10              		.eabi_attribute 25, 1
  11              		.eabi_attribute 26, 1
  12              		.eabi_attribute 30, 6
  13              		.eabi_attribute 34, 1
  14              		.eabi_attribute 18, 4
  15              		.thumb
  16              		.file	"testevt.c"
  17              		.text
  18              	.Ltext0:
  19              		.cfi_sections	.debug_frame
  20              		.section	.text.port_lock,"ax",%progbits
  21              		.align	2
  22              		.p2align 4,,15
  23              		.thumb
  24              		.thumb_func
  25              		.type	port_lock, %function
  26              	port_lock:
  27              	.LFB116:
  28              		.file 1 "/home/makkmarci/workspace/CLEAN/ChibiOS/os/rt/ports/ARMCMx/chcore_v7m.h"
  29              		.loc 1 444 0
  30              		.cfi_startproc
  31              		@ args = 0, pretend = 0, frame = 8
  32              		@ frame_needed = 0, uses_anonymous_args = 0
  33              		@ link register save eliminated.
  34 0000 82B0     		sub	sp, sp, #8
  35              		.cfi_def_cfa_offset 8
  36 0002 2023     		movs	r3, #32
  37 0004 0193     		str	r3, [sp, #4]
  38              	.LBB6:
  39              	.LBB7:
  40              		.file 2 "/home/makkmarci/workspace/CLEAN/ChibiOS/os/ext/CMSIS/include/core_cmFunc.h"
  41              		.loc 2 546 0
  42 0006 019B     		ldr	r3, [sp, #4]
  43              	@ 546 "/home/makkmarci/workspace/CLEAN/ChibiOS/os/ext/CMSIS/include/core_cmFunc.h" 1
  44 0008 83F31188 		MSR basepri, r3
  45              	@ 0 "" 2
  46              		.thumb
  47              	.LBE7:
  48              	.LBE6:
  49              		.loc 1 451 0
  50 000c 02B0     		add	sp, sp, #8
  51              		.cfi_def_cfa_offset 0
  52              		@ sp needed
  53 000e 7047     		bx	lr
  54              		.cfi_endproc
  55              	.LFE116:
  56              		.size	port_lock, .-port_lock
  57              		.section	.text.port_unlock,"ax",%progbits
ARM GAS  /tmp/cc7g3u4R.s 			page 2


  58              		.align	2
  59              		.p2align 4,,15
  60              		.thumb
  61              		.thumb_func
  62              		.type	port_unlock, %function
  63              	port_unlock:
  64              	.LFB117:
  65              		.loc 1 458 0
  66              		.cfi_startproc
  67              		@ args = 0, pretend = 0, frame = 8
  68              		@ frame_needed = 0, uses_anonymous_args = 0
  69              		@ link register save eliminated.
  70 0000 82B0     		sub	sp, sp, #8
  71              		.cfi_def_cfa_offset 8
  72 0002 0023     		movs	r3, #0
  73 0004 0193     		str	r3, [sp, #4]
  74              	.LBB8:
  75              	.LBB9:
  76              		.loc 2 546 0
  77 0006 019B     		ldr	r3, [sp, #4]
  78              	@ 546 "/home/makkmarci/workspace/CLEAN/ChibiOS/os/ext/CMSIS/include/core_cmFunc.h" 1
  79 0008 83F31188 		MSR basepri, r3
  80              	@ 0 "" 2
  81              		.thumb
  82              	.LBE9:
  83              	.LBE8:
  84              		.loc 1 465 0
  85 000c 02B0     		add	sp, sp, #8
  86              		.cfi_def_cfa_offset 0
  87              		@ sp needed
  88 000e 7047     		bx	lr
  89              		.cfi_endproc
  90              	.LFE117:
  91              		.size	port_unlock, .-port_unlock
  92              		.section	.text.chSysLock,"ax",%progbits
  93              		.align	2
  94              		.p2align 4,,15
  95              		.thumb
  96              		.thumb_func
  97              		.type	chSysLock, %function
  98              	chSysLock:
  99              	.LFB145:
 100              		.file 3 "/home/makkmarci/workspace/CLEAN/ChibiOS/os/rt/include/chsys.h"
 101              		.loc 3 346 0
 102              		.cfi_startproc
 103              		@ args = 0, pretend = 0, frame = 0
 104              		@ frame_needed = 0, uses_anonymous_args = 0
 105 0000 08B5     		push	{r3, lr}
 106              		.cfi_def_cfa_offset 8
 107              		.cfi_offset 3, -8
 108              		.cfi_offset 14, -4
 109              		.loc 3 348 0
 110 0002 FFF7FEFF 		bl	port_lock
 111              		.loc 3 351 0
 112 0006 08BD     		pop	{r3, pc}
 113              		.cfi_endproc
 114              	.LFE145:
ARM GAS  /tmp/cc7g3u4R.s 			page 3


 115              		.size	chSysLock, .-chSysLock
 116              		.section	.text.chSysUnlock,"ax",%progbits
 117              		.align	2
 118              		.p2align 4,,15
 119              		.thumb
 120              		.thumb_func
 121              		.type	chSysUnlock, %function
 122              	chSysUnlock:
 123              	.LFB146:
 124              		.loc 3 358 0
 125              		.cfi_startproc
 126              		@ args = 0, pretend = 0, frame = 0
 127              		@ frame_needed = 0, uses_anonymous_args = 0
 128 0000 08B5     		push	{r3, lr}
 129              		.cfi_def_cfa_offset 8
 130              		.cfi_offset 3, -8
 131              		.cfi_offset 14, -4
 132              		.loc 3 371 0
 133 0002 FFF7FEFF 		bl	port_unlock
 134              		.loc 3 372 0
 135 0006 08BD     		pop	{r3, pc}
 136              		.cfi_endproc
 137              	.LFE146:
 138              		.size	chSysUnlock, .-chSysUnlock
 139 0008 AFF30080 		.section	.text.chVTGetSystemTimeX,"ax",%progbits
 139      AFF30080 
 140              		.align	2
 141              		.p2align 4,,15
 142              		.thumb
 143              		.thumb_func
 144              		.type	chVTGetSystemTimeX, %function
 145              	chVTGetSystemTimeX:
 146              	.LFB153:
 147              		.file 4 "/home/makkmarci/workspace/CLEAN/ChibiOS/os/rt/include/chvt.h"
 148              		.loc 4 228 0
 149              		.cfi_startproc
 150              		@ args = 0, pretend = 0, frame = 0
 151              		@ frame_needed = 0, uses_anonymous_args = 0
 152              		@ link register save eliminated.
 153              		.loc 4 231 0
 154 0000 014B     		ldr	r3, .L7
 155 0002 9B6A     		ldr	r3, [r3, #40]
 156              		.loc 4 235 0
 157 0004 1846     		mov	r0, r3
 158 0006 7047     		bx	lr
 159              	.L8:
 160              		.align	2
 161              	.L7:
 162 0008 00000000 		.word	ch
 163              		.cfi_endproc
 164              	.LFE153:
 165              		.size	chVTGetSystemTimeX, .-chVTGetSystemTimeX
 166 000c AFF30080 		.section	.text.chVTGetSystemTime,"ax",%progbits
 167              		.align	2
 168              		.p2align 4,,15
 169              		.thumb
 170              		.thumb_func
ARM GAS  /tmp/cc7g3u4R.s 			page 4


 171              		.type	chVTGetSystemTime, %function
 172              	chVTGetSystemTime:
 173              	.LFB154:
 174              		.loc 4 247 0
 175              		.cfi_startproc
 176              		@ args = 0, pretend = 0, frame = 8
 177              		@ frame_needed = 0, uses_anonymous_args = 0
 178 0000 00B5     		push	{lr}
 179              		.cfi_def_cfa_offset 4
 180              		.cfi_offset 14, -4
 181 0002 83B0     		sub	sp, sp, #12
 182              		.cfi_def_cfa_offset 16
 183              		.loc 4 250 0
 184 0004 FFF7FEFF 		bl	chSysLock
 185              		.loc 4 251 0
 186 0008 FFF7FEFF 		bl	chVTGetSystemTimeX
 187 000c 0190     		str	r0, [sp, #4]
 188              		.loc 4 252 0
 189 000e FFF7FEFF 		bl	chSysUnlock
 190              		.loc 4 254 0
 191 0012 019B     		ldr	r3, [sp, #4]
 192              		.loc 4 255 0
 193 0014 1846     		mov	r0, r3
 194 0016 03B0     		add	sp, sp, #12
 195              		.cfi_def_cfa_offset 4
 196              		@ sp needed
 197 0018 5DF804FB 		ldr	pc, [sp], #4
 198              		.cfi_endproc
 199              	.LFE154:
 200              		.size	chVTGetSystemTime, .-chVTGetSystemTime
 201 001c AFF30080 		.section	.text.chThdGetSelfX,"ax",%progbits
 202              		.align	2
 203              		.p2align 4,,15
 204              		.thumb
 205              		.thumb_func
 206              		.type	chThdGetSelfX, %function
 207              	chThdGetSelfX:
 208              	.LFB166:
 209              		.file 5 "/home/makkmarci/workspace/CLEAN/ChibiOS/os/rt/include/chthreads.h"
 210              		.loc 5 174 0
 211              		.cfi_startproc
 212              		@ args = 0, pretend = 0, frame = 0
 213              		@ frame_needed = 0, uses_anonymous_args = 0
 214              		@ link register save eliminated.
 215              		.loc 5 176 0
 216 0000 014B     		ldr	r3, .L13
 217 0002 9B69     		ldr	r3, [r3, #24]
 218              		.loc 5 177 0
 219 0004 1846     		mov	r0, r3
 220 0006 7047     		bx	lr
 221              	.L14:
 222              		.align	2
 223              	.L13:
 224 0008 00000000 		.word	ch
 225              		.cfi_endproc
 226              	.LFE166:
 227              		.size	chThdGetSelfX, .-chThdGetSelfX
ARM GAS  /tmp/cc7g3u4R.s 			page 5


 228 000c AFF30080 		.section	.text.chThdGetPriorityX,"ax",%progbits
 229              		.align	2
 230              		.p2align 4,,15
 231              		.thumb
 232              		.thumb_func
 233              		.type	chThdGetPriorityX, %function
 234              	chThdGetPriorityX:
 235              	.LFB167:
 236              		.loc 5 187 0
 237              		.cfi_startproc
 238              		@ args = 0, pretend = 0, frame = 0
 239              		@ frame_needed = 0, uses_anonymous_args = 0
 240 0000 08B5     		push	{r3, lr}
 241              		.cfi_def_cfa_offset 8
 242              		.cfi_offset 3, -8
 243              		.cfi_offset 14, -4
 244              		.loc 5 189 0
 245 0002 FFF7FEFF 		bl	chThdGetSelfX
 246 0006 0346     		mov	r3, r0
 247 0008 9B68     		ldr	r3, [r3, #8]
 248              		.loc 5 190 0
 249 000a 1846     		mov	r0, r3
 250 000c 08BD     		pop	{r3, pc}
 251              		.cfi_endproc
 252              	.LFE167:
 253              		.size	chThdGetPriorityX, .-chThdGetPriorityX
 254 000e 00BF     		.section	.text.chEvtObjectInit,"ax",%progbits
 255              		.align	2
 256              		.p2align 4,,15
 257              		.thumb
 258              		.thumb_func
 259              		.type	chEvtObjectInit, %function
 260              	chEvtObjectInit:
 261              	.LFB191:
 262              		.file 6 "/home/makkmarci/workspace/CLEAN/ChibiOS/os/rt/include/chevents.h"
 263              		.loc 6 170 0
 264              		.cfi_startproc
 265              		@ args = 0, pretend = 0, frame = 8
 266              		@ frame_needed = 0, uses_anonymous_args = 0
 267              		@ link register save eliminated.
 268 0000 82B0     		sub	sp, sp, #8
 269              		.cfi_def_cfa_offset 8
 270 0002 0190     		str	r0, [sp, #4]
 271              		.loc 6 172 0
 272 0004 019B     		ldr	r3, [sp, #4]
 273 0006 019A     		ldr	r2, [sp, #4]
 274 0008 1A60     		str	r2, [r3]
 275              		.loc 6 173 0
 276 000a 02B0     		add	sp, sp, #8
 277              		.cfi_def_cfa_offset 0
 278              		@ sp needed
 279 000c 7047     		bx	lr
 280              		.cfi_endproc
 281              	.LFE191:
 282              		.size	chEvtObjectInit, .-chEvtObjectInit
 283 000e 00BF     		.section	.text.chEvtRegisterMask,"ax",%progbits
 284              		.align	2
ARM GAS  /tmp/cc7g3u4R.s 			page 6


 285              		.p2align 4,,15
 286              		.thumb
 287              		.thumb_func
 288              		.type	chEvtRegisterMask, %function
 289              	chEvtRegisterMask:
 290              	.LFB192:
 291              		.loc 6 191 0
 292              		.cfi_startproc
 293              		@ args = 0, pretend = 0, frame = 16
 294              		@ frame_needed = 0, uses_anonymous_args = 0
 295 0000 00B5     		push	{lr}
 296              		.cfi_def_cfa_offset 4
 297              		.cfi_offset 14, -4
 298 0002 85B0     		sub	sp, sp, #20
 299              		.cfi_def_cfa_offset 24
 300 0004 0390     		str	r0, [sp, #12]
 301 0006 0291     		str	r1, [sp, #8]
 302 0008 0192     		str	r2, [sp, #4]
 303              		.loc 6 193 0
 304 000a 0398     		ldr	r0, [sp, #12]
 305 000c 0299     		ldr	r1, [sp, #8]
 306 000e 019A     		ldr	r2, [sp, #4]
 307 0010 4FF0FF33 		mov	r3, #-1
 308 0014 FFF7FEFF 		bl	chEvtRegisterMaskWithFlags
 309              		.loc 6 194 0
 310 0018 05B0     		add	sp, sp, #20
 311              		.cfi_def_cfa_offset 4
 312              		@ sp needed
 313 001a 5DF804FB 		ldr	pc, [sp], #4
 314              		.cfi_endproc
 315              	.LFE192:
 316              		.size	chEvtRegisterMask, .-chEvtRegisterMask
 317 001e 00BF     		.section	.text.chEvtIsListeningI,"ax",%progbits
 318              		.align	2
 319              		.p2align 4,,15
 320              		.thumb
 321              		.thumb_func
 322              		.type	chEvtIsListeningI, %function
 323              	chEvtIsListeningI:
 324              	.LFB194:
 325              		.loc 6 224 0
 326              		.cfi_startproc
 327              		@ args = 0, pretend = 0, frame = 8
 328              		@ frame_needed = 0, uses_anonymous_args = 0
 329              		@ link register save eliminated.
 330 0000 82B0     		sub	sp, sp, #8
 331              		.cfi_def_cfa_offset 8
 332 0002 0190     		str	r0, [sp, #4]
 333              		.loc 6 226 0
 334 0004 019B     		ldr	r3, [sp, #4]
 335 0006 1A68     		ldr	r2, [r3]
 336 0008 019B     		ldr	r3, [sp, #4]
 337 000a 9A42     		cmp	r2, r3
 338 000c 14BF     		ite	ne
 339 000e 0123     		movne	r3, #1
 340 0010 0023     		moveq	r3, #0
 341 0012 DBB2     		uxtb	r3, r3
ARM GAS  /tmp/cc7g3u4R.s 			page 7


 342              		.loc 6 227 0
 343 0014 1846     		mov	r0, r3
 344 0016 02B0     		add	sp, sp, #8
 345              		.cfi_def_cfa_offset 0
 346              		@ sp needed
 347 0018 7047     		bx	lr
 348              		.cfi_endproc
 349              	.LFE194:
 350              		.size	chEvtIsListeningI, .-chEvtIsListeningI
 351 001a 00BFAFF3 		.section	.text.chEvtBroadcast,"ax",%progbits
 351      0080
 352              		.align	2
 353              		.p2align 4,,15
 354              		.thumb
 355              		.thumb_func
 356              		.type	chEvtBroadcast, %function
 357              	chEvtBroadcast:
 358              	.LFB195:
 359              		.loc 6 237 0
 360              		.cfi_startproc
 361              		@ args = 0, pretend = 0, frame = 8
 362              		@ frame_needed = 0, uses_anonymous_args = 0
 363 0000 00B5     		push	{lr}
 364              		.cfi_def_cfa_offset 4
 365              		.cfi_offset 14, -4
 366 0002 83B0     		sub	sp, sp, #12
 367              		.cfi_def_cfa_offset 16
 368 0004 0190     		str	r0, [sp, #4]
 369              		.loc 6 239 0
 370 0006 0198     		ldr	r0, [sp, #4]
 371 0008 0021     		movs	r1, #0
 372 000a FFF7FEFF 		bl	chEvtBroadcastFlags
 373              		.loc 6 240 0
 374 000e 03B0     		add	sp, sp, #12
 375              		.cfi_def_cfa_offset 4
 376              		@ sp needed
 377 0010 5DF804FB 		ldr	pc, [sp], #4
 378              		.cfi_endproc
 379              	.LFE195:
 380              		.size	chEvtBroadcast, .-chEvtBroadcast
 381 0014 AFF30080 		.section	.data.es1,"aw",%progbits
 381      AFF30080 
 381      AFF30080 
 382              		.align	2
 383              		.type	es1, %object
 384              		.size	es1, 4
 385              	es1:
 386 0000 00000000 		.word	es1
 387              		.section	.data.es2,"aw",%progbits
 388              		.align	2
 389              		.type	es2, %object
 390              		.size	es2, 4
 391              	es2:
 392 0000 00000000 		.word	es2
 393              		.section	.text.evt1_setup,"ax",%progbits
 394              		.align	2
 395              		.p2align 4,,15
ARM GAS  /tmp/cc7g3u4R.s 			page 8


 396              		.thumb
 397              		.thumb_func
 398              		.type	evt1_setup, %function
 399              	evt1_setup:
 400              	.LFB216:
 401              		.file 7 "/home/makkmarci/workspace/CLEAN/ChibiOS/test/rt/testevt.c"
 402              		.loc 7 75 0
 403              		.cfi_startproc
 404              		@ args = 0, pretend = 0, frame = 0
 405              		@ frame_needed = 0, uses_anonymous_args = 0
 406 0000 08B5     		push	{r3, lr}
 407              		.cfi_def_cfa_offset 8
 408              		.cfi_offset 3, -8
 409              		.cfi_offset 14, -4
 410              		.loc 7 77 0
 411 0002 4FF0FF30 		mov	r0, #-1
 412 0006 FFF7FEFF 		bl	chEvtGetAndClearEvents
 413              		.loc 7 78 0
 414 000a 08BD     		pop	{r3, pc}
 415              		.cfi_endproc
 416              	.LFE216:
 417              		.size	evt1_setup, .-evt1_setup
 418 000c AFF30080 		.section	.text.h1,"ax",%progbits
 419              		.align	2
 420              		.p2align 4,,15
 421              		.thumb
 422              		.thumb_func
 423              		.type	h1, %function
 424              	h1:
 425              	.LFB217:
 426              		.loc 7 80 0
 427              		.cfi_startproc
 428              		@ args = 0, pretend = 0, frame = 8
 429              		@ frame_needed = 0, uses_anonymous_args = 0
 430 0000 00B5     		push	{lr}
 431              		.cfi_def_cfa_offset 4
 432              		.cfi_offset 14, -4
 433 0002 83B0     		sub	sp, sp, #12
 434              		.cfi_def_cfa_offset 16
 435 0004 0190     		str	r0, [sp, #4]
 436              		.loc 7 80 0
 437 0006 4120     		movs	r0, #65
 438 0008 FFF7FEFF 		bl	test_emit_token
 439 000c 03B0     		add	sp, sp, #12
 440              		.cfi_def_cfa_offset 4
 441              		@ sp needed
 442 000e 5DF804FB 		ldr	pc, [sp], #4
 443              		.cfi_endproc
 444              	.LFE217:
 445              		.size	h1, .-h1
 446 0012 00BFAFF3 		.section	.text.h2,"ax",%progbits
 446      0080AFF3 
 446      0080AFF3 
 446      0080
 447              		.align	2
 448              		.p2align 4,,15
 449              		.thumb
ARM GAS  /tmp/cc7g3u4R.s 			page 9


 450              		.thumb_func
 451              		.type	h2, %function
 452              	h2:
 453              	.LFB218:
 454              		.loc 7 81 0
 455              		.cfi_startproc
 456              		@ args = 0, pretend = 0, frame = 8
 457              		@ frame_needed = 0, uses_anonymous_args = 0
 458 0000 00B5     		push	{lr}
 459              		.cfi_def_cfa_offset 4
 460              		.cfi_offset 14, -4
 461 0002 83B0     		sub	sp, sp, #12
 462              		.cfi_def_cfa_offset 16
 463 0004 0190     		str	r0, [sp, #4]
 464              		.loc 7 81 0
 465 0006 4220     		movs	r0, #66
 466 0008 FFF7FEFF 		bl	test_emit_token
 467 000c 03B0     		add	sp, sp, #12
 468              		.cfi_def_cfa_offset 4
 469              		@ sp needed
 470 000e 5DF804FB 		ldr	pc, [sp], #4
 471              		.cfi_endproc
 472              	.LFE218:
 473              		.size	h2, .-h2
 474 0012 00BFAFF3 		.section	.text.h3,"ax",%progbits
 474      0080AFF3 
 474      0080AFF3 
 474      0080
 475              		.align	2
 476              		.p2align 4,,15
 477              		.thumb
 478              		.thumb_func
 479              		.type	h3, %function
 480              	h3:
 481              	.LFB219:
 482              		.loc 7 82 0
 483              		.cfi_startproc
 484              		@ args = 0, pretend = 0, frame = 8
 485              		@ frame_needed = 0, uses_anonymous_args = 0
 486 0000 00B5     		push	{lr}
 487              		.cfi_def_cfa_offset 4
 488              		.cfi_offset 14, -4
 489 0002 83B0     		sub	sp, sp, #12
 490              		.cfi_def_cfa_offset 16
 491 0004 0190     		str	r0, [sp, #4]
 492              		.loc 7 82 0
 493 0006 4320     		movs	r0, #67
 494 0008 FFF7FEFF 		bl	test_emit_token
 495 000c 03B0     		add	sp, sp, #12
 496              		.cfi_def_cfa_offset 4
 497              		@ sp needed
 498 000e 5DF804FB 		ldr	pc, [sp], #4
 499              		.cfi_endproc
 500              	.LFE219:
 501              		.size	h3, .-h3
 502 0012 00BFAFF3 		.section	.rodata.evhndl,"a",%progbits
 502      0080AFF3 
ARM GAS  /tmp/cc7g3u4R.s 			page 10


 502      0080AFF3 
 502      0080
 503              		.align	2
 504              		.type	evhndl, %object
 505              		.size	evhndl, 12
 506              	evhndl:
 507 0000 00000000 		.word	h1
 508 0004 00000000 		.word	h2
 509 0008 00000000 		.word	h3
 510              		.section	.rodata
 511              		.align	2
 512              	.LC0:
 513 0000 41424300 		.ascii	"ABC\000"
 514              		.section	.text.evt1_execute,"ax",%progbits
 515              		.align	2
 516              		.p2align 4,,15
 517              		.thumb
 518              		.thumb_func
 519              		.type	evt1_execute, %function
 520              	evt1_execute:
 521              	.LFB220:
 522              		.loc 7 85 0
 523              		.cfi_startproc
 524              		@ args = 0, pretend = 0, frame = 40
 525              		@ frame_needed = 0, uses_anonymous_args = 0
 526 0000 00B5     		push	{lr}
 527              		.cfi_def_cfa_offset 4
 528              		.cfi_offset 14, -4
 529 0002 8BB0     		sub	sp, sp, #44
 530              		.cfi_def_cfa_offset 48
 531              		.loc 7 91 0
 532 0004 2B48     		ldr	r0, .L33
 533 0006 FFF7FEFF 		bl	chEvtObjectInit
 534              		.loc 7 92 0
 535 000a 05AB     		add	r3, sp, #20
 536 000c 2948     		ldr	r0, .L33
 537 000e 1946     		mov	r1, r3
 538 0010 0122     		movs	r2, #1
 539 0012 FFF7FEFF 		bl	chEvtRegisterMask
 540              		.loc 7 93 0
 541 0016 6B46     		mov	r3, sp
 542 0018 2648     		ldr	r0, .L33
 543 001a 1946     		mov	r1, r3
 544 001c 0222     		movs	r2, #2
 545 001e FFF7FEFF 		bl	chEvtRegisterMask
 546              		.loc 7 94 0
 547 0022 2448     		ldr	r0, .L33
 548 0024 FFF7FEFF 		bl	chEvtIsListeningI
 549 0028 0346     		mov	r3, r0
 550 002a 0120     		movs	r0, #1
 551 002c 1946     		mov	r1, r3
 552 002e FFF7FEFF 		bl	_test_assert
 553 0032 0346     		mov	r3, r0
 554 0034 002B     		cmp	r3, #0
 555 0036 00D0     		beq	.L27
 556 0038 38E0     		b	.L26
 557              	.L27:
ARM GAS  /tmp/cc7g3u4R.s 			page 11


 558              		.loc 7 95 0
 559 003a 05AB     		add	r3, sp, #20
 560 003c 1D48     		ldr	r0, .L33
 561 003e 1946     		mov	r1, r3
 562 0040 FFF7FEFF 		bl	chEvtUnregister
 563              		.loc 7 96 0
 564 0044 1B48     		ldr	r0, .L33
 565 0046 FFF7FEFF 		bl	chEvtIsListeningI
 566 004a 0346     		mov	r3, r0
 567 004c 0220     		movs	r0, #2
 568 004e 1946     		mov	r1, r3
 569 0050 FFF7FEFF 		bl	_test_assert
 570 0054 0346     		mov	r3, r0
 571 0056 002B     		cmp	r3, #0
 572 0058 00D0     		beq	.L29
 573 005a 27E0     		b	.L26
 574              	.L29:
 575              		.loc 7 97 0
 576 005c 6B46     		mov	r3, sp
 577 005e 1548     		ldr	r0, .L33
 578 0060 1946     		mov	r1, r3
 579 0062 FFF7FEFF 		bl	chEvtUnregister
 580              		.loc 7 98 0
 581 0066 1348     		ldr	r0, .L33
 582 0068 FFF7FEFF 		bl	chEvtIsListeningI
 583 006c 0346     		mov	r3, r0
 584 006e 002B     		cmp	r3, #0
 585 0070 14BF     		ite	ne
 586 0072 0123     		movne	r3, #1
 587 0074 0023     		moveq	r3, #0
 588 0076 DBB2     		uxtb	r3, r3
 589 0078 83F00103 		eor	r3, r3, #1
 590 007c DBB2     		uxtb	r3, r3
 591 007e 03F00103 		and	r3, r3, #1
 592 0082 DBB2     		uxtb	r3, r3
 593 0084 0320     		movs	r0, #3
 594 0086 1946     		mov	r1, r3
 595 0088 FFF7FEFF 		bl	_test_assert
 596 008c 0346     		mov	r3, r0
 597 008e 002B     		cmp	r3, #0
 598 0090 00D0     		beq	.L30
 599 0092 0BE0     		b	.L26
 600              	.L30:
 601              		.loc 7 103 0
 602 0094 0848     		ldr	r0, .L33+4
 603 0096 0721     		movs	r1, #7
 604 0098 FFF7FEFF 		bl	chEvtDispatch
 605              		.loc 7 104 0
 606 009c 0420     		movs	r0, #4
 607 009e 0749     		ldr	r1, .L33+8
 608 00a0 FFF7FEFF 		bl	_test_assert_sequence
 609 00a4 0346     		mov	r3, r0
 610 00a6 002B     		cmp	r3, #0
 611 00a8 00D0     		beq	.L26
 612 00aa 00BF     		nop
 613              	.L26:
 614              		.loc 7 105 0
ARM GAS  /tmp/cc7g3u4R.s 			page 12


 615 00ac 0BB0     		add	sp, sp, #44
 616              		.cfi_def_cfa_offset 4
 617              		@ sp needed
 618 00ae 5DF804FB 		ldr	pc, [sp], #4
 619              	.L34:
 620 00b2 00BF     		.align	2
 621              	.L33:
 622 00b4 00000000 		.word	es1
 623 00b8 00000000 		.word	evhndl
 624 00bc 00000000 		.word	.LC0
 625              		.cfi_endproc
 626              	.LFE220:
 627              		.size	evt1_execute, .-evt1_execute
 628              		.global	testevt1
 629              		.section	.rodata
 630              		.align	2
 631              	.LC1:
 632 0004 4576656E 		.ascii	"Events, registration and dispatch\000"
 632      74732C20 
 632      72656769 
 632      73747261 
 632      74696F6E 
 633              		.section	.rodata.testevt1,"a",%progbits
 634              		.align	2
 635              		.type	testevt1, %object
 636              		.size	testevt1, 16
 637              	testevt1:
 638 0000 04000000 		.word	.LC1
 639 0004 00000000 		.word	evt1_setup
 640 0008 00000000 		.word	0
 641 000c 00000000 		.word	evt1_execute
 642              		.section	.text.evt2_setup,"ax",%progbits
 643              		.align	2
 644              		.p2align 4,,15
 645              		.thumb
 646              		.thumb_func
 647              		.type	evt2_setup, %function
 648              	evt2_setup:
 649              	.LFB221:
 650              		.loc 7 128 0
 651              		.cfi_startproc
 652              		@ args = 0, pretend = 0, frame = 0
 653              		@ frame_needed = 0, uses_anonymous_args = 0
 654 0000 08B5     		push	{r3, lr}
 655              		.cfi_def_cfa_offset 8
 656              		.cfi_offset 3, -8
 657              		.cfi_offset 14, -4
 658              		.loc 7 130 0
 659 0002 4FF0FF30 		mov	r0, #-1
 660 0006 FFF7FEFF 		bl	chEvtGetAndClearEvents
 661              		.loc 7 131 0
 662 000a 08BD     		pop	{r3, pc}
 663              		.cfi_endproc
 664              	.LFE221:
 665              		.size	evt2_setup, .-evt2_setup
 666              		.section	.text.thread1,"ax",%progbits
 667              		.align	2
ARM GAS  /tmp/cc7g3u4R.s 			page 13


 668              		.p2align 4,,15
 669              		.thumb
 670              		.thumb_func
 671              		.type	thread1, %function
 672              	thread1:
 673              	.LFB222:
 674              		.loc 7 133 0
 675              		.cfi_startproc
 676              		@ args = 0, pretend = 0, frame = 8
 677              		@ frame_needed = 0, uses_anonymous_args = 0
 678 0000 00B5     		push	{lr}
 679              		.cfi_def_cfa_offset 4
 680              		.cfi_offset 14, -4
 681 0002 83B0     		sub	sp, sp, #12
 682              		.cfi_def_cfa_offset 16
 683 0004 0190     		str	r0, [sp, #4]
 684              		.loc 7 135 0
 685 0006 3220     		movs	r0, #50
 686 0008 FFF7FEFF 		bl	chThdSleep
 687              		.loc 7 136 0
 688 000c 0198     		ldr	r0, [sp, #4]
 689 000e 0121     		movs	r1, #1
 690 0010 FFF7FEFF 		bl	chEvtSignal
 691              		.loc 7 137 0
 692 0014 03B0     		add	sp, sp, #12
 693              		.cfi_def_cfa_offset 4
 694              		@ sp needed
 695 0016 5DF804FB 		ldr	pc, [sp], #4
 696              		.cfi_endproc
 697              	.LFE222:
 698              		.size	thread1, .-thread1
 699 001a 00BFAFF3 		.section	.text.thread2,"ax",%progbits
 699      0080
 700              		.align	2
 701              		.p2align 4,,15
 702              		.thumb
 703              		.thumb_func
 704              		.type	thread2, %function
 705              	thread2:
 706              	.LFB223:
 707              		.loc 7 139 0
 708              		.cfi_startproc
 709              		@ args = 0, pretend = 0, frame = 8
 710              		@ frame_needed = 0, uses_anonymous_args = 0
 711 0000 00B5     		push	{lr}
 712              		.cfi_def_cfa_offset 4
 713              		.cfi_offset 14, -4
 714 0002 83B0     		sub	sp, sp, #12
 715              		.cfi_def_cfa_offset 16
 716 0004 0190     		str	r0, [sp, #4]
 717              		.loc 7 142 0
 718 0006 0648     		ldr	r0, .L38
 719 0008 FFF7FEFF 		bl	chEvtBroadcast
 720              		.loc 7 143 0
 721 000c 3220     		movs	r0, #50
 722 000e FFF7FEFF 		bl	chThdSleep
 723              		.loc 7 144 0
ARM GAS  /tmp/cc7g3u4R.s 			page 14


 724 0012 0448     		ldr	r0, .L38+4
 725 0014 FFF7FEFF 		bl	chEvtBroadcast
 726              		.loc 7 145 0
 727 0018 03B0     		add	sp, sp, #12
 728              		.cfi_def_cfa_offset 4
 729              		@ sp needed
 730 001a 5DF804FB 		ldr	pc, [sp], #4
 731              	.L39:
 732 001e 00BF     		.align	2
 733              	.L38:
 734 0020 00000000 		.word	es1
 735 0024 00000000 		.word	es2
 736              		.cfi_endproc
 737              	.LFE223:
 738              		.size	thread2, .-thread2
 739 0028 AFF30080 		.section	.rodata
 739      AFF30080 
 740 0026 0000     		.align	2
 741              	.LC2:
 742 0028 4100     		.ascii	"A\000"
 743              		.section	.text.evt2_execute,"ax",%progbits
 744              		.align	2
 745              		.p2align 4,,15
 746              		.thumb
 747              		.thumb_func
 748              		.type	evt2_execute, %function
 749              	evt2_execute:
 750              	.LFB224:
 751              		.loc 7 147 0
 752              		.cfi_startproc
 753              		@ args = 0, pretend = 0, frame = 48
 754              		@ frame_needed = 0, uses_anonymous_args = 0
 755 0000 30B5     		push	{r4, r5, lr}
 756              		.cfi_def_cfa_offset 12
 757              		.cfi_offset 4, -12
 758              		.cfi_offset 5, -8
 759              		.cfi_offset 14, -4
 760 0002 8FB0     		sub	sp, sp, #60
 761              		.cfi_def_cfa_offset 72
 762              		.loc 7 155 0
 763 0004 0720     		movs	r0, #7
 764 0006 FFF7FEFF 		bl	chEvtAddEvents
 765              		.loc 7 156 0
 766 000a 4FF0FF30 		mov	r0, #-1
 767 000e FFF7FEFF 		bl	chEvtWaitOne
 768 0012 0D90     		str	r0, [sp, #52]
 769              		.loc 7 157 0
 770 0014 0D9B     		ldr	r3, [sp, #52]
 771 0016 012B     		cmp	r3, #1
 772 0018 0CBF     		ite	eq
 773 001a 0123     		moveq	r3, #1
 774 001c 0023     		movne	r3, #0
 775 001e DBB2     		uxtb	r3, r3
 776 0020 0120     		movs	r0, #1
 777 0022 1946     		mov	r1, r3
 778 0024 FFF7FEFF 		bl	_test_assert
 779 0028 0346     		mov	r3, r0
ARM GAS  /tmp/cc7g3u4R.s 			page 15


 780 002a 002B     		cmp	r3, #0
 781 002c 00D0     		beq	.L41
 782 002e 83E1     		b	.L40
 783              	.L41:
 784              		.loc 7 158 0
 785 0030 4FF0FF30 		mov	r0, #-1
 786 0034 FFF7FEFF 		bl	chEvtWaitOne
 787 0038 0D90     		str	r0, [sp, #52]
 788              		.loc 7 159 0
 789 003a 0D9B     		ldr	r3, [sp, #52]
 790 003c 022B     		cmp	r3, #2
 791 003e 0CBF     		ite	eq
 792 0040 0123     		moveq	r3, #1
 793 0042 0023     		movne	r3, #0
 794 0044 DBB2     		uxtb	r3, r3
 795 0046 0220     		movs	r0, #2
 796 0048 1946     		mov	r1, r3
 797 004a FFF7FEFF 		bl	_test_assert
 798 004e 0346     		mov	r3, r0
 799 0050 002B     		cmp	r3, #0
 800 0052 00D0     		beq	.L43
 801 0054 70E1     		b	.L40
 802              	.L43:
 803              		.loc 7 160 0
 804 0056 4FF0FF30 		mov	r0, #-1
 805 005a FFF7FEFF 		bl	chEvtWaitOne
 806 005e 0D90     		str	r0, [sp, #52]
 807              		.loc 7 161 0
 808 0060 0D9B     		ldr	r3, [sp, #52]
 809 0062 042B     		cmp	r3, #4
 810 0064 0CBF     		ite	eq
 811 0066 0123     		moveq	r3, #1
 812 0068 0023     		movne	r3, #0
 813 006a DBB2     		uxtb	r3, r3
 814 006c 0320     		movs	r0, #3
 815 006e 1946     		mov	r1, r3
 816 0070 FFF7FEFF 		bl	_test_assert
 817 0074 0346     		mov	r3, r0
 818 0076 002B     		cmp	r3, #0
 819 0078 00D0     		beq	.L44
 820 007a 5DE1     		b	.L40
 821              	.L44:
 822              		.loc 7 162 0
 823 007c 4FF0FF30 		mov	r0, #-1
 824 0080 FFF7FEFF 		bl	chEvtGetAndClearEvents
 825 0084 0D90     		str	r0, [sp, #52]
 826              		.loc 7 163 0
 827 0086 0D9B     		ldr	r3, [sp, #52]
 828 0088 002B     		cmp	r3, #0
 829 008a 0CBF     		ite	eq
 830 008c 0123     		moveq	r3, #1
 831 008e 0023     		movne	r3, #0
 832 0090 DBB2     		uxtb	r3, r3
 833 0092 0420     		movs	r0, #4
 834 0094 1946     		mov	r1, r3
 835 0096 FFF7FEFF 		bl	_test_assert
 836 009a 0346     		mov	r3, r0
ARM GAS  /tmp/cc7g3u4R.s 			page 16


 837 009c 002B     		cmp	r3, #0
 838 009e 00D0     		beq	.L45
 839 00a0 4AE1     		b	.L40
 840              	.L45:
 841              		.loc 7 168 0
 842 00a2 FFF7FEFF 		bl	test_wait_tick
 843              		.loc 7 169 0
 844 00a6 FFF7FEFF 		bl	chVTGetSystemTime
 845 00aa 0346     		mov	r3, r0
 846 00ac 3233     		adds	r3, r3, #50
 847 00ae 0C93     		str	r3, [sp, #48]
 848              		.loc 7 170 0
 849 00b0 A24B     		ldr	r3, .L59
 850 00b2 1D68     		ldr	r5, [r3]
 851 00b4 FFF7FEFF 		bl	chThdGetPriorityX
 852 00b8 0346     		mov	r3, r0
 853 00ba 5C1E     		subs	r4, r3, #1
 854              		.loc 7 171 0
 855 00bc FFF7FEFF 		bl	chThdGetSelfX
 856 00c0 0346     		mov	r3, r0
 857              		.loc 7 170 0
 858 00c2 0093     		str	r3, [sp]
 859 00c4 2846     		mov	r0, r5
 860 00c6 4FF4E871 		mov	r1, #464
 861 00ca 2246     		mov	r2, r4
 862 00cc 9C4B     		ldr	r3, .L59+4
 863 00ce FFF7FEFF 		bl	chThdCreateStatic
 864 00d2 0246     		mov	r2, r0
 865 00d4 9B4B     		ldr	r3, .L59+8
 866 00d6 1A60     		str	r2, [r3]
 867              		.loc 7 172 0
 868 00d8 4FF0FF30 		mov	r0, #-1
 869 00dc FFF7FEFF 		bl	chEvtWaitOne
 870 00e0 0D90     		str	r0, [sp, #52]
 871              		.loc 7 173 0
 872 00e2 0C9B     		ldr	r3, [sp, #48]
 873 00e4 0533     		adds	r3, r3, #5
 874 00e6 0520     		movs	r0, #5
 875 00e8 0C99     		ldr	r1, [sp, #48]
 876 00ea 1A46     		mov	r2, r3
 877 00ec FFF7FEFF 		bl	_test_assert_time_window
 878 00f0 0346     		mov	r3, r0
 879 00f2 002B     		cmp	r3, #0
 880 00f4 00D0     		beq	.L46
 881 00f6 1FE1     		b	.L40
 882              	.L46:
 883              		.loc 7 174 0
 884 00f8 0D9B     		ldr	r3, [sp, #52]
 885 00fa 012B     		cmp	r3, #1
 886 00fc 0CBF     		ite	eq
 887 00fe 0123     		moveq	r3, #1
 888 0100 0023     		movne	r3, #0
 889 0102 DBB2     		uxtb	r3, r3
 890 0104 0620     		movs	r0, #6
 891 0106 1946     		mov	r1, r3
 892 0108 FFF7FEFF 		bl	_test_assert
 893 010c 0346     		mov	r3, r0
ARM GAS  /tmp/cc7g3u4R.s 			page 17


 894 010e 002B     		cmp	r3, #0
 895 0110 00D0     		beq	.L47
 896 0112 11E1     		b	.L40
 897              	.L47:
 898              		.loc 7 175 0
 899 0114 4FF0FF30 		mov	r0, #-1
 900 0118 FFF7FEFF 		bl	chEvtGetAndClearEvents
 901 011c 0D90     		str	r0, [sp, #52]
 902              		.loc 7 176 0
 903 011e 0D9B     		ldr	r3, [sp, #52]
 904 0120 002B     		cmp	r3, #0
 905 0122 0CBF     		ite	eq
 906 0124 0123     		moveq	r3, #1
 907 0126 0023     		movne	r3, #0
 908 0128 DBB2     		uxtb	r3, r3
 909 012a 0720     		movs	r0, #7
 910 012c 1946     		mov	r1, r3
 911 012e FFF7FEFF 		bl	_test_assert
 912 0132 0346     		mov	r3, r0
 913 0134 002B     		cmp	r3, #0
 914 0136 00D0     		beq	.L48
 915 0138 FEE0     		b	.L40
 916              	.L48:
 917              		.loc 7 177 0
 918 013a FFF7FEFF 		bl	test_wait_threads
 919              		.loc 7 182 0
 920 013e 0520     		movs	r0, #5
 921 0140 FFF7FEFF 		bl	chEvtAddEvents
 922              		.loc 7 183 0
 923 0144 4FF0FF30 		mov	r0, #-1
 924 0148 FFF7FEFF 		bl	chEvtWaitAny
 925 014c 0D90     		str	r0, [sp, #52]
 926              		.loc 7 184 0
 927 014e 0D9B     		ldr	r3, [sp, #52]
 928 0150 052B     		cmp	r3, #5
 929 0152 0CBF     		ite	eq
 930 0154 0123     		moveq	r3, #1
 931 0156 0023     		movne	r3, #0
 932 0158 DBB2     		uxtb	r3, r3
 933 015a 0820     		movs	r0, #8
 934 015c 1946     		mov	r1, r3
 935 015e FFF7FEFF 		bl	_test_assert
 936 0162 0346     		mov	r3, r0
 937 0164 002B     		cmp	r3, #0
 938 0166 00D0     		beq	.L49
 939 0168 E6E0     		b	.L40
 940              	.L49:
 941              		.loc 7 185 0
 942 016a 4FF0FF30 		mov	r0, #-1
 943 016e FFF7FEFF 		bl	chEvtGetAndClearEvents
 944 0172 0D90     		str	r0, [sp, #52]
 945              		.loc 7 186 0
 946 0174 0D9B     		ldr	r3, [sp, #52]
 947 0176 002B     		cmp	r3, #0
 948 0178 0CBF     		ite	eq
 949 017a 0123     		moveq	r3, #1
 950 017c 0023     		movne	r3, #0
ARM GAS  /tmp/cc7g3u4R.s 			page 18


 951 017e DBB2     		uxtb	r3, r3
 952 0180 0920     		movs	r0, #9
 953 0182 1946     		mov	r1, r3
 954 0184 FFF7FEFF 		bl	_test_assert
 955 0188 0346     		mov	r3, r0
 956 018a 002B     		cmp	r3, #0
 957 018c 00D0     		beq	.L50
 958 018e D3E0     		b	.L40
 959              	.L50:
 960              		.loc 7 191 0
 961 0190 FFF7FEFF 		bl	test_wait_tick
 962              		.loc 7 192 0
 963 0194 FFF7FEFF 		bl	chVTGetSystemTime
 964 0198 0346     		mov	r3, r0
 965 019a 3233     		adds	r3, r3, #50
 966 019c 0C93     		str	r3, [sp, #48]
 967              		.loc 7 193 0
 968 019e 674B     		ldr	r3, .L59
 969 01a0 1D68     		ldr	r5, [r3]
 970 01a2 FFF7FEFF 		bl	chThdGetPriorityX
 971 01a6 0346     		mov	r3, r0
 972 01a8 5C1E     		subs	r4, r3, #1
 973              		.loc 7 194 0
 974 01aa FFF7FEFF 		bl	chThdGetSelfX
 975 01ae 0346     		mov	r3, r0
 976              		.loc 7 193 0
 977 01b0 0093     		str	r3, [sp]
 978 01b2 2846     		mov	r0, r5
 979 01b4 4FF4E871 		mov	r1, #464
 980 01b8 2246     		mov	r2, r4
 981 01ba 614B     		ldr	r3, .L59+4
 982 01bc FFF7FEFF 		bl	chThdCreateStatic
 983 01c0 0246     		mov	r2, r0
 984 01c2 604B     		ldr	r3, .L59+8
 985 01c4 1A60     		str	r2, [r3]
 986              		.loc 7 195 0
 987 01c6 4FF0FF30 		mov	r0, #-1
 988 01ca FFF7FEFF 		bl	chEvtWaitAny
 989 01ce 0D90     		str	r0, [sp, #52]
 990              		.loc 7 196 0
 991 01d0 0C9B     		ldr	r3, [sp, #48]
 992 01d2 0533     		adds	r3, r3, #5
 993 01d4 0A20     		movs	r0, #10
 994 01d6 0C99     		ldr	r1, [sp, #48]
 995 01d8 1A46     		mov	r2, r3
 996 01da FFF7FEFF 		bl	_test_assert_time_window
 997 01de 0346     		mov	r3, r0
 998 01e0 002B     		cmp	r3, #0
 999 01e2 00D0     		beq	.L51
 1000 01e4 A8E0     		b	.L40
 1001              	.L51:
 1002              		.loc 7 197 0
 1003 01e6 0D9B     		ldr	r3, [sp, #52]
 1004 01e8 012B     		cmp	r3, #1
 1005 01ea 0CBF     		ite	eq
 1006 01ec 0123     		moveq	r3, #1
 1007 01ee 0023     		movne	r3, #0
ARM GAS  /tmp/cc7g3u4R.s 			page 19


 1008 01f0 DBB2     		uxtb	r3, r3
 1009 01f2 0B20     		movs	r0, #11
 1010 01f4 1946     		mov	r1, r3
 1011 01f6 FFF7FEFF 		bl	_test_assert
 1012 01fa 0346     		mov	r3, r0
 1013 01fc 002B     		cmp	r3, #0
 1014 01fe 00D0     		beq	.L52
 1015 0200 9AE0     		b	.L40
 1016              	.L52:
 1017              		.loc 7 198 0
 1018 0202 4FF0FF30 		mov	r0, #-1
 1019 0206 FFF7FEFF 		bl	chEvtGetAndClearEvents
 1020 020a 0D90     		str	r0, [sp, #52]
 1021              		.loc 7 199 0
 1022 020c 0D9B     		ldr	r3, [sp, #52]
 1023 020e 002B     		cmp	r3, #0
 1024 0210 0CBF     		ite	eq
 1025 0212 0123     		moveq	r3, #1
 1026 0214 0023     		movne	r3, #0
 1027 0216 DBB2     		uxtb	r3, r3
 1028 0218 0C20     		movs	r0, #12
 1029 021a 1946     		mov	r1, r3
 1030 021c FFF7FEFF 		bl	_test_assert
 1031 0220 0346     		mov	r3, r0
 1032 0222 002B     		cmp	r3, #0
 1033 0224 00D0     		beq	.L53
 1034 0226 87E0     		b	.L40
 1035              	.L53:
 1036              		.loc 7 200 0
 1037 0228 FFF7FEFF 		bl	test_wait_threads
 1038              		.loc 7 205 0
 1039 022c 4648     		ldr	r0, .L59+12
 1040 022e FFF7FEFF 		bl	chEvtObjectInit
 1041              		.loc 7 206 0
 1042 0232 4648     		ldr	r0, .L59+16
 1043 0234 FFF7FEFF 		bl	chEvtObjectInit
 1044              		.loc 7 207 0
 1045 0238 07AB     		add	r3, sp, #28
 1046 023a 4348     		ldr	r0, .L59+12
 1047 023c 1946     		mov	r1, r3
 1048 023e 0122     		movs	r2, #1
 1049 0240 FFF7FEFF 		bl	chEvtRegisterMask
 1050              		.loc 7 208 0
 1051 0244 02AB     		add	r3, sp, #8
 1052 0246 4148     		ldr	r0, .L59+16
 1053 0248 1946     		mov	r1, r3
 1054 024a 0422     		movs	r2, #4
 1055 024c FFF7FEFF 		bl	chEvtRegisterMask
 1056              		.loc 7 209 0
 1057 0250 FFF7FEFF 		bl	test_wait_tick
 1058              		.loc 7 210 0
 1059 0254 FFF7FEFF 		bl	chVTGetSystemTime
 1060 0258 0346     		mov	r3, r0
 1061 025a 3233     		adds	r3, r3, #50
 1062 025c 0C93     		str	r3, [sp, #48]
 1063              		.loc 7 211 0
 1064 025e 374B     		ldr	r3, .L59
ARM GAS  /tmp/cc7g3u4R.s 			page 20


 1065 0260 1C68     		ldr	r4, [r3]
 1066 0262 FFF7FEFF 		bl	chThdGetPriorityX
 1067 0266 0346     		mov	r3, r0
 1068 0268 5A1E     		subs	r2, r3, #1
 1069 026a 394B     		ldr	r3, .L59+20
 1070 026c 0093     		str	r3, [sp]
 1071 026e 2046     		mov	r0, r4
 1072 0270 4FF4E871 		mov	r1, #464
 1073 0274 374B     		ldr	r3, .L59+24
 1074 0276 FFF7FEFF 		bl	chThdCreateStatic
 1075 027a 0246     		mov	r2, r0
 1076 027c 314B     		ldr	r3, .L59+8
 1077 027e 1A60     		str	r2, [r3]
 1078              		.loc 7 213 0
 1079 0280 0520     		movs	r0, #5
 1080 0282 FFF7FEFF 		bl	chEvtWaitAll
 1081 0286 0D90     		str	r0, [sp, #52]
 1082              		.loc 7 214 0
 1083 0288 0C9B     		ldr	r3, [sp, #48]
 1084 028a 0533     		adds	r3, r3, #5
 1085 028c 0D20     		movs	r0, #13
 1086 028e 0C99     		ldr	r1, [sp, #48]
 1087 0290 1A46     		mov	r2, r3
 1088 0292 FFF7FEFF 		bl	_test_assert_time_window
 1089 0296 0346     		mov	r3, r0
 1090 0298 002B     		cmp	r3, #0
 1091 029a 00D0     		beq	.L54
 1092 029c 4CE0     		b	.L40
 1093              	.L54:
 1094              		.loc 7 215 0
 1095 029e 4FF0FF30 		mov	r0, #-1
 1096 02a2 FFF7FEFF 		bl	chEvtGetAndClearEvents
 1097 02a6 0D90     		str	r0, [sp, #52]
 1098              		.loc 7 216 0
 1099 02a8 0D9B     		ldr	r3, [sp, #52]
 1100 02aa 002B     		cmp	r3, #0
 1101 02ac 0CBF     		ite	eq
 1102 02ae 0123     		moveq	r3, #1
 1103 02b0 0023     		movne	r3, #0
 1104 02b2 DBB2     		uxtb	r3, r3
 1105 02b4 0E20     		movs	r0, #14
 1106 02b6 1946     		mov	r1, r3
 1107 02b8 FFF7FEFF 		bl	_test_assert
 1108 02bc 0346     		mov	r3, r0
 1109 02be 002B     		cmp	r3, #0
 1110 02c0 00D0     		beq	.L55
 1111 02c2 39E0     		b	.L40
 1112              	.L55:
 1113              		.loc 7 217 0
 1114 02c4 FFF7FEFF 		bl	test_wait_threads
 1115              		.loc 7 218 0
 1116 02c8 07AB     		add	r3, sp, #28
 1117 02ca 1F48     		ldr	r0, .L59+12
 1118 02cc 1946     		mov	r1, r3
 1119 02ce FFF7FEFF 		bl	chEvtUnregister
 1120              		.loc 7 219 0
 1121 02d2 02AB     		add	r3, sp, #8
ARM GAS  /tmp/cc7g3u4R.s 			page 21


 1122 02d4 1D48     		ldr	r0, .L59+16
 1123 02d6 1946     		mov	r1, r3
 1124 02d8 FFF7FEFF 		bl	chEvtUnregister
 1125              		.loc 7 220 0
 1126 02dc 1A48     		ldr	r0, .L59+12
 1127 02de FFF7FEFF 		bl	chEvtIsListeningI
 1128 02e2 0346     		mov	r3, r0
 1129 02e4 002B     		cmp	r3, #0
 1130 02e6 14BF     		ite	ne
 1131 02e8 0123     		movne	r3, #1
 1132 02ea 0023     		moveq	r3, #0
 1133 02ec DBB2     		uxtb	r3, r3
 1134 02ee 83F00103 		eor	r3, r3, #1
 1135 02f2 DBB2     		uxtb	r3, r3
 1136 02f4 03F00103 		and	r3, r3, #1
 1137 02f8 DBB2     		uxtb	r3, r3
 1138 02fa 0F20     		movs	r0, #15
 1139 02fc 1946     		mov	r1, r3
 1140 02fe FFF7FEFF 		bl	_test_assert
 1141 0302 0346     		mov	r3, r0
 1142 0304 002B     		cmp	r3, #0
 1143 0306 00D0     		beq	.L56
 1144 0308 16E0     		b	.L40
 1145              	.L56:
 1146              		.loc 7 221 0
 1147 030a 1048     		ldr	r0, .L59+16
 1148 030c FFF7FEFF 		bl	chEvtIsListeningI
 1149 0310 0346     		mov	r3, r0
 1150 0312 002B     		cmp	r3, #0
 1151 0314 14BF     		ite	ne
 1152 0316 0123     		movne	r3, #1
 1153 0318 0023     		moveq	r3, #0
 1154 031a DBB2     		uxtb	r3, r3
 1155 031c 83F00103 		eor	r3, r3, #1
 1156 0320 DBB2     		uxtb	r3, r3
 1157 0322 03F00103 		and	r3, r3, #1
 1158 0326 DBB2     		uxtb	r3, r3
 1159 0328 1020     		movs	r0, #16
 1160 032a 1946     		mov	r1, r3
 1161 032c FFF7FEFF 		bl	_test_assert
 1162 0330 0346     		mov	r3, r0
 1163 0332 002B     		cmp	r3, #0
 1164 0334 00D0     		beq	.L40
 1165 0336 00BF     		nop
 1166              	.L40:
 1167              		.loc 7 222 0
 1168 0338 0FB0     		add	sp, sp, #60
 1169              		.cfi_def_cfa_offset 12
 1170              		@ sp needed
 1171 033a 30BD     		pop	{r4, r5, pc}
 1172              	.L60:
 1173              		.align	2
 1174              	.L59:
 1175 033c 00000000 		.word	wa
 1176 0340 00000000 		.word	thread1
 1177 0344 00000000 		.word	threads
 1178 0348 00000000 		.word	es1
ARM GAS  /tmp/cc7g3u4R.s 			page 22


 1179 034c 00000000 		.word	es2
 1180 0350 28000000 		.word	.LC2
 1181 0354 00000000 		.word	thread2
 1182              		.cfi_endproc
 1183              	.LFE224:
 1184              		.size	evt2_execute, .-evt2_execute
 1185              		.global	testevt2
 1186 0358 AFF30080 		.section	.rodata
 1186      AFF30080 
 1187 002a 0000     		.align	2
 1188              	.LC3:
 1189 002c 4576656E 		.ascii	"Events, wait and broadcast\000"
 1189      74732C20 
 1189      77616974 
 1189      20616E64 
 1189      2062726F 
 1190              		.section	.rodata.testevt2,"a",%progbits
 1191              		.align	2
 1192              		.type	testevt2, %object
 1193              		.size	testevt2, 16
 1194              	testevt2:
 1195 0000 2C000000 		.word	.LC3
 1196 0004 00000000 		.word	evt2_setup
 1197 0008 00000000 		.word	0
 1198 000c 00000000 		.word	evt2_execute
 1199              		.section	.text.evt3_setup,"ax",%progbits
 1200              		.align	2
 1201              		.p2align 4,,15
 1202              		.thumb
 1203              		.thumb_func
 1204              		.type	evt3_setup, %function
 1205              	evt3_setup:
 1206              	.LFB225:
 1207              		.loc 7 247 0
 1208              		.cfi_startproc
 1209              		@ args = 0, pretend = 0, frame = 0
 1210              		@ frame_needed = 0, uses_anonymous_args = 0
 1211 0000 08B5     		push	{r3, lr}
 1212              		.cfi_def_cfa_offset 8
 1213              		.cfi_offset 3, -8
 1214              		.cfi_offset 14, -4
 1215              		.loc 7 249 0
 1216 0002 4FF0FF30 		mov	r0, #-1
 1217 0006 FFF7FEFF 		bl	chEvtGetAndClearEvents
 1218              		.loc 7 250 0
 1219 000a 08BD     		pop	{r3, pc}
 1220              		.cfi_endproc
 1221              	.LFE225:
 1222              		.size	evt3_setup, .-evt3_setup
 1223              		.section	.text.evt3_execute,"ax",%progbits
 1224              		.align	2
 1225              		.p2align 4,,15
 1226              		.thumb
 1227              		.thumb_func
 1228              		.type	evt3_execute, %function
 1229              	evt3_execute:
 1230              	.LFB226:
ARM GAS  /tmp/cc7g3u4R.s 			page 23


 1231              		.loc 7 252 0
 1232              		.cfi_startproc
 1233              		@ args = 0, pretend = 0, frame = 8
 1234              		@ frame_needed = 0, uses_anonymous_args = 0
 1235 0000 00B5     		push	{lr}
 1236              		.cfi_def_cfa_offset 4
 1237              		.cfi_offset 14, -4
 1238 0002 83B0     		sub	sp, sp, #12
 1239              		.cfi_def_cfa_offset 16
 1240              		.loc 7 258 0
 1241 0004 4FF0FF30 		mov	r0, #-1
 1242 0008 0021     		movs	r1, #0
 1243 000a FFF7FEFF 		bl	chEvtWaitOneTimeout
 1244 000e 0190     		str	r0, [sp, #4]
 1245              		.loc 7 259 0
 1246 0010 019B     		ldr	r3, [sp, #4]
 1247 0012 002B     		cmp	r3, #0
 1248 0014 0CBF     		ite	eq
 1249 0016 0123     		moveq	r3, #1
 1250 0018 0023     		movne	r3, #0
 1251 001a DBB2     		uxtb	r3, r3
 1252 001c 0120     		movs	r0, #1
 1253 001e 1946     		mov	r1, r3
 1254 0020 FFF7FEFF 		bl	_test_assert
 1255 0024 0346     		mov	r3, r0
 1256 0026 002B     		cmp	r3, #0
 1257 0028 00D0     		beq	.L63
 1258 002a 63E0     		b	.L62
 1259              	.L63:
 1260              		.loc 7 260 0
 1261 002c 4FF0FF30 		mov	r0, #-1
 1262 0030 0021     		movs	r1, #0
 1263 0032 FFF7FEFF 		bl	chEvtWaitAnyTimeout
 1264 0036 0190     		str	r0, [sp, #4]
 1265              		.loc 7 261 0
 1266 0038 019B     		ldr	r3, [sp, #4]
 1267 003a 002B     		cmp	r3, #0
 1268 003c 0CBF     		ite	eq
 1269 003e 0123     		moveq	r3, #1
 1270 0040 0023     		movne	r3, #0
 1271 0042 DBB2     		uxtb	r3, r3
 1272 0044 0220     		movs	r0, #2
 1273 0046 1946     		mov	r1, r3
 1274 0048 FFF7FEFF 		bl	_test_assert
 1275 004c 0346     		mov	r3, r0
 1276 004e 002B     		cmp	r3, #0
 1277 0050 00D0     		beq	.L65
 1278              		.loc 7 261 0 is_stmt 0 discriminator 2
 1279 0052 4FE0     		b	.L62
 1280              	.L65:
 1281              		.loc 7 262 0 is_stmt 1
 1282 0054 4FF0FF30 		mov	r0, #-1
 1283 0058 0021     		movs	r1, #0
 1284 005a FFF7FEFF 		bl	chEvtWaitAllTimeout
 1285 005e 0190     		str	r0, [sp, #4]
 1286              		.loc 7 263 0
 1287 0060 019B     		ldr	r3, [sp, #4]
ARM GAS  /tmp/cc7g3u4R.s 			page 24


 1288 0062 002B     		cmp	r3, #0
 1289 0064 0CBF     		ite	eq
 1290 0066 0123     		moveq	r3, #1
 1291 0068 0023     		movne	r3, #0
 1292 006a DBB2     		uxtb	r3, r3
 1293 006c 0320     		movs	r0, #3
 1294 006e 1946     		mov	r1, r3
 1295 0070 FFF7FEFF 		bl	_test_assert
 1296 0074 0346     		mov	r3, r0
 1297 0076 002B     		cmp	r3, #0
 1298 0078 00D0     		beq	.L66
 1299              		.loc 7 263 0 is_stmt 0 discriminator 3
 1300 007a 3BE0     		b	.L62
 1301              	.L66:
 1302              		.loc 7 264 0 is_stmt 1
 1303 007c 4FF0FF30 		mov	r0, #-1
 1304 0080 0A21     		movs	r1, #10
 1305 0082 FFF7FEFF 		bl	chEvtWaitOneTimeout
 1306 0086 0190     		str	r0, [sp, #4]
 1307              		.loc 7 265 0
 1308 0088 019B     		ldr	r3, [sp, #4]
 1309 008a 002B     		cmp	r3, #0
 1310 008c 0CBF     		ite	eq
 1311 008e 0123     		moveq	r3, #1
 1312 0090 0023     		movne	r3, #0
 1313 0092 DBB2     		uxtb	r3, r3
 1314 0094 0420     		movs	r0, #4
 1315 0096 1946     		mov	r1, r3
 1316 0098 FFF7FEFF 		bl	_test_assert
 1317 009c 0346     		mov	r3, r0
 1318 009e 002B     		cmp	r3, #0
 1319 00a0 00D0     		beq	.L67
 1320              		.loc 7 265 0 is_stmt 0 discriminator 4
 1321 00a2 27E0     		b	.L62
 1322              	.L67:
 1323              		.loc 7 266 0 is_stmt 1
 1324 00a4 4FF0FF30 		mov	r0, #-1
 1325 00a8 0A21     		movs	r1, #10
 1326 00aa FFF7FEFF 		bl	chEvtWaitAnyTimeout
 1327 00ae 0190     		str	r0, [sp, #4]
 1328              		.loc 7 267 0
 1329 00b0 019B     		ldr	r3, [sp, #4]
 1330 00b2 002B     		cmp	r3, #0
 1331 00b4 0CBF     		ite	eq
 1332 00b6 0123     		moveq	r3, #1
 1333 00b8 0023     		movne	r3, #0
 1334 00ba DBB2     		uxtb	r3, r3
 1335 00bc 0520     		movs	r0, #5
 1336 00be 1946     		mov	r1, r3
 1337 00c0 FFF7FEFF 		bl	_test_assert
 1338 00c4 0346     		mov	r3, r0
 1339 00c6 002B     		cmp	r3, #0
 1340 00c8 00D0     		beq	.L68
 1341              		.loc 7 267 0 is_stmt 0 discriminator 5
 1342 00ca 13E0     		b	.L62
 1343              	.L68:
 1344              		.loc 7 268 0 is_stmt 1
ARM GAS  /tmp/cc7g3u4R.s 			page 25


 1345 00cc 4FF0FF30 		mov	r0, #-1
 1346 00d0 0A21     		movs	r1, #10
 1347 00d2 FFF7FEFF 		bl	chEvtWaitAllTimeout
 1348 00d6 0190     		str	r0, [sp, #4]
 1349              		.loc 7 269 0
 1350 00d8 019B     		ldr	r3, [sp, #4]
 1351 00da 002B     		cmp	r3, #0
 1352 00dc 0CBF     		ite	eq
 1353 00de 0123     		moveq	r3, #1
 1354 00e0 0023     		movne	r3, #0
 1355 00e2 DBB2     		uxtb	r3, r3
 1356 00e4 0620     		movs	r0, #6
 1357 00e6 1946     		mov	r1, r3
 1358 00e8 FFF7FEFF 		bl	_test_assert
 1359 00ec 0346     		mov	r3, r0
 1360 00ee 002B     		cmp	r3, #0
 1361 00f0 00D0     		beq	.L62
 1362              		.loc 7 269 0 is_stmt 0 discriminator 6
 1363 00f2 00BF     		nop
 1364              	.L62:
 1365              		.loc 7 270 0 is_stmt 1
 1366 00f4 03B0     		add	sp, sp, #12
 1367              		.cfi_def_cfa_offset 4
 1368              		@ sp needed
 1369 00f6 5DF804FB 		ldr	pc, [sp], #4
 1370              		.cfi_endproc
 1371              	.LFE226:
 1372              		.size	evt3_execute, .-evt3_execute
 1373              		.global	testevt3
 1374 00fa 00BFAFF3 		.section	.rodata
 1374      0080
 1375 0047 00       		.align	2
 1376              	.LC4:
 1377 0048 4576656E 		.ascii	"Events, timeouts\000"
 1377      74732C20 
 1377      74696D65 
 1377      6F757473 
 1377      00
 1378 0059 000000   		.section	.rodata.testevt3,"a",%progbits
 1379              		.align	2
 1380              		.type	testevt3, %object
 1381              		.size	testevt3, 16
 1382              	testevt3:
 1383 0000 48000000 		.word	.LC4
 1384 0004 00000000 		.word	evt3_setup
 1385 0008 00000000 		.word	0
 1386 000c 00000000 		.word	evt3_execute
 1387              		.global	patternevt
 1388              		.section	.rodata.patternevt,"a",%progbits
 1389              		.align	2
 1390              		.type	patternevt, %object
 1391              		.size	patternevt, 16
 1392              	patternevt:
 1393 0000 00000000 		.word	testevt1
 1394 0004 00000000 		.word	testevt2
 1395 0008 00000000 		.word	testevt3
 1396 000c 00000000 		.word	0
ARM GAS  /tmp/cc7g3u4R.s 			page 26


 1397              		.text
 1398              	.Letext0:
 1399              		.file 8 "/opt/gcc-arm-none-eabi/lib/gcc/arm-none-eabi/4.9.3/include/stddef.h"
 1400              		.file 9 "/opt/gcc-arm-none-eabi/arm-none-eabi/include/machine/_default_types.h"
 1401              		.file 10 "/opt/gcc-arm-none-eabi/arm-none-eabi/include/stdint.h"
 1402              		.file 11 "/home/makkmarci/workspace/CLEAN/ChibiOS/os/rt/ports/ARMCMx/compilers/GCC/chtypes.h"
 1403              		.file 12 "/home/makkmarci/workspace/CLEAN/ChibiOS/os/rt/include/chsystypes.h"
 1404              		.file 13 "/home/makkmarci/workspace/CLEAN/ChibiOS/os/rt/include/chschd.h"
 1405              		.file 14 "/home/makkmarci/workspace/CLEAN/ChibiOS/os/rt/ports/ARMCMx/chcore.h"
 1406              		.file 15 "/home/makkmarci/workspace/CLEAN/ChibiOS/os/rt/include/chtm.h"
 1407              		.file 16 "/home/makkmarci/workspace/CLEAN/ChibiOS/os/rt/include/chsem.h"
 1408              		.file 17 "/home/makkmarci/workspace/CLEAN/ChibiOS/os/rt/include/chmtx.h"
 1409              		.file 18 "/home/makkmarci/workspace/CLEAN/ChibiOS/test/rt/test.h"
 1410              		.file 19 "/home/makkmarci/workspace/CLEAN/ChibiOS/os/ext/CMSIS/include/core_cm4.h"