ARM GAS  /tmp/ccIeDPfS.s 			page 1


   1              		.syntax unified
   2              		.cpu cortex-m4
   3              		.eabi_attribute 27, 1
   4              		.eabi_attribute 28, 1
   5              		.fpu fpv4-sp-d16
   6              		.eabi_attribute 20, 1
   7              		.eabi_attribute 21, 1
   8              		.eabi_attribute 23, 3
   9              		.eabi_attribute 24, 1
  10              		.eabi_attribute 25, 1
  11              		.eabi_attribute 26, 1
  12              		.eabi_attribute 30, 6
  13              		.eabi_attribute 34, 1
  14              		.eabi_attribute 18, 4
  15              		.thumb
  16              		.file	"testheap.c"
  17              		.text
  18              	.Ltext0:
  19              		.cfi_sections	.debug_frame
  20              		.section	.bss.test_heap,"aw",%nobits
  21              		.align	3
  22              		.type	test_heap, %object
  23              		.size	test_heap, 32
  24              	test_heap:
  25 0000 00000000 		.space	32
  25      00000000 
  25      00000000 
  25      00000000 
  25      00000000 
  26              		.section	.text.heap1_setup,"ax",%progbits
  27              		.align	2
  28              		.p2align 4,,15
  29              		.thumb
  30              		.thumb_func
  31              		.type	heap1_setup, %function
  32              	heap1_setup:
  33              	.LFB216:
  34              		.file 1 "/home/makkmarci/workspace/CLEAN/ChibiOS/test/rt/testheap.c"
  35              		.loc 1 64 0
  36              		.cfi_startproc
  37              		@ args = 0, pretend = 0, frame = 0
  38              		@ frame_needed = 0, uses_anonymous_args = 0
  39 0000 08B5     		push	{r3, lr}
  40              		.cfi_def_cfa_offset 8
  41              		.cfi_offset 3, -8
  42              		.cfi_offset 14, -4
  43              		.loc 1 66 0
  44 0002 0348     		ldr	r0, .L2
  45 0004 0349     		ldr	r1, .L2+4
  46 0006 4FF41162 		mov	r2, #2320
  47 000a FFF7FEFF 		bl	chHeapObjectInit
  48              		.loc 1 67 0
  49 000e 08BD     		pop	{r3, pc}
  50              	.L3:
  51              		.align	2
  52              	.L2:
  53 0010 00000000 		.word	test_heap
ARM GAS  /tmp/ccIeDPfS.s 			page 2


  54 0014 00000000 		.word	test
  55              		.cfi_endproc
  56              	.LFE216:
  57              		.size	heap1_setup, .-heap1_setup
  58 0018 AFF30080 		.section	.text.heap1_execute,"ax",%progbits
  58      AFF30080 
  59              		.align	2
  60              		.p2align 4,,15
  61              		.thumb
  62              		.thumb_func
  63              		.type	heap1_execute, %function
  64              	heap1_execute:
  65              	.LFB217:
  66              		.loc 1 69 0
  67              		.cfi_startproc
  68              		@ args = 0, pretend = 0, frame = 24
  69              		@ frame_needed = 0, uses_anonymous_args = 0
  70 0000 00B5     		push	{lr}
  71              		.cfi_def_cfa_offset 4
  72              		.cfi_offset 14, -4
  73 0002 87B0     		sub	sp, sp, #28
  74              		.cfi_def_cfa_offset 32
  75              		.loc 1 74 0
  76 0004 FFF7FEFF 		bl	chCoreGetStatusX
  77              		.loc 1 80 0
  78 0008 01AB     		add	r3, sp, #4
  79 000a 0020     		movs	r0, #0
  80 000c 1946     		mov	r1, r3
  81 000e FFF7FEFF 		bl	chHeapStatus
  82              		.loc 1 81 0
  83 0012 0020     		movs	r0, #0
  84 0014 1021     		movs	r1, #16
  85 0016 FFF7FEFF 		bl	chHeapAlloc
  86 001a 0590     		str	r0, [sp, #20]
  87              		.loc 1 82 0
  88 001c 059B     		ldr	r3, [sp, #20]
  89 001e 002B     		cmp	r3, #0
  90 0020 14BF     		ite	ne
  91 0022 0123     		movne	r3, #1
  92 0024 0023     		moveq	r3, #0
  93 0026 DBB2     		uxtb	r3, r3
  94 0028 0120     		movs	r0, #1
  95 002a 1946     		mov	r1, r3
  96 002c FFF7FEFF 		bl	_test_assert
  97 0030 0346     		mov	r3, r0
  98 0032 002B     		cmp	r3, #0
  99 0034 00D0     		beq	.L5
 100 0036 4EE1     		b	.L4
 101              	.L5:
 102              		.loc 1 83 0
 103 0038 0598     		ldr	r0, [sp, #20]
 104 003a FFF7FEFF 		bl	chHeapFree
 105              		.loc 1 84 0
 106 003e 0020     		movs	r0, #0
 107 0040 6FF0FF01 		mvn	r1, #255
 108 0044 FFF7FEFF 		bl	chHeapAlloc
 109 0048 0590     		str	r0, [sp, #20]
ARM GAS  /tmp/ccIeDPfS.s 			page 3


 110              		.loc 1 85 0
 111 004a 059B     		ldr	r3, [sp, #20]
 112 004c 002B     		cmp	r3, #0
 113 004e 0CBF     		ite	eq
 114 0050 0123     		moveq	r3, #1
 115 0052 0023     		movne	r3, #0
 116 0054 DBB2     		uxtb	r3, r3
 117 0056 0220     		movs	r0, #2
 118 0058 1946     		mov	r1, r3
 119 005a FFF7FEFF 		bl	_test_assert
 120 005e 0346     		mov	r3, r0
 121 0060 002B     		cmp	r3, #0
 122 0062 00D0     		beq	.L7
 123 0064 37E1     		b	.L4
 124              	.L7:
 125              		.loc 1 88 0
 126 0066 01AB     		add	r3, sp, #4
 127 0068 9C48     		ldr	r0, .L22
 128 006a 1946     		mov	r1, r3
 129 006c FFF7FEFF 		bl	chHeapStatus
 130              		.loc 1 91 0
 131 0070 9A48     		ldr	r0, .L22
 132 0072 1021     		movs	r1, #16
 133 0074 FFF7FEFF 		bl	chHeapAlloc
 134 0078 0590     		str	r0, [sp, #20]
 135              		.loc 1 92 0
 136 007a 9848     		ldr	r0, .L22
 137 007c 1021     		movs	r1, #16
 138 007e FFF7FEFF 		bl	chHeapAlloc
 139 0082 0490     		str	r0, [sp, #16]
 140              		.loc 1 93 0
 141 0084 9548     		ldr	r0, .L22
 142 0086 1021     		movs	r1, #16
 143 0088 FFF7FEFF 		bl	chHeapAlloc
 144 008c 0390     		str	r0, [sp, #12]
 145              		.loc 1 94 0
 146 008e 0598     		ldr	r0, [sp, #20]
 147 0090 FFF7FEFF 		bl	chHeapFree
 148              		.loc 1 95 0
 149 0094 0498     		ldr	r0, [sp, #16]
 150 0096 FFF7FEFF 		bl	chHeapFree
 151              		.loc 1 96 0
 152 009a 0398     		ldr	r0, [sp, #12]
 153 009c FFF7FEFF 		bl	chHeapFree
 154              		.loc 1 97 0
 155 00a0 02AB     		add	r3, sp, #8
 156 00a2 8E48     		ldr	r0, .L22
 157 00a4 1946     		mov	r1, r3
 158 00a6 FFF7FEFF 		bl	chHeapStatus
 159 00aa 0346     		mov	r3, r0
 160 00ac 012B     		cmp	r3, #1
 161 00ae 0CBF     		ite	eq
 162 00b0 0123     		moveq	r3, #1
 163 00b2 0023     		movne	r3, #0
 164 00b4 DBB2     		uxtb	r3, r3
 165 00b6 0320     		movs	r0, #3
 166 00b8 1946     		mov	r1, r3
ARM GAS  /tmp/ccIeDPfS.s 			page 4


 167 00ba FFF7FEFF 		bl	_test_assert
 168 00be 0346     		mov	r3, r0
 169 00c0 002B     		cmp	r3, #0
 170 00c2 00D0     		beq	.L8
 171 00c4 07E1     		b	.L4
 172              	.L8:
 173              		.loc 1 100 0
 174 00c6 8548     		ldr	r0, .L22
 175 00c8 1021     		movs	r1, #16
 176 00ca FFF7FEFF 		bl	chHeapAlloc
 177 00ce 0590     		str	r0, [sp, #20]
 178              		.loc 1 101 0
 179 00d0 8248     		ldr	r0, .L22
 180 00d2 1021     		movs	r1, #16
 181 00d4 FFF7FEFF 		bl	chHeapAlloc
 182 00d8 0490     		str	r0, [sp, #16]
 183              		.loc 1 102 0
 184 00da 8048     		ldr	r0, .L22
 185 00dc 1021     		movs	r1, #16
 186 00de FFF7FEFF 		bl	chHeapAlloc
 187 00e2 0390     		str	r0, [sp, #12]
 188              		.loc 1 103 0
 189 00e4 0398     		ldr	r0, [sp, #12]
 190 00e6 FFF7FEFF 		bl	chHeapFree
 191              		.loc 1 104 0
 192 00ea 0498     		ldr	r0, [sp, #16]
 193 00ec FFF7FEFF 		bl	chHeapFree
 194              		.loc 1 105 0
 195 00f0 0598     		ldr	r0, [sp, #20]
 196 00f2 FFF7FEFF 		bl	chHeapFree
 197              		.loc 1 106 0
 198 00f6 02AB     		add	r3, sp, #8
 199 00f8 7848     		ldr	r0, .L22
 200 00fa 1946     		mov	r1, r3
 201 00fc FFF7FEFF 		bl	chHeapStatus
 202 0100 0346     		mov	r3, r0
 203 0102 012B     		cmp	r3, #1
 204 0104 0CBF     		ite	eq
 205 0106 0123     		moveq	r3, #1
 206 0108 0023     		movne	r3, #0
 207 010a DBB2     		uxtb	r3, r3
 208 010c 0420     		movs	r0, #4
 209 010e 1946     		mov	r1, r3
 210 0110 FFF7FEFF 		bl	_test_assert
 211 0114 0346     		mov	r3, r0
 212 0116 002B     		cmp	r3, #0
 213 0118 00D0     		beq	.L9
 214 011a DCE0     		b	.L4
 215              	.L9:
 216              		.loc 1 109 0
 217 011c 6F48     		ldr	r0, .L22
 218 011e 1121     		movs	r1, #17
 219 0120 FFF7FEFF 		bl	chHeapAlloc
 220 0124 0590     		str	r0, [sp, #20]
 221              		.loc 1 110 0
 222 0126 6D48     		ldr	r0, .L22
 223 0128 1021     		movs	r1, #16
ARM GAS  /tmp/ccIeDPfS.s 			page 5


 224 012a FFF7FEFF 		bl	chHeapAlloc
 225 012e 0490     		str	r0, [sp, #16]
 226              		.loc 1 111 0
 227 0130 0598     		ldr	r0, [sp, #20]
 228 0132 FFF7FEFF 		bl	chHeapFree
 229              		.loc 1 112 0
 230 0136 02AB     		add	r3, sp, #8
 231 0138 6848     		ldr	r0, .L22
 232 013a 1946     		mov	r1, r3
 233 013c FFF7FEFF 		bl	chHeapStatus
 234 0140 0346     		mov	r3, r0
 235 0142 022B     		cmp	r3, #2
 236 0144 0CBF     		ite	eq
 237 0146 0123     		moveq	r3, #1
 238 0148 0023     		movne	r3, #0
 239 014a DBB2     		uxtb	r3, r3
 240 014c 0520     		movs	r0, #5
 241 014e 1946     		mov	r1, r3
 242 0150 FFF7FEFF 		bl	_test_assert
 243 0154 0346     		mov	r3, r0
 244 0156 002B     		cmp	r3, #0
 245 0158 00D0     		beq	.L10
 246 015a BCE0     		b	.L4
 247              	.L10:
 248              		.loc 1 113 0
 249 015c 5F48     		ldr	r0, .L22
 250 015e 1021     		movs	r1, #16
 251 0160 FFF7FEFF 		bl	chHeapAlloc
 252 0164 0590     		str	r0, [sp, #20]
 253              		.loc 1 116 0
 254 0166 02AB     		add	r3, sp, #8
 255 0168 5C48     		ldr	r0, .L22
 256 016a 1946     		mov	r1, r3
 257 016c FFF7FEFF 		bl	chHeapStatus
 258 0170 0346     		mov	r3, r0
 259 0172 012B     		cmp	r3, #1
 260 0174 07D0     		beq	.L11
 261              		.loc 1 116 0 is_stmt 0 discriminator 2
 262 0176 02AB     		add	r3, sp, #8
 263 0178 5848     		ldr	r0, .L22
 264 017a 1946     		mov	r1, r3
 265 017c FFF7FEFF 		bl	chHeapStatus
 266 0180 0346     		mov	r3, r0
 267 0182 022B     		cmp	r3, #2
 268 0184 01D1     		bne	.L12
 269              	.L11:
 270              		.loc 1 116 0 discriminator 3
 271 0186 0123     		movs	r3, #1
 272 0188 00E0     		b	.L13
 273              	.L12:
 274              		.loc 1 116 0 discriminator 4
 275 018a 0023     		movs	r3, #0
 276              	.L13:
 277              		.loc 1 116 0 discriminator 6
 278 018c 03F00103 		and	r3, r3, #1
 279 0190 DBB2     		uxtb	r3, r3
 280 0192 0620     		movs	r0, #6
ARM GAS  /tmp/ccIeDPfS.s 			page 6


 281 0194 1946     		mov	r1, r3
 282 0196 FFF7FEFF 		bl	_test_assert
 283 019a 0346     		mov	r3, r0
 284 019c 002B     		cmp	r3, #0
 285 019e 00D0     		beq	.L14
 286              		.loc 1 116 0
 287 01a0 99E0     		b	.L4
 288              	.L14:
 289              		.loc 1 118 0 is_stmt 1
 290 01a2 0498     		ldr	r0, [sp, #16]
 291 01a4 FFF7FEFF 		bl	chHeapFree
 292              		.loc 1 119 0
 293 01a8 0598     		ldr	r0, [sp, #20]
 294 01aa FFF7FEFF 		bl	chHeapFree
 295              		.loc 1 120 0
 296 01ae 02AB     		add	r3, sp, #8
 297 01b0 4A48     		ldr	r0, .L22
 298 01b2 1946     		mov	r1, r3
 299 01b4 FFF7FEFF 		bl	chHeapStatus
 300 01b8 0346     		mov	r3, r0
 301 01ba 012B     		cmp	r3, #1
 302 01bc 0CBF     		ite	eq
 303 01be 0123     		moveq	r3, #1
 304 01c0 0023     		movne	r3, #0
 305 01c2 DBB2     		uxtb	r3, r3
 306 01c4 0720     		movs	r0, #7
 307 01c6 1946     		mov	r1, r3
 308 01c8 FFF7FEFF 		bl	_test_assert
 309 01cc 0346     		mov	r3, r0
 310 01ce 002B     		cmp	r3, #0
 311 01d0 00D0     		beq	.L15
 312 01d2 80E0     		b	.L4
 313              	.L15:
 314              		.loc 1 123 0
 315 01d4 4148     		ldr	r0, .L22
 316 01d6 1021     		movs	r1, #16
 317 01d8 FFF7FEFF 		bl	chHeapAlloc
 318 01dc 0590     		str	r0, [sp, #20]
 319              		.loc 1 124 0
 320 01de 3F48     		ldr	r0, .L22
 321 01e0 1021     		movs	r1, #16
 322 01e2 FFF7FEFF 		bl	chHeapAlloc
 323 01e6 0490     		str	r0, [sp, #16]
 324              		.loc 1 125 0
 325 01e8 0598     		ldr	r0, [sp, #20]
 326 01ea FFF7FEFF 		bl	chHeapFree
 327              		.loc 1 126 0
 328 01ee 02AB     		add	r3, sp, #8
 329 01f0 3A48     		ldr	r0, .L22
 330 01f2 1946     		mov	r1, r3
 331 01f4 FFF7FEFF 		bl	chHeapStatus
 332 01f8 0346     		mov	r3, r0
 333 01fa 022B     		cmp	r3, #2
 334 01fc 0CBF     		ite	eq
 335 01fe 0123     		moveq	r3, #1
 336 0200 0023     		movne	r3, #0
 337 0202 DBB2     		uxtb	r3, r3
ARM GAS  /tmp/ccIeDPfS.s 			page 7


 338 0204 0820     		movs	r0, #8
 339 0206 1946     		mov	r1, r3
 340 0208 FFF7FEFF 		bl	_test_assert
 341 020c 0346     		mov	r3, r0
 342 020e 002B     		cmp	r3, #0
 343 0210 00D0     		beq	.L16
 344 0212 60E0     		b	.L4
 345              	.L16:
 346              		.loc 1 127 0
 347 0214 3148     		ldr	r0, .L22
 348 0216 2021     		movs	r1, #32
 349 0218 FFF7FEFF 		bl	chHeapAlloc
 350 021c 0590     		str	r0, [sp, #20]
 351              		.loc 1 128 0
 352 021e 0598     		ldr	r0, [sp, #20]
 353 0220 FFF7FEFF 		bl	chHeapFree
 354              		.loc 1 129 0
 355 0224 0498     		ldr	r0, [sp, #16]
 356 0226 FFF7FEFF 		bl	chHeapFree
 357              		.loc 1 130 0
 358 022a 02AB     		add	r3, sp, #8
 359 022c 2B48     		ldr	r0, .L22
 360 022e 1946     		mov	r1, r3
 361 0230 FFF7FEFF 		bl	chHeapStatus
 362 0234 0346     		mov	r3, r0
 363 0236 012B     		cmp	r3, #1
 364 0238 0CBF     		ite	eq
 365 023a 0123     		moveq	r3, #1
 366 023c 0023     		movne	r3, #0
 367 023e DBB2     		uxtb	r3, r3
 368 0240 0920     		movs	r0, #9
 369 0242 1946     		mov	r1, r3
 370 0244 FFF7FEFF 		bl	_test_assert
 371 0248 0346     		mov	r3, r0
 372 024a 002B     		cmp	r3, #0
 373 024c 00D0     		beq	.L17
 374 024e 42E0     		b	.L4
 375              	.L17:
 376              		.loc 1 133 0
 377 0250 02AB     		add	r3, sp, #8
 378 0252 2248     		ldr	r0, .L22
 379 0254 1946     		mov	r1, r3
 380 0256 FFF7FEFF 		bl	chHeapStatus
 381              		.loc 1 134 0
 382 025a 029B     		ldr	r3, [sp, #8]
 383 025c 1F48     		ldr	r0, .L22
 384 025e 1946     		mov	r1, r3
 385 0260 FFF7FEFF 		bl	chHeapAlloc
 386 0264 0590     		str	r0, [sp, #20]
 387              		.loc 1 135 0
 388 0266 02AB     		add	r3, sp, #8
 389 0268 1C48     		ldr	r0, .L22
 390 026a 1946     		mov	r1, r3
 391 026c FFF7FEFF 		bl	chHeapStatus
 392 0270 0346     		mov	r3, r0
 393 0272 002B     		cmp	r3, #0
 394 0274 0CBF     		ite	eq
ARM GAS  /tmp/ccIeDPfS.s 			page 8


 395 0276 0123     		moveq	r3, #1
 396 0278 0023     		movne	r3, #0
 397 027a DBB2     		uxtb	r3, r3
 398 027c 0A20     		movs	r0, #10
 399 027e 1946     		mov	r1, r3
 400 0280 FFF7FEFF 		bl	_test_assert
 401 0284 0346     		mov	r3, r0
 402 0286 002B     		cmp	r3, #0
 403 0288 00D0     		beq	.L18
 404 028a 24E0     		b	.L4
 405              	.L18:
 406              		.loc 1 136 0
 407 028c 0598     		ldr	r0, [sp, #20]
 408 028e FFF7FEFF 		bl	chHeapFree
 409              		.loc 1 138 0
 410 0292 02AB     		add	r3, sp, #8
 411 0294 1148     		ldr	r0, .L22
 412 0296 1946     		mov	r1, r3
 413 0298 FFF7FEFF 		bl	chHeapStatus
 414 029c 0346     		mov	r3, r0
 415 029e 012B     		cmp	r3, #1
 416 02a0 0CBF     		ite	eq
 417 02a2 0123     		moveq	r3, #1
 418 02a4 0023     		movne	r3, #0
 419 02a6 DBB2     		uxtb	r3, r3
 420 02a8 0B20     		movs	r0, #11
 421 02aa 1946     		mov	r1, r3
 422 02ac FFF7FEFF 		bl	_test_assert
 423 02b0 0346     		mov	r3, r0
 424 02b2 002B     		cmp	r3, #0
 425 02b4 00D0     		beq	.L19
 426 02b6 0EE0     		b	.L4
 427              	.L19:
 428              		.loc 1 139 0
 429 02b8 029A     		ldr	r2, [sp, #8]
 430 02ba 019B     		ldr	r3, [sp, #4]
 431 02bc 9A42     		cmp	r2, r3
 432 02be 0CBF     		ite	eq
 433 02c0 0123     		moveq	r3, #1
 434 02c2 0023     		movne	r3, #0
 435 02c4 DBB2     		uxtb	r3, r3
 436 02c6 0C20     		movs	r0, #12
 437 02c8 1946     		mov	r1, r3
 438 02ca FFF7FEFF 		bl	_test_assert
 439 02ce 0346     		mov	r3, r0
 440 02d0 002B     		cmp	r3, #0
 441 02d2 00D0     		beq	.L4
 442 02d4 00BF     		nop
 443              	.L4:
 444              		.loc 1 140 0
 445 02d6 07B0     		add	sp, sp, #28
 446              		.cfi_def_cfa_offset 4
 447              		@ sp needed
 448 02d8 5DF804FB 		ldr	pc, [sp], #4
 449              	.L23:
 450              		.align	2
 451              	.L22:
ARM GAS  /tmp/ccIeDPfS.s 			page 9


 452 02dc 00000000 		.word	test_heap
 453              		.cfi_endproc
 454              	.LFE217:
 455              		.size	heap1_execute, .-heap1_execute
 456              		.global	testheap1
 457              		.section	.rodata
 458              		.align	2
 459              	.LC0:
 460 0000 48656170 		.ascii	"Heap, allocation and fragmentation test\000"
 460      2C20616C 
 460      6C6F6361 
 460      74696F6E 
 460      20616E64 
 461              		.section	.rodata.testheap1,"a",%progbits
 462              		.align	2
 463              		.type	testheap1, %object
 464              		.size	testheap1, 16
 465              	testheap1:
 466 0000 00000000 		.word	.LC0
 467 0004 00000000 		.word	heap1_setup
 468 0008 00000000 		.word	0
 469 000c 00000000 		.word	heap1_execute
 470              		.global	patternheap
 471              		.section	.rodata.patternheap,"a",%progbits
 472              		.align	2
 473              		.type	patternheap, %object
 474              		.size	patternheap, 8
 475              	patternheap:
 476 0000 00000000 		.word	testheap1
 477 0004 00000000 		.word	0
 478              		.text
 479              	.Letext0:
 480              		.file 2 "/opt/gcc-arm-none-eabi/lib/gcc/arm-none-eabi/4.9.3/include/stddef.h"
 481              		.file 3 "/opt/gcc-arm-none-eabi/arm-none-eabi/include/machine/_default_types.h"
 482              		.file 4 "/opt/gcc-arm-none-eabi/arm-none-eabi/include/stdint.h"
 483              		.file 5 "/home/makkmarci/workspace/CLEAN/ChibiOS/os/rt/ports/ARMCMx/compilers/GCC/chtypes.h"
 484              		.file 6 "/home/makkmarci/workspace/CLEAN/ChibiOS/os/rt/include/chsystypes.h"
 485              		.file 7 "/home/makkmarci/workspace/CLEAN/ChibiOS/os/rt/include/chschd.h"
 486              		.file 8 "/home/makkmarci/workspace/CLEAN/ChibiOS/os/rt/ports/ARMCMx/chcore.h"
 487              		.file 9 "/home/makkmarci/workspace/CLEAN/ChibiOS/os/rt/ports/ARMCMx/chcore_v7m.h"
 488              		.file 10 "/home/makkmarci/workspace/CLEAN/ChibiOS/os/rt/include/chtm.h"
 489              		.file 11 "/home/makkmarci/workspace/CLEAN/ChibiOS/os/rt/include/chsem.h"
 490              		.file 12 "/home/makkmarci/workspace/CLEAN/ChibiOS/os/rt/include/chmtx.h"
 491              		.file 13 "/home/makkmarci/workspace/CLEAN/ChibiOS/os/rt/include/chmemcore.h"
 492              		.file 14 "/home/makkmarci/workspace/CLEAN/ChibiOS/os/rt/include/chheap.h"
 493              		.file 15 "/home/makkmarci/workspace/CLEAN/ChibiOS/test/rt/test.h"
 494              		.file 16 "/home/makkmarci/workspace/CLEAN/ChibiOS/os/ext/CMSIS/include/core_cm4.h"