ARM GAS  /tmp/ccB4jPbS.s 			page 1


   1              		.syntax unified
   2              		.cpu cortex-m4
   3              		.eabi_attribute 27, 1
   4              		.eabi_attribute 28, 1
   5              		.fpu fpv4-sp-d16
   6              		.eabi_attribute 20, 1
   7              		.eabi_attribute 21, 1
   8              		.eabi_attribute 23, 3
   9              		.eabi_attribute 24, 1
  10              		.eabi_attribute 25, 1
  11              		.eabi_attribute 26, 1
  12              		.eabi_attribute 30, 6
  13              		.eabi_attribute 34, 1
  14              		.eabi_attribute 18, 4
  15              		.thumb
  16              		.file	"testpools.c"
  17              		.text
  18              	.Ltext0:
  19              		.cfi_sections	.debug_frame
  20              		.section	.data.mp1,"aw",%progbits
  21              		.align	2
  22              		.type	mp1, %object
  23              		.size	mp1, 12
  24              	mp1:
  25 0000 00000000 		.word	0
  26 0004 D0010000 		.word	464
  27 0008 00000000 		.word	0
  28              		.section	.text.null_provider,"ax",%progbits
  29              		.align	2
  30              		.p2align 4,,15
  31              		.thumb
  32              		.thumb_func
  33              		.type	null_provider, %function
  34              	null_provider:
  35              	.LFB216:
  36              		.file 1 "/home/makkmarci/workspace/CLEAN/ChibiOS/test/rt/testpools.c"
  37              		.loc 1 60 0
  38              		.cfi_startproc
  39              		@ args = 0, pretend = 0, frame = 8
  40              		@ frame_needed = 0, uses_anonymous_args = 0
  41              		@ link register save eliminated.
  42 0000 82B0     		sub	sp, sp, #8
  43              		.cfi_def_cfa_offset 8
  44 0002 0190     		str	r0, [sp, #4]
  45              		.loc 1 63 0
  46 0004 0023     		movs	r3, #0
  47              		.loc 1 64 0
  48 0006 1846     		mov	r0, r3
  49 0008 02B0     		add	sp, sp, #8
  50              		.cfi_def_cfa_offset 0
  51              		@ sp needed
  52 000a 7047     		bx	lr
  53              		.cfi_endproc
  54              	.LFE216:
  55              		.size	null_provider, .-null_provider
  56 000c AFF30080 		.section	.text.pools1_setup,"ax",%progbits
  57              		.align	2
ARM GAS  /tmp/ccB4jPbS.s 			page 2


  58              		.p2align 4,,15
  59              		.thumb
  60              		.thumb_func
  61              		.type	pools1_setup, %function
  62              	pools1_setup:
  63              	.LFB217:
  64              		.loc 1 66 0
  65              		.cfi_startproc
  66              		@ args = 0, pretend = 0, frame = 0
  67              		@ frame_needed = 0, uses_anonymous_args = 0
  68 0000 08B5     		push	{r3, lr}
  69              		.cfi_def_cfa_offset 8
  70              		.cfi_offset 3, -8
  71              		.cfi_offset 14, -4
  72              		.loc 1 68 0
  73 0002 0348     		ldr	r0, .L4
  74 0004 4FF4E871 		mov	r1, #464
  75 0008 0022     		movs	r2, #0
  76 000a FFF7FEFF 		bl	chPoolObjectInit
  77              		.loc 1 69 0
  78 000e 08BD     		pop	{r3, pc}
  79              	.L5:
  80              		.align	2
  81              	.L4:
  82 0010 00000000 		.word	mp1
  83              		.cfi_endproc
  84              	.LFE217:
  85              		.size	pools1_setup, .-pools1_setup
  86 0014 AFF30080 		.section	.text.pools1_execute,"ax",%progbits
  86      AFF30080 
  86      AFF30080 
  87              		.align	2
  88              		.p2align 4,,15
  89              		.thumb
  90              		.thumb_func
  91              		.type	pools1_execute, %function
  92              	pools1_execute:
  93              	.LFB218:
  94              		.loc 1 71 0
  95              		.cfi_startproc
  96              		@ args = 0, pretend = 0, frame = 8
  97              		@ frame_needed = 0, uses_anonymous_args = 0
  98 0000 00B5     		push	{lr}
  99              		.cfi_def_cfa_offset 4
 100              		.cfi_offset 14, -4
 101 0002 83B0     		sub	sp, sp, #12
 102              		.cfi_def_cfa_offset 16
 103              		.loc 1 75 0
 104 0004 434B     		ldr	r3, .L18
 105 0006 1B68     		ldr	r3, [r3]
 106 0008 4348     		ldr	r0, .L18+4
 107 000a 1946     		mov	r1, r3
 108 000c 0522     		movs	r2, #5
 109 000e FFF7FEFF 		bl	chPoolLoadArray
 110              		.loc 1 78 0
 111 0012 0023     		movs	r3, #0
 112 0014 0193     		str	r3, [sp, #4]
ARM GAS  /tmp/ccB4jPbS.s 			page 3


 113 0016 13E0     		b	.L7
 114              	.L10:
 115              		.loc 1 79 0
 116 0018 3F48     		ldr	r0, .L18+4
 117 001a FFF7FEFF 		bl	chPoolAlloc
 118 001e 0346     		mov	r3, r0
 119 0020 002B     		cmp	r3, #0
 120 0022 14BF     		ite	ne
 121 0024 0123     		movne	r3, #1
 122 0026 0023     		moveq	r3, #0
 123 0028 DBB2     		uxtb	r3, r3
 124 002a 0120     		movs	r0, #1
 125 002c 1946     		mov	r1, r3
 126 002e FFF7FEFF 		bl	_test_assert
 127 0032 0346     		mov	r3, r0
 128 0034 002B     		cmp	r3, #0
 129 0036 00D0     		beq	.L8
 130 0038 68E0     		b	.L6
 131              	.L8:
 132              		.loc 1 78 0 discriminator 2
 133 003a 019B     		ldr	r3, [sp, #4]
 134 003c 0133     		adds	r3, r3, #1
 135 003e 0193     		str	r3, [sp, #4]
 136              	.L7:
 137              		.loc 1 78 0 is_stmt 0 discriminator 1
 138 0040 019B     		ldr	r3, [sp, #4]
 139 0042 042B     		cmp	r3, #4
 140 0044 E8DD     		ble	.L10
 141              		.loc 1 82 0 is_stmt 1
 142 0046 3448     		ldr	r0, .L18+4
 143 0048 FFF7FEFF 		bl	chPoolAlloc
 144 004c 0346     		mov	r3, r0
 145 004e 002B     		cmp	r3, #0
 146 0050 0CBF     		ite	eq
 147 0052 0123     		moveq	r3, #1
 148 0054 0023     		movne	r3, #0
 149 0056 DBB2     		uxtb	r3, r3
 150 0058 0220     		movs	r0, #2
 151 005a 1946     		mov	r1, r3
 152 005c FFF7FEFF 		bl	_test_assert
 153 0060 0346     		mov	r3, r0
 154 0062 002B     		cmp	r3, #0
 155 0064 00D0     		beq	.L11
 156              		.loc 1 82 0 is_stmt 0 discriminator 2
 157 0066 51E0     		b	.L6
 158              	.L11:
 159              		.loc 1 85 0 is_stmt 1
 160 0068 0023     		movs	r3, #0
 161 006a 0193     		str	r3, [sp, #4]
 162 006c 0AE0     		b	.L12
 163              	.L13:
 164              		.loc 1 86 0 discriminator 3
 165 006e 294A     		ldr	r2, .L18
 166 0070 019B     		ldr	r3, [sp, #4]
 167 0072 52F82330 		ldr	r3, [r2, r3, lsl #2]
 168 0076 2848     		ldr	r0, .L18+4
 169 0078 1946     		mov	r1, r3
ARM GAS  /tmp/ccB4jPbS.s 			page 4


 170 007a FFF7FEFF 		bl	chPoolFree
 171              		.loc 1 85 0 discriminator 3
 172 007e 019B     		ldr	r3, [sp, #4]
 173 0080 0133     		adds	r3, r3, #1
 174 0082 0193     		str	r3, [sp, #4]
 175              	.L12:
 176              		.loc 1 85 0 is_stmt 0 discriminator 1
 177 0084 019B     		ldr	r3, [sp, #4]
 178 0086 042B     		cmp	r3, #4
 179 0088 F1DD     		ble	.L13
 180              		.loc 1 89 0 is_stmt 1
 181 008a 0023     		movs	r3, #0
 182 008c 0193     		str	r3, [sp, #4]
 183 008e 13E0     		b	.L14
 184              	.L16:
 185              		.loc 1 90 0
 186 0090 2148     		ldr	r0, .L18+4
 187 0092 FFF7FEFF 		bl	chPoolAlloc
 188 0096 0346     		mov	r3, r0
 189 0098 002B     		cmp	r3, #0
 190 009a 14BF     		ite	ne
 191 009c 0123     		movne	r3, #1
 192 009e 0023     		moveq	r3, #0
 193 00a0 DBB2     		uxtb	r3, r3
 194 00a2 0320     		movs	r0, #3
 195 00a4 1946     		mov	r1, r3
 196 00a6 FFF7FEFF 		bl	_test_assert
 197 00aa 0346     		mov	r3, r0
 198 00ac 002B     		cmp	r3, #0
 199 00ae 00D0     		beq	.L15
 200              		.loc 1 90 0 is_stmt 0 discriminator 3
 201 00b0 2CE0     		b	.L6
 202              	.L15:
 203              		.loc 1 89 0 is_stmt 1 discriminator 2
 204 00b2 019B     		ldr	r3, [sp, #4]
 205 00b4 0133     		adds	r3, r3, #1
 206 00b6 0193     		str	r3, [sp, #4]
 207              	.L14:
 208              		.loc 1 89 0 is_stmt 0 discriminator 1
 209 00b8 019B     		ldr	r3, [sp, #4]
 210 00ba 042B     		cmp	r3, #4
 211 00bc E8DD     		ble	.L16
 212              		.loc 1 93 0 is_stmt 1
 213 00be 1648     		ldr	r0, .L18+4
 214 00c0 FFF7FEFF 		bl	chPoolAlloc
 215 00c4 0346     		mov	r3, r0
 216 00c6 002B     		cmp	r3, #0
 217 00c8 0CBF     		ite	eq
 218 00ca 0123     		moveq	r3, #1
 219 00cc 0023     		movne	r3, #0
 220 00ce DBB2     		uxtb	r3, r3
 221 00d0 0420     		movs	r0, #4
 222 00d2 1946     		mov	r1, r3
 223 00d4 FFF7FEFF 		bl	_test_assert
 224 00d8 0346     		mov	r3, r0
 225 00da 002B     		cmp	r3, #0
 226 00dc 00D0     		beq	.L17
ARM GAS  /tmp/ccB4jPbS.s 			page 5


 227              		.loc 1 93 0 is_stmt 0 discriminator 4
 228 00de 15E0     		b	.L6
 229              	.L17:
 230              		.loc 1 96 0 is_stmt 1
 231 00e0 0D48     		ldr	r0, .L18+4
 232 00e2 1021     		movs	r1, #16
 233 00e4 0D4A     		ldr	r2, .L18+8
 234 00e6 FFF7FEFF 		bl	chPoolObjectInit
 235              		.loc 1 97 0
 236 00ea 0B48     		ldr	r0, .L18+4
 237 00ec FFF7FEFF 		bl	chPoolAlloc
 238 00f0 0346     		mov	r3, r0
 239 00f2 002B     		cmp	r3, #0
 240 00f4 0CBF     		ite	eq
 241 00f6 0123     		moveq	r3, #1
 242 00f8 0023     		movne	r3, #0
 243 00fa DBB2     		uxtb	r3, r3
 244 00fc 0520     		movs	r0, #5
 245 00fe 1946     		mov	r1, r3
 246 0100 FFF7FEFF 		bl	_test_assert
 247 0104 0346     		mov	r3, r0
 248 0106 002B     		cmp	r3, #0
 249 0108 00D0     		beq	.L6
 250              		.loc 1 97 0 is_stmt 0 discriminator 5
 251 010a 00BF     		nop
 252              	.L6:
 253              		.loc 1 98 0 is_stmt 1
 254 010c 03B0     		add	sp, sp, #12
 255              		.cfi_def_cfa_offset 4
 256              		@ sp needed
 257 010e 5DF804FB 		ldr	pc, [sp], #4
 258              	.L19:
 259 0112 00BF     		.align	2
 260              	.L18:
 261 0114 00000000 		.word	wa
 262 0118 00000000 		.word	mp1
 263 011c 00000000 		.word	null_provider
 264              		.cfi_endproc
 265              	.LFE218:
 266              		.size	pools1_execute, .-pools1_execute
 267              		.global	testpools1
 268              		.section	.rodata
 269              		.align	2
 270              	.LC0:
 271 0000 4D656D6F 		.ascii	"Memory Pools, queue/dequeue\000"
 271      72792050 
 271      6F6F6C73 
 271      2C207175 
 271      6575652F 
 272              		.section	.rodata.testpools1,"a",%progbits
 273              		.align	2
 274              		.type	testpools1, %object
 275              		.size	testpools1, 16
 276              	testpools1:
 277 0000 00000000 		.word	.LC0
 278 0004 00000000 		.word	pools1_setup
 279 0008 00000000 		.word	0
ARM GAS  /tmp/ccB4jPbS.s 			page 6


 280 000c 00000000 		.word	pools1_execute
 281              		.global	patternpools
 282              		.section	.rodata.patternpools,"a",%progbits
 283              		.align	2
 284              		.type	patternpools, %object
 285              		.size	patternpools, 8
 286              	patternpools:
 287 0000 00000000 		.word	testpools1
 288 0004 00000000 		.word	0
 289              		.text
 290              	.Letext0:
 291              		.file 2 "/opt/gcc-arm-none-eabi/lib/gcc/arm-none-eabi/4.9.3/include/stddef.h"
 292              		.file 3 "/opt/gcc-arm-none-eabi/arm-none-eabi/include/machine/_default_types.h"
 293              		.file 4 "/opt/gcc-arm-none-eabi/arm-none-eabi/include/stdint.h"
 294              		.file 5 "/home/makkmarci/workspace/CLEAN/ChibiOS/os/rt/ports/ARMCMx/compilers/GCC/chtypes.h"
 295              		.file 6 "/home/makkmarci/workspace/CLEAN/ChibiOS/os/rt/include/chsystypes.h"
 296              		.file 7 "/home/makkmarci/workspace/CLEAN/ChibiOS/os/rt/include/chschd.h"
 297              		.file 8 "/home/makkmarci/workspace/CLEAN/ChibiOS/os/rt/ports/ARMCMx/chcore.h"
 298              		.file 9 "/home/makkmarci/workspace/CLEAN/ChibiOS/os/rt/ports/ARMCMx/chcore_v7m.h"
 299              		.file 10 "/home/makkmarci/workspace/CLEAN/ChibiOS/os/rt/include/chtm.h"
 300              		.file 11 "/home/makkmarci/workspace/CLEAN/ChibiOS/os/rt/include/chsem.h"
 301              		.file 12 "/home/makkmarci/workspace/CLEAN/ChibiOS/os/rt/include/chmtx.h"
 302              		.file 13 "/home/makkmarci/workspace/CLEAN/ChibiOS/os/rt/include/chmemcore.h"
 303              		.file 14 "/home/makkmarci/workspace/CLEAN/ChibiOS/os/rt/include/chmempools.h"
 304              		.file 15 "/home/makkmarci/workspace/CLEAN/ChibiOS/test/rt/test.h"
 305              		.file 16 "/home/makkmarci/workspace/CLEAN/ChibiOS/os/ext/CMSIS/include/core_cm4.h"