ARM GAS  /tmp/ccdbT7AC.s 			page 1


   1              		.syntax unified
   2              		.cpu cortex-m4
   3              		.eabi_attribute 27, 1
   4              		.eabi_attribute 28, 1
   5              		.fpu fpv4-sp-d16
   6              		.eabi_attribute 20, 1
   7              		.eabi_attribute 21, 1
   8              		.eabi_attribute 23, 3
   9              		.eabi_attribute 24, 1
  10              		.eabi_attribute 25, 1
  11              		.eabi_attribute 26, 1
  12              		.eabi_attribute 30, 6
  13              		.eabi_attribute 34, 1
  14              		.eabi_attribute 18, 4
  15              		.thumb
  16              		.file	"testsem.c"
  17              		.text
  18              	.Ltext0:
  19              		.cfi_sections	.debug_frame
  20              		.section	.text.port_lock,"ax",%progbits
  21              		.align	2
  22              		.p2align 4,,15
  23              		.thumb
  24              		.thumb_func
  25              		.type	port_lock, %function
  26              	port_lock:
  27              	.LFB116:
  28              		.file 1 "/home/makkmarci/workspace/CLEAN/ChibiOS/os/rt/ports/ARMCMx/chcore_v7m.h"
  29              		.loc 1 444 0
  30              		.cfi_startproc
  31              		@ args = 0, pretend = 0, frame = 8
  32              		@ frame_needed = 0, uses_anonymous_args = 0
  33              		@ link register save eliminated.
  34 0000 82B0     		sub	sp, sp, #8
  35              		.cfi_def_cfa_offset 8
  36 0002 2023     		movs	r3, #32
  37 0004 0193     		str	r3, [sp, #4]
  38              	.LBB6:
  39              	.LBB7:
  40              		.file 2 "/home/makkmarci/workspace/CLEAN/ChibiOS/os/ext/CMSIS/include/core_cmFunc.h"
  41              		.loc 2 546 0
  42 0006 019B     		ldr	r3, [sp, #4]
  43              	@ 546 "/home/makkmarci/workspace/CLEAN/ChibiOS/os/ext/CMSIS/include/core_cmFunc.h" 1
  44 0008 83F31188 		MSR basepri, r3
  45              	@ 0 "" 2
  46              		.thumb
  47              	.LBE7:
  48              	.LBE6:
  49              		.loc 1 451 0
  50 000c 02B0     		add	sp, sp, #8
  51              		.cfi_def_cfa_offset 0
  52              		@ sp needed
  53 000e 7047     		bx	lr
  54              		.cfi_endproc
  55              	.LFE116:
  56              		.size	port_lock, .-port_lock
  57              		.section	.text.port_unlock,"ax",%progbits
ARM GAS  /tmp/ccdbT7AC.s 			page 2


  58              		.align	2
  59              		.p2align 4,,15
  60              		.thumb
  61              		.thumb_func
  62              		.type	port_unlock, %function
  63              	port_unlock:
  64              	.LFB117:
  65              		.loc 1 458 0
  66              		.cfi_startproc
  67              		@ args = 0, pretend = 0, frame = 8
  68              		@ frame_needed = 0, uses_anonymous_args = 0
  69              		@ link register save eliminated.
  70 0000 82B0     		sub	sp, sp, #8
  71              		.cfi_def_cfa_offset 8
  72 0002 0023     		movs	r3, #0
  73 0004 0193     		str	r3, [sp, #4]
  74              	.LBB8:
  75              	.LBB9:
  76              		.loc 2 546 0
  77 0006 019B     		ldr	r3, [sp, #4]
  78              	@ 546 "/home/makkmarci/workspace/CLEAN/ChibiOS/os/ext/CMSIS/include/core_cmFunc.h" 1
  79 0008 83F31188 		MSR basepri, r3
  80              	@ 0 "" 2
  81              		.thumb
  82              	.LBE9:
  83              	.LBE8:
  84              		.loc 1 465 0
  85 000c 02B0     		add	sp, sp, #8
  86              		.cfi_def_cfa_offset 0
  87              		@ sp needed
  88 000e 7047     		bx	lr
  89              		.cfi_endproc
  90              	.LFE117:
  91              		.size	port_unlock, .-port_unlock
  92              		.section	.text.queue_isempty,"ax",%progbits
  93              		.align	2
  94              		.p2align 4,,15
  95              		.thumb
  96              		.thumb_func
  97              		.type	queue_isempty, %function
  98              	queue_isempty:
  99              	.LFB129:
 100              		.file 3 "/home/makkmarci/workspace/CLEAN/ChibiOS/os/rt/include/chschd.h"
 101              		.loc 3 616 0
 102              		.cfi_startproc
 103              		@ args = 0, pretend = 0, frame = 8
 104              		@ frame_needed = 0, uses_anonymous_args = 0
 105              		@ link register save eliminated.
 106 0000 82B0     		sub	sp, sp, #8
 107              		.cfi_def_cfa_offset 8
 108 0002 0190     		str	r0, [sp, #4]
 109              		.loc 3 618 0
 110 0004 019B     		ldr	r3, [sp, #4]
 111 0006 1A68     		ldr	r2, [r3]
 112 0008 019B     		ldr	r3, [sp, #4]
 113 000a 9A42     		cmp	r2, r3
 114 000c 0CBF     		ite	eq
ARM GAS  /tmp/ccdbT7AC.s 			page 3


 115 000e 0123     		moveq	r3, #1
 116 0010 0023     		movne	r3, #0
 117 0012 DBB2     		uxtb	r3, r3
 118              		.loc 3 619 0
 119 0014 1846     		mov	r0, r3
 120 0016 02B0     		add	sp, sp, #8
 121              		.cfi_def_cfa_offset 0
 122              		@ sp needed
 123 0018 7047     		bx	lr
 124              		.cfi_endproc
 125              	.LFE129:
 126              		.size	queue_isempty, .-queue_isempty
 127 001a 00BFAFF3 		.section	.text.chSysLock,"ax",%progbits
 127      0080
 128              		.align	2
 129              		.p2align 4,,15
 130              		.thumb
 131              		.thumb_func
 132              		.type	chSysLock, %function
 133              	chSysLock:
 134              	.LFB145:
 135              		.file 4 "/home/makkmarci/workspace/CLEAN/ChibiOS/os/rt/include/chsys.h"
 136              		.loc 4 346 0
 137              		.cfi_startproc
 138              		@ args = 0, pretend = 0, frame = 0
 139              		@ frame_needed = 0, uses_anonymous_args = 0
 140 0000 08B5     		push	{r3, lr}
 141              		.cfi_def_cfa_offset 8
 142              		.cfi_offset 3, -8
 143              		.cfi_offset 14, -4
 144              		.loc 4 348 0
 145 0002 FFF7FEFF 		bl	port_lock
 146              		.loc 4 351 0
 147 0006 08BD     		pop	{r3, pc}
 148              		.cfi_endproc
 149              	.LFE145:
 150              		.size	chSysLock, .-chSysLock
 151              		.section	.text.chSysUnlock,"ax",%progbits
 152              		.align	2
 153              		.p2align 4,,15
 154              		.thumb
 155              		.thumb_func
 156              		.type	chSysUnlock, %function
 157              	chSysUnlock:
 158              	.LFB146:
 159              		.loc 4 358 0
 160              		.cfi_startproc
 161              		@ args = 0, pretend = 0, frame = 0
 162              		@ frame_needed = 0, uses_anonymous_args = 0
 163 0000 08B5     		push	{r3, lr}
 164              		.cfi_def_cfa_offset 8
 165              		.cfi_offset 3, -8
 166              		.cfi_offset 14, -4
 167              		.loc 4 371 0
 168 0002 FFF7FEFF 		bl	port_unlock
 169              		.loc 4 372 0
 170 0006 08BD     		pop	{r3, pc}
ARM GAS  /tmp/ccdbT7AC.s 			page 4


 171              		.cfi_endproc
 172              	.LFE146:
 173              		.size	chSysUnlock, .-chSysUnlock
 174 0008 AFF30080 		.section	.text.chVTGetSystemTimeX,"ax",%progbits
 174      AFF30080 
 175              		.align	2
 176              		.p2align 4,,15
 177              		.thumb
 178              		.thumb_func
 179              		.type	chVTGetSystemTimeX, %function
 180              	chVTGetSystemTimeX:
 181              	.LFB153:
 182              		.file 5 "/home/makkmarci/workspace/CLEAN/ChibiOS/os/rt/include/chvt.h"
 183              		.loc 5 228 0
 184              		.cfi_startproc
 185              		@ args = 0, pretend = 0, frame = 0
 186              		@ frame_needed = 0, uses_anonymous_args = 0
 187              		@ link register save eliminated.
 188              		.loc 5 231 0
 189 0000 014B     		ldr	r3, .L9
 190 0002 9B6A     		ldr	r3, [r3, #40]
 191              		.loc 5 235 0
 192 0004 1846     		mov	r0, r3
 193 0006 7047     		bx	lr
 194              	.L10:
 195              		.align	2
 196              	.L9:
 197 0008 00000000 		.word	ch
 198              		.cfi_endproc
 199              	.LFE153:
 200              		.size	chVTGetSystemTimeX, .-chVTGetSystemTimeX
 201 000c AFF30080 		.section	.text.chVTGetSystemTime,"ax",%progbits
 202              		.align	2
 203              		.p2align 4,,15
 204              		.thumb
 205              		.thumb_func
 206              		.type	chVTGetSystemTime, %function
 207              	chVTGetSystemTime:
 208              	.LFB154:
 209              		.loc 5 247 0
 210              		.cfi_startproc
 211              		@ args = 0, pretend = 0, frame = 8
 212              		@ frame_needed = 0, uses_anonymous_args = 0
 213 0000 00B5     		push	{lr}
 214              		.cfi_def_cfa_offset 4
 215              		.cfi_offset 14, -4
 216 0002 83B0     		sub	sp, sp, #12
 217              		.cfi_def_cfa_offset 16
 218              		.loc 5 250 0
 219 0004 FFF7FEFF 		bl	chSysLock
 220              		.loc 5 251 0
 221 0008 FFF7FEFF 		bl	chVTGetSystemTimeX
 222 000c 0190     		str	r0, [sp, #4]
 223              		.loc 5 252 0
 224 000e FFF7FEFF 		bl	chSysUnlock
 225              		.loc 5 254 0
 226 0012 019B     		ldr	r3, [sp, #4]
ARM GAS  /tmp/ccdbT7AC.s 			page 5


 227              		.loc 5 255 0
 228 0014 1846     		mov	r0, r3
 229 0016 03B0     		add	sp, sp, #12
 230              		.cfi_def_cfa_offset 4
 231              		@ sp needed
 232 0018 5DF804FB 		ldr	pc, [sp], #4
 233              		.cfi_endproc
 234              	.LFE154:
 235              		.size	chVTGetSystemTime, .-chVTGetSystemTime
 236 001c AFF30080 		.section	.text.chThdGetSelfX,"ax",%progbits
 237              		.align	2
 238              		.p2align 4,,15
 239              		.thumb
 240              		.thumb_func
 241              		.type	chThdGetSelfX, %function
 242              	chThdGetSelfX:
 243              	.LFB166:
 244              		.file 6 "/home/makkmarci/workspace/CLEAN/ChibiOS/os/rt/include/chthreads.h"
 245              		.loc 6 174 0
 246              		.cfi_startproc
 247              		@ args = 0, pretend = 0, frame = 0
 248              		@ frame_needed = 0, uses_anonymous_args = 0
 249              		@ link register save eliminated.
 250              		.loc 6 176 0
 251 0000 014B     		ldr	r3, .L15
 252 0002 9B69     		ldr	r3, [r3, #24]
 253              		.loc 6 177 0
 254 0004 1846     		mov	r0, r3
 255 0006 7047     		bx	lr
 256              	.L16:
 257              		.align	2
 258              	.L15:
 259 0008 00000000 		.word	ch
 260              		.cfi_endproc
 261              	.LFE166:
 262              		.size	chThdGetSelfX, .-chThdGetSelfX
 263 000c AFF30080 		.section	.text.chThdGetPriorityX,"ax",%progbits
 264              		.align	2
 265              		.p2align 4,,15
 266              		.thumb
 267              		.thumb_func
 268              		.type	chThdGetPriorityX, %function
 269              	chThdGetPriorityX:
 270              	.LFB167:
 271              		.loc 6 187 0
 272              		.cfi_startproc
 273              		@ args = 0, pretend = 0, frame = 0
 274              		@ frame_needed = 0, uses_anonymous_args = 0
 275 0000 08B5     		push	{r3, lr}
 276              		.cfi_def_cfa_offset 8
 277              		.cfi_offset 3, -8
 278              		.cfi_offset 14, -4
 279              		.loc 6 189 0
 280 0002 FFF7FEFF 		bl	chThdGetSelfX
 281 0006 0346     		mov	r3, r0
 282 0008 9B68     		ldr	r3, [r3, #8]
 283              		.loc 6 190 0
ARM GAS  /tmp/ccdbT7AC.s 			page 6


 284 000a 1846     		mov	r0, r3
 285 000c 08BD     		pop	{r3, pc}
 286              		.cfi_endproc
 287              	.LFE167:
 288              		.size	chThdGetPriorityX, .-chThdGetPriorityX
 289 000e 00BF     		.section	.text.chSemGetCounterI,"ax",%progbits
 290              		.align	2
 291              		.p2align 4,,15
 292              		.thumb
 293              		.thumb_func
 294              		.type	chSemGetCounterI, %function
 295              	chSemGetCounterI:
 296              	.LFB178:
 297              		.file 7 "/home/makkmarci/workspace/CLEAN/ChibiOS/os/rt/include/chsem.h"
 298              		.loc 7 149 0
 299              		.cfi_startproc
 300              		@ args = 0, pretend = 0, frame = 8
 301              		@ frame_needed = 0, uses_anonymous_args = 0
 302              		@ link register save eliminated.
 303 0000 82B0     		sub	sp, sp, #8
 304              		.cfi_def_cfa_offset 8
 305 0002 0190     		str	r0, [sp, #4]
 306              		.loc 7 153 0
 307 0004 019B     		ldr	r3, [sp, #4]
 308 0006 9B68     		ldr	r3, [r3, #8]
 309              		.loc 7 154 0
 310 0008 1846     		mov	r0, r3
 311 000a 02B0     		add	sp, sp, #8
 312              		.cfi_def_cfa_offset 0
 313              		@ sp needed
 314 000c 7047     		bx	lr
 315              		.cfi_endproc
 316              	.LFE178:
 317              		.size	chSemGetCounterI, .-chSemGetCounterI
 318 000e 00BF     		.section	.text.chBSemObjectInit,"ax",%progbits
 319              		.align	2
 320              		.p2align 4,,15
 321              		.thumb
 322              		.thumb_func
 323              		.type	chBSemObjectInit, %function
 324              	chBSemObjectInit:
 325              	.LFB179:
 326              		.file 8 "/home/makkmarci/workspace/CLEAN/ChibiOS/os/rt/include/chbsem.h"
 327              		.loc 8 124 0
 328              		.cfi_startproc
 329              		@ args = 0, pretend = 0, frame = 8
 330              		@ frame_needed = 0, uses_anonymous_args = 0
 331 0000 00B5     		push	{lr}
 332              		.cfi_def_cfa_offset 4
 333              		.cfi_offset 14, -4
 334 0002 83B0     		sub	sp, sp, #12
 335              		.cfi_def_cfa_offset 16
 336 0004 0190     		str	r0, [sp, #4]
 337 0006 0B46     		mov	r3, r1
 338 0008 8DF80330 		strb	r3, [sp, #3]
 339              		.loc 8 126 0
 340 000c 019A     		ldr	r2, [sp, #4]
ARM GAS  /tmp/ccdbT7AC.s 			page 7


 341 000e 9DF80330 		ldrb	r3, [sp, #3]	@ zero_extendqisi2
 342 0012 002B     		cmp	r3, #0
 343 0014 01D0     		beq	.L22
 344              		.loc 8 126 0 is_stmt 0 discriminator 1
 345 0016 0023     		movs	r3, #0
 346 0018 00E0     		b	.L23
 347              	.L22:
 348              		.loc 8 126 0 discriminator 2
 349 001a 0123     		movs	r3, #1
 350              	.L23:
 351              		.loc 8 126 0 discriminator 4
 352 001c 1046     		mov	r0, r2
 353 001e 1946     		mov	r1, r3
 354 0020 FFF7FEFF 		bl	chSemObjectInit
 355              		.loc 8 127 0 is_stmt 1 discriminator 4
 356 0024 03B0     		add	sp, sp, #12
 357              		.cfi_def_cfa_offset 4
 358              		@ sp needed
 359 0026 5DF804FB 		ldr	pc, [sp], #4
 360              		.cfi_endproc
 361              	.LFE179:
 362              		.size	chBSemObjectInit, .-chBSemObjectInit
 363 002a 00BFAFF3 		.section	.text.chBSemWait,"ax",%progbits
 363      0080
 364              		.align	2
 365              		.p2align 4,,15
 366              		.thumb
 367              		.thumb_func
 368              		.type	chBSemWait, %function
 369              	chBSemWait:
 370              	.LFB180:
 371              		.loc 8 141 0
 372              		.cfi_startproc
 373              		@ args = 0, pretend = 0, frame = 8
 374              		@ frame_needed = 0, uses_anonymous_args = 0
 375 0000 00B5     		push	{lr}
 376              		.cfi_def_cfa_offset 4
 377              		.cfi_offset 14, -4
 378 0002 83B0     		sub	sp, sp, #12
 379              		.cfi_def_cfa_offset 16
 380 0004 0190     		str	r0, [sp, #4]
 381              		.loc 8 143 0
 382 0006 019B     		ldr	r3, [sp, #4]
 383 0008 1846     		mov	r0, r3
 384 000a FFF7FEFF 		bl	chSemWait
 385 000e 0346     		mov	r3, r0
 386              		.loc 8 144 0
 387 0010 1846     		mov	r0, r3
 388 0012 03B0     		add	sp, sp, #12
 389              		.cfi_def_cfa_offset 4
 390              		@ sp needed
 391 0014 5DF804FB 		ldr	pc, [sp], #4
 392              		.cfi_endproc
 393              	.LFE180:
 394              		.size	chBSemWait, .-chBSemWait
 395 0018 AFF30080 		.section	.text.chBSemReset,"ax",%progbits
 395      AFF30080 
ARM GAS  /tmp/ccdbT7AC.s 			page 8


 396              		.align	2
 397              		.p2align 4,,15
 398              		.thumb
 399              		.thumb_func
 400              		.type	chBSemReset, %function
 401              	chBSemReset:
 402              	.LFB185:
 403              		.loc 8 253 0
 404              		.cfi_startproc
 405              		@ args = 0, pretend = 0, frame = 8
 406              		@ frame_needed = 0, uses_anonymous_args = 0
 407 0000 00B5     		push	{lr}
 408              		.cfi_def_cfa_offset 4
 409              		.cfi_offset 14, -4
 410 0002 83B0     		sub	sp, sp, #12
 411              		.cfi_def_cfa_offset 16
 412 0004 0190     		str	r0, [sp, #4]
 413 0006 0B46     		mov	r3, r1
 414 0008 8DF80330 		strb	r3, [sp, #3]
 415              		.loc 8 255 0
 416 000c 019A     		ldr	r2, [sp, #4]
 417 000e 9DF80330 		ldrb	r3, [sp, #3]	@ zero_extendqisi2
 418 0012 002B     		cmp	r3, #0
 419 0014 01D0     		beq	.L27
 420              		.loc 8 255 0 is_stmt 0 discriminator 1
 421 0016 0023     		movs	r3, #0
 422 0018 00E0     		b	.L28
 423              	.L27:
 424              		.loc 8 255 0 discriminator 2
 425 001a 0123     		movs	r3, #1
 426              	.L28:
 427              		.loc 8 255 0 discriminator 4
 428 001c 1046     		mov	r0, r2
 429 001e 1946     		mov	r1, r3
 430 0020 FFF7FEFF 		bl	chSemReset
 431              		.loc 8 256 0 is_stmt 1 discriminator 4
 432 0024 03B0     		add	sp, sp, #12
 433              		.cfi_def_cfa_offset 4
 434              		@ sp needed
 435 0026 5DF804FB 		ldr	pc, [sp], #4
 436              		.cfi_endproc
 437              	.LFE185:
 438              		.size	chBSemReset, .-chBSemReset
 439 002a 00BFAFF3 		.section	.text.chBSemSignalI,"ax",%progbits
 439      0080
 440              		.align	2
 441              		.p2align 4,,15
 442              		.thumb
 443              		.thumb_func
 444              		.type	chBSemSignalI, %function
 445              	chBSemSignalI:
 446              	.LFB186:
 447              		.loc 8 266 0
 448              		.cfi_startproc
 449              		@ args = 0, pretend = 0, frame = 8
 450              		@ frame_needed = 0, uses_anonymous_args = 0
 451 0000 00B5     		push	{lr}
ARM GAS  /tmp/ccdbT7AC.s 			page 9


 452              		.cfi_def_cfa_offset 4
 453              		.cfi_offset 14, -4
 454 0002 83B0     		sub	sp, sp, #12
 455              		.cfi_def_cfa_offset 16
 456 0004 0190     		str	r0, [sp, #4]
 457              		.loc 8 270 0
 458 0006 019B     		ldr	r3, [sp, #4]
 459 0008 9B68     		ldr	r3, [r3, #8]
 460 000a 002B     		cmp	r3, #0
 461 000c 03DC     		bgt	.L29
 462              		.loc 8 271 0
 463 000e 019B     		ldr	r3, [sp, #4]
 464 0010 1846     		mov	r0, r3
 465 0012 FFF7FEFF 		bl	chSemSignalI
 466              	.L29:
 467              		.loc 8 273 0
 468 0016 03B0     		add	sp, sp, #12
 469              		.cfi_def_cfa_offset 4
 470              		@ sp needed
 471 0018 5DF804FB 		ldr	pc, [sp], #4
 472              		.cfi_endproc
 473              	.LFE186:
 474              		.size	chBSemSignalI, .-chBSemSignalI
 475 001c AFF30080 		.section	.text.chBSemSignal,"ax",%progbits
 476              		.align	2
 477              		.p2align 4,,15
 478              		.thumb
 479              		.thumb_func
 480              		.type	chBSemSignal, %function
 481              	chBSemSignal:
 482              	.LFB187:
 483              		.loc 8 282 0
 484              		.cfi_startproc
 485              		@ args = 0, pretend = 0, frame = 8
 486              		@ frame_needed = 0, uses_anonymous_args = 0
 487 0000 00B5     		push	{lr}
 488              		.cfi_def_cfa_offset 4
 489              		.cfi_offset 14, -4
 490 0002 83B0     		sub	sp, sp, #12
 491              		.cfi_def_cfa_offset 16
 492 0004 0190     		str	r0, [sp, #4]
 493              		.loc 8 284 0
 494 0006 FFF7FEFF 		bl	chSysLock
 495              		.loc 8 285 0
 496 000a 0198     		ldr	r0, [sp, #4]
 497 000c FFF7FEFF 		bl	chBSemSignalI
 498              		.loc 8 286 0
 499 0010 FFF7FEFF 		bl	chSchRescheduleS
 500              		.loc 8 287 0
 501 0014 FFF7FEFF 		bl	chSysUnlock
 502              		.loc 8 288 0
 503 0018 03B0     		add	sp, sp, #12
 504              		.cfi_def_cfa_offset 4
 505              		@ sp needed
 506 001a 5DF804FB 		ldr	pc, [sp], #4
 507              		.cfi_endproc
 508              	.LFE187:
ARM GAS  /tmp/ccdbT7AC.s 			page 10


 509              		.size	chBSemSignal, .-chBSemSignal
 510 001e 00BF     		.section	.text.chBSemGetStateI,"ax",%progbits
 511              		.align	2
 512              		.p2align 4,,15
 513              		.thumb
 514              		.thumb_func
 515              		.type	chBSemGetStateI, %function
 516              	chBSemGetStateI:
 517              	.LFB188:
 518              		.loc 8 300 0
 519              		.cfi_startproc
 520              		@ args = 0, pretend = 0, frame = 8
 521              		@ frame_needed = 0, uses_anonymous_args = 0
 522              		@ link register save eliminated.
 523 0000 82B0     		sub	sp, sp, #8
 524              		.cfi_def_cfa_offset 8
 525 0002 0190     		str	r0, [sp, #4]
 526              		.loc 8 304 0
 527 0004 019B     		ldr	r3, [sp, #4]
 528 0006 9B68     		ldr	r3, [r3, #8]
 529 0008 002B     		cmp	r3, #0
 530 000a D4BF     		ite	le
 531 000c 0123     		movle	r3, #1
 532 000e 0023     		movgt	r3, #0
 533 0010 DBB2     		uxtb	r3, r3
 534              		.loc 8 305 0
 535 0012 1846     		mov	r0, r3
 536 0014 02B0     		add	sp, sp, #8
 537              		.cfi_def_cfa_offset 0
 538              		@ sp needed
 539 0016 7047     		bx	lr
 540              		.cfi_endproc
 541              	.LFE188:
 542              		.size	chBSemGetStateI, .-chBSemGetStateI
 543 0018 AFF30080 		.section	.data.sem1,"aw",%progbits
 543      AFF30080 
 544              		.align	2
 545              		.type	sem1, %object
 546              		.size	sem1, 12
 547              	sem1:
 548 0000 00000000 		.word	sem1
 549 0004 00000000 		.word	sem1
 550 0008 00000000 		.word	0
 551              		.section	.text.sem1_setup,"ax",%progbits
 552              		.align	2
 553              		.p2align 4,,15
 554              		.thumb
 555              		.thumb_func
 556              		.type	sem1_setup, %function
 557              	sem1_setup:
 558              	.LFB216:
 559              		.file 9 "/home/makkmarci/workspace/CLEAN/ChibiOS/test/rt/testsem.c"
 560              		.loc 9 72 0
 561              		.cfi_startproc
 562              		@ args = 0, pretend = 0, frame = 0
 563              		@ frame_needed = 0, uses_anonymous_args = 0
 564 0000 08B5     		push	{r3, lr}
ARM GAS  /tmp/ccdbT7AC.s 			page 11


 565              		.cfi_def_cfa_offset 8
 566              		.cfi_offset 3, -8
 567              		.cfi_offset 14, -4
 568              		.loc 9 74 0
 569 0002 0248     		ldr	r0, .L35
 570 0004 0021     		movs	r1, #0
 571 0006 FFF7FEFF 		bl	chSemObjectInit
 572              		.loc 9 75 0
 573 000a 08BD     		pop	{r3, pc}
 574              	.L36:
 575              		.align	2
 576              	.L35:
 577 000c 00000000 		.word	sem1
 578              		.cfi_endproc
 579              	.LFE216:
 580              		.size	sem1_setup, .-sem1_setup
 581              		.section	.text.thread1,"ax",%progbits
 582              		.align	2
 583              		.p2align 4,,15
 584              		.thumb
 585              		.thumb_func
 586              		.type	thread1, %function
 587              	thread1:
 588              	.LFB217:
 589              		.loc 9 77 0
 590              		.cfi_startproc
 591              		@ args = 0, pretend = 0, frame = 8
 592              		@ frame_needed = 0, uses_anonymous_args = 0
 593 0000 00B5     		push	{lr}
 594              		.cfi_def_cfa_offset 4
 595              		.cfi_offset 14, -4
 596 0002 83B0     		sub	sp, sp, #12
 597              		.cfi_def_cfa_offset 16
 598 0004 0190     		str	r0, [sp, #4]
 599              		.loc 9 79 0
 600 0006 0548     		ldr	r0, .L38
 601 0008 FFF7FEFF 		bl	chSemWait
 602              		.loc 9 80 0
 603 000c 019B     		ldr	r3, [sp, #4]
 604 000e 1B78     		ldrb	r3, [r3]	@ zero_extendqisi2
 605 0010 1846     		mov	r0, r3
 606 0012 FFF7FEFF 		bl	test_emit_token
 607              		.loc 9 81 0
 608 0016 03B0     		add	sp, sp, #12
 609              		.cfi_def_cfa_offset 4
 610              		@ sp needed
 611 0018 5DF804FB 		ldr	pc, [sp], #4
 612              	.L39:
 613              		.align	2
 614              	.L38:
 615 001c 00000000 		.word	sem1
 616              		.cfi_endproc
 617              	.LFE217:
 618              		.size	thread1, .-thread1
 619              		.section	.rodata
 620              		.align	2
 621              	.LC0:
ARM GAS  /tmp/ccdbT7AC.s 			page 12


 622 0000 4100     		.ascii	"A\000"
 623 0002 0000     		.align	2
 624              	.LC1:
 625 0004 4200     		.ascii	"B\000"
 626 0006 0000     		.align	2
 627              	.LC2:
 628 0008 4300     		.ascii	"C\000"
 629 000a 0000     		.align	2
 630              	.LC3:
 631 000c 4400     		.ascii	"D\000"
 632 000e 0000     		.align	2
 633              	.LC4:
 634 0010 4500     		.ascii	"E\000"
 635 0012 0000     		.align	2
 636              	.LC5:
 637 0014 41424344 		.ascii	"ABCDE\000"
 637      4500
 638              		.section	.text.sem1_execute,"ax",%progbits
 639              		.align	2
 640              		.p2align 4,,15
 641              		.thumb
 642              		.thumb_func
 643              		.type	sem1_execute, %function
 644              	sem1_execute:
 645              	.LFB218:
 646              		.loc 9 83 0
 647              		.cfi_startproc
 648              		@ args = 0, pretend = 0, frame = 0
 649              		@ frame_needed = 0, uses_anonymous_args = 0
 650 0000 10B5     		push	{r4, lr}
 651              		.cfi_def_cfa_offset 8
 652              		.cfi_offset 4, -8
 653              		.cfi_offset 14, -4
 654 0002 82B0     		sub	sp, sp, #8
 655              		.cfi_def_cfa_offset 16
 656              		.loc 9 85 0
 657 0004 514B     		ldr	r3, .L44
 658 0006 1C68     		ldr	r4, [r3]
 659 0008 FFF7FEFF 		bl	chThdGetPriorityX
 660 000c 0346     		mov	r3, r0
 661 000e 5A1D     		adds	r2, r3, #5
 662 0010 4F4B     		ldr	r3, .L44+4
 663 0012 0093     		str	r3, [sp]
 664 0014 2046     		mov	r0, r4
 665 0016 4FF4E871 		mov	r1, #464
 666 001a 4E4B     		ldr	r3, .L44+8
 667 001c FFF7FEFF 		bl	chThdCreateStatic
 668 0020 0246     		mov	r2, r0
 669 0022 4D4B     		ldr	r3, .L44+12
 670 0024 1A60     		str	r2, [r3]
 671              		.loc 9 86 0
 672 0026 494B     		ldr	r3, .L44
 673 0028 5C68     		ldr	r4, [r3, #4]
 674 002a FFF7FEFF 		bl	chThdGetPriorityX
 675 002e 0346     		mov	r3, r0
 676 0030 5A1C     		adds	r2, r3, #1
 677 0032 4A4B     		ldr	r3, .L44+16
ARM GAS  /tmp/ccdbT7AC.s 			page 13


 678 0034 0093     		str	r3, [sp]
 679 0036 2046     		mov	r0, r4
 680 0038 4FF4E871 		mov	r1, #464
 681 003c 454B     		ldr	r3, .L44+8
 682 003e FFF7FEFF 		bl	chThdCreateStatic
 683 0042 0246     		mov	r2, r0
 684 0044 444B     		ldr	r3, .L44+12
 685 0046 5A60     		str	r2, [r3, #4]
 686              		.loc 9 87 0
 687 0048 404B     		ldr	r3, .L44
 688 004a 9C68     		ldr	r4, [r3, #8]
 689 004c FFF7FEFF 		bl	chThdGetPriorityX
 690 0050 0346     		mov	r3, r0
 691 0052 DA1C     		adds	r2, r3, #3
 692 0054 424B     		ldr	r3, .L44+20
 693 0056 0093     		str	r3, [sp]
 694 0058 2046     		mov	r0, r4
 695 005a 4FF4E871 		mov	r1, #464
 696 005e 3D4B     		ldr	r3, .L44+8
 697 0060 FFF7FEFF 		bl	chThdCreateStatic
 698 0064 0246     		mov	r2, r0
 699 0066 3C4B     		ldr	r3, .L44+12
 700 0068 9A60     		str	r2, [r3, #8]
 701              		.loc 9 88 0
 702 006a 384B     		ldr	r3, .L44
 703 006c DC68     		ldr	r4, [r3, #12]
 704 006e FFF7FEFF 		bl	chThdGetPriorityX
 705 0072 0346     		mov	r3, r0
 706 0074 1A1D     		adds	r2, r3, #4
 707 0076 3B4B     		ldr	r3, .L44+24
 708 0078 0093     		str	r3, [sp]
 709 007a 2046     		mov	r0, r4
 710 007c 4FF4E871 		mov	r1, #464
 711 0080 344B     		ldr	r3, .L44+8
 712 0082 FFF7FEFF 		bl	chThdCreateStatic
 713 0086 0246     		mov	r2, r0
 714 0088 334B     		ldr	r3, .L44+12
 715 008a DA60     		str	r2, [r3, #12]
 716              		.loc 9 89 0
 717 008c 2F4B     		ldr	r3, .L44
 718 008e 1C69     		ldr	r4, [r3, #16]
 719 0090 FFF7FEFF 		bl	chThdGetPriorityX
 720 0094 0346     		mov	r3, r0
 721 0096 9A1C     		adds	r2, r3, #2
 722 0098 334B     		ldr	r3, .L44+28
 723 009a 0093     		str	r3, [sp]
 724 009c 2046     		mov	r0, r4
 725 009e 4FF4E871 		mov	r1, #464
 726 00a2 2C4B     		ldr	r3, .L44+8
 727 00a4 FFF7FEFF 		bl	chThdCreateStatic
 728 00a8 0246     		mov	r2, r0
 729 00aa 2B4B     		ldr	r3, .L44+12
 730 00ac 1A61     		str	r2, [r3, #16]
 731              		.loc 9 90 0
 732 00ae 2F48     		ldr	r0, .L44+32
 733 00b0 FFF7FEFF 		bl	chSemSignal
 734              		.loc 9 91 0
ARM GAS  /tmp/ccdbT7AC.s 			page 14


 735 00b4 2D48     		ldr	r0, .L44+32
 736 00b6 FFF7FEFF 		bl	chSemSignal
 737              		.loc 9 92 0
 738 00ba 2C48     		ldr	r0, .L44+32
 739 00bc FFF7FEFF 		bl	chSemSignal
 740              		.loc 9 93 0
 741 00c0 2A48     		ldr	r0, .L44+32
 742 00c2 FFF7FEFF 		bl	chSemSignal
 743              		.loc 9 94 0
 744 00c6 2948     		ldr	r0, .L44+32
 745 00c8 FFF7FEFF 		bl	chSemSignal
 746              		.loc 9 95 0
 747 00cc FFF7FEFF 		bl	test_wait_threads
 748              		.loc 9 99 0
 749 00d0 0120     		movs	r0, #1
 750 00d2 2749     		ldr	r1, .L44+36
 751 00d4 FFF7FEFF 		bl	_test_assert_sequence
 752 00d8 0346     		mov	r3, r0
 753 00da 002B     		cmp	r3, #0
 754 00dc 00D0     		beq	.L41
 755 00de 33E0     		b	.L40
 756              	.L41:
 757              		.loc 9 101 0
 758 00e0 1A4B     		ldr	r3, .L44
 759 00e2 1C68     		ldr	r4, [r3]
 760 00e4 FFF7FEFF 		bl	chThdGetPriorityX
 761 00e8 0346     		mov	r3, r0
 762 00ea 5A1D     		adds	r2, r3, #5
 763 00ec 184B     		ldr	r3, .L44+4
 764 00ee 0093     		str	r3, [sp]
 765 00f0 2046     		mov	r0, r4
 766 00f2 4FF4E871 		mov	r1, #464
 767 00f6 174B     		ldr	r3, .L44+8
 768 00f8 FFF7FEFF 		bl	chThdCreateStatic
 769 00fc 0246     		mov	r2, r0
 770 00fe 164B     		ldr	r3, .L44+12
 771 0100 1A60     		str	r2, [r3]
 772              		.loc 9 102 0
 773 0102 FFF7FEFF 		bl	chSysLock
 774              		.loc 9 103 0
 775 0106 1948     		ldr	r0, .L44+32
 776 0108 0221     		movs	r1, #2
 777 010a FFF7FEFF 		bl	chSemAddCounterI
 778              		.loc 9 104 0
 779 010e FFF7FEFF 		bl	chSchRescheduleS
 780              		.loc 9 105 0
 781 0112 FFF7FEFF 		bl	chSysUnlock
 782              		.loc 9 106 0
 783 0116 FFF7FEFF 		bl	test_wait_threads
 784              		.loc 9 107 0
 785 011a FFF7FEFF 		bl	chSysLock
 786 011e 1348     		ldr	r0, .L44+32
 787 0120 FFF7FEFF 		bl	chSemGetCounterI
 788 0124 0346     		mov	r3, r0
 789 0126 012B     		cmp	r3, #1
 790 0128 0CBF     		ite	eq
 791 012a 0123     		moveq	r3, #1
ARM GAS  /tmp/ccdbT7AC.s 			page 15


 792 012c 0023     		movne	r3, #0
 793 012e DBB2     		uxtb	r3, r3
 794 0130 0220     		movs	r0, #2
 795 0132 1946     		mov	r1, r3
 796 0134 FFF7FEFF 		bl	_test_assert
 797 0138 0346     		mov	r3, r0
 798 013a 002B     		cmp	r3, #0
 799 013c 02D0     		beq	.L43
 800              		.loc 9 107 0 is_stmt 0 discriminator 1
 801 013e FFF7FEFF 		bl	chSysUnlock
 802 0142 01E0     		b	.L40
 803              	.L43:
 804              		.loc 9 107 0 discriminator 2
 805 0144 FFF7FEFF 		bl	chSysUnlock
 806              	.L40:
 807              		.loc 9 108 0 is_stmt 1
 808 0148 02B0     		add	sp, sp, #8
 809              		.cfi_def_cfa_offset 8
 810              		@ sp needed
 811 014a 10BD     		pop	{r4, pc}
 812              	.L45:
 813              		.align	2
 814              	.L44:
 815 014c 00000000 		.word	wa
 816 0150 00000000 		.word	.LC0
 817 0154 00000000 		.word	thread1
 818 0158 00000000 		.word	threads
 819 015c 04000000 		.word	.LC1
 820 0160 08000000 		.word	.LC2
 821 0164 0C000000 		.word	.LC3
 822 0168 10000000 		.word	.LC4
 823 016c 00000000 		.word	sem1
 824 0170 14000000 		.word	.LC5
 825              		.cfi_endproc
 826              	.LFE218:
 827              		.size	sem1_execute, .-sem1_execute
 828              		.global	testsem1
 829 0174 AFF30080 		.section	.rodata
 829      AFF30080 
 829      AFF30080 
 830 001a 0000     		.align	2
 831              	.LC6:
 832 001c 53656D61 		.ascii	"Semaphores, enqueuing\000"
 832      70686F72 
 832      65732C20 
 832      656E7175 
 832      6575696E 
 833              		.section	.rodata.testsem1,"a",%progbits
 834              		.align	2
 835              		.type	testsem1, %object
 836              		.size	testsem1, 16
 837              	testsem1:
 838 0000 1C000000 		.word	.LC6
 839 0004 00000000 		.word	sem1_setup
 840 0008 00000000 		.word	0
 841 000c 00000000 		.word	sem1_execute
 842              		.section	.text.sem2_setup,"ax",%progbits
ARM GAS  /tmp/ccdbT7AC.s 			page 16


 843              		.align	2
 844              		.p2align 4,,15
 845              		.thumb
 846              		.thumb_func
 847              		.type	sem2_setup, %function
 848              	sem2_setup:
 849              	.LFB219:
 850              		.loc 9 128 0
 851              		.cfi_startproc
 852              		@ args = 0, pretend = 0, frame = 0
 853              		@ frame_needed = 0, uses_anonymous_args = 0
 854 0000 08B5     		push	{r3, lr}
 855              		.cfi_def_cfa_offset 8
 856              		.cfi_offset 3, -8
 857              		.cfi_offset 14, -4
 858              		.loc 9 130 0
 859 0002 0248     		ldr	r0, .L47
 860 0004 0021     		movs	r1, #0
 861 0006 FFF7FEFF 		bl	chSemObjectInit
 862              		.loc 9 131 0
 863 000a 08BD     		pop	{r3, pc}
 864              	.L48:
 865              		.align	2
 866              	.L47:
 867 000c 00000000 		.word	sem1
 868              		.cfi_endproc
 869              	.LFE219:
 870              		.size	sem2_setup, .-sem2_setup
 871              		.section	.text.thread2,"ax",%progbits
 872              		.align	2
 873              		.p2align 4,,15
 874              		.thumb
 875              		.thumb_func
 876              		.type	thread2, %function
 877              	thread2:
 878              	.LFB220:
 879              		.loc 9 133 0
 880              		.cfi_startproc
 881              		@ args = 0, pretend = 0, frame = 8
 882              		@ frame_needed = 0, uses_anonymous_args = 0
 883 0000 00B5     		push	{lr}
 884              		.cfi_def_cfa_offset 4
 885              		.cfi_offset 14, -4
 886 0002 83B0     		sub	sp, sp, #12
 887              		.cfi_def_cfa_offset 16
 888 0004 0190     		str	r0, [sp, #4]
 889              		.loc 9 136 0
 890 0006 3220     		movs	r0, #50
 891 0008 FFF7FEFF 		bl	chThdSleep
 892              		.loc 9 137 0
 893 000c FFF7FEFF 		bl	chSysLock
 894              		.loc 9 138 0
 895 0010 0448     		ldr	r0, .L50
 896 0012 FFF7FEFF 		bl	chSemSignalI
 897              		.loc 9 139 0
 898 0016 FFF7FEFF 		bl	chSchRescheduleS
 899              		.loc 9 140 0
ARM GAS  /tmp/ccdbT7AC.s 			page 17


 900 001a FFF7FEFF 		bl	chSysUnlock
 901              		.loc 9 141 0
 902 001e 03B0     		add	sp, sp, #12
 903              		.cfi_def_cfa_offset 4
 904              		@ sp needed
 905 0020 5DF804FB 		ldr	pc, [sp], #4
 906              	.L51:
 907              		.align	2
 908              	.L50:
 909 0024 00000000 		.word	sem1
 910              		.cfi_endproc
 911              	.LFE220:
 912              		.size	thread2, .-thread2
 913 0028 AFF30080 		.section	.text.sem2_execute,"ax",%progbits
 913      AFF30080 
 914              		.align	2
 915              		.p2align 4,,15
 916              		.thumb
 917              		.thumb_func
 918              		.type	sem2_execute, %function
 919              	sem2_execute:
 920              	.LFB221:
 921              		.loc 9 143 0
 922              		.cfi_startproc
 923              		@ args = 0, pretend = 0, frame = 16
 924              		@ frame_needed = 0, uses_anonymous_args = 0
 925 0000 10B5     		push	{r4, lr}
 926              		.cfi_def_cfa_offset 8
 927              		.cfi_offset 4, -8
 928              		.cfi_offset 14, -4
 929 0002 86B0     		sub	sp, sp, #24
 930              		.cfi_def_cfa_offset 32
 931              		.loc 9 151 0
 932 0004 6548     		ldr	r0, .L66
 933 0006 0021     		movs	r1, #0
 934 0008 FFF7FEFF 		bl	chSemWaitTimeout
 935 000c 0490     		str	r0, [sp, #16]
 936              		.loc 9 152 0
 937 000e 049B     		ldr	r3, [sp, #16]
 938 0010 B3F1FF3F 		cmp	r3, #-1
 939 0014 0CBF     		ite	eq
 940 0016 0123     		moveq	r3, #1
 941 0018 0023     		movne	r3, #0
 942 001a DBB2     		uxtb	r3, r3
 943 001c 0120     		movs	r0, #1
 944 001e 1946     		mov	r1, r3
 945 0020 FFF7FEFF 		bl	_test_assert
 946 0024 0346     		mov	r3, r0
 947 0026 002B     		cmp	r3, #0
 948 0028 00D0     		beq	.L53
 949 002a B5E0     		b	.L52
 950              	.L53:
 951              		.loc 9 153 0
 952 002c 5B48     		ldr	r0, .L66
 953 002e FFF7FEFF 		bl	queue_isempty
 954 0032 0346     		mov	r3, r0
 955 0034 0220     		movs	r0, #2
ARM GAS  /tmp/ccdbT7AC.s 			page 18


 956 0036 1946     		mov	r1, r3
 957 0038 FFF7FEFF 		bl	_test_assert
 958 003c 0346     		mov	r3, r0
 959 003e 002B     		cmp	r3, #0
 960 0040 00D0     		beq	.L55
 961              		.loc 9 153 0 is_stmt 0 discriminator 2
 962 0042 A9E0     		b	.L52
 963              	.L55:
 964              		.loc 9 154 0 is_stmt 1
 965 0044 554B     		ldr	r3, .L66
 966 0046 9B68     		ldr	r3, [r3, #8]
 967 0048 002B     		cmp	r3, #0
 968 004a 0CBF     		ite	eq
 969 004c 0123     		moveq	r3, #1
 970 004e 0023     		movne	r3, #0
 971 0050 DBB2     		uxtb	r3, r3
 972 0052 0320     		movs	r0, #3
 973 0054 1946     		mov	r1, r3
 974 0056 FFF7FEFF 		bl	_test_assert
 975 005a 0346     		mov	r3, r0
 976 005c 002B     		cmp	r3, #0
 977 005e 00D0     		beq	.L56
 978              		.loc 9 154 0 is_stmt 0 discriminator 3
 979 0060 9AE0     		b	.L52
 980              	.L56:
 981              		.loc 9 159 0 is_stmt 1
 982 0062 4F4B     		ldr	r3, .L66+4
 983 0064 1C68     		ldr	r4, [r3]
 984 0066 FFF7FEFF 		bl	chThdGetPriorityX
 985 006a 0346     		mov	r3, r0
 986 006c 5A1E     		subs	r2, r3, #1
 987 006e 0023     		movs	r3, #0
 988 0070 0093     		str	r3, [sp]
 989 0072 2046     		mov	r0, r4
 990 0074 4FF4E871 		mov	r1, #464
 991 0078 4A4B     		ldr	r3, .L66+8
 992 007a FFF7FEFF 		bl	chThdCreateStatic
 993 007e 0246     		mov	r2, r0
 994 0080 494B     		ldr	r3, .L66+12
 995 0082 1A60     		str	r2, [r3]
 996              		.loc 9 161 0
 997 0084 4548     		ldr	r0, .L66
 998 0086 4FF4FA71 		mov	r1, #500
 999 008a FFF7FEFF 		bl	chSemWaitTimeout
 1000 008e 0490     		str	r0, [sp, #16]
 1001              		.loc 9 162 0
 1002 0090 FFF7FEFF 		bl	test_wait_threads
 1003              		.loc 9 163 0
 1004 0094 049B     		ldr	r3, [sp, #16]
 1005 0096 002B     		cmp	r3, #0
 1006 0098 0CBF     		ite	eq
 1007 009a 0123     		moveq	r3, #1
 1008 009c 0023     		movne	r3, #0
 1009 009e DBB2     		uxtb	r3, r3
 1010 00a0 0420     		movs	r0, #4
 1011 00a2 1946     		mov	r1, r3
 1012 00a4 FFF7FEFF 		bl	_test_assert
ARM GAS  /tmp/ccdbT7AC.s 			page 19


 1013 00a8 0346     		mov	r3, r0
 1014 00aa 002B     		cmp	r3, #0
 1015 00ac 00D0     		beq	.L57
 1016              		.loc 9 163 0 is_stmt 0 discriminator 4
 1017 00ae 73E0     		b	.L52
 1018              	.L57:
 1019              		.loc 9 164 0 is_stmt 1
 1020 00b0 3A48     		ldr	r0, .L66
 1021 00b2 FFF7FEFF 		bl	queue_isempty
 1022 00b6 0346     		mov	r3, r0
 1023 00b8 0520     		movs	r0, #5
 1024 00ba 1946     		mov	r1, r3
 1025 00bc FFF7FEFF 		bl	_test_assert
 1026 00c0 0346     		mov	r3, r0
 1027 00c2 002B     		cmp	r3, #0
 1028 00c4 00D0     		beq	.L58
 1029              		.loc 9 164 0 is_stmt 0 discriminator 5
 1030 00c6 67E0     		b	.L52
 1031              	.L58:
 1032              		.loc 9 165 0 is_stmt 1
 1033 00c8 344B     		ldr	r3, .L66
 1034 00ca 9B68     		ldr	r3, [r3, #8]
 1035 00cc 002B     		cmp	r3, #0
 1036 00ce 0CBF     		ite	eq
 1037 00d0 0123     		moveq	r3, #1
 1038 00d2 0023     		movne	r3, #0
 1039 00d4 DBB2     		uxtb	r3, r3
 1040 00d6 0620     		movs	r0, #6
 1041 00d8 1946     		mov	r1, r3
 1042 00da FFF7FEFF 		bl	_test_assert
 1043 00de 0346     		mov	r3, r0
 1044 00e0 002B     		cmp	r3, #0
 1045 00e2 00D0     		beq	.L59
 1046              		.loc 9 165 0 is_stmt 0 discriminator 6
 1047 00e4 58E0     		b	.L52
 1048              	.L59:
 1049              		.loc 9 170 0 is_stmt 1
 1050 00e6 FFF7FEFF 		bl	test_wait_tick
 1051              		.loc 9 171 0
 1052 00ea FFF7FEFF 		bl	chVTGetSystemTime
 1053 00ee 0346     		mov	r3, r0
 1054 00f0 FA33     		adds	r3, r3, #250
 1055 00f2 0393     		str	r3, [sp, #12]
 1056              		.loc 9 172 0
 1057 00f4 0023     		movs	r3, #0
 1058 00f6 0593     		str	r3, [sp, #20]
 1059 00f8 38E0     		b	.L60
 1060              	.L64:
 1061              		.loc 9 173 0
 1062 00fa 059B     		ldr	r3, [sp, #20]
 1063 00fc DBB2     		uxtb	r3, r3
 1064 00fe 4133     		adds	r3, r3, #65
 1065 0100 DBB2     		uxtb	r3, r3
 1066 0102 1846     		mov	r0, r3
 1067 0104 FFF7FEFF 		bl	test_emit_token
 1068              		.loc 9 174 0
 1069 0108 2448     		ldr	r0, .L66
ARM GAS  /tmp/ccdbT7AC.s 			page 20


 1070 010a 3221     		movs	r1, #50
 1071 010c FFF7FEFF 		bl	chSemWaitTimeout
 1072 0110 0490     		str	r0, [sp, #16]
 1073              		.loc 9 175 0
 1074 0112 049B     		ldr	r3, [sp, #16]
 1075 0114 B3F1FF3F 		cmp	r3, #-1
 1076 0118 0CBF     		ite	eq
 1077 011a 0123     		moveq	r3, #1
 1078 011c 0023     		movne	r3, #0
 1079 011e DBB2     		uxtb	r3, r3
 1080 0120 0720     		movs	r0, #7
 1081 0122 1946     		mov	r1, r3
 1082 0124 FFF7FEFF 		bl	_test_assert
 1083 0128 0346     		mov	r3, r0
 1084 012a 002B     		cmp	r3, #0
 1085 012c 00D0     		beq	.L61
 1086              		.loc 9 175 0 is_stmt 0 discriminator 7
 1087 012e 33E0     		b	.L52
 1088              	.L61:
 1089              		.loc 9 176 0 is_stmt 1
 1090 0130 1A48     		ldr	r0, .L66
 1091 0132 FFF7FEFF 		bl	queue_isempty
 1092 0136 0346     		mov	r3, r0
 1093 0138 0820     		movs	r0, #8
 1094 013a 1946     		mov	r1, r3
 1095 013c FFF7FEFF 		bl	_test_assert
 1096 0140 0346     		mov	r3, r0
 1097 0142 002B     		cmp	r3, #0
 1098 0144 00D0     		beq	.L62
 1099              		.loc 9 176 0 is_stmt 0 discriminator 8
 1100 0146 27E0     		b	.L52
 1101              	.L62:
 1102              		.loc 9 177 0 is_stmt 1
 1103 0148 144B     		ldr	r3, .L66
 1104 014a 9B68     		ldr	r3, [r3, #8]
 1105 014c 002B     		cmp	r3, #0
 1106 014e 0CBF     		ite	eq
 1107 0150 0123     		moveq	r3, #1
 1108 0152 0023     		movne	r3, #0
 1109 0154 DBB2     		uxtb	r3, r3
 1110 0156 0920     		movs	r0, #9
 1111 0158 1946     		mov	r1, r3
 1112 015a FFF7FEFF 		bl	_test_assert
 1113 015e 0346     		mov	r3, r0
 1114 0160 002B     		cmp	r3, #0
 1115 0162 00D0     		beq	.L63
 1116              		.loc 9 177 0 is_stmt 0 discriminator 9
 1117 0164 18E0     		b	.L52
 1118              	.L63:
 1119              		.loc 9 172 0 is_stmt 1 discriminator 2
 1120 0166 059B     		ldr	r3, [sp, #20]
 1121 0168 0133     		adds	r3, r3, #1
 1122 016a 0593     		str	r3, [sp, #20]
 1123              	.L60:
 1124              		.loc 9 172 0 is_stmt 0 discriminator 1
 1125 016c 059B     		ldr	r3, [sp, #20]
 1126 016e 042B     		cmp	r3, #4
ARM GAS  /tmp/ccdbT7AC.s 			page 21


 1127 0170 C3DD     		ble	.L64
 1128              		.loc 9 179 0 is_stmt 1
 1129 0172 0A20     		movs	r0, #10
 1130 0174 0D49     		ldr	r1, .L66+16
 1131 0176 FFF7FEFF 		bl	_test_assert_sequence
 1132 017a 0346     		mov	r3, r0
 1133 017c 002B     		cmp	r3, #0
 1134 017e 00D0     		beq	.L65
 1135              		.loc 9 179 0 is_stmt 0 discriminator 10
 1136 0180 0AE0     		b	.L52
 1137              	.L65:
 1138              		.loc 9 180 0 is_stmt 1
 1139 0182 039B     		ldr	r3, [sp, #12]
 1140 0184 0233     		adds	r3, r3, #2
 1141 0186 0B20     		movs	r0, #11
 1142 0188 0399     		ldr	r1, [sp, #12]
 1143 018a 1A46     		mov	r2, r3
 1144 018c FFF7FEFF 		bl	_test_assert_time_window
 1145 0190 0346     		mov	r3, r0
 1146 0192 002B     		cmp	r3, #0
 1147 0194 00D0     		beq	.L52
 1148              		.loc 9 180 0 is_stmt 0 discriminator 11
 1149 0196 00BF     		nop
 1150              	.L52:
 1151              		.loc 9 181 0 is_stmt 1
 1152 0198 06B0     		add	sp, sp, #24
 1153              		.cfi_def_cfa_offset 8
 1154              		@ sp needed
 1155 019a 10BD     		pop	{r4, pc}
 1156              	.L67:
 1157              		.align	2
 1158              	.L66:
 1159 019c 00000000 		.word	sem1
 1160 01a0 00000000 		.word	wa
 1161 01a4 00000000 		.word	thread2
 1162 01a8 00000000 		.word	threads
 1163 01ac 14000000 		.word	.LC5
 1164              		.cfi_endproc
 1165              	.LFE221:
 1166              		.size	sem2_execute, .-sem2_execute
 1167              		.global	testsem2
 1168              		.section	.rodata
 1169 0032 0000     		.align	2
 1170              	.LC7:
 1171 0034 53656D61 		.ascii	"Semaphores, timeout\000"
 1171      70686F72 
 1171      65732C20 
 1171      74696D65 
 1171      6F757400 
 1172              		.section	.rodata.testsem2,"a",%progbits
 1173              		.align	2
 1174              		.type	testsem2, %object
 1175              		.size	testsem2, 16
 1176              	testsem2:
 1177 0000 34000000 		.word	.LC7
 1178 0004 00000000 		.word	sem2_setup
 1179 0008 00000000 		.word	0
ARM GAS  /tmp/ccdbT7AC.s 			page 22


 1180 000c 00000000 		.word	sem2_execute
 1181              		.section	.text.sem3_setup,"ax",%progbits
 1182              		.align	2
 1183              		.p2align 4,,15
 1184              		.thumb
 1185              		.thumb_func
 1186              		.type	sem3_setup, %function
 1187              	sem3_setup:
 1188              	.LFB222:
 1189              		.loc 9 202 0
 1190              		.cfi_startproc
 1191              		@ args = 0, pretend = 0, frame = 0
 1192              		@ frame_needed = 0, uses_anonymous_args = 0
 1193 0000 08B5     		push	{r3, lr}
 1194              		.cfi_def_cfa_offset 8
 1195              		.cfi_offset 3, -8
 1196              		.cfi_offset 14, -4
 1197              		.loc 9 204 0
 1198 0002 0248     		ldr	r0, .L69
 1199 0004 0021     		movs	r1, #0
 1200 0006 FFF7FEFF 		bl	chSemObjectInit
 1201              		.loc 9 205 0
 1202 000a 08BD     		pop	{r3, pc}
 1203              	.L70:
 1204              		.align	2
 1205              	.L69:
 1206 000c 00000000 		.word	sem1
 1207              		.cfi_endproc
 1208              	.LFE222:
 1209              		.size	sem3_setup, .-sem3_setup
 1210              		.section	.text.thread3,"ax",%progbits
 1211              		.align	2
 1212              		.p2align 4,,15
 1213              		.thumb
 1214              		.thumb_func
 1215              		.type	thread3, %function
 1216              	thread3:
 1217              	.LFB223:
 1218              		.loc 9 207 0
 1219              		.cfi_startproc
 1220              		@ args = 0, pretend = 0, frame = 8
 1221              		@ frame_needed = 0, uses_anonymous_args = 0
 1222 0000 00B5     		push	{lr}
 1223              		.cfi_def_cfa_offset 4
 1224              		.cfi_offset 14, -4
 1225 0002 83B0     		sub	sp, sp, #12
 1226              		.cfi_def_cfa_offset 16
 1227 0004 0190     		str	r0, [sp, #4]
 1228              		.loc 9 210 0
 1229 0006 0448     		ldr	r0, .L72
 1230 0008 FFF7FEFF 		bl	chSemWait
 1231              		.loc 9 211 0
 1232 000c 0248     		ldr	r0, .L72
 1233 000e FFF7FEFF 		bl	chSemSignal
 1234              		.loc 9 212 0
 1235 0012 03B0     		add	sp, sp, #12
 1236              		.cfi_def_cfa_offset 4
ARM GAS  /tmp/ccdbT7AC.s 			page 23


 1237              		@ sp needed
 1238 0014 5DF804FB 		ldr	pc, [sp], #4
 1239              	.L73:
 1240              		.align	2
 1241              	.L72:
 1242 0018 00000000 		.word	sem1
 1243              		.cfi_endproc
 1244              	.LFE223:
 1245              		.size	thread3, .-thread3
 1246 001c AFF30080 		.section	.text.sem3_execute,"ax",%progbits
 1247              		.align	2
 1248              		.p2align 4,,15
 1249              		.thumb
 1250              		.thumb_func
 1251              		.type	sem3_execute, %function
 1252              	sem3_execute:
 1253              	.LFB224:
 1254              		.loc 9 214 0
 1255              		.cfi_startproc
 1256              		@ args = 0, pretend = 0, frame = 0
 1257              		@ frame_needed = 0, uses_anonymous_args = 0
 1258 0000 10B5     		push	{r4, lr}
 1259              		.cfi_def_cfa_offset 8
 1260              		.cfi_offset 4, -8
 1261              		.cfi_offset 14, -4
 1262 0002 82B0     		sub	sp, sp, #8
 1263              		.cfi_def_cfa_offset 16
 1264              		.loc 9 216 0
 1265 0004 284B     		ldr	r3, .L79
 1266 0006 1C68     		ldr	r4, [r3]
 1267 0008 FFF7FEFF 		bl	chThdGetPriorityX
 1268 000c 0346     		mov	r3, r0
 1269 000e 5A1C     		adds	r2, r3, #1
 1270 0010 0023     		movs	r3, #0
 1271 0012 0093     		str	r3, [sp]
 1272 0014 2046     		mov	r0, r4
 1273 0016 4FF4E871 		mov	r1, #464
 1274 001a 244B     		ldr	r3, .L79+4
 1275 001c FFF7FEFF 		bl	chThdCreateStatic
 1276 0020 0246     		mov	r2, r0
 1277 0022 234B     		ldr	r3, .L79+8
 1278 0024 1A60     		str	r2, [r3]
 1279              		.loc 9 217 0
 1280 0026 2348     		ldr	r0, .L79+12
 1281 0028 2249     		ldr	r1, .L79+12
 1282 002a FFF7FEFF 		bl	chSemSignalWait
 1283              		.loc 9 218 0
 1284 002e 2148     		ldr	r0, .L79+12
 1285 0030 FFF7FEFF 		bl	queue_isempty
 1286 0034 0346     		mov	r3, r0
 1287 0036 0120     		movs	r0, #1
 1288 0038 1946     		mov	r1, r3
 1289 003a FFF7FEFF 		bl	_test_assert
 1290 003e 0346     		mov	r3, r0
 1291 0040 002B     		cmp	r3, #0
 1292 0042 00D0     		beq	.L75
 1293 0044 2DE0     		b	.L74
ARM GAS  /tmp/ccdbT7AC.s 			page 24


 1294              	.L75:
 1295              		.loc 9 219 0
 1296 0046 1B4B     		ldr	r3, .L79+12
 1297 0048 9B68     		ldr	r3, [r3, #8]
 1298 004a 002B     		cmp	r3, #0
 1299 004c 0CBF     		ite	eq
 1300 004e 0123     		moveq	r3, #1
 1301 0050 0023     		movne	r3, #0
 1302 0052 DBB2     		uxtb	r3, r3
 1303 0054 0220     		movs	r0, #2
 1304 0056 1946     		mov	r1, r3
 1305 0058 FFF7FEFF 		bl	_test_assert
 1306 005c 0346     		mov	r3, r0
 1307 005e 002B     		cmp	r3, #0
 1308 0060 00D0     		beq	.L77
 1309              		.loc 9 219 0 is_stmt 0 discriminator 2
 1310 0062 1EE0     		b	.L74
 1311              	.L77:
 1312              		.loc 9 221 0 is_stmt 1
 1313 0064 1348     		ldr	r0, .L79+12
 1314 0066 1349     		ldr	r1, .L79+12
 1315 0068 FFF7FEFF 		bl	chSemSignalWait
 1316              		.loc 9 222 0
 1317 006c 1148     		ldr	r0, .L79+12
 1318 006e FFF7FEFF 		bl	queue_isempty
 1319 0072 0346     		mov	r3, r0
 1320 0074 0320     		movs	r0, #3
 1321 0076 1946     		mov	r1, r3
 1322 0078 FFF7FEFF 		bl	_test_assert
 1323 007c 0346     		mov	r3, r0
 1324 007e 002B     		cmp	r3, #0
 1325 0080 00D0     		beq	.L78
 1326              		.loc 9 222 0 is_stmt 0 discriminator 3
 1327 0082 0EE0     		b	.L74
 1328              	.L78:
 1329              		.loc 9 223 0 is_stmt 1
 1330 0084 0B4B     		ldr	r3, .L79+12
 1331 0086 9B68     		ldr	r3, [r3, #8]
 1332 0088 002B     		cmp	r3, #0
 1333 008a 0CBF     		ite	eq
 1334 008c 0123     		moveq	r3, #1
 1335 008e 0023     		movne	r3, #0
 1336 0090 DBB2     		uxtb	r3, r3
 1337 0092 0420     		movs	r0, #4
 1338 0094 1946     		mov	r1, r3
 1339 0096 FFF7FEFF 		bl	_test_assert
 1340 009a 0346     		mov	r3, r0
 1341 009c 002B     		cmp	r3, #0
 1342 009e 00D0     		beq	.L74
 1343              		.loc 9 223 0 is_stmt 0 discriminator 4
 1344 00a0 00BF     		nop
 1345              	.L74:
 1346              		.loc 9 224 0 is_stmt 1
 1347 00a2 02B0     		add	sp, sp, #8
 1348              		.cfi_def_cfa_offset 8
 1349              		@ sp needed
 1350 00a4 10BD     		pop	{r4, pc}
ARM GAS  /tmp/ccdbT7AC.s 			page 25


 1351              	.L80:
 1352 00a6 00BF     		.align	2
 1353              	.L79:
 1354 00a8 00000000 		.word	wa
 1355 00ac 00000000 		.word	thread3
 1356 00b0 00000000 		.word	threads
 1357 00b4 00000000 		.word	sem1
 1358              		.cfi_endproc
 1359              	.LFE224:
 1360              		.size	sem3_execute, .-sem3_execute
 1361              		.global	testsem3
 1362 00b8 AFF30080 		.section	.rodata
 1362      AFF30080 
 1363              		.align	2
 1364              	.LC8:
 1365 0048 53656D61 		.ascii	"Semaphores, atomic signal-wait\000"
 1365      70686F72 
 1365      65732C20 
 1365      61746F6D 
 1365      69632073 
 1366              		.section	.rodata.testsem3,"a",%progbits
 1367              		.align	2
 1368              		.type	testsem3, %object
 1369              		.size	testsem3, 16
 1370              	testsem3:
 1371 0000 48000000 		.word	.LC8
 1372 0004 00000000 		.word	sem3_setup
 1373 0008 00000000 		.word	0
 1374 000c 00000000 		.word	sem3_execute
 1375              		.section	.text.thread4,"ax",%progbits
 1376              		.align	2
 1377              		.p2align 4,,15
 1378              		.thumb
 1379              		.thumb_func
 1380              		.type	thread4, %function
 1381              	thread4:
 1382              	.LFB225:
 1383              		.loc 9 241 0
 1384              		.cfi_startproc
 1385              		@ args = 0, pretend = 0, frame = 8
 1386              		@ frame_needed = 0, uses_anonymous_args = 0
 1387 0000 00B5     		push	{lr}
 1388              		.cfi_def_cfa_offset 4
 1389              		.cfi_offset 14, -4
 1390 0002 83B0     		sub	sp, sp, #12
 1391              		.cfi_def_cfa_offset 16
 1392 0004 0190     		str	r0, [sp, #4]
 1393              		.loc 9 243 0
 1394 0006 0198     		ldr	r0, [sp, #4]
 1395 0008 FFF7FEFF 		bl	chBSemSignal
 1396              		.loc 9 244 0
 1397 000c 03B0     		add	sp, sp, #12
 1398              		.cfi_def_cfa_offset 4
 1399              		@ sp needed
 1400 000e 5DF804FB 		ldr	pc, [sp], #4
 1401              		.cfi_endproc
 1402              	.LFE225:
ARM GAS  /tmp/ccdbT7AC.s 			page 26


 1403              		.size	thread4, .-thread4
 1404 0012 00BFAFF3 		.section	.text.sem4_execute,"ax",%progbits
 1404      0080AFF3 
 1404      0080AFF3 
 1404      0080
 1405              		.align	2
 1406              		.p2align 4,,15
 1407              		.thumb
 1408              		.thumb_func
 1409              		.type	sem4_execute, %function
 1410              	sem4_execute:
 1411              	.LFB226:
 1412              		.loc 9 246 0
 1413              		.cfi_startproc
 1414              		@ args = 0, pretend = 0, frame = 16
 1415              		@ frame_needed = 0, uses_anonymous_args = 0
 1416 0000 10B5     		push	{r4, lr}
 1417              		.cfi_def_cfa_offset 8
 1418              		.cfi_offset 4, -8
 1419              		.cfi_offset 14, -4
 1420 0002 86B0     		sub	sp, sp, #24
 1421              		.cfi_def_cfa_offset 32
 1422              		.loc 9 250 0
 1423 0004 03AB     		add	r3, sp, #12
 1424 0006 1846     		mov	r0, r3
 1425 0008 0121     		movs	r1, #1
 1426 000a FFF7FEFF 		bl	chBSemObjectInit
 1427              		.loc 9 251 0
 1428 000e 03AB     		add	r3, sp, #12
 1429 0010 1846     		mov	r0, r3
 1430 0012 0121     		movs	r1, #1
 1431 0014 FFF7FEFF 		bl	chBSemReset
 1432              		.loc 9 252 0
 1433 0018 FFF7FEFF 		bl	chSysLock
 1434 001c 03AB     		add	r3, sp, #12
 1435 001e 1846     		mov	r0, r3
 1436 0020 FFF7FEFF 		bl	chBSemGetStateI
 1437 0024 0346     		mov	r3, r0
 1438 0026 002B     		cmp	r3, #0
 1439 0028 14BF     		ite	ne
 1440 002a 0123     		movne	r3, #1
 1441 002c 0023     		moveq	r3, #0
 1442 002e DBB2     		uxtb	r3, r3
 1443 0030 0120     		movs	r0, #1
 1444 0032 1946     		mov	r1, r3
 1445 0034 FFF7FEFF 		bl	_test_assert
 1446 0038 0346     		mov	r3, r0
 1447 003a 002B     		cmp	r3, #0
 1448 003c 02D0     		beq	.L83
 1449              		.loc 9 252 0 is_stmt 0 discriminator 1
 1450 003e FFF7FEFF 		bl	chSysUnlock
 1451 0042 A2E0     		b	.L82
 1452              	.L83:
 1453              		.loc 9 252 0 discriminator 2
 1454 0044 FFF7FEFF 		bl	chSysUnlock
 1455              		.loc 9 255 0 is_stmt 1 discriminator 2
 1456 0048 514B     		ldr	r3, .L91
ARM GAS  /tmp/ccdbT7AC.s 			page 27


 1457 004a 1C68     		ldr	r4, [r3]
 1458              		.loc 9 256 0 discriminator 2
 1459 004c FFF7FEFF 		bl	chThdGetPriorityX
 1460 0050 0346     		mov	r3, r0
 1461              		.loc 9 255 0 discriminator 2
 1462 0052 5A1E     		subs	r2, r3, #1
 1463 0054 03AB     		add	r3, sp, #12
 1464 0056 0093     		str	r3, [sp]
 1465 0058 2046     		mov	r0, r4
 1466 005a 4FF4E871 		mov	r1, #464
 1467 005e 4D4B     		ldr	r3, .L91+4
 1468 0060 FFF7FEFF 		bl	chThdCreateStatic
 1469 0064 0246     		mov	r2, r0
 1470 0066 4C4B     		ldr	r3, .L91+8
 1471 0068 1A60     		str	r2, [r3]
 1472              		.loc 9 259 0 discriminator 2
 1473 006a 03AB     		add	r3, sp, #12
 1474 006c 1846     		mov	r0, r3
 1475 006e FFF7FEFF 		bl	chBSemWait
 1476              		.loc 9 262 0 discriminator 2
 1477 0072 FFF7FEFF 		bl	chSysLock
 1478 0076 03AB     		add	r3, sp, #12
 1479 0078 1846     		mov	r0, r3
 1480 007a FFF7FEFF 		bl	chBSemGetStateI
 1481 007e 0346     		mov	r3, r0
 1482 0080 002B     		cmp	r3, #0
 1483 0082 14BF     		ite	ne
 1484 0084 0123     		movne	r3, #1
 1485 0086 0023     		moveq	r3, #0
 1486 0088 DBB2     		uxtb	r3, r3
 1487 008a 0220     		movs	r0, #2
 1488 008c 1946     		mov	r1, r3
 1489 008e FFF7FEFF 		bl	_test_assert
 1490 0092 0346     		mov	r3, r0
 1491 0094 002B     		cmp	r3, #0
 1492 0096 02D0     		beq	.L85
 1493              		.loc 9 262 0 is_stmt 0 discriminator 1
 1494 0098 FFF7FEFF 		bl	chSysUnlock
 1495 009c 75E0     		b	.L82
 1496              	.L85:
 1497              		.loc 9 262 0 discriminator 2
 1498 009e FFF7FEFF 		bl	chSysUnlock
 1499              		.loc 9 266 0 is_stmt 1 discriminator 2
 1500 00a2 03AB     		add	r3, sp, #12
 1501 00a4 1846     		mov	r0, r3
 1502 00a6 FFF7FEFF 		bl	chBSemSignal
 1503              		.loc 9 267 0 discriminator 2
 1504 00aa FFF7FEFF 		bl	chSysLock
 1505 00ae 03AB     		add	r3, sp, #12
 1506 00b0 1846     		mov	r0, r3
 1507 00b2 FFF7FEFF 		bl	chBSemGetStateI
 1508 00b6 0346     		mov	r3, r0
 1509 00b8 002B     		cmp	r3, #0
 1510 00ba 14BF     		ite	ne
 1511 00bc 0123     		movne	r3, #1
 1512 00be 0023     		moveq	r3, #0
 1513 00c0 DBB2     		uxtb	r3, r3
ARM GAS  /tmp/ccdbT7AC.s 			page 28


 1514 00c2 83F00103 		eor	r3, r3, #1
 1515 00c6 DBB2     		uxtb	r3, r3
 1516 00c8 03F00103 		and	r3, r3, #1
 1517 00cc DBB2     		uxtb	r3, r3
 1518 00ce 0320     		movs	r0, #3
 1519 00d0 1946     		mov	r1, r3
 1520 00d2 FFF7FEFF 		bl	_test_assert
 1521 00d6 0346     		mov	r3, r0
 1522 00d8 002B     		cmp	r3, #0
 1523 00da 02D0     		beq	.L86
 1524              		.loc 9 267 0 is_stmt 0 discriminator 1
 1525 00dc FFF7FEFF 		bl	chSysUnlock
 1526 00e0 53E0     		b	.L82
 1527              	.L86:
 1528              		.loc 9 267 0 discriminator 2
 1529 00e2 FFF7FEFF 		bl	chSysUnlock
 1530              		.loc 9 268 0 is_stmt 1 discriminator 2
 1531 00e6 FFF7FEFF 		bl	chSysLock
 1532 00ea 03AB     		add	r3, sp, #12
 1533 00ec 1846     		mov	r0, r3
 1534 00ee FFF7FEFF 		bl	chSemGetCounterI
 1535 00f2 0346     		mov	r3, r0
 1536 00f4 012B     		cmp	r3, #1
 1537 00f6 0CBF     		ite	eq
 1538 00f8 0123     		moveq	r3, #1
 1539 00fa 0023     		movne	r3, #0
 1540 00fc DBB2     		uxtb	r3, r3
 1541 00fe 0420     		movs	r0, #4
 1542 0100 1946     		mov	r1, r3
 1543 0102 FFF7FEFF 		bl	_test_assert
 1544 0106 0346     		mov	r3, r0
 1545 0108 002B     		cmp	r3, #0
 1546 010a 02D0     		beq	.L87
 1547              		.loc 9 268 0 is_stmt 0 discriminator 1
 1548 010c FFF7FEFF 		bl	chSysUnlock
 1549 0110 3BE0     		b	.L82
 1550              	.L87:
 1551              		.loc 9 268 0 discriminator 2
 1552 0112 FFF7FEFF 		bl	chSysUnlock
 1553              		.loc 9 271 0 is_stmt 1 discriminator 2
 1554 0116 03AB     		add	r3, sp, #12
 1555 0118 1846     		mov	r0, r3
 1556 011a FFF7FEFF 		bl	chBSemSignal
 1557              		.loc 9 272 0 discriminator 2
 1558 011e FFF7FEFF 		bl	chSysLock
 1559 0122 03AB     		add	r3, sp, #12
 1560 0124 1846     		mov	r0, r3
 1561 0126 FFF7FEFF 		bl	chBSemGetStateI
 1562 012a 0346     		mov	r3, r0
 1563 012c 002B     		cmp	r3, #0
 1564 012e 14BF     		ite	ne
 1565 0130 0123     		movne	r3, #1
 1566 0132 0023     		moveq	r3, #0
 1567 0134 DBB2     		uxtb	r3, r3
 1568 0136 83F00103 		eor	r3, r3, #1
 1569 013a DBB2     		uxtb	r3, r3
 1570 013c 03F00103 		and	r3, r3, #1
ARM GAS  /tmp/ccdbT7AC.s 			page 29


 1571 0140 DBB2     		uxtb	r3, r3
 1572 0142 0320     		movs	r0, #3
 1573 0144 1946     		mov	r1, r3
 1574 0146 FFF7FEFF 		bl	_test_assert
 1575 014a 0346     		mov	r3, r0
 1576 014c 002B     		cmp	r3, #0
 1577 014e 02D0     		beq	.L88
 1578              		.loc 9 272 0 is_stmt 0 discriminator 1
 1579 0150 FFF7FEFF 		bl	chSysUnlock
 1580 0154 19E0     		b	.L82
 1581              	.L88:
 1582              		.loc 9 272 0 discriminator 2
 1583 0156 FFF7FEFF 		bl	chSysUnlock
 1584              		.loc 9 273 0 is_stmt 1 discriminator 2
 1585 015a FFF7FEFF 		bl	chSysLock
 1586 015e 03AB     		add	r3, sp, #12
 1587 0160 1846     		mov	r0, r3
 1588 0162 FFF7FEFF 		bl	chSemGetCounterI
 1589 0166 0346     		mov	r3, r0
 1590 0168 012B     		cmp	r3, #1
 1591 016a 0CBF     		ite	eq
 1592 016c 0123     		moveq	r3, #1
 1593 016e 0023     		movne	r3, #0
 1594 0170 DBB2     		uxtb	r3, r3
 1595 0172 0520     		movs	r0, #5
 1596 0174 1946     		mov	r1, r3
 1597 0176 FFF7FEFF 		bl	_test_assert
 1598 017a 0346     		mov	r3, r0
 1599 017c 002B     		cmp	r3, #0
 1600 017e 02D0     		beq	.L89
 1601              		.loc 9 273 0 is_stmt 0 discriminator 1
 1602 0180 FFF7FEFF 		bl	chSysUnlock
 1603 0184 01E0     		b	.L82
 1604              	.L89:
 1605              		.loc 9 273 0 discriminator 2
 1606 0186 FFF7FEFF 		bl	chSysUnlock
 1607              	.L82:
 1608              		.loc 9 274 0 is_stmt 1
 1609 018a 06B0     		add	sp, sp, #24
 1610              		.cfi_def_cfa_offset 8
 1611              		@ sp needed
 1612 018c 10BD     		pop	{r4, pc}
 1613              	.L92:
 1614 018e 00BF     		.align	2
 1615              	.L91:
 1616 0190 00000000 		.word	wa
 1617 0194 00000000 		.word	thread4
 1618 0198 00000000 		.word	threads
 1619              		.cfi_endproc
 1620              	.LFE226:
 1621              		.size	sem4_execute, .-sem4_execute
 1622              		.global	testsem4
 1623 019c AFF30080 		.section	.rodata
 1624 0067 00       		.align	2
 1625              	.LC9:
 1626 0068 42696E61 		.ascii	"Binary Semaphores, functionality\000"
 1626      72792053 
ARM GAS  /tmp/ccdbT7AC.s 			page 30


 1626      656D6170 
 1626      686F7265 
 1626      732C2066 
 1627 0089 000000   		.section	.rodata.testsem4,"a",%progbits
 1628              		.align	2
 1629              		.type	testsem4, %object
 1630              		.size	testsem4, 16
 1631              	testsem4:
 1632 0000 68000000 		.word	.LC9
 1633 0004 00000000 		.word	0
 1634 0008 00000000 		.word	0
 1635 000c 00000000 		.word	sem4_execute
 1636              		.global	patternsem
 1637              		.section	.rodata.patternsem,"a",%progbits
 1638              		.align	2
 1639              		.type	patternsem, %object
 1640              		.size	patternsem, 20
 1641              	patternsem:
 1642 0000 00000000 		.word	testsem1
 1643 0004 00000000 		.word	testsem2
 1644 0008 00000000 		.word	testsem3
 1645 000c 00000000 		.word	testsem4
 1646 0010 00000000 		.word	0
 1647              		.text
 1648              	.Letext0:
 1649              		.file 10 "/opt/gcc-arm-none-eabi/lib/gcc/arm-none-eabi/4.9.3/include/stddef.h"
 1650              		.file 11 "/opt/gcc-arm-none-eabi/arm-none-eabi/include/machine/_default_types.h"
 1651              		.file 12 "/opt/gcc-arm-none-eabi/arm-none-eabi/include/stdint.h"
 1652              		.file 13 "/home/makkmarci/workspace/CLEAN/ChibiOS/os/rt/ports/ARMCMx/compilers/GCC/chtypes.h"
 1653              		.file 14 "/home/makkmarci/workspace/CLEAN/ChibiOS/os/rt/include/chsystypes.h"
 1654              		.file 15 "/home/makkmarci/workspace/CLEAN/ChibiOS/os/rt/ports/ARMCMx/chcore.h"
 1655              		.file 16 "/home/makkmarci/workspace/CLEAN/ChibiOS/os/rt/include/chtm.h"
 1656              		.file 17 "/home/makkmarci/workspace/CLEAN/ChibiOS/os/rt/include/chmtx.h"
 1657              		.file 18 "/home/makkmarci/workspace/CLEAN/ChibiOS/test/rt/test.h"
 1658              		.file 19 "/home/makkmarci/workspace/CLEAN/ChibiOS/os/ext/CMSIS/include/core_cm4.h"