ARM GAS  /tmp/cchhO5WS.s 			page 1


   1              		.syntax unified
   2              		.cpu cortex-m4
   3              		.eabi_attribute 27, 1
   4              		.eabi_attribute 28, 1
   5              		.fpu fpv4-sp-d16
   6              		.eabi_attribute 20, 1
   7              		.eabi_attribute 21, 1
   8              		.eabi_attribute 23, 3
   9              		.eabi_attribute 24, 1
  10              		.eabi_attribute 25, 1
  11              		.eabi_attribute 26, 1
  12              		.eabi_attribute 30, 6
  13              		.eabi_attribute 34, 1
  14              		.eabi_attribute 18, 4
  15              		.thumb
  16              		.file	"testdyn.c"
  17              		.text
  18              	.Ltext0:
  19              		.cfi_sections	.debug_frame
  20              		.section	.text.chThdGetSelfX,"ax",%progbits
  21              		.align	2
  22              		.p2align 4,,15
  23              		.thumb
  24              		.thumb_func
  25              		.type	chThdGetSelfX, %function
  26              	chThdGetSelfX:
  27              	.LFB166:
  28              		.file 1 "/home/makkmarci/workspace/CLEAN/ChibiOS/os/rt/include/chthreads.h"
  29              		.loc 1 174 0
  30              		.cfi_startproc
  31              		@ args = 0, pretend = 0, frame = 0
  32              		@ frame_needed = 0, uses_anonymous_args = 0
  33              		@ link register save eliminated.
  34              		.loc 1 176 0
  35 0000 014B     		ldr	r3, .L3
  36 0002 9B69     		ldr	r3, [r3, #24]
  37              		.loc 1 177 0
  38 0004 1846     		mov	r0, r3
  39 0006 7047     		bx	lr
  40              	.L4:
  41              		.align	2
  42              	.L3:
  43 0008 00000000 		.word	ch
  44              		.cfi_endproc
  45              	.LFE166:
  46              		.size	chThdGetSelfX, .-chThdGetSelfX
  47 000c AFF30080 		.section	.text.chThdGetPriorityX,"ax",%progbits
  48              		.align	2
  49              		.p2align 4,,15
  50              		.thumb
  51              		.thumb_func
  52              		.type	chThdGetPriorityX, %function
  53              	chThdGetPriorityX:
  54              	.LFB167:
  55              		.loc 1 187 0
  56              		.cfi_startproc
  57              		@ args = 0, pretend = 0, frame = 0
ARM GAS  /tmp/cchhO5WS.s 			page 2


  58              		@ frame_needed = 0, uses_anonymous_args = 0
  59 0000 08B5     		push	{r3, lr}
  60              		.cfi_def_cfa_offset 8
  61              		.cfi_offset 3, -8
  62              		.cfi_offset 14, -4
  63              		.loc 1 189 0
  64 0002 FFF7FEFF 		bl	chThdGetSelfX
  65 0006 0346     		mov	r3, r0
  66 0008 9B68     		ldr	r3, [r3, #8]
  67              		.loc 1 190 0
  68 000a 1846     		mov	r0, r3
  69 000c 08BD     		pop	{r3, pc}
  70              		.cfi_endproc
  71              	.LFE167:
  72              		.size	chThdGetPriorityX, .-chThdGetPriorityX
  73 000e 00BF     		.section	.bss.heap1,"aw",%nobits
  74              		.align	3
  75              		.type	heap1, %object
  76              		.size	heap1, 32
  77              	heap1:
  78 0000 00000000 		.space	32
  78      00000000 
  78      00000000 
  78      00000000 
  78      00000000 
  79              		.section	.bss.mp1,"aw",%nobits
  80              		.align	2
  81              		.type	mp1, %object
  82              		.size	mp1, 12
  83              	mp1:
  84 0000 00000000 		.space	12
  84      00000000 
  84      00000000 
  85              		.section	.text.thread,"ax",%progbits
  86              		.align	2
  87              		.p2align 4,,15
  88              		.thumb
  89              		.thumb_func
  90              		.type	thread, %function
  91              	thread:
  92              	.LFB216:
  93              		.file 2 "/home/makkmarci/workspace/CLEAN/ChibiOS/test/rt/testdyn.c"
  94              		.loc 2 71 0
  95              		.cfi_startproc
  96              		@ args = 0, pretend = 0, frame = 8
  97              		@ frame_needed = 0, uses_anonymous_args = 0
  98 0000 00B5     		push	{lr}
  99              		.cfi_def_cfa_offset 4
 100              		.cfi_offset 14, -4
 101 0002 83B0     		sub	sp, sp, #12
 102              		.cfi_def_cfa_offset 16
 103 0004 0190     		str	r0, [sp, #4]
 104              		.loc 2 73 0
 105 0006 019B     		ldr	r3, [sp, #4]
 106 0008 1B78     		ldrb	r3, [r3]	@ zero_extendqisi2
 107 000a 1846     		mov	r0, r3
 108 000c FFF7FEFF 		bl	test_emit_token
ARM GAS  /tmp/cchhO5WS.s 			page 3


 109              		.loc 2 74 0
 110 0010 03B0     		add	sp, sp, #12
 111              		.cfi_def_cfa_offset 4
 112              		@ sp needed
 113 0012 5DF804FB 		ldr	pc, [sp], #4
 114              		.cfi_endproc
 115              	.LFE216:
 116              		.size	thread, .-thread
 117 0016 00BFAFF3 		.section	.text.dyn1_setup,"ax",%progbits
 117      0080AFF3 
 117      0080
 118              		.align	2
 119              		.p2align 4,,15
 120              		.thumb
 121              		.thumb_func
 122              		.type	dyn1_setup, %function
 123              	dyn1_setup:
 124              	.LFB217:
 125              		.loc 2 77 0
 126              		.cfi_startproc
 127              		@ args = 0, pretend = 0, frame = 0
 128              		@ frame_needed = 0, uses_anonymous_args = 0
 129 0000 08B5     		push	{r3, lr}
 130              		.cfi_def_cfa_offset 8
 131              		.cfi_offset 3, -8
 132              		.cfi_offset 14, -4
 133              		.loc 2 79 0
 134 0002 0348     		ldr	r0, .L9
 135 0004 0349     		ldr	r1, .L9+4
 136 0006 4FF41162 		mov	r2, #2320
 137 000a FFF7FEFF 		bl	chHeapObjectInit
 138              		.loc 2 80 0
 139 000e 08BD     		pop	{r3, pc}
 140              	.L10:
 141              		.align	2
 142              	.L9:
 143 0010 00000000 		.word	heap1
 144 0014 00000000 		.word	test
 145              		.cfi_endproc
 146              	.LFE217:
 147              		.size	dyn1_setup, .-dyn1_setup
 148 0018 AFF30080 		.section	.rodata
 148      AFF30080 
 149              		.align	2
 150              	.LC0:
 151 0000 4100     		.ascii	"A\000"
 152 0002 0000     		.align	2
 153              	.LC1:
 154 0004 4200     		.ascii	"B\000"
 155 0006 0000     		.align	2
 156              	.LC2:
 157 0008 4300     		.ascii	"C\000"
 158 000a 0000     		.align	2
 159              	.LC3:
 160 000c 414200   		.ascii	"AB\000"
 161              		.section	.text.dyn1_execute,"ax",%progbits
 162              		.align	2
ARM GAS  /tmp/cchhO5WS.s 			page 4


 163              		.p2align 4,,15
 164              		.thumb
 165              		.thumb_func
 166              		.type	dyn1_execute, %function
 167              	dyn1_execute:
 168              	.LFB218:
 169              		.loc 2 82 0
 170              		.cfi_startproc
 171              		@ args = 0, pretend = 0, frame = 16
 172              		@ frame_needed = 0, uses_anonymous_args = 0
 173 0000 00B5     		push	{lr}
 174              		.cfi_def_cfa_offset 4
 175              		.cfi_offset 14, -4
 176 0002 87B0     		sub	sp, sp, #28
 177              		.cfi_def_cfa_offset 32
 178              		.loc 2 85 0
 179 0004 FFF7FEFF 		bl	chThdGetPriorityX
 180 0008 0590     		str	r0, [sp, #20]
 181              		.loc 2 87 0
 182 000a 02AB     		add	r3, sp, #8
 183 000c 4448     		ldr	r0, .L20
 184 000e 1946     		mov	r1, r3
 185 0010 FFF7FEFF 		bl	chHeapStatus
 186              		.loc 2 89 0
 187 0014 059B     		ldr	r3, [sp, #20]
 188 0016 5A1E     		subs	r2, r3, #1
 189 0018 424B     		ldr	r3, .L20+4
 190 001a 0093     		str	r3, [sp]
 191 001c 4048     		ldr	r0, .L20
 192 001e 4FF4E871 		mov	r1, #464
 193 0022 414B     		ldr	r3, .L20+8
 194 0024 FFF7FEFF 		bl	chThdCreateFromHeap
 195 0028 0246     		mov	r2, r0
 196 002a 404B     		ldr	r3, .L20+12
 197 002c 1A60     		str	r2, [r3]
 198              		.loc 2 92 0
 199 002e 059B     		ldr	r3, [sp, #20]
 200 0030 9A1E     		subs	r2, r3, #2
 201 0032 3F4B     		ldr	r3, .L20+16
 202 0034 0093     		str	r3, [sp]
 203 0036 3A48     		ldr	r0, .L20
 204 0038 4FF4E871 		mov	r1, #464
 205 003c 3A4B     		ldr	r3, .L20+8
 206 003e FFF7FEFF 		bl	chThdCreateFromHeap
 207 0042 0246     		mov	r2, r0
 208 0044 394B     		ldr	r3, .L20+12
 209 0046 5A60     		str	r2, [r3, #4]
 210              		.loc 2 96 0
 211 0048 03AB     		add	r3, sp, #12
 212 004a 3548     		ldr	r0, .L20
 213 004c 1946     		mov	r1, r3
 214 004e FFF7FEFF 		bl	chHeapStatus
 215              		.loc 2 97 0
 216 0052 039B     		ldr	r3, [sp, #12]
 217 0054 3248     		ldr	r0, .L20
 218 0056 1946     		mov	r1, r3
 219 0058 FFF7FEFF 		bl	chHeapAlloc
ARM GAS  /tmp/cchhO5WS.s 			page 5


 220 005c 0490     		str	r0, [sp, #16]
 221              		.loc 2 98 0
 222 005e 059B     		ldr	r3, [sp, #20]
 223 0060 DA1E     		subs	r2, r3, #3
 224 0062 344B     		ldr	r3, .L20+20
 225 0064 0093     		str	r3, [sp]
 226 0066 2E48     		ldr	r0, .L20
 227 0068 4FF4E871 		mov	r1, #464
 228 006c 2E4B     		ldr	r3, .L20+8
 229 006e FFF7FEFF 		bl	chThdCreateFromHeap
 230 0072 0246     		mov	r2, r0
 231 0074 2D4B     		ldr	r3, .L20+12
 232 0076 9A60     		str	r2, [r3, #8]
 233              		.loc 2 101 0
 234 0078 0498     		ldr	r0, [sp, #16]
 235 007a FFF7FEFF 		bl	chHeapFree
 236              		.loc 2 103 0
 237 007e 2B4B     		ldr	r3, .L20+12
 238 0080 1B68     		ldr	r3, [r3]
 239 0082 002B     		cmp	r3, #0
 240 0084 11D0     		beq	.L12
 241              		.loc 2 103 0 is_stmt 0 discriminator 1
 242 0086 294B     		ldr	r3, .L20+12
 243 0088 5B68     		ldr	r3, [r3, #4]
 244 008a 002B     		cmp	r3, #0
 245 008c 0DD0     		beq	.L12
 246              		.loc 2 103 0 discriminator 3
 247 008e 274B     		ldr	r3, .L20+12
 248 0090 9B68     		ldr	r3, [r3, #8]
 249 0092 002B     		cmp	r3, #0
 250 0094 09D1     		bne	.L12
 251              		.loc 2 103 0 discriminator 5
 252 0096 254B     		ldr	r3, .L20+12
 253 0098 DB68     		ldr	r3, [r3, #12]
 254 009a 002B     		cmp	r3, #0
 255 009c 05D1     		bne	.L12
 256              		.loc 2 103 0 discriminator 7
 257 009e 234B     		ldr	r3, .L20+12
 258 00a0 1B69     		ldr	r3, [r3, #16]
 259 00a2 002B     		cmp	r3, #0
 260 00a4 01D1     		bne	.L12
 261              		.loc 2 103 0 discriminator 9
 262 00a6 0123     		movs	r3, #1
 263 00a8 00E0     		b	.L13
 264              	.L12:
 265              		.loc 2 103 0 discriminator 10
 266 00aa 0023     		movs	r3, #0
 267              	.L13:
 268              		.loc 2 103 0 discriminator 12
 269 00ac 03F00103 		and	r3, r3, #1
 270 00b0 DBB2     		uxtb	r3, r3
 271 00b2 0120     		movs	r0, #1
 272 00b4 1946     		mov	r1, r3
 273 00b6 FFF7FEFF 		bl	_test_assert
 274 00ba 0346     		mov	r3, r0
 275 00bc 002B     		cmp	r3, #0
 276 00be 00D0     		beq	.L14
ARM GAS  /tmp/cchhO5WS.s 			page 6


 277              		.loc 2 103 0
 278 00c0 2BE0     		b	.L11
 279              	.L14:
 280              		.loc 2 111 0 is_stmt 1
 281 00c2 FFF7FEFF 		bl	test_wait_threads
 282              		.loc 2 112 0
 283 00c6 0220     		movs	r0, #2
 284 00c8 1B49     		ldr	r1, .L20+24
 285 00ca FFF7FEFF 		bl	_test_assert_sequence
 286 00ce 0346     		mov	r3, r0
 287 00d0 002B     		cmp	r3, #0
 288 00d2 00D0     		beq	.L16
 289 00d4 21E0     		b	.L11
 290              	.L16:
 291              		.loc 2 115 0
 292 00d6 03AB     		add	r3, sp, #12
 293 00d8 1148     		ldr	r0, .L20
 294 00da 1946     		mov	r1, r3
 295 00dc FFF7FEFF 		bl	chHeapStatus
 296 00e0 0346     		mov	r3, r0
 297 00e2 012B     		cmp	r3, #1
 298 00e4 0CBF     		ite	eq
 299 00e6 0123     		moveq	r3, #1
 300 00e8 0023     		movne	r3, #0
 301 00ea DBB2     		uxtb	r3, r3
 302 00ec 0320     		movs	r0, #3
 303 00ee 1946     		mov	r1, r3
 304 00f0 FFF7FEFF 		bl	_test_assert
 305 00f4 0346     		mov	r3, r0
 306 00f6 002B     		cmp	r3, #0
 307 00f8 00D0     		beq	.L17
 308 00fa 0EE0     		b	.L11
 309              	.L17:
 310              		.loc 2 116 0
 311 00fc 039A     		ldr	r2, [sp, #12]
 312 00fe 029B     		ldr	r3, [sp, #8]
 313 0100 9A42     		cmp	r2, r3
 314 0102 0CBF     		ite	eq
 315 0104 0123     		moveq	r3, #1
 316 0106 0023     		movne	r3, #0
 317 0108 DBB2     		uxtb	r3, r3
 318 010a 0420     		movs	r0, #4
 319 010c 1946     		mov	r1, r3
 320 010e FFF7FEFF 		bl	_test_assert
 321 0112 0346     		mov	r3, r0
 322 0114 002B     		cmp	r3, #0
 323 0116 00D0     		beq	.L11
 324 0118 00BF     		nop
 325              	.L11:
 326              		.loc 2 117 0
 327 011a 07B0     		add	sp, sp, #28
 328              		.cfi_def_cfa_offset 4
 329              		@ sp needed
 330 011c 5DF804FB 		ldr	pc, [sp], #4
 331              	.L21:
 332              		.align	2
 333              	.L20:
ARM GAS  /tmp/cchhO5WS.s 			page 7


 334 0120 00000000 		.word	heap1
 335 0124 00000000 		.word	.LC0
 336 0128 00000000 		.word	thread
 337 012c 00000000 		.word	threads
 338 0130 04000000 		.word	.LC1
 339 0134 08000000 		.word	.LC2
 340 0138 0C000000 		.word	.LC3
 341              		.cfi_endproc
 342              	.LFE218:
 343              		.size	dyn1_execute, .-dyn1_execute
 344              		.global	testdyn1
 345 013c AFF30080 		.section	.rodata
 346 000f 00       		.align	2
 347              	.LC4:
 348 0010 44796E61 		.ascii	"Dynamic APIs, threads creation from heap\000"
 348      6D696320 
 348      41504973 
 348      2C207468 
 348      72656164 
 349              		.section	.rodata.testdyn1,"a",%progbits
 350              		.align	2
 351              		.type	testdyn1, %object
 352              		.size	testdyn1, 16
 353              	testdyn1:
 354 0000 10000000 		.word	.LC4
 355 0004 00000000 		.word	dyn1_setup
 356 0008 00000000 		.word	0
 357 000c 00000000 		.word	dyn1_execute
 358              		.section	.text.dyn2_setup,"ax",%progbits
 359              		.align	2
 360              		.p2align 4,,15
 361              		.thumb
 362              		.thumb_func
 363              		.type	dyn2_setup, %function
 364              	dyn2_setup:
 365              	.LFB219:
 366              		.loc 2 138 0
 367              		.cfi_startproc
 368              		@ args = 0, pretend = 0, frame = 0
 369              		@ frame_needed = 0, uses_anonymous_args = 0
 370 0000 08B5     		push	{r3, lr}
 371              		.cfi_def_cfa_offset 8
 372              		.cfi_offset 3, -8
 373              		.cfi_offset 14, -4
 374              		.loc 2 140 0
 375 0002 0348     		ldr	r0, .L23
 376 0004 4FF4E871 		mov	r1, #464
 377 0008 0022     		movs	r2, #0
 378 000a FFF7FEFF 		bl	chPoolObjectInit
 379              		.loc 2 141 0
 380 000e 08BD     		pop	{r3, pc}
 381              	.L24:
 382              		.align	2
 383              	.L23:
 384 0010 00000000 		.word	mp1
 385              		.cfi_endproc
 386              	.LFE219:
ARM GAS  /tmp/cchhO5WS.s 			page 8


 387              		.size	dyn2_setup, .-dyn2_setup
 388 0014 AFF30080 		.section	.rodata
 388      AFF30080 
 388      AFF30080 
 389 0039 000000   		.align	2
 390              	.LC5:
 391 003c 4400     		.ascii	"D\000"
 392 003e 0000     		.align	2
 393              	.LC6:
 394 0040 4500     		.ascii	"E\000"
 395 0042 0000     		.align	2
 396              	.LC7:
 397 0044 41424344 		.ascii	"ABCD\000"
 397      00
 398              		.section	.text.dyn2_execute,"ax",%progbits
 399              		.align	2
 400              		.p2align 4,,15
 401              		.thumb
 402              		.thumb_func
 403              		.type	dyn2_execute, %function
 404              	dyn2_execute:
 405              	.LFB220:
 406              		.loc 2 143 0
 407              		.cfi_startproc
 408              		@ args = 0, pretend = 0, frame = 8
 409              		@ frame_needed = 0, uses_anonymous_args = 0
 410 0000 00B5     		push	{lr}
 411              		.cfi_def_cfa_offset 4
 412              		.cfi_offset 14, -4
 413 0002 83B0     		sub	sp, sp, #12
 414              		.cfi_def_cfa_offset 16
 415              		.loc 2 145 0
 416 0004 FFF7FEFF 		bl	chThdGetPriorityX
 417 0008 0090     		str	r0, [sp]
 418              		.loc 2 148 0
 419 000a 0023     		movs	r3, #0
 420 000c 0193     		str	r3, [sp, #4]
 421 000e 0AE0     		b	.L26
 422              	.L27:
 423              		.loc 2 149 0 discriminator 3
 424 0010 4F4A     		ldr	r2, .L36
 425 0012 019B     		ldr	r3, [sp, #4]
 426 0014 52F82330 		ldr	r3, [r2, r3, lsl #2]
 427 0018 4E48     		ldr	r0, .L36+4
 428 001a 1946     		mov	r1, r3
 429 001c FFF7FEFF 		bl	chPoolFree
 430              		.loc 2 148 0 discriminator 3
 431 0020 019B     		ldr	r3, [sp, #4]
 432 0022 0133     		adds	r3, r3, #1
 433 0024 0193     		str	r3, [sp, #4]
 434              	.L26:
 435              		.loc 2 148 0 is_stmt 0 discriminator 1
 436 0026 019B     		ldr	r3, [sp, #4]
 437 0028 032B     		cmp	r3, #3
 438 002a F1DD     		ble	.L27
 439              		.loc 2 152 0 is_stmt 1
 440 002c 009B     		ldr	r3, [sp]
ARM GAS  /tmp/cchhO5WS.s 			page 9


 441 002e 013B     		subs	r3, r3, #1
 442 0030 4848     		ldr	r0, .L36+4
 443 0032 1946     		mov	r1, r3
 444 0034 484A     		ldr	r2, .L36+8
 445 0036 494B     		ldr	r3, .L36+12
 446 0038 FFF7FEFF 		bl	chThdCreateFromMemoryPool
 447 003c 0246     		mov	r2, r0
 448 003e 484B     		ldr	r3, .L36+16
 449 0040 1A60     		str	r2, [r3]
 450              		.loc 2 153 0
 451 0042 009B     		ldr	r3, [sp]
 452 0044 023B     		subs	r3, r3, #2
 453 0046 4348     		ldr	r0, .L36+4
 454 0048 1946     		mov	r1, r3
 455 004a 434A     		ldr	r2, .L36+8
 456 004c 454B     		ldr	r3, .L36+20
 457 004e FFF7FEFF 		bl	chThdCreateFromMemoryPool
 458 0052 0246     		mov	r2, r0
 459 0054 424B     		ldr	r3, .L36+16
 460 0056 5A60     		str	r2, [r3, #4]
 461              		.loc 2 154 0
 462 0058 009B     		ldr	r3, [sp]
 463 005a 033B     		subs	r3, r3, #3
 464 005c 3D48     		ldr	r0, .L36+4
 465 005e 1946     		mov	r1, r3
 466 0060 3D4A     		ldr	r2, .L36+8
 467 0062 414B     		ldr	r3, .L36+24
 468 0064 FFF7FEFF 		bl	chThdCreateFromMemoryPool
 469 0068 0246     		mov	r2, r0
 470 006a 3D4B     		ldr	r3, .L36+16
 471 006c 9A60     		str	r2, [r3, #8]
 472              		.loc 2 155 0
 473 006e 009B     		ldr	r3, [sp]
 474 0070 043B     		subs	r3, r3, #4
 475 0072 3848     		ldr	r0, .L36+4
 476 0074 1946     		mov	r1, r3
 477 0076 384A     		ldr	r2, .L36+8
 478 0078 3C4B     		ldr	r3, .L36+28
 479 007a FFF7FEFF 		bl	chThdCreateFromMemoryPool
 480 007e 0246     		mov	r2, r0
 481 0080 374B     		ldr	r3, .L36+16
 482 0082 DA60     		str	r2, [r3, #12]
 483              		.loc 2 156 0
 484 0084 009B     		ldr	r3, [sp]
 485 0086 053B     		subs	r3, r3, #5
 486 0088 3248     		ldr	r0, .L36+4
 487 008a 1946     		mov	r1, r3
 488 008c 324A     		ldr	r2, .L36+8
 489 008e 384B     		ldr	r3, .L36+32
 490 0090 FFF7FEFF 		bl	chThdCreateFromMemoryPool
 491 0094 0246     		mov	r2, r0
 492 0096 324B     		ldr	r3, .L36+16
 493 0098 1A61     		str	r2, [r3, #16]
 494              		.loc 2 158 0
 495 009a 314B     		ldr	r3, .L36+16
 496 009c 1B68     		ldr	r3, [r3]
 497 009e 002B     		cmp	r3, #0
ARM GAS  /tmp/cchhO5WS.s 			page 10


 498 00a0 11D0     		beq	.L28
 499              		.loc 2 158 0 is_stmt 0 discriminator 1
 500 00a2 2F4B     		ldr	r3, .L36+16
 501 00a4 5B68     		ldr	r3, [r3, #4]
 502 00a6 002B     		cmp	r3, #0
 503 00a8 0DD0     		beq	.L28
 504              		.loc 2 158 0 discriminator 3
 505 00aa 2D4B     		ldr	r3, .L36+16
 506 00ac 9B68     		ldr	r3, [r3, #8]
 507 00ae 002B     		cmp	r3, #0
 508 00b0 09D0     		beq	.L28
 509              		.loc 2 158 0 discriminator 5
 510 00b2 2B4B     		ldr	r3, .L36+16
 511 00b4 DB68     		ldr	r3, [r3, #12]
 512 00b6 002B     		cmp	r3, #0
 513 00b8 05D0     		beq	.L28
 514              		.loc 2 158 0 discriminator 7
 515 00ba 294B     		ldr	r3, .L36+16
 516 00bc 1B69     		ldr	r3, [r3, #16]
 517 00be 002B     		cmp	r3, #0
 518 00c0 01D1     		bne	.L28
 519              		.loc 2 158 0 discriminator 9
 520 00c2 0123     		movs	r3, #1
 521 00c4 00E0     		b	.L29
 522              	.L28:
 523              		.loc 2 158 0 discriminator 10
 524 00c6 0023     		movs	r3, #0
 525              	.L29:
 526              		.loc 2 158 0 discriminator 12
 527 00c8 03F00103 		and	r3, r3, #1
 528 00cc DBB2     		uxtb	r3, r3
 529 00ce 0120     		movs	r0, #1
 530 00d0 1946     		mov	r1, r3
 531 00d2 FFF7FEFF 		bl	_test_assert
 532 00d6 0346     		mov	r3, r0
 533 00d8 002B     		cmp	r3, #0
 534 00da 00D0     		beq	.L30
 535              		.loc 2 158 0
 536 00dc 34E0     		b	.L25
 537              	.L30:
 538              		.loc 2 166 0 is_stmt 1
 539 00de FFF7FEFF 		bl	test_wait_threads
 540              		.loc 2 167 0
 541 00e2 0220     		movs	r0, #2
 542 00e4 2349     		ldr	r1, .L36+36
 543 00e6 FFF7FEFF 		bl	_test_assert_sequence
 544 00ea 0346     		mov	r3, r0
 545 00ec 002B     		cmp	r3, #0
 546 00ee 00D0     		beq	.L32
 547              		.loc 2 167 0 is_stmt 0 discriminator 2
 548 00f0 2AE0     		b	.L25
 549              	.L32:
 550              		.loc 2 170 0 is_stmt 1
 551 00f2 0023     		movs	r3, #0
 552 00f4 0193     		str	r3, [sp, #4]
 553 00f6 13E0     		b	.L33
 554              	.L35:
ARM GAS  /tmp/cchhO5WS.s 			page 11


 555              		.loc 2 171 0
 556 00f8 1648     		ldr	r0, .L36+4
 557 00fa FFF7FEFF 		bl	chPoolAlloc
 558 00fe 0346     		mov	r3, r0
 559 0100 002B     		cmp	r3, #0
 560 0102 14BF     		ite	ne
 561 0104 0123     		movne	r3, #1
 562 0106 0023     		moveq	r3, #0
 563 0108 DBB2     		uxtb	r3, r3
 564 010a 0320     		movs	r0, #3
 565 010c 1946     		mov	r1, r3
 566 010e FFF7FEFF 		bl	_test_assert
 567 0112 0346     		mov	r3, r0
 568 0114 002B     		cmp	r3, #0
 569 0116 00D0     		beq	.L34
 570              		.loc 2 171 0 is_stmt 0 discriminator 3
 571 0118 16E0     		b	.L25
 572              	.L34:
 573              		.loc 2 170 0 is_stmt 1 discriminator 2
 574 011a 019B     		ldr	r3, [sp, #4]
 575 011c 0133     		adds	r3, r3, #1
 576 011e 0193     		str	r3, [sp, #4]
 577              	.L33:
 578              		.loc 2 170 0 is_stmt 0 discriminator 1
 579 0120 019B     		ldr	r3, [sp, #4]
 580 0122 032B     		cmp	r3, #3
 581 0124 E8DD     		ble	.L35
 582              		.loc 2 172 0 is_stmt 1
 583 0126 0B48     		ldr	r0, .L36+4
 584 0128 FFF7FEFF 		bl	chPoolAlloc
 585 012c 0346     		mov	r3, r0
 586 012e 002B     		cmp	r3, #0
 587 0130 0CBF     		ite	eq
 588 0132 0123     		moveq	r3, #1
 589 0134 0023     		movne	r3, #0
 590 0136 DBB2     		uxtb	r3, r3
 591 0138 0420     		movs	r0, #4
 592 013a 1946     		mov	r1, r3
 593 013c FFF7FEFF 		bl	_test_assert
 594 0140 0346     		mov	r3, r0
 595 0142 002B     		cmp	r3, #0
 596 0144 00D0     		beq	.L25
 597              		.loc 2 172 0 is_stmt 0 discriminator 4
 598 0146 00BF     		nop
 599              	.L25:
 600              		.loc 2 173 0 is_stmt 1
 601 0148 03B0     		add	sp, sp, #12
 602              		.cfi_def_cfa_offset 4
 603              		@ sp needed
 604 014a 5DF804FB 		ldr	pc, [sp], #4
 605              	.L37:
 606 014e 00BF     		.align	2
 607              	.L36:
 608 0150 00000000 		.word	wa
 609 0154 00000000 		.word	mp1
 610 0158 00000000 		.word	thread
 611 015c 00000000 		.word	.LC0
ARM GAS  /tmp/cchhO5WS.s 			page 12


 612 0160 00000000 		.word	threads
 613 0164 04000000 		.word	.LC1
 614 0168 08000000 		.word	.LC2
 615 016c 3C000000 		.word	.LC5
 616 0170 40000000 		.word	.LC6
 617 0174 44000000 		.word	.LC7
 618              		.cfi_endproc
 619              	.LFE220:
 620              		.size	dyn2_execute, .-dyn2_execute
 621              		.global	testdyn2
 622 0178 AFF30080 		.section	.rodata
 622      AFF30080 
 623 0049 000000   		.align	2
 624              	.LC8:
 625 004c 44796E61 		.ascii	"Dynamic APIs, threads creation from memory pool\000"
 625      6D696320 
 625      41504973 
 625      2C207468 
 625      72656164 
 626              		.section	.rodata.testdyn2,"a",%progbits
 627              		.align	2
 628              		.type	testdyn2, %object
 629              		.size	testdyn2, 16
 630              	testdyn2:
 631 0000 4C000000 		.word	.LC8
 632 0004 00000000 		.word	dyn2_setup
 633 0008 00000000 		.word	0
 634 000c 00000000 		.word	dyn2_execute
 635              		.section	.text.regfind,"ax",%progbits
 636              		.align	2
 637              		.p2align 4,,15
 638              		.thumb
 639              		.thumb_func
 640              		.type	regfind, %function
 641              	regfind:
 642              	.LFB221:
 643              		.loc 2 193 0
 644              		.cfi_startproc
 645              		@ args = 0, pretend = 0, frame = 16
 646              		@ frame_needed = 0, uses_anonymous_args = 0
 647 0000 00B5     		push	{lr}
 648              		.cfi_def_cfa_offset 4
 649              		.cfi_offset 14, -4
 650 0002 85B0     		sub	sp, sp, #20
 651              		.cfi_def_cfa_offset 24
 652 0004 0190     		str	r0, [sp, #4]
 653              		.loc 2 195 0
 654 0006 0023     		movs	r3, #0
 655 0008 8DF80B30 		strb	r3, [sp, #11]
 656              		.loc 2 197 0
 657 000c FFF7FEFF 		bl	chRegFirstThread
 658 0010 0390     		str	r0, [sp, #12]
 659              	.L39:
 660              		.loc 2 199 0 discriminator 1
 661 0012 9DF80B30 		ldrb	r3, [sp, #11]	@ zero_extendqisi2
 662 0016 0399     		ldr	r1, [sp, #12]
 663 0018 019A     		ldr	r2, [sp, #4]
ARM GAS  /tmp/cchhO5WS.s 			page 13


 664 001a 9142     		cmp	r1, r2
 665 001c 0CBF     		ite	eq
 666 001e 0122     		moveq	r2, #1
 667 0020 0022     		movne	r2, #0
 668 0022 D2B2     		uxtb	r2, r2
 669 0024 1343     		orrs	r3, r3, r2
 670 0026 002B     		cmp	r3, #0
 671 0028 14BF     		ite	ne
 672 002a 0123     		movne	r3, #1
 673 002c 0023     		moveq	r3, #0
 674 002e 8DF80B30 		strb	r3, [sp, #11]
 675              		.loc 2 200 0 discriminator 1
 676 0032 0398     		ldr	r0, [sp, #12]
 677 0034 FFF7FEFF 		bl	chRegNextThread
 678 0038 0390     		str	r0, [sp, #12]
 679              		.loc 2 201 0 discriminator 1
 680 003a 039B     		ldr	r3, [sp, #12]
 681 003c 002B     		cmp	r3, #0
 682 003e E8D1     		bne	.L39
 683              		.loc 2 202 0
 684 0040 9DF80B30 		ldrb	r3, [sp, #11]	@ zero_extendqisi2
 685              		.loc 2 203 0
 686 0044 1846     		mov	r0, r3
 687 0046 05B0     		add	sp, sp, #20
 688              		.cfi_def_cfa_offset 4
 689              		@ sp needed
 690 0048 5DF804FB 		ldr	pc, [sp], #4
 691              		.cfi_endproc
 692              	.LFE221:
 693              		.size	regfind, .-regfind
 694 004c AFF30080 		.section	.text.dyn3_setup,"ax",%progbits
 695              		.align	2
 696              		.p2align 4,,15
 697              		.thumb
 698              		.thumb_func
 699              		.type	dyn3_setup, %function
 700              	dyn3_setup:
 701              	.LFB222:
 702              		.loc 2 205 0
 703              		.cfi_startproc
 704              		@ args = 0, pretend = 0, frame = 0
 705              		@ frame_needed = 0, uses_anonymous_args = 0
 706 0000 08B5     		push	{r3, lr}
 707              		.cfi_def_cfa_offset 8
 708              		.cfi_offset 3, -8
 709              		.cfi_offset 14, -4
 710              		.loc 2 207 0
 711 0002 0348     		ldr	r0, .L42
 712 0004 0349     		ldr	r1, .L42+4
 713 0006 4FF41162 		mov	r2, #2320
 714 000a FFF7FEFF 		bl	chHeapObjectInit
 715              		.loc 2 208 0
 716 000e 08BD     		pop	{r3, pc}
 717              	.L43:
 718              		.align	2
 719              	.L42:
 720 0010 00000000 		.word	heap1
ARM GAS  /tmp/cchhO5WS.s 			page 14


 721 0014 00000000 		.word	test
 722              		.cfi_endproc
 723              	.LFE222:
 724              		.size	dyn3_setup, .-dyn3_setup
 725 0018 AFF30080 		.section	.text.dyn3_execute,"ax",%progbits
 725      AFF30080 
 726              		.align	2
 727              		.p2align 4,,15
 728              		.thumb
 729              		.thumb_func
 730              		.type	dyn3_execute, %function
 731              	dyn3_execute:
 732              	.LFB223:
 733              		.loc 2 210 0
 734              		.cfi_startproc
 735              		@ args = 0, pretend = 0, frame = 8
 736              		@ frame_needed = 0, uses_anonymous_args = 0
 737 0000 00B5     		push	{lr}
 738              		.cfi_def_cfa_offset 4
 739              		.cfi_offset 14, -4
 740 0002 85B0     		sub	sp, sp, #20
 741              		.cfi_def_cfa_offset 24
 742              		.loc 2 212 0
 743 0004 FFF7FEFF 		bl	chThdGetPriorityX
 744 0008 0390     		str	r0, [sp, #12]
 745              		.loc 2 215 0
 746 000a 039B     		ldr	r3, [sp, #12]
 747 000c 5A1E     		subs	r2, r3, #1
 748 000e 624B     		ldr	r3, .L57
 749 0010 0093     		str	r3, [sp]
 750 0012 6248     		ldr	r0, .L57+4
 751 0014 4FF4E871 		mov	r1, #464
 752 0018 614B     		ldr	r3, .L57+8
 753 001a FFF7FEFF 		bl	chThdCreateFromHeap
 754 001e 0290     		str	r0, [sp, #8]
 755              		.loc 2 216 0
 756 0020 029B     		ldr	r3, [sp, #8]
 757 0022 9B7F     		ldrb	r3, [r3, #30]	@ zero_extendqisi2
 758 0024 012B     		cmp	r3, #1
 759 0026 0CBF     		ite	eq
 760 0028 0123     		moveq	r3, #1
 761 002a 0023     		movne	r3, #0
 762 002c DBB2     		uxtb	r3, r3
 763 002e 0120     		movs	r0, #1
 764 0030 1946     		mov	r1, r3
 765 0032 FFF7FEFF 		bl	_test_assert
 766 0036 0346     		mov	r3, r0
 767 0038 002B     		cmp	r3, #0
 768 003a 00D0     		beq	.L45
 769 003c A9E0     		b	.L44
 770              	.L45:
 771              		.loc 2 217 0
 772 003e 0298     		ldr	r0, [sp, #8]
 773 0040 FFF7FEFF 		bl	chThdAddRef
 774              		.loc 2 218 0
 775 0044 029B     		ldr	r3, [sp, #8]
 776 0046 9B7F     		ldrb	r3, [r3, #30]	@ zero_extendqisi2
ARM GAS  /tmp/cchhO5WS.s 			page 15


 777 0048 022B     		cmp	r3, #2
 778 004a 0CBF     		ite	eq
 779 004c 0123     		moveq	r3, #1
 780 004e 0023     		movne	r3, #0
 781 0050 DBB2     		uxtb	r3, r3
 782 0052 0220     		movs	r0, #2
 783 0054 1946     		mov	r1, r3
 784 0056 FFF7FEFF 		bl	_test_assert
 785 005a 0346     		mov	r3, r0
 786 005c 002B     		cmp	r3, #0
 787 005e 00D0     		beq	.L47
 788              		.loc 2 218 0 is_stmt 0 discriminator 2
 789 0060 97E0     		b	.L44
 790              	.L47:
 791              		.loc 2 219 0 is_stmt 1
 792 0062 0298     		ldr	r0, [sp, #8]
 793 0064 FFF7FEFF 		bl	chThdRelease
 794              		.loc 2 220 0
 795 0068 029B     		ldr	r3, [sp, #8]
 796 006a 9B7F     		ldrb	r3, [r3, #30]	@ zero_extendqisi2
 797 006c 012B     		cmp	r3, #1
 798 006e 0CBF     		ite	eq
 799 0070 0123     		moveq	r3, #1
 800 0072 0023     		movne	r3, #0
 801 0074 DBB2     		uxtb	r3, r3
 802 0076 0320     		movs	r0, #3
 803 0078 1946     		mov	r1, r3
 804 007a FFF7FEFF 		bl	_test_assert
 805 007e 0346     		mov	r3, r0
 806 0080 002B     		cmp	r3, #0
 807 0082 00D0     		beq	.L48
 808              		.loc 2 220 0 is_stmt 0 discriminator 3
 809 0084 85E0     		b	.L44
 810              	.L48:
 811              		.loc 2 223 0 is_stmt 1
 812 0086 0298     		ldr	r0, [sp, #8]
 813 0088 FFF7FEFF 		bl	regfind
 814 008c 0346     		mov	r3, r0
 815 008e 0420     		movs	r0, #4
 816 0090 1946     		mov	r1, r3
 817 0092 FFF7FEFF 		bl	_test_assert
 818 0096 0346     		mov	r3, r0
 819 0098 002B     		cmp	r3, #0
 820 009a 00D0     		beq	.L49
 821              		.loc 2 223 0 is_stmt 0 discriminator 4
 822 009c 79E0     		b	.L44
 823              	.L49:
 824              		.loc 2 224 0 is_stmt 1
 825 009e 0298     		ldr	r0, [sp, #8]
 826 00a0 FFF7FEFF 		bl	regfind
 827 00a4 0346     		mov	r3, r0
 828 00a6 0520     		movs	r0, #5
 829 00a8 1946     		mov	r1, r3
 830 00aa FFF7FEFF 		bl	_test_assert
 831 00ae 0346     		mov	r3, r0
 832 00b0 002B     		cmp	r3, #0
 833 00b2 00D0     		beq	.L50
ARM GAS  /tmp/cchhO5WS.s 			page 16


 834              		.loc 2 224 0 is_stmt 0 discriminator 5
 835 00b4 6DE0     		b	.L44
 836              	.L50:
 837              		.loc 2 227 0 is_stmt 1
 838 00b6 0298     		ldr	r0, [sp, #8]
 839 00b8 FFF7FEFF 		bl	chThdRelease
 840              		.loc 2 228 0
 841 00bc 029B     		ldr	r3, [sp, #8]
 842 00be 9B7F     		ldrb	r3, [r3, #30]	@ zero_extendqisi2
 843 00c0 002B     		cmp	r3, #0
 844 00c2 0CBF     		ite	eq
 845 00c4 0123     		moveq	r3, #1
 846 00c6 0023     		movne	r3, #0
 847 00c8 DBB2     		uxtb	r3, r3
 848 00ca 0620     		movs	r0, #6
 849 00cc 1946     		mov	r1, r3
 850 00ce FFF7FEFF 		bl	_test_assert
 851 00d2 0346     		mov	r3, r0
 852 00d4 002B     		cmp	r3, #0
 853 00d6 00D0     		beq	.L51
 854              		.loc 2 228 0 is_stmt 0 discriminator 6
 855 00d8 5BE0     		b	.L44
 856              	.L51:
 857              		.loc 2 229 0 is_stmt 1
 858 00da 029B     		ldr	r3, [sp, #8]
 859 00dc 1B7F     		ldrb	r3, [r3, #28]	@ zero_extendqisi2
 860 00de 002B     		cmp	r3, #0
 861 00e0 0CBF     		ite	eq
 862 00e2 0123     		moveq	r3, #1
 863 00e4 0023     		movne	r3, #0
 864 00e6 DBB2     		uxtb	r3, r3
 865 00e8 0720     		movs	r0, #7
 866 00ea 1946     		mov	r1, r3
 867 00ec FFF7FEFF 		bl	_test_assert
 868 00f0 0346     		mov	r3, r0
 869 00f2 002B     		cmp	r3, #0
 870 00f4 00D0     		beq	.L52
 871              		.loc 2 229 0 is_stmt 0 discriminator 7
 872 00f6 4CE0     		b	.L44
 873              	.L52:
 874              		.loc 2 230 0 is_stmt 1
 875 00f8 0298     		ldr	r0, [sp, #8]
 876 00fa FFF7FEFF 		bl	regfind
 877 00fe 0346     		mov	r3, r0
 878 0100 0820     		movs	r0, #8
 879 0102 1946     		mov	r1, r3
 880 0104 FFF7FEFF 		bl	_test_assert
 881 0108 0346     		mov	r3, r0
 882 010a 002B     		cmp	r3, #0
 883 010c 00D0     		beq	.L53
 884              		.loc 2 230 0 is_stmt 0 discriminator 8
 885 010e 40E0     		b	.L44
 886              	.L53:
 887              		.loc 2 231 0 is_stmt 1
 888 0110 0298     		ldr	r0, [sp, #8]
 889 0112 FFF7FEFF 		bl	regfind
 890 0116 0346     		mov	r3, r0
ARM GAS  /tmp/cchhO5WS.s 			page 17


 891 0118 0920     		movs	r0, #9
 892 011a 1946     		mov	r1, r3
 893 011c FFF7FEFF 		bl	_test_assert
 894 0120 0346     		mov	r3, r0
 895 0122 002B     		cmp	r3, #0
 896 0124 00D0     		beq	.L54
 897              		.loc 2 231 0 is_stmt 0 discriminator 9
 898 0126 34E0     		b	.L44
 899              	.L54:
 900              		.loc 2 232 0 is_stmt 1
 901 0128 3220     		movs	r0, #50
 902 012a FFF7FEFF 		bl	chThdSleep
 903              		.loc 2 233 0
 904 012e 029B     		ldr	r3, [sp, #8]
 905 0130 1B7F     		ldrb	r3, [r3, #28]	@ zero_extendqisi2
 906 0132 0F2B     		cmp	r3, #15
 907 0134 0CBF     		ite	eq
 908 0136 0123     		moveq	r3, #1
 909 0138 0023     		movne	r3, #0
 910 013a DBB2     		uxtb	r3, r3
 911 013c 0A20     		movs	r0, #10
 912 013e 1946     		mov	r1, r3
 913 0140 FFF7FEFF 		bl	_test_assert
 914 0144 0346     		mov	r3, r0
 915 0146 002B     		cmp	r3, #0
 916 0148 00D0     		beq	.L55
 917              		.loc 2 233 0 is_stmt 0 discriminator 10
 918 014a 22E0     		b	.L44
 919              	.L55:
 920              		.loc 2 236 0 is_stmt 1
 921 014c 0298     		ldr	r0, [sp, #8]
 922 014e FFF7FEFF 		bl	regfind
 923 0152 0346     		mov	r3, r0
 924 0154 0B20     		movs	r0, #11
 925 0156 1946     		mov	r1, r3
 926 0158 FFF7FEFF 		bl	_test_assert
 927 015c 0346     		mov	r3, r0
 928 015e 002B     		cmp	r3, #0
 929 0160 00D0     		beq	.L56
 930              		.loc 2 236 0 is_stmt 0 discriminator 11
 931 0162 16E0     		b	.L44
 932              	.L56:
 933              		.loc 2 237 0 is_stmt 1
 934 0164 0298     		ldr	r0, [sp, #8]
 935 0166 FFF7FEFF 		bl	regfind
 936 016a 0346     		mov	r3, r0
 937 016c 002B     		cmp	r3, #0
 938 016e 14BF     		ite	ne
 939 0170 0123     		movne	r3, #1
 940 0172 0023     		moveq	r3, #0
 941 0174 DBB2     		uxtb	r3, r3
 942 0176 83F00103 		eor	r3, r3, #1
 943 017a DBB2     		uxtb	r3, r3
 944 017c 03F00103 		and	r3, r3, #1
 945 0180 DBB2     		uxtb	r3, r3
 946 0182 0C20     		movs	r0, #12
 947 0184 1946     		mov	r1, r3
ARM GAS  /tmp/cchhO5WS.s 			page 18


 948 0186 FFF7FEFF 		bl	_test_assert
 949 018a 0346     		mov	r3, r0
 950 018c 002B     		cmp	r3, #0
 951 018e 00D0     		beq	.L44
 952              		.loc 2 237 0 is_stmt 0 discriminator 12
 953 0190 00BF     		nop
 954              	.L44:
 955              		.loc 2 238 0 is_stmt 1
 956 0192 05B0     		add	sp, sp, #20
 957              		.cfi_def_cfa_offset 4
 958              		@ sp needed
 959 0194 5DF804FB 		ldr	pc, [sp], #4
 960              	.L58:
 961              		.align	2
 962              	.L57:
 963 0198 00000000 		.word	.LC0
 964 019c 00000000 		.word	heap1
 965 01a0 00000000 		.word	thread
 966              		.cfi_endproc
 967              	.LFE223:
 968              		.size	dyn3_execute, .-dyn3_execute
 969              		.global	testdyn3
 970 01a4 AFF30080 		.section	.rodata
 970      AFF30080 
 970      AFF30080 
 971              		.align	2
 972              	.LC9:
 973 007c 44796E61 		.ascii	"Dynamic APIs, registry and references\000"
 973      6D696320 
 973      41504973 
 973      2C207265 
 973      67697374 
 974 00a2 0000     		.section	.rodata.testdyn3,"a",%progbits
 975              		.align	2
 976              		.type	testdyn3, %object
 977              		.size	testdyn3, 16
 978              	testdyn3:
 979 0000 7C000000 		.word	.LC9
 980 0004 00000000 		.word	dyn3_setup
 981 0008 00000000 		.word	0
 982 000c 00000000 		.word	dyn3_execute
 983              		.global	patterndyn
 984              		.section	.rodata.patterndyn,"a",%progbits
 985              		.align	2
 986              		.type	patterndyn, %object
 987              		.size	patterndyn, 16
 988              	patterndyn:
 989 0000 00000000 		.word	testdyn1
 990 0004 00000000 		.word	testdyn2
 991 0008 00000000 		.word	testdyn3
 992 000c 00000000 		.word	0
 993              		.text
 994              	.Letext0:
 995              		.file 3 "/opt/gcc-arm-none-eabi/lib/gcc/arm-none-eabi/4.9.3/include/stddef.h"
 996              		.file 4 "/opt/gcc-arm-none-eabi/arm-none-eabi/include/machine/_default_types.h"
 997              		.file 5 "/opt/gcc-arm-none-eabi/arm-none-eabi/include/stdint.h"
 998              		.file 6 "/home/makkmarci/workspace/CLEAN/ChibiOS/os/rt/ports/ARMCMx/compilers/GCC/chtypes.h"
ARM GAS  /tmp/cchhO5WS.s 			page 19


 999              		.file 7 "/home/makkmarci/workspace/CLEAN/ChibiOS/os/rt/include/chsystypes.h"
 1000              		.file 8 "/home/makkmarci/workspace/CLEAN/ChibiOS/os/rt/include/chschd.h"
 1001              		.file 9 "/home/makkmarci/workspace/CLEAN/ChibiOS/os/rt/ports/ARMCMx/chcore.h"
 1002              		.file 10 "/home/makkmarci/workspace/CLEAN/ChibiOS/os/rt/ports/ARMCMx/chcore_v7m.h"
 1003              		.file 11 "/home/makkmarci/workspace/CLEAN/ChibiOS/os/rt/include/chtm.h"
 1004              		.file 12 "/home/makkmarci/workspace/CLEAN/ChibiOS/os/rt/include/chsem.h"
 1005              		.file 13 "/home/makkmarci/workspace/CLEAN/ChibiOS/os/rt/include/chmtx.h"
 1006              		.file 14 "/home/makkmarci/workspace/CLEAN/ChibiOS/os/rt/include/chmemcore.h"
 1007              		.file 15 "/home/makkmarci/workspace/CLEAN/ChibiOS/os/rt/include/chheap.h"
 1008              		.file 16 "/home/makkmarci/workspace/CLEAN/ChibiOS/os/rt/include/chmempools.h"
 1009              		.file 17 "/home/makkmarci/workspace/CLEAN/ChibiOS/test/rt/test.h"
 1010              		.file 18 "/home/makkmarci/workspace/CLEAN/ChibiOS/os/ext/CMSIS/include/core_cm4.h"